(lp0
S'26189518 | xanthohumol | We describe invivo and invitro evidence and proposed mechanisms of beneficial effects of several compounds on the liver, including acyclic retinoid (ACR), angiotensin-converting enzyme inhibitors (ACEIs), caffeine, capsaicin, cepharanthine (CEP), cinnamaldehyde, curcumin, diallyl sulfide (DAS), eicosapentaenoic acid (EPA), epigallocatechin-3-gallate (EGCG), genistein, lycopene, resveratrol, silymarin, sulforaphane (SFN), and xanthohumol (XN).'
p1
aS'23185345 | catechols | Furthermore, our structure-activity relationship studies show that the combination of sub-structures on the flavonoid skeleton that increase ACEI activity is made up of the following elements: (a) the catechol group in the B-ring, (b) the double bond between C2 and C3 at the C-ring, and (c) the cetone group in C4 at the C-ring.'
p2
aS'11135055 | dehydroepiandrosterone | Subjects with the ACE gene D allele (higher ACE activity) had higher serum dehydroepiandrosterone (DHEA) sulphate and DHEA than those with I/I genotype (P=0.014 and 0.018 respectively, Mann Whitney test).'
p3
aS'16770562 | nicotinic acid | The following medication should be preferred in context of the metabolic syndrome: oral antidiabetics such as acarbose, metformin and thiazolidinediones, antihypertensives such as ACE inhibitors and ARBs (angiotensin receptor blockers) and lipid-lowering drugs such as atorvastatin, rosuvastatin, and the modern nicotinic acid derivative Niaspan, respectively.'
p4
aS'28362352 | bromelains | This study aimed to establish the conditions for its optimum hydrolysis with bromelain to generate angiotensin I-converting enzyme (ACE)-inhibitory hydrolysates.'
p5
aS'14518968 | hydroxylamine | Solutions of 100 mL of 1% commercial pectin each with a different degree of esterification (DE), DE94, DE65, and DE25, were reacted with 100 mL of 2 M alkaline hydroxylamine (pH 12.0) at room temperature for 4 or 18 h. These pectin hydroxamic acids (PHAs; DE94T4, DE94T18, DE65T4, and DE25T4) were used to test the inhibitory activities against semicarbazide-sensitive amine oxidase (SSAO) and angiotensin-converting enzyme (ACE).'
p6
aS'26514100 | wheat gluten | Ultrasound pretreatment of wheat gluten (WG) before enzymolysis can improve the angiotensin converting enzyme (ACE) inhibitory activity of the hydrolysates by alerting the structure of substrate proteins.'
p7
aS'16330143 | procyanidin | Previously we demonstrated that the flavanol epicatechin and its related oligomers, the procyanidins, inhibit angiotensin I converting enzyme (ACE) activity in vitro.'
p8
aS'16330143 | procyanidin | The quenching of ACE tryptophan fluorescence was assayed to evaluate the molecular interaction between ACE and procyanidins.'
p9
aS'16330143 | procyanidin | In summary, the inhibitory effect of procyanidins on ACE and the extent of this inhibition were largely dependent on procyanidin structure.'
p10
aS'16330143 | procyanidin | ACE inhibition by procyanidins in vivo might provide a mechanism to explain the benefits of flavonoid consumption on cardiovascular diseases.'
p11
aS'14675780 | procyanidin | It was determined that flavan-3-ols and procyanidins have an inhibitory effect on angiotensin I converting enzyme (ACE) activity, and the effect was dependent on the number of epicatechin units forming the procyanidin.'
p12
aS'14675780 | procyanidin | As ACE is a membrane protein, the interaction of flavanols and procyanidins with the enzyme could be related to the number of hydroxyl groups on the procyanidins, which determine their capacity to be adsorbed on the membrane surface.'
p13
aS'16390204 | procyanidin | When ACE activity was assayed in rat kidney membranes in the presence of chocolate extracts or purified procyanidins, it was observed that the inhibition depended on the chocolate content of flavanols and the number of flavanol units constituting the procyanidin.'
p14
aS'1409988 | procyanidin | Among the various condensed tannins tested, procyanidin B-5 3,3\'-di-O-gallate and procyanidin C-1 3,3\',3"-tri-O-gallate strongly inhibited the activity of ACE.'
p15
aS"1409988 | procyanidin | The concentration of procyanidin B-5 3,3'-di-O-gallate required for 50% inhibition of ACE was 1.3 X 10(-6) M. The inhibition of ACE by condensed tannins was reversible and non-competitive, according to dialysis and to Dixon plots."
p16
aS'24128446 | chickpea | The objective of this investigation was to compare the angiotensin converting enzyme (ACE)-inhibitory activity of the hydrolysates obtained by pepsin digestion of proteins of some legumes, such as chickpea, common bean, lentil, lupin, pea, and soybean, by using the same experimental procedure.'
p17
aS'25643994 | chickpea | The present study aimed to characterize and investigate the functional and angiotensin-I converting enzyme (ACE) inhibition activities of chickpea water-soluble polysaccharides (CPWSP).'
p18
aS'7915656 | blue crab | Angiotensin-converting enzyme-like activity (ACELA) was determined in tissue homogenates of the blue crab, Callinectes sapidus, using the synthetic substrate hippuryl-histidyl-leucine (Hip-His-Leu) and the specific inhibitor, captopril.'
p19
aS'22198555 | ellagic acid | The list of these therapeutic agents include NO donors, statins, angiotensin-converting enzyme inhibitors, calcium channel blockers, phosphodiesterase-3 inhibitors, aspirin, dipyridamole and ellagic acid.'
p20
aS'23216435 | cucurbita | The aim of this study was to (i) examine how enzymatic hydrolysis with a non-commercially available proteinase of fig-leaf gourd fruit (Cucurbita ficifolia) increased the use value of egg white protein preparations, generated as byproducts in the industrial process of lysozyme and cystatin isolation from egg white, and (ii) evaluate the inhibition of angiotensin I-converting enzyme (ACE) by the obtained hydrolysates.'
p21
aS'21860877 | hydrogen carbonate | The study instrument was a self-administered questionnaire to investigate their age group, specialty, workplace, existence of a dialysis center at workplace, and their prescription frequencies (high, moderate, low, very low) of the following agents--calcium (Ca) inhibitors, angiotensin-converting enzyme inhibitors (ACEIs), angiotensin II receptor antagonist (ARBs), statins, anti-platelet agents, erythropoietin (Epo), AST-120, vitamin D, and sodium hydrogen carbonate (NaHCO(3)).'
p22
aS'18697396 | ampicillin | With concomitant ACE inhibitors as reference, adjusted odds ratios (ORs) for any bleeding events within 14 days were 1.47 (95% confidence interval [CI] = 1.08-1.88), 1.24 (95% CI = 0.97-1.57), and 2.74 (95% CI = 2.53-3.03), for warfarin plus ampicillin, oseltamivir, and TMP-SMX, respectively.'
p23
aS'19624990 | ampicillin | Cohort members were Medicare Parts A, B, and D beneficiaries from June 30, 2006 to October 31, 2010 receiving warfarin for at least 1 month prior to a concomitant drug of interest (oseltamivir, ampicillin, trimethoprim-sulfamethoxazole (TMP-SMX), and angiotensin-converting enzyme (ACE) inhibitors).'
p24
aS'19720379 | 1-octanol | Angiotensin 1, angiotensin 2, and angiotensin 3 migrated from 500 microL of diluted plasma, through a thin layer of 1-octanol and 8% di-(2-ethylhexyl) phosphate immobilized as a supported liquid membrane (SLM) in the pores of a porous hollow fiber, and into a 25 microL aqueous acceptor solution present inside the lumen of the fiber.'
p25
aS'3004512 | l-alanine | To investigate conformations of peptide inhibitors of the angiotensin-converting enzyme in the enzyme-inhibitor complex, the synthesis, studies of inhibitory activity, and conformational calculations of analogues of bradykinin-potentiating peptides with N-methylalanine or D-alanine in place of L-proline or L-alanine residues have been carried out.'
p26
aS'8768706 | l-alanine | S21402 (RB105) {N-[2S,3R-(2-mercaptom-ethyl-1-oxo-3-phenylbutyl) L-alanine]} is a dual inhibitor that inhibits both neutral endopeptidase (Ki = 1.7 +/- 0.3 nM) and angiotensin-converting enzyme (Ki = 4.2 +/- 0.5 nM).'
p27
aS'16817900 | acetoin | The enzyme is specific for NAD(H), and maximal specific activities were detected with L-threonine (10.3 U x mg(-1)) and acetoin (3.9 U x mg(-1)) in the oxidative and reductive reactions, respectively.'
p28
aS'15080651 | l-glutamic acid | Two monohydroxamates of l-aspartic acid beta-hydroxamate (AAH) and l-glutamic acid gamma-hydroxamate (GAH) were used for testing antioxidant and angiotensin converting enzyme (ACE) inhibitory activities in comparison with those of asparagine and glutamine, respectively.'
p29
aS'3033368 | procyanidin c | Among the various condensed tannins tested, procyanidin B-5 3,3\'-di-O-gallate and procyanidin C-1 3,3\',3"-tri-O-gallate strongly inhibited the activity of ACE.'
p30
aS'12951484 | butein | In the present study, the hypotensive effect of butein and its possible mechanism, especially an angiotensin converting enzyme (ACE) inhibitory effect, were investigated.'
p31
aS'12951484 | butein | The plasma ACE activities were significantly inhibited by the addition of butein in a dose-dependent manner, the IC(50) value of which was 198 microg/ml (730 microM).'
p32
aS'12951484 | butein | Moreover, angiotensin I-induced contraction was markedly attenuated by prior exposure of endothelium-intact aortic rings to butein, but angiotensin II-induced contraction was not altered.'
p33
aS'12951484 | butein | These results suggest that butein has a hypotensive effect, at least in part, via the inhibition of angiotensin converting enzyme.'
p34
aS'19441816 | malvidin | The main anthocyanidins combined in myrtillin chloride and separately in cyanidin, delphinidin, and malvidin, respectively, were examined concerning their effects on ACE.'
p35
aS'19886677 | peanut | Peanut hydrolysate obtained after 6 h of digestion by Alcalase was used to isolate angiotensin I converting enzyme (ACE) inhibitory peptides.'
p36
aS'25347076 | peanut | Although a number of bioactive peptides are capable of angiotensin I-converting enzyme (ACE) inhibitory effects, little is known regarding the mechanism of peanut peptides using molecular simulation.'
p37
aS'25347076 | peanut | The aim of this study was to obtain ACE inhibiting peptide from peanut protein and provide insight on the molecular mechanism of its ACE inhibiting action.'
p38
aS'25347076 | peanut | Peanut peptides having ACE inhibitory activity were isolated through enzymatic hydrolysis and ultrafiltration.'
p39
aS'25347076 | peanut | Further chromatographic fractionation was conducted to isolate a more potent peanut peptide and its antihypertensive activity was analyzed through in vitro ACE inhibitory tests and in vivo animal experiments.'
p40
aS'25347076 | peanut | A peanut peptide (P8) having Lys-Leu-Tyr-Met-Arg-Pro amino acid sequence was obtained which had the highest ACE inhibiting activity of 85.77% (half maximal inhibitory concentration (IC50): 0.0052 mg/ml).'
p41
aS'20214946 | peanut | The ACE inhibitory property of an enzymatic digest of arachin, the major storage globulin of peanut (Arachis hypogaea) has been demonstrated.'
p42
aS'26061663 | lima bean | In this work was assessed the fractionation by ultrafiltration of the Lima bean (Phaseolus lunatus) and Jamapa bean (Phaseolus vulgaris), protein hydrolysates obtained with Alcalase() and Flavourzyme() on ACE-I inhibitory activity.'
p43
aS'26273314 | allium cepa | We evaluated the in vitro modulatory effects of Allium cepa L. extract (AcE) and quercetin (Qt) on osteoclastogenesis under inflammatory conditions (LPS-induced).'
p44
aS'16769253 | walnut | In the present study, a novel angiotensin I-converting enzyme (ACE)-inhibitory peptide, P-2a2, was purified to homogeneity from walnut protein hydrolysate by ultrafiltration, consecutive column chromatography, and high-performance liquid chromatography.'
p45
aS'23185345 | luteolin | In both cases, the highest ACEI activity was obtained for luteolin.'
p46
aS'17875387 | allium sativum | The aim of the present study was to clarify the effect of intraperitoneal administration of aqueous garlic extract (Allium sativum) on the serum ACE activity of streptozotocin (STZ)-diabetic and nondiabetic rats.'
p47
aS'16614731 | l-tryptophan | CGS 35601 (L-tryptophan, N-[[1-[[(2S)-2-mercapto-4-methyl-1-oxopentyl]amino]-cyclopentyl]carbonyl]) is one of a few single molecules capable of inhibiting the activities of angiotensin-converting enzyme (ACE), neutral endopeptidase (NEP) and endothelin converting enzyme (ECE) simultaneously, with IC(50) values of 22, 2, and 55 nM, respectively.'
p48
aS'16614731 | l-tryptophan | Similar in vivo ACE, NEP, and ECE inhibitory activities were also observed with the orally active prodrug, CGS 37808 (L-tryptophan, N-[[1-[[(2S)-2-(acetylthio)-4-methyl-1-oxopentyl]amino]cyclopentyl]-carbonyl]-, methyl ester.'
p49
aS'18457420 | l-tryptophan | Here, cocrystal structures of human testis ACE, equivalent to the C domain, have been determined with two novel C domain-selective ketomethylene inhibitors, (5 S)-5-[( N-benzoyl)amino]-4-oxo-6-phenylhexanoyl- l-tryptophan (kAW) and (5 S)-5-[( N-benzoyl)amino]-4-oxo-6-phenylhexanoyl- l-phenylalanine (kAF).'
p50
aS'7764971 | alcoholic beverages | Angiotensin II, 0.25 mg/kg, reliably reduced intake of ethanol when it was presented alone during the 1st h of the daily 2-h drinking session, and reliably increased intake of water when it was subsequently presented alone during the 2nd h. Thus the reduction in intake of ethanol seen when the alcoholic beverage is presented concurrently with water is probably not merely due to the increase in intake of water.'
p51
aS'16390204 | kaempferol | The aim of this study was to evaluate ACE inhibitory potential of two polyphenolic compounds with different structures: resveratrol (present in high quantities in French wine) and kaempferol (abundant in greens), using method of liquid chromatography coupled with electrospray ionization mass spectrometry (LC-ESI-MS) for ex vivo measurement of angiotensin I to angiotensin II conversion by ACE in aortic tissue of Wistar-Kyoto rats.'
p52
aS'16390204 | kaempferol | Although the mechanism of ACE inhibition by kaempferol remains to be elucidated, this observation may help in search or designing of new classes of ACE inhibitors.'
p53
aS'21185932 | kaempferol | In the present study, we assessed whether the hypotensive and/or antihypertensive mechanism of hydroethanolic extract (HETM), semi-purified fraction (TMLR) obtained from T. majus and the flavonoids isoquercitrin (ISQ) and kaempferol (KPF) can be mediated by their interaction with angiotensin converting enzyme (ACE).'
p54
aS'18521593 | sauce | In this article, A. chinensis were fermented by Lactobacillus fermentum SM 605 and the fermented sauce presented high ACE inhibitory activity.'
p55
aS'15978996 | sauce | The angiotensin I converting enzyme (ACE) inhibitory activity of fermented blue mussel sauce (FBMS) was investigated.'
p56
aS'7763982 | sauce | The inhibitory activity of an angiotensin I-converting enzyme (ACE) detected in soy sauce was fractionated into two major fractions of high molecular weight (Hw) and low molecular weight (Lw) by gel filtration chromatography on Bio-gel P-2 after treating with ethanol.'
p57
aS'18160180 | sauce | In present study, we aimed to identify angiotensin I-converting enzyme (ACE)-inhibitory peptides from a salt-free soy sauce (SFS), a newly developed antihypertensive seasoning obtained by Aspergillus oryzae fermentation of soybean in the absence of salt, which can be transported through caco-2 cell monolayers.'
p58
aS'19994857 | sauce | The FSS has a 2.7-fold higher concentration of total peptides than regular soy sauce.'
p59
aS'19994857 | sauce | The angiotensin I-converting enzyme (ACE) inhibitory activity of FSS (IC(50) = 454 microg/mL) was greater than that of regular soy sauce (IC(50) = 1620 microg/mL).'
p60
aS'15787258 | sauce | Moreover, they showed angiotensin I-converting enzyme inhibitory activities and the activities were similar to those from various fermented foods such as fish sauce, sake, vinegar, cheese, miso, and natto.'
p61
aS'7613003 | sauce | Strong inhibitory activity was detected in soy sauce, fish sauce, natto, nyufu, and cheese, but not in mirin, sake, or vinegar.'
p62
aS'26273314 | allium | We evaluated the in vitro modulatory effects of Allium cepa L. extract (AcE) and quercetin (Qt) on osteoclastogenesis under inflammatory conditions (LPS-induced).'
p63
aS'26189518 | cinnamaldehyde | We describe invivo and invitro evidence and proposed mechanisms of beneficial effects of several compounds on the liver, including acyclic retinoid (ACR), angiotensin-converting enzyme inhibitors (ACEIs), caffeine, capsaicin, cepharanthine (CEP), cinnamaldehyde, curcumin, diallyl sulfide (DAS), eicosapentaenoic acid (EPA), epigallocatechin-3-gallate (EGCG), genistein, lycopene, resveratrol, silymarin, sulforaphane (SFN), and xanthohumol (XN).'
p64
aS'25213976 | coffee | Based on the assay developed, all samples such as natural colourants, infant formula, soy paste, ketchup, mayonnaise, wheat flour, orange juice, supplement drink, tea, and coffee could be accurately measured for ACE inhibition in various matrices.'
p65
aS'27423316 | l-kynurenine | The effect of the angiotensin-converting enzyme inhibitors on KYNA production was examined on rat brain cortical slices incubated for 2h in the presence of l-kynurenine and the angiotensin-converting enzyme inhibitors.'
p66
aS'9861630 | barium | The present study was undertaken to investigate the influence of captopril and enalaprilat--two different angiotensin converting enzyme (ACE) inhibitors--on experimental cardiac arrhythmias induced by barium chloride, ouabain or adrenaline.'
p67
aS'9861630 | barium | As a result of our research, we were able to establish that ACE inhibitors, when administered at a single dose, did not influence the patterns but changed the frequency and duration of barium chloride-, adrenaline- or ouabain-induced arrhythmias.'
p68
aS'2606151 | barium | In contrast, contractions induced by angiotensin II, histamine, acetylcholine, barium chloride and substance P were not potentiated.'
p69
aS'16613734 | barium | Placebo formulation containing barium sulphate in the release layer administered to human volunteers for in vivo X-ray studies showed that BFT had significantly increased the gastric residence time.'
p70
aS'9007681 | cellobiose | The accumulation of LDL and fibrinogen, labeled respectively with 125I and 131I via the adduct tyramine cellobiose ([125I]-TC-LDL and [131I]-TC-fibrinogen) was compared in aortic walls, heart, lung, skeletal muscle, liver, kidney, and adrenal gland during the final 24 h of treatment with either the angiotensin-converting enzyme (ACE) inhibitor captopril or the angiotensin II-receptor I (AT1) antagonist losartan.'
p71
aS'19501932 | vitamin k2 | The aim of this study was to elucidate the combined effect of the clinically used vitamin K(2) (VK) and angiotensin-converting enzyme inhibitor (ACE-I) on cumulative recurrence after curative treatment on a total of 87 patients, especially in consideration of neovascularization.'
p72
aS'10561812 | mevalonic acid-5p | Because, compared with captopril, simvastatin is more potent in its reduction of LVH and less potent in its inhibition of ACE activity, the mechanism of its antihypertrophic action, in addition to ACE inhibition, may involve inhibition of the mevalonic acid pathway, the main target of action of statins.'
p73
aS'20214946 | arachis hypogaea | The ACE inhibitory property of an enzymatic digest of arachin, the major storage globulin of peanut (Arachis hypogaea) has been demonstrated.'
p74
aS'25038653 | apium graveolens | The methanol extract of Apium graveolens exhibited significant ACE inhibitory activity with an IC50 value of 1.7 mg/ml, and was then subjected to an isolation procedure that resulted in identification of a pure active constituent, junipediol A 8-O--d-glucoside (1--d-glucosyloxy-2-(3-methoxy-4-hydroxyphenyl)-propane-1,3-diol) (1), which had good ACE inhibitory activity with an IC50 value of 76 g/ml.'
p75
aS'12407466 | flammulina velutipes | The ACE inhibitory effect of culture broth from Flammulina velutipes strain 414 was the highest (52.8%), followed by Lentinus edodes strains 2 (44.4%) and 16 (41.3%).'
p76
aS'9317454 | oncorhynchus | Potential targets of angiotensin activation were examined in the present experiments using perfused organs and isolated tissues from the rainbow trout Oncorhynchus mykiss.'
p77
aS'10723772 | 3,4-dihydroxyphenylacetic acid | 3,4-dihydroxyphenylacetic acid and 4-methylcatechol (urinary metabolites of flavonoids) also inhibited both APN and ACE activity, but not NEP activity.'
p78
aS'22978423 | soy milk | Isolates 1-5 were found to be producers of fermented soy milk with angiotensin I converting enzyme inhibitory activity (ACEI).'
p79
aS'23122104 | soy milk | Using the industrial protease PROTIN SD-NY10, we developed a processed soya milk (PSM) with enhanced ACE inhibitory activity.'
p80
aS'23122104 | soy milk | The ACE inhibitory activity of PSM (IC(50)=0.26 g/ml) was greater than that of regular soya milk (IC(50)=8.75 g/ml).'
p81
aS'26266546 | soy milk | We previously demonstrated that angiotensin-converting enzyme (ACE) could be inhibited by soy milk that had been fermented with the Lactobacillus plantarum strain TWK10, suggesting great potential for the development of antihypertensive products.'
p82
aS'26266546 | soy milk | In this work, the bioactive ACE inhibitors in TWK10-fermented soy milk water extracts were isolated, and a combination of uracil and glycerol (CUG) was identified as one of the ACE inhibitors.'
p83
aS'25213976 | ketchup | Based on the assay developed, all samples such as natural colourants, infant formula, soy paste, ketchup, mayonnaise, wheat flour, orange juice, supplement drink, tea, and coffee could be accurately measured for ACE inhibition in various matrices.'
p84
aS'15978996 | blue mussel | The angiotensin I converting enzyme (ACE) inhibitory activity of fermented blue mussel sauce (FBMS) was investigated.'
p85
aS'24262574 | mushrooms | Eight highly functional ACE inhibitory peptides from the mushroom, Agaricus bisporus, were identified by LC-MS/MS.'
p86
aS'24262574 | mushrooms | Compared to ACE inhibitory peptides isolated from other edible mushrooms, AHEPVK, RIGLF and PSSNK have lower IC values.'
p87
aS'12558042 | mushrooms | Although these peptides had lower ACE inhibitory activity compared to commercial antihypertensive drugs, they are derived from mushroom which could be easily obtained and should have no side effects.'
p88
aS'26938194 | mushrooms | The inhibition of angiotensin converting enzyme (ACE) activity was determined in vitro by mushroom-derived eritadenine (EA), which was analyzed in 11 principal Korean edible mushrooms.'
p89
aS'26938194 | mushrooms | These results indicate that EA was a strong competitive inhibitor for ACE, and edible mushrooms with soft caps contained a significant amount of EA.'
p90
aS'24215325 | mushrooms | Hence, the objective of the current study was to isolate and characterise ACE inhibitory peptides from an edible mushroom, Pleurotus cystidiosus.'
p91
aS'19629962 | acrylic acid | A structure-activity relationship estimation suggested that the number and the situation of the hydroxyls on the benzene rings and the acrylic acid groups may play the most predominant role in their ACE inhibitory activity.'
p92
aS'10561812 | mevalonic acid | Because, compared with captopril, simvastatin is more potent in its reduction of LVH and less potent in its inhibition of ACE activity, the mechanism of its antihypertrophic action, in addition to ACE inhibition, may involve inhibition of the mevalonic acid pathway, the main target of action of statins.'
p93
aS'18841984 | solanum tuberosum | Autolysis of protein isolates from vascular bundle and inner tuber tissues of potato (Solanum tuberosum) enhanced the inhibition of the angiotensin converting enzyme I (ACE), a biochemical factor affecting blood pressure (hypertension).'
p94
aS'23046038 | p-coumaric acid | Asp-Tyr [10 mg/day kg body weight (BW)] and BSP (50 mg/day kg BW) significantly reduced ACE activity in lung at the same level (p < 0.05), while BSP (50 mg/day kg BW) reduced systolic blood pressure (SBP) more effectively for its phenolic compounds, such as ferulic acid and p-coumaric acid, which when combined with ACE inhibitor exert a synergistic effect.'
p95
aS'8743504 | selenite | Prolonged serum depletion (6 to 8 days) with a supplement of insulin, transferrin and sodium selenite induced angiotensin II type 2 receptors and mRNA in cultured vascular smooth muscle cells from Wistar Kyoto rats.'
p96
aS'8605951 | propionylcarnitine | The primary objective was the evaluation of the effect of propionyl-L-carnitine vs placebo on maximum exercise duration using a bicycle exercise test.'
p97
aS'10075143 | propionylcarnitine | The objective of this study was to evaluate the effect of propionyl-L-carnitine on exercise capacity in mild moderate chronic heart failure patients, treated with ACE inhibitors and diuretics.'
p98
aS'23647085 | asparagus | In the present study, spontaneously hypertensive rats (SHR) were used to clarify whether green asparagus prevents hypertension by inhibition of angiotensin-converting enzyme (ACE) activity.'
p99
aS'23647085 | asparagus | In addition, ACE inhibitory activity was observed in a boiling water extract of asparagus.'
p100
aS'23647085 | asparagus | The ACE inhibitor purified and isolated from asparagus was identified as 2-hydroxynicotianamine.'
p101
aS'23647085 | asparagus | In conclusion, 2-hydroxynicotianamine in asparagus may be one of the factors inhibiting ACE activity in the kidney, thus preventing hypertension and preserving renal function.'
p102
aS'10701450 | zein | The mixture of peptides which was selectively recovered from the dextran-rich bottom phase had a higher angiotensin-converting enzyme (ACE) inhibitory activity than native zein.'
p103
aS'18496257 | thiamine | In patients with type 2 diabetes and nephropathy, high-dose benfotiamine treatment for 12 weeks in addition to ACE-Is or ARBs did not reduce UAE or KIM-1 excretion, despite improvement of thiamine status.'
p104
aS'23647018 | bamboo shoots | The enriched bamboo shoot angiotensin converting enzyme (ACE) inhibitory peptide preparation fraction (called BSP for short) was extracted with ethyl acetate and n-butanol.'
p105
aS'23647018 | bamboo shoots | Sephadex G-15 gel filtration and semipreparative high-performance liquid chromatography were used for further purification of bamboo shoot ACE inhibitory peptide from BSML.'
p106
aS'27783077 | apricot | The highest antioxidant and ACE inhibitor capacities were observed for the Prunus genus seed hydrolysates while the highest capacity to reduce micellar cholesterol solubility was observed for the apricot and olive seed hydrolysates.'
p107
aS'21756104 | artocarpus altilis | This study investigates the effect of Artocarpus altilis leaf extracts on angiotensin-converting enzyme (ACE) activity.'
p108
aS'15708660 | mung bean | Furthermore, Alcalase hydrolysates of mung bean and rice protein isolates were assessed for ACE inhibitory activity by this method.'
p109
aS'16225532 | prostaglandin e-2 | To determine the alterations in the plasma levels of endothelin-1, angiotensin II, nitric oxide (NO) and prostaglandin E(2) (PGE(2)) in the venous and cavernosal blood of patients with organic and psychogenic erectile dysfunction (ED).'
p110
aS'8078206 | ethyl icosapentate | The aims of studies include to investigate: the best therapeutic approach in patients with acute myocardial infarction who underwent thrombolytic therapy with or without any adjunctive treatment (I), the long-term comparative study (3 years) of nifedipine (extended release tablet) with ACE inhibitor in patients with essential hypertension and ischemic heart disease (B), the long-term effect (3 years) of trapidil and/or ethyl icosapentate in patients with ischemic heart disease with or without arteriosclerotic obstructive disease in terms of progression or regression of atherosclerotic changes in coronary as well as peripheral arteries (M), the efficacy and safety of pravastatin to prevent post-PTCA restenosis (S), and regression of atherosclerotic lesion of coronary arteries in patients with familial hypercholesterolemia by LDL apheresis (K).'
p111
aS'21985248 | sourdough | This study quantified antiotensin I-converting enzyme (ACE) inhibitory peptides in rye malt sourdoughs supplemented with gluten proteins and fermented with six strains of Lactobacillus spp.'
p112
aS'18627167 | sourdough | This article aimed at investigating the synthesis of angiotensin I-converting enzyme (ACE)-inhibitory peptides and gamma-aminobutyric acid (GABA) during sourdough fermentation of white wheat, wholemeal wheat, and rye flours.'
p113
aS'9581523 | oleacein | Similarly, fractionation of extracts of aerial parts of J. grandiflorum resulted in the isolation of the previously reported ACE inhibitor, oleacein.'
p114
aS'1783636 | methylparaben | The hippuric acid liberated on hydrolysis was extracted with ethyl acetate and determined by reversed-phase chromatography using methylparaben as an internal standard.'
p115
aS'12464726 | wakame | The angiotensin-I-converting enzyme (ACE) inhibitory and antihypertensive activities of wakame hydrolysates have been investigated in several studies.'
p116
aS'12358510 | wakame | Wakame (Undaria pinnatifida) was hydrolyzed using 17 kinds of proteases and the inhibitory activity of the hydrolysates for ACE was measured.'
p117
aS'15135150 | wakame | We examined the angiotensin I-converting enzyme (ACE) inhibitory activity and antihypertensive effect of the hot water extract of wakame, Undaria pinnatifida.'
p118
aS'22870131 | menatetrenone | A combination of ACE-I (perindopril; 4 mg/day) and VK (menatetrenone; 45 mg/day) was administered for 54 months following curative therapy for HCC.'
p119
aS'24023347 | tetrahydrofolate | For all studied individuals, 10 genotypes of functional polymorphisms were investigated: 5,10-methylene tetrahydrofolate reductase (MTHFR) C677T, coagulation factor V (F5) Leiden, coagulation factor II (F2, also known as prothrombin) G20210A, coagulation factor XII (F12) C46T, coagulation factor XIII A1 subunit (F13A1) Val34Leu, serpine1 (SERPINE1, also known as plasminogen activator inhibitor-1) 4G/5G, protein Z (PROZ) -A13G, angiotensin I-converting enzyme (ACE) I/D, angiotensinogen (AGT) Met325Thr, and carboxypeptidase B2 (CPB2, also known as thrombin-activatable fibrinolysis inhibitor) C1040T.'
p120
aS'22664118 | tetrahydrofolate | Real-time polymerase chain reaction (PCR) genotyping was carried out to determine the polymorphic variants of factor V Leiden 1695G/A, prothrombin 20210G/A, plasmin activator inhibitor 1 4G/5G, methylene tetrahydrofolate reductase (MTHFR) 677C/T, MTHFR 1298A/C, and angiotensin-converting enzyme (ACE) insertion/deletion (I/D) among a representative sample of healthy Saudi subjects.'
p121
aS'19923980 | tetrahydrofolate | We evaluated associations of five candidate genetic polymorphisms (methylene tetrahydrofolate reductase C677T, plasminogen activator inhibitor 4G/5G, endothelial nitric oxide synthase (eNOS) 3-27 base pair repeat, insertion, or deletion of a 287 bp Alu repeat sequence polymorhism of angiotensin I converting enzyme, and paraoxonase Gln192Arg PON1 polymorphisms) with the presence and extent of early onset CAD.'
p122
aS'10494771 | tetrahydrofolate | Factor V, prothrombin, factor XIII, beta-fibrinogen, plasminogen activator inhibitor I (PAI-1), glycoprotein IIIa, methylene tetrahydrofolate reductase, ACE and ApoB gene polymorphisms were determined by three consecutive steps: isolation and amplification of DNA and reverse hybridization.'
p123
aS'10494771 | tetrahydrofolate | In our study we did not determine a significant relationship between the aspirin resistance and factor V, prothrombin, factor XIII, beta-fibrinogen, PAI-1, glycoprotein IIIa, methylene tetrahydrofolate reductase, ACE and ApoB gene polymorphisms.'
p124
aS'26344130 | momordica charantia | In this study, new angiotensin-I converting enzyme (ACE) inhibitory peptides were comprehensively identified from a thermolysin digest of bitter melon (Momordica charantia) seed proteins.'
p125
aS'10904024 | thymine | To investigate this possibility, we identified the -58 thymine (T)/cytosine (C) polymorphism in subjects with ACE inhibitor-related cough.'
p126
aS'15927931 | l. edodes | While ACE activity was strongly inhibited by all of the soybean extracts (44-97%), only sprouting was found to increase this inhibition and bioprocessing of soybean with L. edodes decreased inhibitory activity of soybean extract.'
p127
aS'25881860 | p. vulgaris | The aim was to evaluate the angiotensin-I converting enzyme (ACE) inhibitory potential and the antioxidant capacity of pure synthesized peptides (GLTSK, LSGNK, GEGSGA, MPACGSS and MTEEY) originally identified in the non-digestible fraction (NDF) of common beans (P. vulgaris L.) that had previously demonstrated antiproliferative activity against human colorectal cancer cells.'
p128
aS'18790039 | oleuropein | However, the treatment with oleuropein gave a good protection of the myocardium by decreasing cardiac injury markers specially troponin-T, restoring hemodynamic parameters and attenuating cardiac remodeling process through inhibition of ACE activity.'
p129
aS'16500886 | lemon balm | The water extracts of rosemary, rosemary LA had the highest ACE inhibitory activity (90.5%), followed by lemon balm (81.9%) and oregano (37.4 %).'
p130
aS'16500886 | lemon balm | Lower levels of ACE inhibition were observed with ethanol extracts of oregano (18.5 %) and lemon balm (0.5 %).'
p131
aS"23875904 | zingiber officinale | Rubra) and white ginger (Zingiber officinale Roscoe) were prepared and the ability of the extracts to inhibit ACE along with Fe(2+)- and SNP-induced lipid peroxidation was determined in rat's heart in vitro."
p132
aS'24433069 | zingiber officinale | This study sought to investigate the inhibitory effect of two varieties of ginger (Zingiber officinale) commonly consumed in Nigeria on ACE activity in rats fed a high cholesterol diet.'
p133
aS'16078122 | malonyl-coa | We report a case of malonyl-CoA decarboxylase deficiency in a 5-month-old boy who presented with cardiomyopathy and hypotonia.'
p134
aS'15285118 | cu2+ | The seed had the lowest Cu2+ -induced low-density lipoprotein (LDL) oxidation percentage and inhibition level of ACE activity among all parts.'
p135
aS'15453585 | cu2+ | However, the peptide Tyr-Ala-Glu-Glu-Arg-Tyr-Pro-Ile-Leu, which was a strong ACE inhibitor (50% inhibitory concentration, 4.7 microM) also exhibited a high radical scavenging activity (oxygen radical absorbance capacity-fluorescein value, 3.8 micromol of Trolox equivalent per micromol of peptide) and delayed the low-density lipoprotein lipid oxidation induced by Cu2+ at a concentration of approximately 0.16 mg/mg of low-density lipoprotein.'
p136
aS'16352398 | carbamate | Pre-exposure of mosquitoes to PBO, an inhibitor of MFOs and NSEs, significantly increased mortality rates to pyrethroids and carbamates in mosquitoes but resistance in most cases was not fully synergised by PBO, inferring a residual role of additional mechanisms, including kdr and ace-1 site insensitivity.'
p137
aS'26433888 | lentils | The effect of elicitation on the protein profile and antioxidant and angiotensin I converting enzyme (ACE) inhibitory activities of sprouted lentils was also evaluated.'
p138
aS'26433888 | lentils | All elicited lentil sprouts showed ability to inhibit ACE activity (IC50: 9.5-11.9 g peptides/mL).'
p139
aS'26106051 | n-methylanthranilic acid | In the present study, we synthesized various internally quenched fluorogenic (IQF) substrates (fluorophore-Xaa-Pro-quencher) based on the cleavage site of angiotensin II introducing N-terminal fluorophore N-methylanthranilic acid (Nma) and C-terminal quencher N()-2,4- dinitrophenyl-lysine [Lys(Dnp)].'
p140
aS'16330143 | epicatechin | Previously we demonstrated that the flavanol epicatechin and its related oligomers, the procyanidins, inhibit angiotensin I converting enzyme (ACE) activity in vitro.'
p141
aS'16330143 | epicatechin | In this study, we further characterized epicatechin monomer, dimer, tetramer and hexamer ACE inhibitory effect, by performing fluorescence quenching and kinetic assays, using angiotensin I as substrate.'
p142
aS'14675780 | epicatechin | It was determined that flavan-3-ols and procyanidins have an inhibitory effect on angiotensin I converting enzyme (ACE) activity, and the effect was dependent on the number of epicatechin units forming the procyanidin.'
p143
aS'16500886 | lemon | The water extracts of rosemary, rosemary LA had the highest ACE inhibitory activity (90.5%), followed by lemon balm (81.9%) and oregano (37.4 %).'
p144
aS'16500886 | lemon | Lower levels of ACE inhibition were observed with ethanol extracts of oregano (18.5 %) and lemon balm (0.5 %).'
p145
aS'23754616 | trigonelline | The aim of this study was to search the effect of trigonelline (Trig) on DPP-4, -glucosidase and angiotensin converting enzyme (ACE) activities as well as -cells architecture, and starch and glucose tolerance test.'
p146
aS'19646044 | amaranthin | The present study is aimed at characterizing and evaluating the activity of the angiotensin converting enzyme inhibitor of the amaranth protein concentrate and of hydrolysates produced with Alcalase.'
p147
aS'19646044 | amaranthin | These results highlight the angiotensin converting enzyme-inhibitory potential of amaranth proteins, which is an indication of their health-promoting potential.'
p148
aS'16717411 | sesame | Sesame peptide powder (SPP) exhibited angiotensin I-converting enzyme (ACE) inhibitory activity, and significantly and temporarily decreased the systolic blood pressure (SBP) in spontaneously hypertensive rats (SHRs) by a single administration (1 and 10 mg/kg).'
p149
aS'6161243 | sesame | The effect of SQ-20881, an inhibitor of the peptidyl dipeptidase that degrades kinins and converts angiotensin I to angiotensin II, on the urinary excretion of immunoreactive prostaglandin E2 (iPGE2) was studied in rats receiving either deoxycorticosterone (DOCA, 5 mg/day s.c.) or sesame oil vehicle for 10 days before and then during the study, DOCA-treated animals had higher urinary excretion of iPHE2 and kallikrein, and lower plasma renin, than did animals injected with oil only.'
p150
aS'16424790 | l-methionine | It was found that a single intragastric gavage by L-methionine resulted in inhibition of endothelium-dependent relaxation, markedly increased the serum level of malondialdehyde and decreased the activity of PON1 and SOD, similarly decreased the level of NO in the serum; but had no effects on endothelium-independent relaxation and angiotensin-converting enzyme activity compared with the control group.'
p151
aS'22249779 | chewing gum | The stimulation of salivary glands by mechanical means (such as chewing gum) or pharmacological agents (such as pilocarpine and angiotensin-converting-enzyme inhibitors, the latter alone or in combination with angiotensin-receptor blockers), as well as saliva substitutes, are all ineffective, or effective only in the short term.'
p152
aS'2982376 | alcohols | A new amino alcohol modification designed to mimic the putative transition-state of amide bond cleavage by proteolytic enzymes has been incorporated into the scissile bond position of N-benzoyl-Phe-Ala-Pro, a known substrate of angiotensin converting enzyme (ACE).'
p153
aS'22523004 | mangiferin | Crystallographic structures of -amylase, -glucosidase, glycogen phosphorylase (GP), pancreatic lipase, cholesterol esterase (CEase), angiotensin-I-converting enzyme (ACE), acetyl cholinesterase (AChE), and urease available on the Protein Databank database were docked to mangiferin using Gold 6.0 software.'
p154
aS'21834100 | amaranth | Some physicochemical, functional and angiotesin I-converting enzyme (ACE) inhibitory properties of amaranth vicilin were studied in this work and compared with the 11S globulin.'
p155
aS'15927181 | amaranth | The present study is aimed at characterizing and evaluating the activity of the angiotensin converting enzyme inhibitor of the amaranth protein concentrate and of hydrolysates produced with Alcalase.'
p156
aS'15927181 | amaranth | These results highlight the angiotensin converting enzyme-inhibitory potential of amaranth proteins, which is an indication of their health-promoting potential.'
p157
aS'19443002 | amaranth | In addition, the tryptic hydrolysis of amaranth proteins generates, among other peptides, angiotensin converting enzyme (ACE) inhibitory (ACEi) peptides.'
p158
aS'19443002 | amaranth | The aim of the present study was to characterize the ACEi activity of amaranth trypsin-digested glutelins (TDGs) and their ability to induce endothelial NO production.'
p159
aS'14609094 | gliadin | Angiotensin I-converting enzyme (ACE) inhibitory peptide was isolated from wheat gliadin hydrolysate prepared with acid protease.'
p160
aS'7865491 | gliadin | Angiotensin converting enzyme (ACE) has been shown to be an important peptidasse that play a role in digestion and assimilation of protein rich in proline such as casein, gliadin and collagen.'
p161
aS'26948626 | barley | Our current work utilised in silico methodologies and peptide databases as tools for predicting release of ACE-I inhibitory peptides from barley proteins.'
p162
aS"26948626 | barley | Papain was the enzyme of choice, based on in silico analysis, for experimental hydrolysis of barley protein concentrate, which was performed at the enzyme's optimum conditions (60 C, pH 6.0) for 24 h. The generated hydrolysate was subjected to molecular weight cut-off (MWCO) filtration, following which the non-ultrafiltered hydrolysate (NUFH), and the generated 3 kDa and 10 kDa MWCO filtrates were assessed for their in vitro ACE-I inhibitory activities."
p163
aS'26948626 | barley | The 3 kDa filtrate (1 mg/ml), that demonstrated highest ACE-I inhibitory activity of 70.37%, was characterised in terms of its peptidic composition using mass spectrometry and 1882 peptides derived from 61 barley proteins were identified, amongst which 15 peptides were selected for chemical synthesis based on their predicted ACE-I inhibitory properties.'
p164
aS'21985248 | barley | Bioinformatic analysis of prolamins from barley, rye, and wheat demonstrated that the ACE inhibitory peptides LQP, LLP, VPP, and IPP are frequently encrypted in their primary sequence.'
p165
aS'23882757 | beta-glucuronidase | Chitosan nanoparticles had mild tyrosinase, antioxidant and angiotensin I converting enzyme (ACE), but weak collagenase, elastase and beta-glucuronidase inhibitory activity.'
p166
aS'19459727 | physalis | Water and 12% ethanol extracts of native Peruvian fruits such as Lucuma (Pouteria lucuma), Pacae (Inga feuille), Papayita arequipea (Carica pubescens), Capuli (Prunus capuli), Aguaymanto (Physalis peruviana), and Algarrobo (Prosopis pallida) were evaluated for total phenolics, antioxidant activity based on 2, 2-diphenyl-1-picrylhydrazyl radical scavenging assay, and functionality such as in vitro inhibition of alpha-amylase, alpha-glucosidase, and angiotensin I-converting enzyme (ACE) relevant for potential management of hyperglycemia and hypertension linked to type 2 diabetes.'
p167
aS'18598177 | physalis | The plants that showed ACE inhibitory activity were Amaranthus dubius, Amaranthus hybridus, Asystasia gangetica, Galinsoga parviflora, Justicia flava, Oxygonum sinuatum, Physalis viscosa, and Tulbaghia violacea.'
p168
aS'12407466 | f. velutipes | Nutritional requirements for the production of ACE inhibitory substance from F. velutipes were studied.'
p169
aS'22872589 | delphinidin | In this study, we demonstrate that delphinidin, cyanin, and quercetin interrupt the renin-angiotensin system signaling pathway by inhibiting the angiotensin-converting enzyme activity and decreasing its mRNA production.'
p170
aS'22872589 | delphinidin | However, delphinidin, cyanin, and quercetin did not act as the angiotensin II type 1 receptor antagonist and did not play roles in the regulation of its internalization.'
p171
aS'17977703 | methyl rosmarinate | Bioassay-guided isolation of this extract yielded ethyl caffeate (1), rosmarinic acid (2) and methyl rosmarinate (3), which inhibited ACE activity by 32.42%, 55.19% and 39.50% respectively, at the concentration of 10 microg/ml.'
p172
aS'12358510 | undaria pinnatifida | Wakame (Undaria pinnatifida) was hydrolyzed using 17 kinds of proteases and the inhibitory activity of the hydrolysates for ACE was measured.'
p173
aS'15135150 | undaria pinnatifida | We examined the angiotensin I-converting enzyme (ACE) inhibitory activity and antihypertensive effect of the hot water extract of wakame, Undaria pinnatifida.'
p174
aS'16116292 | d-mannitol | D-Mannitol, one of the main phytochemicals of the edible Tamogi-take mushroom (Pleurotus cornucopiae), was found to inhibit an angiotensin I converting enzyme (ACE).'
p175
aS'26019516 | ginsenoside rb1 | ACE inhibition assay was performed on FXST capsule, 50% ethanol extracts from the four herbals and three selected saponins most abundant in P. notoginseng (Ginsenoside Rg1, Ginsenoside Rb1 and Notoginsenoside R1) using a biochemical test.'
p176
aS'26019516 | notoginsenoside d | ACE inhibition assay was performed on FXST capsule, 50% ethanol extracts from the four herbals and three selected saponins most abundant in P. notoginseng (Ginsenoside Rg1, Ginsenoside Rb1 and Notoginsenoside R1) using a biochemical test.'
p177
aS'17510605 | oleic acid | The objective was to study the effects of ACE inhibition with captopril on severe lung injury induced by oleic acid (OA) in rats.'
p178
aS'11763476 | oleic acid | So, it indicated that high-dose of oleic acid could only induce mild lung injury, and the development of ARDS was obviously inhibited by ACEI.'
p179
aS'26019516 | notoginsenoside a | ACE inhibition assay was performed on FXST capsule, 50% ethanol extracts from the four herbals and three selected saponins most abundant in P. notoginseng (Ginsenoside Rg1, Ginsenoside Rb1 and Notoginsenoside R1) using a biochemical test.'
p180
aS"27834876 | sinensetin | This study aims to evaluate the in vitro angiotensin-converting enzyme (ACE) inhibition activity of different extracts of Orthosiphon stamineus (OS) leaves and their main flavonoids, namely rosmarinic acid (RA), sinensetin (SIN), eupatorin (EUP) and 3'-hydroxy-5,6,7,4'-tetramethoxyflavone (TMF)."
p181
aS'15080651 | l-aspartic acid | Two monohydroxamates of l-aspartic acid beta-hydroxamate (AAH) and l-glutamic acid gamma-hydroxamate (GAH) were used for testing antioxidant and angiotensin converting enzyme (ACE) inhibitory activities in comparison with those of asparagine and glutamine, respectively.'
p182
aS'26019516 | notoginsenoside i | ACE inhibition assay was performed on FXST capsule, 50% ethanol extracts from the four herbals and three selected saponins most abundant in P. notoginseng (Ginsenoside Rg1, Ginsenoside Rb1 and Notoginsenoside R1) using a biochemical test.'
p183
aS'15051739 | prostaglandin e-1 | Therapies that have been studied include saline hydration, N-acetylcysteine (NAC), theophylline, calcium channel blockers, diuretics, dopamine, endothelin receptor antagonists, atrial natriuretic peptide, angiotensin-converting enzyme inhibitors, and prostaglandin E-1.'
p184
aS'21912486 | prostaglandin e-1 | Agents which have been shown to be ineffective or harmful, or for which data supporting routine use do not exist, include fenoldopam, theophylline, dopamine, calcium channel blockers, prostaglandin E(1), atrial natriuretic peptide, statins, and angiotensin-converting enzyme inhibitors.'
p185
aS'26600645 | hibiscus sabdariffa | The present study investigated the effects of aqueous extract of Hibiscus sabdariffa (HS) on the three basic components of renin-angiotensin-aldosterone system: Plasma renin, serum angiotensin-converting enzyme (ACE), and plasma aldosterone (PA) in mild to moderate essential hypertensive Nigerians and compared with that of lisinopril, an ACE inhibitor.'
p186
aS'2986596 | boron | A series of tetrahedral oxo acids of Group VA and VIA elements and of silicon and boron were examined as inhibitors of angiotensin-converting enzyme.'
p187
aS'27422785 | pasta | Control pasta had the lowest ACEI activity or TEAC (22.010.76% or 14.141.28mol Trolox/g, respectively).'
p188
aS'27422785 | pasta | Higher activity remained in pasta with PLH than VUH after extrusion, and higher the level of addition, higher the ACEI was.'
p189
aS'27422785 | pasta | Pasta had practically the same ACEI activity after cooking, thus active compounds were not lost by temperature or lixiviation.'
p190
aS'28733880 | asiatic acid | This effect may involve one or both of the following mechanisms: the direct effect of asiatic acid on RAS activation, oxidative stress and inflammation, and/or asiatic acid acting as an ACE inhibitor agent to inhibit the Ang II-AT1R-NADPH oxidase-NF-B pathway.'
p191
aS"27834876 | eupatorin | This study aims to evaluate the in vitro angiotensin-converting enzyme (ACE) inhibition activity of different extracts of Orthosiphon stamineus (OS) leaves and their main flavonoids, namely rosmarinic acid (RA), sinensetin (SIN), eupatorin (EUP) and 3'-hydroxy-5,6,7,4'-tetramethoxyflavone (TMF)."
p192
aS'20218606 | flaxseed | Thermoase-digested flaxseed protein hydrolysate (FPH) samples and ultrafiltration membrane-separated peptide fractions were initially evaluated for in vitro inhibition of angiotensin I-converting enzyme (ACE) and renin activities.'
p193
aS'16220007 | oxaloacetate | ACE inhibition by captopril reverted the L-NAME-induced hypertrophy and inhibited the enzymatic indices of cardiac damage (glutamate oxaloacetate transaminase and lactate dehydrogenase) back to normal values.'
p194
aS'19459727 | prunus | Water and 12% ethanol extracts of native Peruvian fruits such as Lucuma (Pouteria lucuma), Pacae (Inga feuille), Papayita arequipea (Carica pubescens), Capuli (Prunus capuli), Aguaymanto (Physalis peruviana), and Algarrobo (Prosopis pallida) were evaluated for total phenolics, antioxidant activity based on 2, 2-diphenyl-1-picrylhydrazyl radical scavenging assay, and functionality such as in vitro inhibition of alpha-amylase, alpha-glucosidase, and angiotensin I-converting enzyme (ACE) relevant for potential management of hyperglycemia and hypertension linked to type 2 diabetes.'
p195
aS'27783077 | prunus | The highest antioxidant and ACE inhibitor capacities were observed for the Prunus genus seed hydrolysates while the highest capacity to reduce micellar cholesterol solubility was observed for the apricot and olive seed hydrolysates.'
p196
aS'15056886 | vinegar | Vinegar and acetic acid decreased blood pressure in SHRs on weeks 6 and 8, and nifedipine + vinegar had a better effect on blood pressure control than vinegar or nifedipine alone.'
p197
aS'15056886 | vinegar | Vinegar and acetic acid could decrease serum renin and angiotensin-converting enzyme (ACE) activities, angiotensin II and aldosterone concentrations in SHRs.'
p198
aS'15056886 | vinegar | Vinegar and acetic acid also increased AMP/ATP ratios and expression levels of pAMPK, PPAR coactivator-1 (PGC-1), and PPAR while inhibited angiotensin II type 1 receptor (AT1R) expression in SHRs.'
p199
aS'15787258 | vinegar | Male spontaneously hypertensive rats (SHRs) were assigned to vinegar, acetic acid, nifedipine, nifedipine + vinegar, or distilled water by oral gavage for 8 weeks.'
p200
aS'7613003 | vinegar | Acetic acid is responsible for the antihypertensive effects of vinegar.'
p201
aS'18522404 | strawberry | Fruits of seven fully ripened strawberry cultivars grown in Brazil (Dover, Camp Dover, Camarosa, Sweet Charlie, Toyonoka, Oso Grande, and Piedade) were evaluated for total phenolics, antioxidant activity based on DPPH radical scavenging assay, and functionality such as inhibition of alpha-amylase, alpha-glucosidase, and angiotensin I-converting enzyme (ACE) relevant for potentially managing hyperglycemia and hypertension.'
p202
aS'20626254 | strawberry | The strawberry extract had lower efficacy in inhibiting the cell proliferation, indicating that in the case of this fruit there is no synergism.'
p203
aS'16968071 | sunflower | The derivative prepared using pure ACE was used for purification of ACE inhibitory peptides from the same type of sunflower protein hydrolysate.'
p204
aS'15053531 | sunflower | Sunflower protein isolates and the proteases pepsin and pancreatin were used for the production of protein hydrolysates that inhibit angiotensin-I converting enzyme (ACE).'
p205
aS'15053531 | sunflower | These results show that sunflower seed proteins are a potential source of ACE inhibitory peptides when hydrolyzed with pepsin and pancreatin.'
p206
aS'11337276 | hydantoin | To avoid the lengthy chemical synthesis of the ketoacid 3, a second route was developed to prepare the ketoacid by treatment of racemic 6-hydroxy norleucine [readily available from hydrolysis of 5-(4-hydroxybutyl) hydantoin 4] with D-amino acid oxidase from porcine kidney or Trigonopsis variabilis followed by reductive amination to convert the mixture completely to L-6-hydroxynorleucine in 98% yield and 99% enantiomeric excess (e.e.).'
p207
aS'21420289 | artemetin | In the present study, we used anesthetized rats to assess the hypotensive effect of a hydroethanolic extract (HEAM), and its dichloromethane (DCM), ethyl acetate (EA), butanolic (BT), and dichloromethane-2 (DCM-2) fractions, besides the flavonoid artemetin, isolated from A. millefolium.'
p208
aS'21420289 | artemetin | Intravenous injection of artemetin (0.75 mg/kg) significantly reduced the hypertensive response to angiotensin I while increased the average length of bradykinin-induced hypotension.'
p209
aS'21420289 | artemetin | On the other hand, artemetin did not change angiotensin II-induced hypertension.'
p210
aS'21420289 | artemetin | In addition, our results disclosed that this effect may be, at least in part, associated with high levels of artemetin and its ability to decrease angiotensin II generation in vivo, by ACE inhibition.'
p211
aS'7915656 | callinectes sapidus | Angiotensin-converting enzyme-like activity (ACELA) was determined in tissue homogenates of the blue crab, Callinectes sapidus, using the synthetic substrate hippuryl-histidyl-leucine (Hip-His-Leu) and the specific inhibitor, captopril.'
p212
aS'19441816 | vaccinium myrtillus | This study investigates if the connection between Vaccinium myrtillus and angiotensin-converting enzyme (ACE) might be an explanation of the pharmacological effects on circulation.'
p213
aS'27943628 | spathulenol | In silico evaluation of ACE inhibitory activity of the individual components showed that spathulenol exhibited the best binding affinity with ACE, and the lowest binding energy of -7.5kcal/mol.'
p214
aS'9641545 | diethylamine | A biochemical study was performed in order to analyse the effect of the NO-donors, SIN-1 and diethylamine/NO (DEA/NO), and of an aqueous solution of nitric oxide on the ACE activity in plasma from 3-month old male Sprague-Dawley rats and on ACE purified from rabbit lung.'
p215
aS'21834100 | amaranthus | Some physicochemical, functional and angiotesin I-converting enzyme (ACE) inhibitory properties of amaranth vicilin were studied in this work and compared with the 11S globulin.'
p216
aS'19443002 | amaranthus | In addition, the tryptic hydrolysis of amaranth proteins generates, among other peptides, angiotensin converting enzyme (ACE) inhibitory (ACEi) peptides.'
p217
aS'19443002 | amaranthus | The aim of the present study was to characterize the ACEi activity of amaranth trypsin-digested glutelins (TDGs) and their ability to induce endothelial NO production.'
p218
aS'18598177 | amaranthus | The present study is aimed at characterizing and evaluating the activity of the angiotensin converting enzyme inhibitor of the amaranth protein concentrate and of hydrolysates produced with Alcalase.'
p219
aS'18598177 | amaranthus | These results highlight the angiotensin converting enzyme-inhibitory potential of amaranth proteins, which is an indication of their health-promoting potential.'
p220
aS'26189518 | sulforaphane | We describe invivo and invitro evidence and proposed mechanisms of beneficial effects of several compounds on the liver, including acyclic retinoid (ACR), angiotensin-converting enzyme inhibitors (ACEIs), caffeine, capsaicin, cepharanthine (CEP), cinnamaldehyde, curcumin, diallyl sulfide (DAS), eicosapentaenoic acid (EPA), epigallocatechin-3-gallate (EGCG), genistein, lycopene, resveratrol, silymarin, sulforaphane (SFN), and xanthohumol (XN).'
p221
aS'8621209 | 12-hete | Acute blood pressure reduction attained during lipoxygenase inhibition but not by angiotensin converting enzyme inhibition leads to a concomitant reduction in the production of platelet 12-HETE.'
p222
aS'17706416 | eggplant | Results from this study indicate that phenolic-enriched extracts of eggplant with moderate free radical scavenging-linked antioxidant activity had high alpha-glucosidase inhibitory activity and in specific cases moderate to high angiotensin I-converting enzyme (ACE) inhibitory activity.'
p223
aS'21591327 | rhein | Rhein and angiotensin-converting enzyme inhibitor (ACEI) have been reported to prevent the progression of diabetic nephropathy (DN).'
p224
aS'21591327 | rhein | We further explore the unknown ability to induce renal-protection of rhein and ACEI combined therapy in DN compared with the therapeutic effects of single treatment of them by using db/db mouse of type 2 diabetes model.'
p225
aS'8752311 | cesium | During the simultaneous infusion of captopril and angiotensin II (0.1 ng/kg/min), cesium produced sustained ventricular tachycardia in all six dogs and the arrhythmia developed into ventricular fibrillation in three dogs.'
p226
aS'9687829 | cesium | After the infusion of only captopril, in the captopril-treated group, angiotensin II was simultaneously infused at a dose of 0.1 ng/kg/min, and cesium was injected as above.'
p227
aS'9687829 | cesium | The remaining six dogs were simultaneously infused with captopril (15 microg/kg/min), angiotensin II (1.0 ng/kg/min), and U-73122 (10 microg/kg/min), a selective phospholipase C blocker, and injected with cesium (1.0 mmol/kg).'
p228
aS'24433069 | z. officinale | The inhibition of ACE activity of two varieties of ginger (Z. officinale) was investigated in a high cholesterol (2%) diet fed to rats for 3 days.'
p229
aS'11498515 | quinoline | This method is based on the reaction of HA with p-dimethylaminobenzaldehyde in the presence of quinoline, acetate, and acetic anhydride.'
p230
aS'26116781 | cynara cardunculus | This study aimed to validate the antihypertensive activity of the angiotensin-converting enzyme (ACE)-inhibitor whey protein hydrolysate (WPH) obtained through the action of proteolytic enzymes from Cynara Cardunculus.'
p231
aS'19619856 | miso | In this study, casein miso paste was prepared by adding casein at various concentrations during miso paste fermentation in order to release angiotensin-I converting enzyme (ACE) inhibitory peptides.'
p232
aS'19619856 | miso | Increase of peptide concentration and ACE inhibitory activity in casein miso paste was observed and corresponded to the degradation of casein and soy bean proteins during fermentation for 7 days.'
p233
aS'19619856 | miso | ACE inhibitory activity of the casein miso paste was higher than that of the general (casein-free) miso paste after fermentation for 7 days.'
p234
aS'19619856 | miso | The levels of ACE inhibitory peptides, Val-Pro-Pro and Ile-Pro-Pro, were increased in the casein miso paste during the fermentation.'
p235
aS'15787258 | miso | Moreover, they showed angiotensin I-converting enzyme inhibitory activities and the activities were similar to those from various fermented foods such as fish sauce, sake, vinegar, cheese, miso, and natto.'
p236
aS'16786999 | glycinin | ACE inhibitory properties of different enzymatic hydrolysates of glycinin, the major storage protein of soybean, have been demonstrated.'
p237
aS'22095883 | camellia sinensis | The focus of this study was to investigate Angiotensin Converting Enzyme (ACE) inhibiting activity across 34 teas (Camellia sinensis) produced by 5 different processing methods including green (GT), oolong (OT), white (WT), black (BT) and dark (DT) teas.'
p238
aS'22980808 | apple | The present study investigated the ACE inhibitory property of a flavonoid-rich apple peel extract (FAE), its constituents, selected flavonoids and some quercetin metabolites using a biochemical assay of ACE inhibition and a human umbilical vein endothelial cell (HUVEC) model.'
p239
aS'22174750 | crassostrea gigas | In silico analysis of an oyster (Crassostrea gigas) EST library suggested the presence of an ACE orthologue in molluscs.'
p240
aS'22174750 | crassostrea gigas | Our study demonstrates that a transmembrane active ACE is present in the oyster Crassostrea gigas, and for the first time ascribes a functional role for ACE in Lophotrochozoans.'
p241
aS'23194770 | olea europaea | The aqueous extract of the leaves of Olea europaea and Olea lancea both inhibited Angiotensin Converting Enzyme (ACE) in vitro.'
p242
aS'9178346 | mytilus edulis | A soluble 65582.9 Da (in MALDI-TOF) angiotensin converting (ACE)-like enzyme has been purified by a captopril-Sepharose affinity column chromatography from the mollusk Mytilus edulis.'
p243
aS'8357348 | coconut | This study investigates the endothelial preservation properties of the angiotensin converting enzyme inhibitor, ramipril, by assessing its ability to restore endothelium-dependent responsiveness in blood vessels from rabbits fed an atherogenic diet (0.25% cholesterol; 3% coconut oil; 12 weeks).'
p244
aS'12903942 | rubisco | Four new inhibitory peptides for angiotensin I-converting enzyme (ACE), that is, MRWRD, MRW, LRIPVA, and IAYKPAG, were isolated from the pepsin-pancreatin digest of spinach Rubisco with the use of HPLC.'
p245
aS'24878382 | sodium nitrite | Because NO inhibits angiotensin converting enzyme (ACE) activity, we carried a comprehensive series of experiments in rats to test the hypothesis that sodium nitrite exerts antihypertensive effects by inhibiting ACE.'
p246
aS'24878382 | sodium nitrite | We examined whether sodium nitrite (15 mg/kg; or vehicle; by gavage): (I) attenuates the pressor responses to angiotensin I at doses of 0.03, 0.1, 0.3, 1, 3, and 10 g/kg intravenously; (II) attenuates the acute hypertension induced by L-NAME (100 mg/kg; or vehicle; by gavage); (III) attenuates the chronic hypertension induced by L-NAME (1 g/L in drinking water; or vehicle) administered for 6 weeks; (IV) attenuates the hypertension in the 2 kidney-1 clip (2K1C) chronic hypertension model.'
p247
aS'24878382 | sodium nitrite | The in vitro effects of sodium nitrite (0, 1, 3, 10, 30, 100 mol/L) on plasma ACE activity were also determined.'
p248
aS'24878382 | sodium nitrite | We found that sodium nitrite did not affect the pressor responses to angiotensin I.'
p249
aS'24878382 | sodium nitrite | Moreover, while sodium nitrite exerted significant antihypertensive effects in acute and chronic hypertension models, no significant effects on plasma ACE activity were found.'
p250
aS'24878382 | sodium nitrite | In vitro experiments showed no effects of sodium nitrite on plasma ACE activity.'
p251
aS'24878382 | sodium nitrite | This is the first study to demonstrate that the acute and chronic antihypertensive effects of sodium nitrite are not associated with significant inhibition of circulating ACE activity.'
p252
aS'22762370 | lettuce | By far the highest ACE inhibition was found for a lettuce extract, in which the most active compound was located by means of activity-guided fractionation.'
p253
aS'6389826 | pyrrole | A pseudo-receptor, complementary to an ACE template, was built out of small molecules, such as pyrrole, cyclopentanone and propane.'
p254
aS'1885582 | leukotriene-c4 | Enalapril dicarboxylic acid and Glu-Trp-Pro-Arg-ProGln-Ile-Pro-Pro which inhibit angiotensin-converting enzyme: angiotensin I, bradykinin, and N-[3-(2-furyl)acryloyl]Phe-Gly-Gly which are substrates; and chloride ions which activate angiotensin-converting enzyme did not modulate leukotriene A4 hydrolase/aminopeptidase activity.'
p255
aS'1885582 | leukotriene-c4 | The results indicate that: (i) the sulfhydryl group of captopril is an important determinant for inhibition of leukotriene A4 hydrolase/aminopeptidase, probably by binding to an active site Zn2+; (ii) aminopeptidase and leukotriene A4 hydrolase display differential susceptibility to inhibition; (iii) there is minimal functional similarity between angiotensin-converting enzyme (peptidyl dipeptidase) and leukotriene A4 hydrolase/aminopeptidase; (iv) captopril may be a useful prototype to identify more potent and selective leukotriene A4 hydrolase inhibitors.'
p256
aS'12708866 | l-dopa | Finally, the potential synthetic utility of the present method for the practical asymmetric synthesis of structurally diverse natural and unnatural alpha-amino acids has been demonstrated by its successful application to the facile asymmetric syntheses of (S)-N-acetylindoline-2-carboxylate, a key intermediate in the synthesis of the ACE inhibitor, and l-Dopa (l-3,4-dihydroxyphenylalanine) ester and its analogue.'
p257
aS'11294697 | l-dopa | For this purpose we monitored haemodynamic parameters, plasma levels of type B natriuretic peptide (BNP), catecholamines, aldosterone, renin activity (PRA), sodium and creatinine, and urinary excretion of sodium, creatinine, L-DOPA, dopamine and its metabolites, before initiation of sodium nitroprusside therapy and every 6 h thereafter (for 42 h), and again after 5 days of angiotensin-converting enzyme (ACE) inhibition, in 10 male patients with severe heart failure.'
p258
aS'12137589 | carbonic acid | Acetazolamide (Ace) is a putative inhibitor of carbonic anhydrase (CA), an enzyme that catalyzes the equilibration of carbon dioxide and carbonic acid and plays a key role in HCO(3)(-) and water reabsorption and acid secretion.'
p259
aS'23755406 | a. sativum | Thus, in the present study the effects of A. sativum and/or Fish Collagen (FC) on proteolysis and ACE inhibitory activity in yogurt (0, 7 and 14 day) and cheese (0, 14 and 28 day) were investigated.'
p260
aS'7763982 | nicotianamine | On the basis of the SIMS-mass spectrum, NMR spectrum and other characteristics, the purified ACE inhibitor was identified as nicotianamine (N-[N-(3-amino-3-carboxypropyl)-3-amino-3-carboxypropyl]azetidine-2- carboxylic acid).'
p261
aS'17934238 | nicotianamine | Nicotianamine (NA) is a nonprotein amino acid that inhibits the angiotensin I-converting enzyme (ACE) in the renin-angiotensin system (RAS).'
p262
aS'21897039 | nicotianamine | We searched for the functional components, and nicotianamine (NA) and 2-hydroxynicotianamine (HNA) were identified as angiotensin I-converting enzyme (ACE) inhibitors.'
p263
aS'22417592 | nicotianamine | Angiotensin I-converting enzyme (ACE) inhibitory substances (9 kinds of dipeptides and a nicotianamine) were identified from FSS.'
p264
aS'26106051 | nicotianamine | The physicochemical data on the isolated ACE2iSB were identical to those of nicotianamine.'
p265
aS'20924146 | nicotianamine | Nicotianamine (NA), which is obtained from vegetables, lowers blood pressure through the renin-angiotensin system, and we clarified that NA preferentially inhibits the activity of angiotensin I-converting enzyme (ACE)-a zinc-containing enzyme.'
p266
aS'10524357 | nicotianamine | The ACE inhibitor from Ashitaba contained in the anti-hypertensive fraction was speculated to be very similar to authentic nicotianamine based on a comparative study of inhibitory activity, mass spectrum analysis and thin-layer chromatographies.'
p267
aS'18768926 | okadaic acid | Blockade of the ANG II-mediated reduction in ACE2 mRNA and increase in MAP kinase activity by ANG-(1-7) was prevented by pretreatment with sodium vanadate, a tyrosine phosphatase inhibitor, or okadaic acid, a serine-threonine phosphatase inhibitor, suggesting that the heptapeptide activates a MAP kinase phosphatase.'
p268
aS'17352515 | alpha-lipoic acid | Medical therapies, including aldose reductase inhibitors, angiotensin-converting enzyme inhibitors, prostoglandin analogs and alpha-lipoic acid, have been found to be effective in randomized controlled trials.'
p269
aS'18393818 | piperidine | In order to determine if blocking the RAS rate-limiting step of angiotensin II generation via renin inhibition could afford similar end organ protection in a human-relevant preclinical model, this study investigated the cardiac and renal effects of a nonpeptide, piperidine renin inhibitor (RI; 100 mg/kg/day PO) in double transgenic mice (dTGM) which express both human renin and angiotensinogen genes.'
p270
aS'18180074 | spinach | Met-Arg-Trp (MRW) has been isolated as an inhibitor for angiotensin I-converting enzyme (ACE) from a pepsin-pancreatin digest of spinach ribulose bisphosphate carboxylase/oxygenase (Rubisco) (IC(50)=0.6 microM).'
p271
aS'15080624 | spinach | Pepsin and pepsin-pancreatin digests of spinach leaf protein have potent angiotensin-I converting enzyme inhibitory properties with IC(50) values of 56 and 120 microg/mL, respectively.'
p272
aS'12903942 | spinach | Four new inhibitory peptides for angiotensin I-converting enzyme (ACE), that is, MRWRD, MRW, LRIPVA, and IAYKPAG, were isolated from the pepsin-pancreatin digest of spinach Rubisco with the use of HPLC.'
p273
aS'15787258 | sake | Moreover, they showed angiotensin I-converting enzyme inhibitory activities and the activities were similar to those from various fermented foods such as fish sauce, sake, vinegar, cheese, miso, and natto.'
p274
aS'7613003 | sake | Strong inhibitory activity was detected in soy sauce, fish sauce, natto, nyufu, and cheese, but not in mirin, sake, or vinegar.'
p275
aS'7765503 | sake | Nine peptides to inhibit angiotensin I converting enzyme (ACE) were isolated from sake and sake lees.'
p276
aS'16310738 | sake | The angiotensin I-converting enzyme (ACE) inhibitory activity of sake brewed with the mutant was about 3.6-fold that of sake brewed with the parental strain.'
p277
aS'15787258 | natto | Moreover, they showed angiotensin I-converting enzyme inhibitory activities and the activities were similar to those from various fermented foods such as fish sauce, sake, vinegar, cheese, miso, and natto.'
p278
aS'7613003 | natto | Strong inhibitory activity was detected in soy sauce, fish sauce, natto, nyufu, and cheese, but not in mirin, sake, or vinegar.'
p279
aS'22453301 | natto | Inhibition of ACE by subtilisin and its degradation peptides such as LY and FY may participate in the suppression of blood pressure by ingestion of natto.'
p280
aS'14675780 | flavan-3-ol | It was determined that flavan-3-ols and procyanidins have an inhibitory effect on angiotensin I converting enzyme (ACE) activity, and the effect was dependent on the number of epicatechin units forming the procyanidin.'
p281
aS'24619242 | cuttlefish | The aim of this work was the purification and identification of the major angiotensin converting enzyme (ACE) inhibitory peptides produced by enzymatic hydrolysis of a protein concentrate recovered from a cuttlefish industrial manufacturing effluent.'
p282
aS'20583200 | cuttlefish | This paper describes some functional properties and the angiotensin I-converting enzyme (ACE)-inhibitory activity of protein hydrolysates prepared by hydrolysis of cuttlefish (Sepia officinalis) by-products with crude enzyme extract from Bacillus licheniformis NH1.'
p283
aS'25306378 | cuttlefish | This study aimed to identify novel ACE inhibitory peptides from the muscle of cuttlefish.'
p284
aS'8039085 | coumarin | Screening procedures in biosamples (whole blood, plasma, serum, urine, vitreous humor, brain, liver or hair) of humans or animals (horse, or rat) are included for the following drug classes: angiotensin-converting enzyme (ACE) inhibitors and angiotensin II (AT-II) blockers, anticoagulants of the 4-hydroxy coumarin type, barbiturates, dihydropyridine calcium channel blockers (calcium antagonists), diuretics, hypoglycemic sulfonylureas and non-steroidal anti-inflammatory drugs (NSAIDs).'
p285
aS'20564493 | coumarin | Modifiable factors such as pharmacologic exposures have received considerable attention and a number of drugs have been shown to be teratogenic including folic acid antagonists, angiotensin converting enzyme inhibitors, antidepressants, anticonvulsants, coumarin derivatives and retinoids including isotretinoin.'
p286
aS'2488972 | eugenol | The drugs used in this study were as follows: KAL as endogenous BK promoter; prostaglandins (PGs) as a material of analogous action of BK; indomethacin and mepacrine as the inhibitors of PG-synthesis; eugenol as the OH- scavenger and the PGE-synthesis potentiator; angiotensin converting enzyme inhibitor as BK potentiator B.'
p287
aS'26391896 | eugenol | However, the administration of eugenol induced a clear improvement in cardiac biomarkers injury, reduced inflammatory mediators proteins, increased heart activities of superoxide dismutase and glutathione peroxidase with reduce in thiobarbituric acid-reactive substances content and inhibition of ventricular remodeling process through inhibition of ACE activity.'
p288
aS'9987070 | opossum | We have previously reported that high levels of glucose stimulate the expression of rat angiotensinogen (ANG) gene in opossum kidney (OK) proximal tubular cells.'
p289
aS'10921771 | squalene | Three data sets related to angiotensin converting enzyme inhibition, squalene epoxidase inhibition and HIV protease inhibition were used to investigate the outcome of hypothesis optimisation.'
p290
aS'10912773 | l-glutamate | It has been suggested that nitric oxide (NO) influences the actions of L-glutamate and angiotensin II in the brain.'
p291
aS'10912773 | l-glutamate | In the present study, we examined whether cardiovascular responses to L-glutamate and angiotensin II would be altered in the rostral ventrolateral medulla (RVLM) of rats treated with an NO synthase inhibitor, NG-nitro-L-arginine methyl ester (L-NAME).'
p292
aS'10912773 | l-glutamate | L-glutamate (2 nmol/50 nl) or angiotensin 11 (100 pmol) was then microinjected into unilateral RVLM of anesthetized rats.'
p293
aS'10912773 | l-glutamate | In conclusion, NO may have an inhibitory influence on the actions of L-glutamate and angiotensin II in the RVLM.'
p294
aS'10336169 | crab | In previous work with the crab Chasmagnathus, it was reported that either exogenous angiotensin II (ANGII) or angiotensin IV (ANGIV), have an enhancing effect on long-term memory, which involves an association between context and an iterative danger stimulus (context-signal memory, CSM).'
p295
aS'18481304 | crab | Gill membranes prepared from premolt crabs showed similar levels of ACELA to those of the intermolt animals.'
p296
aS'25544039 | crab | We isolated from the anterior gill of the crab Ucides cordatus an isoform of ACE, here named crab-ACE, which presented catalytic properties closely resembling to those of mammalian ACE.'
p297
aS'7915656 | crab | Angiotensin-converting enzyme-like activity (ACELA) was determined in tissue homogenates of the blue crab, Callinectes sapidus, using the synthetic substrate hippuryl-histidyl-leucine (Hip-His-Leu) and the specific inhibitor, captopril.'
p298
aS'8924030 | crab | However, robust LTH is obtained when crabs are injected with human angiotensin (All; 50 pmol) immediately after a weak training protocol.'
p299
aS'15285118 | wax | The aims of this study were to investigate the abilities of antioxidation and inhibition of angiotensin-converting enzyme (ACE) activity of wax gourd pulp, core, seed, and peel prepared by different extraction methods.'
p300
aS'24128446 | common bean | The objective of this investigation was to compare the angiotensin converting enzyme (ACE)-inhibitory activity of the hydrolysates obtained by pepsin digestion of proteins of some legumes, such as chickpea, common bean, lentil, lupin, pea, and soybean, by using the same experimental procedure.'
p301
aS'677333 | anguilla | Synthetic angiotensins I and II (AI and AII) and natural eel angiotensin were injected with angiotensin antagonists into freshwater-adapted, unanesthetized American eels, Anguilla rostrata, in an attempt to characterize the vasopressor properties of angiotensins in a primitive vertebrate.'
p302
aS'14742834 | syrup | After controlling for pre-existing hypertension and renal disease and the use of angiotensin-converting enzyme inhibitors, a significant association was found between ingestion of prescription cough syrup and illness onset (adjusted odds ratio: 31.0, 95% confidence interval: 6.93-138).'
p303
aS'14742834 | syrup | Laboratory analyses confirmed the presence of diethylene glycol (DEG) in biological samples from case patients, 8% DEG contamination in cough syrup samples and 22% contamination in the glycerin used to prepare the cough syrup.'
p304
aS'26545668 | vigna unguiculata | Inhibition of angiotensin-converting enzyme I (ACE-I) in vitro and in vivo from peptide fractions by enzymatic hydrolysis of the Vigna unguiculata protein concentrate was evaluated.'
p305
aS'20690111 | vigna unguiculata | Se evalu la inhibicin de la enzima convertidora de angiotensina-I (ECA-I) in vitro e in vivo por fracciones peptdicas provenientes de la hidrlisis enzimatica del concentrado proteico de Vigna unguiculata; el cual fue separado en distintos pesos moleculares por ultrafiltracin.'
p306
aS'16784850 | glyoxylate | Novel analogues of the angiotensin I-converting enzyme (ACE) inhibitor keto-ACE were synthesized via a facile Horner-Emmons olefination of a phosphonoketone precursor with ethyl glyoxylate.'
p307
aS'24056722 | chestnut | All the types of honey showed some activity but chestnut honey had the highest ACE inhibitory activity.'
p308
aS'2903725 | gossypol | Gossypol proved to be a potent inhibitor of the angiotensin converting enzyme (ACE) detectable in high concentrations in seminal plasma.'
p309
aS'2903725 | gossypol | These results indicate no direct involvement of ACE in the regulation of sperm motility but suggest a direct interaction of gossypol with the plasma membrane of spermatozoa.'
p310
aS'23627503 | sterols | Their main bioactive constituents include angiotensin I-converting enzyme (ACE) inhibitory peptides, vitamins C and E, flavonoids, flavanols, cathecins, anthocyanins, phenolic acids, polyphenols, tannins, resveratrol, polysaccharides, fiber, saponin, sterols, as well as K, Ca, and P. They may reduce blood pressure by different mechanisms, such as ACE inhibition effect, antioxidant, vasodilatory, opiate-like, Ca(2+) channel blocking, and chymase inhibitory activities.'
p311
aS'24262574 | agaricus bisporus | Eight highly functional ACE inhibitory peptides from the mushroom, Agaricus bisporus, were identified by LC-MS/MS.'
p312
aS'24483134 | lupinus | Recently, the enzymatic hydrolysis of Lupinus albus and Lupinus angustifolius proteins with pepsin was showed to produce peptides able to inhibit the angiotensin-converting enzyme (ACE).'
p313
aS'22821435 | carotenoids | The contents of free amino acids, total phenolics content, total carotenoids and the associated functional and antioxidant abilities were analyzed, including angiotensin-converting enzyme (ACE) inhibition activity, 1,1-diphenyl-2-picylhydrazyl (DPPH) radical-scavenging ability and oxygen radical absorbance capacity (ORAC).'
p314
aS'3430165 | isoquercitrin | In the present study, we assessed whether the hypotensive and/or antihypertensive mechanism of hydroethanolic extract (HETM), semi-purified fraction (TMLR) obtained from T. majus and the flavonoids isoquercitrin (ISQ) and kaempferol (KPF) can be mediated by their interaction with angiotensin converting enzyme (ACE).'
p315
aS'9317454 | oncorhynchus mykiss | Potential targets of angiotensin activation were examined in the present experiments using perfused organs and isolated tissues from the rainbow trout Oncorhynchus mykiss.'
p316
aS'16500886 | chocolate | Spontaneously hypertensive rats were allowed to choose between palatable chocolate bars and standard chow and were simultaneously treated with the AT(1) blocker telmisartan (8 mgkg(bw) (-1) day(-1) ), the ACE inhibitor ramipril (4 mgkg(bw) (-1) day(-1) ) or a combination of the two (8 + 4 mgkg(bw) (-1) day(-1) ) for 12 weeks.'
p317
aS'23321685 | osthol | Meanwhile, osthole markedly prevented the loss of ACE2 and Ang1-7 in lung tissue of ALI mice.'
p318
aS'23321685 | osthol | ACE2 inhibitor blocked the protective effect of osthole in NR 8383 cell lines.'
p319
aS'23321685 | osthol | Taken together, our study showed that osthole improved survival rate and attenuated LPS-induced ALI and ACE2 may play a role in it.'
p320
aS'27292771 | spermidine | In silico analyses demonstrated that spermidine derivatives identified in lulo pulp exhibited a strong ACE-I (angiotensin I-converting enzyme) inhibitory activity.'
p321
aS'9014834 | vitamin d3 | Patients received oral vitamin D3 (pearl 50000 IU) or placebo one pearl every week for 12 weeks.'
p322
aS'21162280 | vitamin d3 | This study demonstrates the effect of vitamin D3 therapy on reducing proteinuria in diabetic patients with concomitant diabetic nephropathy and vitamin D deficiency after controlling hypertension and use of angiotensin converting enzyme inhibitors (ACEIs) or angiotensin II type receptor blockers (ARBs).'
p323
aS'3034845 | isodityrosine | The structure of K-13, a potent inhibitor of angiotensin I converting enzyme (ACE), was determined to be a cyclic dipeptide composed of tyrosine and an unusual diamino dicarboxylic acid, isodityrosine, by spectral and chemical studies of K-13 and its derivatives.'
p324
aS'18522404 | chlorogenic acid | Caffeic acid along with its nineteen novel derivatives, chlorogenic acid, quercetin and captopril were all investigated for the inhibition of renin and angiotensin converting enzyme (ACE) activities and production of aldosterone.'
p325
aS'16390204 | chlorogenic acid | Among the six natural products screened, five compounds, caffeic acid, caffeoyl acetate, ferulic acid, chlorogenic acid and resveratrol indicated potent in vitro ACE inhibitory activity with IC(50) values of 2.527 +/- 0.032, 3.129 +/- 0.016, 10.898 +/- 0.430, 15.076 +/- 1.211 and 6.359 +/- 0.086 mm, respectively.'
p326
aS'12424751 | leukotriene-d4 | It is also known that the MC proliferation is inhibited by many kinds of pharmacological drugs, for example, angiotensin converting enzyme (ACE) inhibitors, leukotriene D(4) (LTD(4)) antagonists, PDGF inhibitors, matrix metalloproteinases (MMP) inhibitors, 3-hydroxy-3 methyl glutaryl-coenzymeA (HMG-CoA) inhibitors, cyclin-dependent kinases (CDK) inhibitors, and others.'
p327
aS'9399982 | leukotriene-d4 | Inhibitors of neutral endopeptidase (thiorphan) and angiotensin-converting enzyme (lisinopril) enhanced neurally mediated tachykininergic responses and potentiated leukotriene D4.'
p328
aS'27595387 | phloroglucinol | This study reports, for the first time, the ACE inhibition of methanol extract/fractions from Azorean brown algae Fucus spiralis (Fs) determined by HPLC-UV method, their total phenolic content (TPC) quantified as phloroglucinol equivalents (PE) and the effect of the Fs dry powder methanol extracts (Fs-DME) storage temperature on ACE inhibition.'
p329
aS'21556221 | phloroglucinol | Five kinds of phlorotannins, phloroglucinol, triphlorethol-A, eckol, dieckol, and eckstolonol, were isolated from ethanol extract of E. cava, which exhibited potential ACE inhibition.'
p330
aS'17315307 | h. sabdariffa | To compare therapeutic effectiveness, tolerability, and safety, as well as the effect on serum electrolytes and the ACE inhibitory effect of a herbal medicinal product prepared from the dried extract of H. sabdariffa calyxes (HsHMP) with those of lisinopril on patients with hypertension (HT), a randomized, controlled, and double-blind clinical trial was conducted.'
p331
aS'8134347 | arecoline | Our comparative study of the time course of the effects of the cholinergic agonist arecoline, the gamma-aminobutyric acid type B receptor antagonist CGP 36742, the angiotensin-converting enzyme inhibitor captopril, and the nootropic oxiracetam, four substances with completely different primary sites of action, show that the memory-enhancing effects consistently come into evidence no sooner than 16-24 h after the learning trial.'
p332
aS'26600645 | hibiscus sabbariffa | The present study investigated the effects of aqueous extract of Hibiscus sabdariffa (HS) on the three basic components of renin-angiotensin-aldosterone system: Plasma renin, serum angiotensin-converting enzyme (ACE), and plasma aldosterone (PA) in mild to moderate essential hypertensive Nigerians and compared with that of lisinopril, an ACE inhibitor.'
p333
aS'19016485 | 2-phenylethanol | 2-Phenylethanol is a widely used aroma compound with rose-like fragrance and L-homophenylalanine is a building block of angiotensin-converting enzyme (ACE) inhibitor.'
p334
aS'9178346 | mollusks | A soluble 65582.9 Da (in MALDI-TOF) angiotensin converting (ACE)-like enzyme has been purified by a captopril-Sepharose affinity column chromatography from the mollusk Mytilus edulis.'
p335
aS'9178346 | mollusks | These results are consistent with an ACE activity implicated in metabolism of several neuropeptides in mollusks.'
p336
aS'28712707 | licochalcone a | The results showed that three compounds (Licochalcone A, Echinatin and EGCG) have strong potential to be developed as a new class of ACE inhibitors.'
p337
aS"27180888 | theobromine | This paper describes a 'dilute-and-shoot' UHPLC-HRMS screening method to detect 46 polar drugs in equine urine and plasma, including some angiotensin-converting enzyme (ACE) inhibitors, sympathomimetics, anti-epileptics, hemostatics, the new doping agent 5-aminoimidazole-4-carboxamide-1--d-ribofuranoside (AICAR), as well as two threshold substances, namely dimethyl sulfoxide and theobromine."
p338
aS'19839596 | arachin | A 96-well microplate format of this method was used to screen the ACE inhibitory potential of peptides fractionated from an enzymatic hydrolysate of arachin.'
p339
aS'20214946 | arachin | The ACE inhibitory property of an enzymatic digest of arachin, the major storage globulin of peanut (Arachis hypogaea) has been demonstrated.'
p340
aS'3430165 | persimmon | We have studied the inhibitory effects of four flavonoids isolated from the leaves of the persimmon on angiotensin-converting enzyme activity.'
p341
aS'26579797 | wheat bread | Patients were randomly assigned to consume 120g/day of 1 of the 3 types of bread for each nutritional intervention: conventional wheat bread (CB), low-sodium wheat bread enriched in potassium (LSB), and low-sodium wheat bread rich in potassium, GABA, and ACEI peptides (LSB+G).'
p342
aS'13680824 | lithospermic acid | Bioassay guided fractionation and purification as assayed by angiotensin converting enzyme (ACE) inhibitory assay resulted in the isolation of lithospermic acid B (LSB) as an active principle.'
p343
aS'27499381 | iridium | In this work, a novel biosensor based on electrochemically reduced graphene oxide and iridium oxide nanoparticles for the detection of angiotensin-converting enzyme inhibitor drug, captopril, is presented.'
p344
aS'17679035 | allicin | Allylmercaptocaptopril is a conjugate of the angiotensin-converting enzyme inhibitor captopril with allicin, an active principle in garlic with multiple beneficial actions on metabolic-syndrome abnormalities.'
p345
aS'9334900 | cyclopentanone | A pseudo-receptor, complementary to an ACE template, was built out of small molecules, such as pyrrole, cyclopentanone and propane.'
p346
aS'25636882 | cynara scolymus | Silybum marianum had moderate pancreatic lipase (PL) inhibitory activities (30% at 100g/ml) whereas Cynara scolymus showed moderate ACE inhibitory activity (31% at 100g/ml).'
p347
aS'23216435 | cake | In this work, a simulated gastrointestinal digestion of pumpkin oil cake protein hydrolysate prepared by alcalase (AH) was studied to evaluate the impact of the main gastrointestinal proteases on its antiradical and angiotensin I-converting enzyme (ACE) inhibitory activity.'
p348
aS'26775955 | sorghum | In this study, sweet sorghum grain protein (SSGP) was hydrolyzed using alcalase yielding ACE inhibitory peptides.'
p349
aS'6327877 | rainbow trout | Angiotensin-converting enzyme activity (ACE) was assayed in homogenized rainbow trout tissues and plasma.'
p350
aS'9317454 | rainbow trout | Potential targets of angiotensin activation were examined in the present experiments using perfused organs and isolated tissues from the rainbow trout Oncorhynchus mykiss.'
p351
aS'26061663 | phaseolus lunatus | In this work was assessed the fractionation by ultrafiltration of the Lima bean (Phaseolus lunatus) and Jamapa bean (Phaseolus vulgaris), protein hydrolysates obtained with Alcalase() and Flavourzyme() on ACE-I inhibitory activity.'
p352
aS'17317156 | shark | Hydrolysates of the lowest IC(50) values were from shrimp (Acetes chinensis), shark meat, mackerel bone, Polysiphonia urceolata and Spirulina platensis, indicating these five kinds of marine food proteins contained beneficial materials for the production of ACE inhibitory peptides by proteolysis.'
p353
aS'12664 | shark | The spiny dogfish shark, which does not have renal juxtaglomerular cells, exhibits a strong pressor response to both angiotensin I and II.'
p354
aS'12664 | spiny dogfish | The spiny dogfish shark, which does not have renal juxtaglomerular cells, exhibits a strong pressor response to both angiotensin I and II.'
p355
aS'10466217 | spiny dogfish | The contributions of circulating angiotensin II (Ang II) and catecholamines to cardiovascular control in the spiny dogfish were investigated by monitoring the effects of exogenous and endogenous dogfish [Asn1, Pro3, Ile5]-Ang II (dfAng II) on plasma catecholamine levels and blood pressure regulation.'
p356
aS'18483087 | rhenium | To develop probes for imaging ACE expression, a series of di(2-pyridylmethyl)amine (D) chelates capable of binding M(CO)3+ (M = technetium, rhenium) was conjugated to lisinopril by acylation of the epsilon-amine of the lysine residue with a series of di(2-pyridylmethylamino)alkanoic acids where the distance of the chelator from the lisinopril core was investigated by varying the number of methylene spacer groups to produce di(2-pyridylmethyl)amine(Cx)lisinopril analogs: D(C4)lisinopril, D(C5)lisinopril, and D(C8)lisinopril.'
p357
aS'18483087 | rhenium | The inhibitory activity of each rhenium complex was evaluated in vitro against purified rabbit lung ACE and was shown to vary directly with the length of the methylene spacer: Re[D(C8)lisinopril], inhibitory concentration of 50% (IC50) = 3 nM; Re[D(C5)lisinopril], IC50 = 144 nM; and Re[D(C4)lisinopril], IC50 = 1,146 nM, as compared with lisinopril, IC50 = 4 nM.'
p358
aS'24658538 | winged bean | In this study, winged bean seed (WBS), a potential source of protein, was utilised for the production of bifunctional proteolysate and biopeptides with ACE inhibitory and antioxidative properties.'
p359
aS'19441816 | bilberry | After 10 min of incubation with bilberry 25E, a significant, dose-dependent inhibition of ACE activity was seen, and after incubation with myrtillin chloride a significant inhibition was seen.'
p360
aS'25704896 | squid | Hydrolysates from collagen of jumbo squid (Dosidicus gigas) tunics have shown excellent angiotensin I-converting enzyme (ACE)-inhibitory activity.'
p361
aS'21544083 | palmitate | On the other hand, ACE2 deficiency shifted energy metabolism towards glucose utilization, as it increased the respiratory exchange ratio, reduced palmitate oxidation and PCG-1 expression in the skeletal muscle, where it up-regulated glucose transport proteins.'
p362
aS'12369453 | palmitate | Telmisartan, an angiotensin II receptor antagonist used in the management of hypertension, significantly (P<0.05) increased palmitate oxidation in HEK293 cells expressing wt and mutant proteins (P<0.05; P<0.01), including the dominant-negative mutants.'
p363
aS'1530575 | n-acetylneuraminic acid | N-Acetylneuraminic acid stimulated the activity of ACE.'
p364
aS"23875904 | ginger | Therefore, this study sought to investigate the inhibitory effect of aqueous extracts of two varieties of ginger on a key enzyme linked to hypertension (angiotensin I-converting enzyme [ACE]), and on pro-oxidants [Fe(2+) and sodium nitroprusside (SNP)] which have been shown to induce lipid peroxidation in the rat's isolated heart in vitro."
p365
aS"23875904 | ginger | Rubra) and white ginger (Zingiber officinale Roscoe) were prepared and the ability of the extracts to inhibit ACE along with Fe(2+)- and SNP-induced lipid peroxidation was determined in rat's heart in vitro."
p366
aS'23875904 | ginger | However, red ginger extract (EC50=27.5 g/mL) had a significantly (P<.05) higher inhibitory effect on ACE than white ginger extract (EC50=87.0 g/mL).'
p367
aS'23875904 | ginger | This suggests that the possible mechanism through which ginger exerts its antihypertensive properties may be through inhibition of ACE activity and prevention of lipid peroxidation in the heart.'
p368
aS'23875904 | ginger | Furthermore, red ginger showed stronger inhibition of ACE than white ginger.'
p369
aS'24433069 | ginger | This study sought to investigate the inhibitory effect of two varieties of ginger (Zingiber officinale) commonly consumed in Nigeria on ACE activity in rats fed a high cholesterol diet.'
p370
aS'24433069 | ginger | The inhibition of ACE activity of two varieties of ginger (Z. officinale) was investigated in a high cholesterol (2%) diet fed to rats for 3 days.'
p371
aS'24433069 | ginger | However, there was a significant (P<.05) inhibition of ACE activity as a result of supplementation with the ginger varieties.'
p372
aS'24433069 | ginger | This activity of the gingers may be attributed to its ACE inhibitory activity.'
p373
aS'24433069 | ginger | However, white ginger inhibited ACE better in a high cholesterol diet fed to rats than red ginger.'
p374
aS'25149042 | gallus gallus | Using embryonic chickens (Gallus gallus domesticus), we examined the role of the renin-angiotensin system (RAS) in cardiovascular and osmotic homeostasis through chronic captopril, an angiotensin-converting enzyme (ACE) inhibitor.'
p375
aS'24005249 | gallus gallus | We examined baroreflex function in day 19 embryonic chickens (Gallus gallus domesticus) after chronic depletion of endogenous ANG II via angiotensin-converting enzyme (ACE) inhibition with captopril (5 mg/kg) from days 5-18 of incubation.'
p376
aS'24056722 | honey | All the types of honey showed some activity but chestnut honey had the highest ACE inhibitory activity.'
p377
aS'17644453 | titanium | The compounds were chromatographed on an Ace C(18) (50 x 3.0 mm, 3 microm, titanium frits) column with 42.5/57.5 (v/v %) 0.1mM EDTA in 0.1% formic acid/methanol mobile phase at a flow rate of 0.5 mL/min.'
p378
aS'23631764 | kefir | Kefir decreased renal function damage playing as Angiotensin-converting enzyme inhibitor.'
p379
aS'16162521 | kefir | In this study, a potent angiotensin-converting enzyme (ACE)-inhibitory activity was found in a commercial kefir made from caprine milk.'
p380
aS'26061663 | phaseolus vulgaris | In this work was assessed the fractionation by ultrafiltration of the Lima bean (Phaseolus lunatus) and Jamapa bean (Phaseolus vulgaris), protein hydrolysates obtained with Alcalase() and Flavourzyme() on ACE-I inhibitory activity.'
p381
aS'25881860 | phaseolus vulgaris | The results support the hypothesis that peptides present in the non-digestible fraction of common beans (Phaseolus vulgaris L.) may exert their physiological benefits independent of their antioxidant capacity, by ACE inhibition through interaction with its catalytic cavity.'
p382
aS'26398778 | phaseolus vulgaris | The objective of this study was to identify the angiotensin I-converting enzyme (ACE)-inhibitory peptides released from thermally treated Phaseolus vulgaris (pinto) whole beans after in vitro gastrointestinal digestion.'
p383
aS'2191893 | quail | The amino acid sequence of angiotensin I (ANG I) from the Japanese quail, Coturnix coturnix japonica, obtained from incubation of homologous plasma and kidney extract was determined as H-Asp-Arg-Val-Tyr-Val-His-Pro-Phe-Ser-Leu-OH.'
p384
aS'19994857 | soy sauce | The FSS has a 2.7-fold higher concentration of total peptides than regular soy sauce.'
p385
aS'19994857 | soy sauce | The angiotensin I-converting enzyme (ACE) inhibitory activity of FSS (IC(50) = 454 microg/mL) was greater than that of regular soy sauce (IC(50) = 1620 microg/mL).'
p386
aS'7613003 | soy sauce | Strong inhibitory activity was detected in soy sauce, fish sauce, natto, nyufu, and cheese, but not in mirin, sake, or vinegar.'
p387
aS'7763982 | soy sauce | The inhibitory activity of an angiotensin I-converting enzyme (ACE) detected in soy sauce was fractionated into two major fractions of high molecular weight (Hw) and low molecular weight (Lw) by gel filtration chromatography on Bio-gel P-2 after treating with ethanol.'
p388
aS'18160180 | soy sauce | In present study, we aimed to identify angiotensin I-converting enzyme (ACE)-inhibitory peptides from a salt-free soy sauce (SFS), a newly developed antihypertensive seasoning obtained by Aspergillus oryzae fermentation of soybean in the absence of salt, which can be transported through caco-2 cell monolayers.'
p389
aS'15675820 | cholate | The deoiling method did not affect the functional properties, lipoxygenase activity, angiotensin converting enzyme inhibition, sodium cholate binding, and radical scavenging activity.'
p390
aS'7657076 | hg2+ | These toxic effects produced by Hg2+ in vitro with the addition of 15 microM of the inhibition of the angiotensin converting enzyme, captopril.'
p391
aS'19998322 | acteoside | The bioguided fractionation of the extract resulted in the isolation of four ACE inhibitory active phenylpropanoid glycosides acteoside, isoacteoside, plantainoside D, and plantamajoside with IC(50) values of 2.69 mM, 2.46 mM, 2.17 mM, and 2.47 mM, respectively.'
p392
aS'8829536 | alpha-zein | The angiotensin I-converting enzyme (ACE) inhibitory activity (IC50) of the thermolysin digest of total alpha-zein was 24.5 micrograms/ml, and most of the peptide fractions from Z19 alpha-zein and total alpha-zein separated by reverse-phase HPLC had more or less ACE inhibitory activity.'
p393
aS'1368684 | alpha-zein | Peptides that inhibit angiotensin-converting enzyme (ACE) were isolated from alpha-zein hydrolysate prepared with thermolysin.'
p394
aS'12407466 | lentinus edodes | The ACE inhibitory effect of culture broth from Flammulina velutipes strain 414 was the highest (52.8%), followed by Lentinus edodes strains 2 (44.4%) and 16 (41.3%).'
p395
aS'15927931 | lentinus edodes | Water-soluble extracts of soybean optimized for phenolic content via sprouting or bioprocessing by dietary fungus (Rhizopus oligosporus, Lentinus edodes) were investigated for inhibitory activity against porcine pancreatic alpha-amylase (PPA), yeast alpha-glucosidase, and rabbit lung ACE in vitro.'
p396
aS'15285118 | wax gourd | The aims of this study were to investigate the abilities of antioxidation and inhibition of angiotensin-converting enzyme (ACE) activity of wax gourd pulp, core, seed, and peel prepared by different extraction methods.'
p397
aS'12688410 | pentadecanoic acid | We investigated the effects of an angiotensin-converting enzyme inhibitor (temocapril) and an angiotensin II type 1 receptor blocker (olmesartan) on changes in myocardial sympathetic nervous activity, fatty acid metabolism and myocardial blood flow using 131I-meta-iodobenzylguanidine, 125I-beta-methyl-iodophenyl pentadecanoic acid and 99mTc-tetrofosmin, respectively, in rats with isoproterenol-induced cardiac hypertrophy.'
p398
aS'12688410 | pentadecanoic acid | Beta-methyl-iodophenyl pentadecanoic acid and tetrofosmin in 11 segments in four groups; sham group (saline), isoproterenol group (isoproterenol alone), angiotensin-converting enzyme inhibitor group (isoproterenol and temocapril), and angiotensin II type 1 receptor blocker group (isoproterenol and olmesartan).'
p399
aS'12688410 | pentadecanoic acid | In contrast, there were no significant differences in beta-methyl-iodophenyl pentadecanoic acid to tetrofosmin ratios between the sham and angiotensin-converting enzyme inhibitor groups, or the angiotensin II type 1 receptor blocker group.'
p400
aS'11875588 | pentadecanoic acid | (123)iodine labelled beta-methyl-iodophenyl pentadecanoic acid myocardial single photon emission computed tomography showed decreased uptake of the inferior segment in the early image, whereas the delayed images revealed significant fill-in of the tracer in the inferior segment of the myocardium.'
p401
aS'11561227 | pentadecanoic acid | We used iodine-123-beta-methyl-iodophenyl pentadecanoic acid ((123)I-BMIPP) myocardial scintigraphy to study the efficacy of the angiotensin-converting enzyme inhibitor (ACEI) enalapril in the treatment of chronic heart failure (CHF) by evaluating its therapeutic effects on myocardial fatty acid metabolism.'
p402
aS'21985248 | rye | This study quantified antiotensin I-converting enzyme (ACE) inhibitory peptides in rye malt sourdoughs supplemented with gluten proteins and fermented with six strains of Lactobacillus spp.'
p403
aS'18627167 | rye | This article aimed at investigating the synthesis of angiotensin I-converting enzyme (ACE)-inhibitory peptides and gamma-aminobutyric acid (GABA) during sourdough fermentation of white wheat, wholemeal wheat, and rye flours.'
p404
aS'22783093 | vitis | The Vitis hybrid-Vitis coignetiae red wine showed high antihypertensive angiotensin I-converting enzyme (ACE) inhibitory activity (67.8%) and antioxidant activity (76.7%).'
p405
aS'22783093 | vitis | The antihypertensive ACE inhibitor in the Vitis hybrid-Vitis coignetiae red wine was partially purified by solid phase extraction chromatography, and its ACE inhibitory activity yielded an IC(50) of 1.8 mg/mL.'
p406
aS'2995664 | phenol | These moderately potent inhibitors of angiotensin converting enzyme (Ki greater than 0.8 microM) all hydrolyze, losing 1 mol of phenol to yield highly potent inhibitors (Ki = 0.5-18 nM).'
p407
aS'21048398 | phenol | Furthermore, to clarify the effect of the angiontensin II type-2 (AT2) receptor in the restoration of perivascular nerve innervation, we used the phenol-injured rat model, in which the perivascular nerves are markedly reduced by the topical application of phenol.'
p408
aS'12093003 | tartary buckwheat | The latent production of angiotensin I-converting enzyme (ACE) Inhibitors from tartary buckwheat (BW) was investigated, and the peptides responsible for ACE inhibition characterized.'
p409
aS'15998113 | beta-glucan | Moreover, the beta-glucan derivative showed pronounced antimicrobial effects against Escherichia coli and Bacillus subtilis, and ACE (angiotensin-converting enzyme) inhibition activities which were dependent on its concentration.'
p410
aS'19441816 | vaccinium | This study investigates if the connection between Vaccinium myrtillus and angiotensin-converting enzyme (ACE) might be an explanation of the pharmacological effects on circulation.'
p411
aS'8960343 | cream | This is a case report involving a patient who was treated with topical 5-FU cream and subsequently developed a severe case of angioedema.'
p412
aS'17484387 | anthocyanins | Their main bioactive constituents include angiotensin I-converting enzyme (ACE) inhibitory peptides, vitamins C and E, flavonoids, flavanols, cathecins, anthocyanins, phenolic acids, polyphenols, tannins, resveratrol, polysaccharides, fiber, saponin, sterols, as well as K, Ca, and P. They may reduce blood pressure by different mechanisms, such as ACE inhibition effect, antioxidant, vasodilatory, opiate-like, Ca(2+) channel blocking, and chymase inhibitory activities.'
p413
aS'15330492 | anthocyanins | Food possessing anthocyanins, angiotensin converting enzyme (ACE) inhibitory activity or reducing activity show beneficial effect on human health.'
p414
aS'15330492 | anthocyanins | The anthocyanin content, the ACE inhibitory activity and the reducing power of the fermented black soybean were then examined.'
p415
aS'16791400 | glycyrrhizin | The present case describes the occurrence of pseudoaldosteronism induced by a patient taking two traditional Chinese herbs, both containing glycyrrhizin, resulting in an overdose of this causative chemical agent.'
p416
aS'16791400 | glycyrrhizin | The development of pseudoaldosteronism appeared to be of particular interest with regard to the interaction of the renin-angiotensin-aldosterone (RAA) system with glycyrrhizin, in which an ACE-I retarded the development of pseudoaldosteronism.'
p417
aS'18628584 | glycyrrhizin | We report a case of obvious pseudoaldosteronism which occurred after the additional administration of cilostazol against arteriosclerosis obliterans (ASO) for bilateral legs in a 65 year-old man patient who had safely received glycyrrhizin for the previous ten years.'
p418
aS'18628584 | glycyrrhizin | This is the first report of a case exhibiting pseudoaldosteronism induced by the interaction of glycyrrhizin with cilostazol, not by glycyrrhizin alone.'
p419
aS'2860845 | salicylates | To study the effects of adding a salicylate to the angiotensin converting enzyme inhibitor enalapril in patients with heart failure due to coronary artery disease.'
p420
aS'25666042 | acetyl-coa | Epididymal ACE2, ACE, angiotensinogen, acetyl-CoA carboxylase (ACC), and fatty acid synthase (FAS) were measured by quantitative RT-PCR.'
p421
aS'23872086 | snail | AR-42 downregulated E-cadherin, N-cadherin, TWIST, MYOF, anoikis resistance, and osteomimicry genes, while it upregulated SNAIL, PTEN, FAK, and ZEB1 gene expression in Ace-1 cells.'
p422
aS"27834876 | rosmarinic acid | This study aims to evaluate the in vitro angiotensin-converting enzyme (ACE) inhibition activity of different extracts of Orthosiphon stamineus (OS) leaves and their main flavonoids, namely rosmarinic acid (RA), sinensetin (SIN), eupatorin (EUP) and 3'-hydroxy-5,6,7,4'-tetramethoxyflavone (TMF)."
p423
aS'17977703 | rosmarinic acid | Bioassay-guided isolation of this extract yielded ethyl caffeate (1), rosmarinic acid (2) and methyl rosmarinate (3), which inhibited ACE activity by 32.42%, 55.19% and 39.50% respectively, at the concentration of 10 microg/ml.'
p424
aS'11929674 | chloroform | In the present study, five organic extracts of a marine brown seaweed Ecklonia cava were prepared by using ethanol, ethyl acetate, chloroform, hexane, and diethyl ether as solvents, which were then tested for their potential ACE inhibitory activities.'
p425
aS'21835454 | estrone | Thus, the purpose of the present research was to analyse the relationship between cortisol (CORT), progesterone (P4) and oestrone sulphate (OESTRONE), and the components of the RAAS, renin (REN), angiotensin II (ANG-II) and aldosterone (ALD) concentrations in Spanish broodmares during pregnancy.'
p426
aS'26189518 | lycopene | We describe invivo and invitro evidence and proposed mechanisms of beneficial effects of several compounds on the liver, including acyclic retinoid (ACR), angiotensin-converting enzyme inhibitors (ACEIs), caffeine, capsaicin, cepharanthine (CEP), cinnamaldehyde, curcumin, diallyl sulfide (DAS), eicosapentaenoic acid (EPA), epigallocatechin-3-gallate (EGCG), genistein, lycopene, resveratrol, silymarin, sulforaphane (SFN), and xanthohumol (XN).'
p427
aS'20472966 | mustard | In 14 patients (age 25.2  3.5 years), after Mustard procedure for transposition of the great arteries (age at operation 1.1  1.3 years) with heart failure NYHA II (New York Heart Association class), an ACE inhibition was initiated.'
p428
aS'20843567 | mustard | However, little is known about the beneficial effects of ACE inhibition in adult patients after Mustard procedure for transposition of the great arteries with heart failure symptoms.'
p429
aS'232087 | lysophosphatidylethanolamine | The inhibitors used were URI-73A, a synthetic analog of lysophosphatidylethanolamine, which inhibits renin both in vivo and in vitro, SQ14,225, a potent converting enzyme inhibitor, and [Sar1, Thr8] angiotensin II, an angiotensin II antagonist.'
p430
aS'28098801 | glutelin | Our previous studies have shown that Coix glutelin pepsin hydrolysate can effectively inhibit angiotensin converting enzyme (ACE) activity in vitro.'
p431
aS'28098801 | glutelin | Single oral administration of synthesized GAAGGAF at 15 mg/kg body weight (BW) in spontaneously hypertensively rats (SHR) could reduce the systolic blood pressure (SBP) around 27.50 mmHg and blood pressure-lowering effect lasted for at least 8 h. The study demonstrated for the first time that the ACE inhibitory peptide GAAGGAF from Coix glutelin has a significant antihypertensive effect, and it could be a good natural ingredient for pharmaceuticals against hypertension and the related diseases.'
p432
aS'25801199 | glutelin | Rice bran proteins were fractioned into albumin, globulin, prolamin and glutelin, which were subjected to hydrolysis by four protease preparations, namely Alcalase, Neutrase, Flavourzyme and Protamax, and the inhibitory activities of the hydrolysates against -amylase, -glucosidase and angiotensin converting enzyme (ACE), were monitored over a hydrolysis period of 240 min.'
p433
aS'15781050 | acetaldehyde | The effect of high acetaldehyde (ACe) on acetylcholine (ACh) release was studied in vivo in the medial frontal cortex (mfc) of freely moving rats using brain microdialysis coupled with high performance liquid chromatography and an electrochemical detector.'
p434
aS'17045751 | acetaldehyde | Our previous microdialysis study demonstrated that both ethanol (EtOH) and acetaldehyde (ACe) decrease in vivo acetylcholine (ACh) release in the medial frontal cortex of freely moving rats.'
p435
aS'8123215 | acetaldehyde | The role of ethanol and its primary metabolite, acetaldehyde, were investigated for their effects upon angiotensin-converting enzyme (ACE) (EC 3.4.15.1), since the enzyme plays a key role in the maintenance of blood pressure homeostasis by transforming angiotensin I into angiotensin II and degrading bradykinin.'
p436
aS'8123215 | acetaldehyde | The interaction of angiotensin-converting enzyme with acetaldehyde was rapid under these conditions.'
p437
aS'16817900 | l-threonine | The enzyme is specific for NAD(H), and maximal specific activities were detected with L-threonine (10.3 U x mg(-1)) and acetoin (3.9 U x mg(-1)) in the oxidative and reductive reactions, respectively.'
p438
aS'2167811 | potato carboxypeptidase a inhibitor | Mr 140,000 hydrolase activity was inhibited by captopril as reported for angiotensin converting enzyme (ACE), while that of Mr 70,000 hydrolase activity was inhibited by potato carboxypeptidase inhibitor.'
p439
aS'23442666 | jellyfish | Jellyfish (Rhopilema esculentum) is an important fishery resource suitable for production of ACE inhibitory peptides.'
p440
aS'2010046 | myo-inositol | These data suggest that normalization of tissue myo-inositol metabolism restores normal responsiveness to angiotensin II; this may contribute to the reduction in GFR with the two experimental maneuvers.'
p441
aS'26266546 | uracil | In this work, the bioactive ACE inhibitors in TWK10-fermented soy milk water extracts were isolated, and a combination of uracil and glycerol (CUG) was identified as one of the ACE inhibitors.'
p442
aS'17317156 | spirulina | Hydrolysates of the lowest IC(50) values were from shrimp (Acetes chinensis), shark meat, mackerel bone, Polysiphonia urceolata and Spirulina platensis, indicating these five kinds of marine food proteins contained beneficial materials for the production of ACE inhibitory peptides by proteolysis.'
p443
aS'20509691 | spirulina | An angiotensin I-converting enzyme (ACE) inhibitory peptide Ile-Gln-Pro with an IC(50) value of 5.77 +/- 0.09 microM was purified from the alcalase digests of Spirulina platensis by gel filtration chromatography and two steps of reverse-phase high-performance liquid chromatography (RP-HPLC).'
p444
aS'20509691 | spirulina | The results showed that the ACE inhibitory peptide from Spirulina platensis may have potential for use in the prevention and treatment of hypertension.'
p445
aS'28393188 | spirulina | In this study, a marine microalga Spirulinasp.-derived protein was hydrolyzed using gastrointestinal enzymes to produce an angiotensinI(AngI)-converting enzyme(ACE) inhibitory peptide.'
p446
aS'28393188 | spirulina | These results indicated that this Spirulinasp.-derived peptide warrants further investigation as a potential pharmacological inhibitor of ACE and vascular dysfunction.'
p447
aS'18841984 | potato | Autolysis of protein isolates from vascular bundle and inner tuber tissues of potato (Solanum tuberosum) enhanced the inhibition of the angiotensin converting enzyme I (ACE), a biochemical factor affecting blood pressure (hypertension).'
p448
aS'2167811 | potato | Mr 140,000 hydrolase activity was inhibited by captopril as reported for angiotensin converting enzyme (ACE), while that of Mr 70,000 hydrolase activity was inhibited by potato carboxypeptidase inhibitor.'
p449
aS'22297997 | monodehydroascorbate | Dioscorin, the major tuber storage protein in yam, has been reported to possess carbonic anhydrase, trypsin inhibitor, angiotensin-converting enzyme (ACE) inhibitor, free-radical scavenger, dehydroascorbate reductase and monodehydroascorbate reductase activities.'
p450
aS'19072566 | 5,10-methylenetetrahydrofolate | Seventy-five unrelated AMD patients and 75 unrelated healthy, sex- and age-matched control patients were genotyped for the following 19 single nucleotide polymorphisms (SNPs) in 14 different genes: blood coagulation factor V (FV) R506Q, factor II (prothrombin) G20210A and factor XIII (FXIII) V34L; 5,10-methylenetetrahydrofolate reductase (MTHFR) C677T, A1298C; plasminogen activator inhibitor 1 (PAI-1) 4G/5G; endothelial protein C receptor (EPCR) 4600 A>G (A3 haplotype), 4678 G>C (A1 haplotype); apolipoprotein B (ApoB) R3500Q; apolipoprotein E (ApoE) E2/E3/E4; -fibrinogen -455 G>A; human platelet antigen 1 (HPA1) a/b; angiotensin-converting enzyme (ACE) I/D; endothelial nitric oxide synthase (eNOS) 786 T>C, 894 G>T; lymphotoxin alpha (LTA) 804 C>A and 9p21 rs10757278.'
p451
aS'24483134 | lupinus albus | Recently, the enzymatic hydrolysis of Lupinus albus and Lupinus angustifolius proteins with pepsin was showed to produce peptides able to inhibit the angiotensin-converting enzyme (ACE).'
p452
aS'16285991 | alliin | S-allylmercaptocaptopril (CPSSA) is a new stable synthetic compound produced by chemical reaction between allicin and the angiotensin converting enzyme inhibitor captopril.'
p453
aS'19619856 | soy bean | Increase of peptide concentration and ACE inhibitory activity in casein miso paste was observed and corresponded to the degradation of casein and soy bean proteins during fermentation for 7 days.'
p454
aS'26019516 | notoginsenoside r1 | ACE inhibition assay was performed on FXST capsule, 50% ethanol extracts from the four herbals and three selected saponins most abundant in P. notoginseng (Ginsenoside Rg1, Ginsenoside Rb1 and Notoginsenoside R1) using a biochemical test.'
p455
aS'17188940 | arsenite | The study supports our earlier conclusion that a co-administration of an antioxidant is more beneficial than monotherapy with the chelating agents, in order to achieve optimal effects of chelation in arsenite toxicity.'
p456
aS"15085064 | arsenite | This study assessed the effect of manidipine on normal subjects' monocyte gene and protein expression of OxSt-related proteins such as p22(phox), a NAD(P)H oxidase system subunit, critical in generating O2-, and heme oxygenase-1 (HO-1), induced by and protective from OxSt, and compared manidipine with the ACE inhibitor captopril and the calcium channel blocker nifedipine, in the presence and absence of sodium arsenite (NaAsO2) as an inducer of OxSt.Co-incubation of manidipine with NaAsO2 dose-dependently decreased p22(phox) mRNA production from basal: 0.87 +/- 0.1 d.u., 0.69 +/- 0.06 and 0.66 +/- 0.09 at 100, 300 and 500 nM respectively versus 0.99 +/- 0.2, P < 0.04, while HO-1 mRNA production was increased by the same concentrations of the drug: 0.87 +/- 0.1 d.u., 0.92 +/- 0.1, 0.98 +/- 0.1 respectively versus 0.63 +/- 0.07; P < 0.03."
p457
aS'3430165 | astragalin | The four flavonoids astragalin [1], kaempferol-3-O-(2"-O-galloyl)-glucoside [2], isoquercitrin [3], and quercetin-3-O-(2"-O-galloyl)-glucoside [4] inhibited the angiotensin-converting enzyme activity in a dose-dependent fashion.'
p458
aS'20641953 | palladium | Several derivatives of lisinopril that can incorporate rhodium or palladium while maintaining high affinity for ACE were reported and could probably be used to synthesize radiolabeled analogs of the compound (18).'
p459
aS'7744323 | pentane | Pentane levels were correlated with the daily dose of captopril, a sulfhydril-containing drug used to treat CHF, which is an angiotensin converting enzyme inhibitor.'
p460
aS'25432277 | taxifolin | Comparison of the effects of camel thorn extract with those of flavonoid taxifolin showed that the extract was not inferior to taxifolin in preventing the early stages of aortic atherosclerosis caused by increased activity of angiotensin-converting enzyme.'
p461
aS'23271616 | taxifolin | The action of taxifolin on the angiotensin-converting enzyme (ACE) and the formation of reactive oxygen and nitrogen species (ROS/RNS) in the aorta of aging rats and rats treated with nitric oxide synthase inhibitor (N -nitro-L-arginine methyl ester (L-NAME)) or dexamethasone have been studied.'
p462
aS'23271616 | taxifolin | It was shown that taxifolin at a dose of 30-100 g/kg/day decreases the ACE activity in the aorta of aging rats and of rats treated with L-NAME or dexamethasone to the level of the ACE activity in young control rats.'
p463
aS'16981241 | a. chinensis | Therefore, the novel peptides identified from A. chinensis hydrolysates probably still maintain a high ACE inhibitory activity even if they are digested in vivo.'
p464
aS'16981241 | a. chinensis | This is the first report about novel ACE inhibitory peptides from hydrolysates of marine shrimp A. chinensis.'
p465
aS'16981241 | a. chinensis | The novel peptides from hydrolysate of A. chinensis and some of their derived peptides with high ACE inhibitory activity probably have potential in the treatment of hypertension or in clinical nutrition.'
p466
aS'18521593 | a. chinensis | In this article, A. chinensis were fermented by Lactobacillus fermentum SM 605 and the fermented sauce presented high ACE inhibitory activity.'
p467
aS'18521593 | a. chinensis | Compared with protease digestion, fermentation is a simpler and cheaper method to produce ACE inhibitory peptides from shrimp A. chinensis.'
p468
aS'15935656 | a. chinensis | With this method, we have shown that A. chinensis can be utilized to generate a high value-added product, and have revealed its hidden potential in the production of functional foods and ACE inhibitory peptides.'
p469
aS'11552693 | elemene | In this article we describe PARM and illustrate its use with three examples: elemenes (potential anticancer drugs), angiotensin converting enzyme inhibitors, and human HIV-1 inhibitors TTD (1,1,3-trioxo-2H, 4H-thieno[3,4-e][1,2,4] thiadiazine derivatives).'
p470
aS'24291100 | turmeric | The aim of the current study was to examine the combined effect of the anti-angiogenic agents: leflunomide; a disease modifying antirheumatic drug, perindopril; an angiotensin converting enzyme inhibitor (ACEI) and curcumin; the active principle of turmeric, on diethylnitrosamine (DEN)-induced HCC in mice.'
p471
a.