(lp0
S'3341249 | octanoic acid | Fat absorption improved when medium-chain triglycerides or octanoic acid replaced corn oil (both p less than 0.01).'
p1
aS'21137574 | octanoic acid | The 30 recruited subjects, 20 patients and 10 healthy volunteers, have answered to test about their symptoms and have executed a 13C octanoic acid breath test in order to estimate the gastric emptying to a basal time, and 30 days after supplementation of mineral water, 1.5 liters/day, for 21 days.'
p2
aS'25065800 | thymus vulgaris | The potential use of three Laminaceae species (Lavandula dentata, Rosmarinus officinalis and Thymus vulgaris) for the phytostabilisation of a trace elements contaminated (acid) soil has been evaluated.'
p3
aS'7186027 | safflower | When safflower oil (triglyceride) was consumed without pancreatic enzymes by children with cystic fibrosis (CF), there was no rise in mean plasma linoleic acid levels over the next 4 h. When linoleic acid monoglyceride (LAM) was consumed, the increase in plasma linoleic acid levels was significantly greater than for safflower oil at 2 (p less than 0.02), 3 (p less than 0.01), and 4 h (p less than 0.01).'
p4
aS'7186027 | safflower | When free fatty acid (hydrolyzed safflower oil) was ingested, there was almost no increase in plasma linoleic acid levels in CF or control children.'
p5
aS'7186027 | safflower | Three children with CF had greater increases in plasma linoleic acid levels following ingestion of safflower oil when they took antacid and cimetidine with their pancreatic capsules, compared to when they only took the pancreatic capsules.'
p6
aS'27287102 | lotus | The experiment was conducted by infiltrating precursors - titanium (IV) n-butoxide (TnBT) and acetic acid calcium solution - into the lotus root template under vacuum system, followed by calcination.'
p7
aS'19932190 | squid | To clarify these questions, we applied 2D gel electrophoresis and amino acid analysis to soluble shell organic matrices from nacre shell, non-nacre aragonitic shell and non-calcified squid shells.'
p8
aS'23475567 | uridine diphosphate | Patient renal function, serum albumin levels, sex, ethnicity, food intake, concurrent administration of interacting drugs such as antacids, metal-containing medications and proton pump inhibitors and polymorphisms in genes encoding uridine diphosphate glucuronosyltransferase were identified in some studies as having a significant influence on the pharmacokinetics of mycophenolate.'
p9
aS'23831490 | chlorogenic acid | It was observed that zirconium silicate exhibited maximum recovery and selectivity for tetragalloylquinic acid (84%), chlorogenic acid (82%) and dicaffeoylquinic acid (94%) among all the tested sorbents.'
p10
aS'20854428 | honey | Statistical significance was noted for seven risk factors: taking antacids before gastroenteritis (OR = 3.91; 95% CI, 2.13, 7.15), other household members with gastroenteritis (OR = 5.18; 95% CI, 2.09, 12.85), attending a banquet (OR = 1.93; 95% CI, 1.25, 2.98), eating out (OR = 2.35; 95% CI, 1.30, 4.23), drinking bottled water (OR = 1.72; 95% CI, 1.07, 2.75), eating honey peaches (OR = 3.26; 95% CI, 1.24, 8.58), and eating raw oysters (OR = 3.24; 95% CI, 1.02, 10.28).'
p11
aS'1950032 | lettuce | Therefore we carried out the following investigations using a lattice [correction of lettuce] layer antacid as a model substance.'
p12
aS'12720372 | phaseolus vulgaris | Phaseolus vulgaris L. accumulates Al in the shoots (internal tolerance mechanism), while P. lunatus L. prevents Al uptake by releasing organic acids (exclusion mechanism) into the growth media.'
p13
aS"24610609 | papaya | Levothyroxine absorption can indeed be impaired by age, patient's compliance, fasting, the intake of certain foods (such as dietary fibers, grapes, soybeans, papaya and coffee) or by some drugs (such as proton-pump inhibitors, antacids, sucralfate, et cetera)."
p14
aS'15725301 | benzoyl peroxide | This article reviews such non-conventional topical therapies as aloe vera, antacids, benzoyl peroxide, collagen, dilantin, gentian violet, impregnated gauzes, insulin, mercurochrome, oxygen therapy, sugar, and vinegar.'
p15
aS'25463799 | cassava | An immobilized fermentation system, using cassava bagasse hydrolysate (CBH) and mixed alkalis, was developed to achieve economical succinic acid production by Corynebacterium glutamicum.'
p16
aS'20143717 | cassava | Owing to the high starch content (60-65% on dry weight basis) and organic matter of cassava fibrous residue (CFR), an attempt has been made to utilize it for the production of lactic acid (LA) in semi solid state fermentation using Mann Rogassa Sharpe medium containing [5 % (wv(-1))] CFR in lieu of glucose [2% (wv(-1))] as the carbon source.'
p17
aS'24835954 | mustard | The enhancement of Japanese mustard spinach growth and the increased in plant uptake of phosphates following acid washing were observed.'
p18
aS'19145059 | mustard | An attempt was made to study the bleaching ability of some alternative adsorbents like rice husk ash (HC), acid activated rice husk ash (AC), rice husk silica (S), and Al(OH)(3) gel to replace commercial Acid Activated Clay (AAC, like Tonsil Earth: TE) for bleaching of mustard oil.'
p19
aS'11601708 | l-ascorbic acid | The decrease in the L-ascorbic acid content of shredded cabbage was approximately 20 to 30% for scallop-shell powder treatment at 0.1 and 0.5 g dm(-3) (20 degrees C), which is almost identical to that by sodium hypochlorite treatment at 200 micorg dm(-3).'
p20
aS'1551350 | sausage | We evaluated the effect of a compound containing alginic acid plus antacid (extra-strength Gaviscon) versus active control antacid with equal acid-neutralizing capacity on intraesophageal acid exposure following a high-fat meal (61% fat: sausage, egg, and biscuit).'
p21
aS'23308189 | calabash | The pseudo-total concentrations of 13 mineral nutrients/PHEs were quantified following a nitric-perchloric acid digestion of nine different Calabash chalk samples, and bioaccessible contents of eight of these chemical elements were determined in simulated saliva/gastric and intestinal solutions obtained via use of the Fed ORganic Estimation human Simulation Test (FOREhST) in vitro procedure.'
p22
aS'6145539 | lemon | Although the regular strengths of Mylanta Lemon Twist and Mylanta Cherry Crme were the most palatable, the extra strength versions of these products have twice the acid neutralizing capability and thus, half the volume is required for each dose.'
p23
aS'3948402 | lemon | Mylanta Lemon Twist and Mylanta Cherry Crme were the most palatable antacids; however, overall the palatability of all the antacids was poor.'
p24
aS'25793599 | liquiritin | The correlation results between quantified fingerprints and quantitative determination of 5 marker compounds, including glycyrrhizic acid (GLY), liquiritin (LQ), isoliquiritigenin (ILG), isoliquiritin (ILQ) and isoliquiritin apioside (ILA), indicated that multi-component quantification could be replaced by quantified fingerprints.'
p25
aS'24835954 | spinach | The enhancement of Japanese mustard spinach growth and the increased in plant uptake of phosphates following acid washing were observed.'
p26
aS'27404904 | spinach | The present study compares the antacid effect of raw spinach juice with an antioxidant-rich methanolic extract of spinach (NAOE) in an artificial stomach model.'
p27
aS'27404904 | spinach | MethodsThe pH of NAOE at various concentrations (50, 100 and 200 mg/mL) and its neutralizing effect on artificial gastric acid was determined and compared with that of raw spinach juice, water, the active control sodium bicarbonate (SB) and a marketed antacid preparation ENO.'
p28
aS'27404904 | spinach | Results NAOE (50, 100 and 200 mg/mL), spinach juice, SB and ENO showed significantly better acid-neutralizing effect, consistent duration of neutralization and higher antacid capacity when compared with water.'
p29
aS'27404904 | spinach | Highest antacid activity was demonstrated by ENO and SB followed by spinach juice and NAOE200.'
p30
aS'27404904 | spinach | ConclusionsThus, it may be concluded that spinach displays significant antacid activity be it in the raw juice form or as an extract in methanol.'
p31
aS'23676571 | peanut | Mean peanut food-specific IgE was higher in those with a history of taking antacid medication (11.0  5.0 versus 2.0  5.5.; p = 0.01).'
p32
aS'25065800 | rosmarinus officinalis | The potential use of three Laminaceae species (Lavandula dentata, Rosmarinus officinalis and Thymus vulgaris) for the phytostabilisation of a trace elements contaminated (acid) soil has been evaluated.'
p33
aS'22950493 | lysolecithin | Except for those in the control group, all the rats were subjected to infusion of diluted lysolecithin with hydrochloric acid in the esophagus for 14 days.'
p34
aS'6941407 | lysolecithin | The in vitro capacity of several commercial antacids to bind bile acids and lysolecithin was measured in three different test media: 0.1 n HCl, natural human gastric juice and human gastric juice enriched with 5% protein.'
p35
aS'6941407 | lysolecithin | Lysolecithin was equally heavily adsorbed by all tested antacids and in all three test conditions (85-100%).'
p36
aS'6755652 | lysolecithin | In vitro binding properties of eight clay and/or aluminium-containing antacids for bile salts and lysolecithin were measured in comparison with cholestyramine binding capacity, taking into account the final medium pH.'
p37
aS'6755652 | lysolecithin | Lysolecithins were bound by clay-containing antacids with the same intensity as cholestyramine, while the binding capacity of aluminium-containing antacids was weaker and related to the final pH.'
p38
aS'6755652 | lysolecithin | Lysolecithins should be also bound more intensively in acid medium by aluminium-containing antacids.'
p39
aS'3863229 | lysolecithin | The gastric mucosa is continuously exposed to a variety of noxious factors, both endogenous such as: 0.1N hydrochloric acid, pepsin, bile acids, lysolecithin, H. pylori toxins and exogenous such as NSAIDs, ethanol and others.'
p40
aS'6784737 | lysolecithin | Gastroscopy was performed, followed by determination of intragastric bile acids and lysolecithin and a duodenogastric isotope reflux examination using technetium-99m-diethyliminodiacetic acid (Tc-99m HIDA).'
p41
aS'6784737 | lysolecithin | Intragastric bile acid concentrations in the patients with upper abdominal complaints were in the range 7-21,458 mumol/l (mean 964 +/- 2342 mumol/l) and lysolecithin concentrations in the range 0-1992 mumol/l (mean 70 +/- 273 mumol/l).'
p42
aS'6784737 | lysolecithin | Similarly the various measures of reflux were higher in those patients taking anticholinergic, psychotherapeutic or cardiovascular drugs, antacids or metoclopramide than in the patients not taking the respective drugs, although the only statistically significant increases were in intragastric bile acids among the users of antacids and metoclopramide (p less than 0.01 and p less than 0.05, respectively) and the increase in lysolecithin concentrations among those taking metoclopramide (p less than 0.05).'
p43
aS'21271424 | marine mussel | The marine mussel Mytilus galloprovincialis lives attached to the surface of hard substrata, where its exposure and relative immobility allow it to record changes in ambient seawater.'
p44
aS'27124707 | olea europaea | The antiscale properties of the aqueous extract of olive (Olea europaea L.) leaves as a natural scale inhibitor for stainless steel surface in Hammam raw water were investigated using chronoamperometry (CA) and electrochemical impedance spectroscopy techniques in conjunction with a microscopic examination.'
p45
aS'10819205 | chinese cabbage | The effects of chemical amendments (calcium carbonate (CC), steel sludge (SS) and furnace slag (FS)) on the growth and uptake of cadmium (Cd) by wetland rice, Chinese cabbage and wheat grown in a red soil contaminated with Cd were investigated using a pot experiment.'
p46
aS'27464022 | catfish | In this study, we investigated the efficacy of several adjuvants in the production of anti-bovine serum albumin (BSA) antibodies in silver catfish.'
p47
aS"27464022 | catfish | Two hundred and seventy juvenile silver catfish (60-80 g) of both sexes were intraperitoneally vaccinated with BSA (200 g/fish) alone or mixed to the following adjuvants: Freund's complete adjuvant (FCA), Freund's incomplete adjuvant (FIA), aluminum hydroxide (AlOH), Montanide, four types of cytosine-phosphate-guanine (CpG) oligodeoxynucleotides (ODNs) and three concentrations of -glucan, and the immune enhancing property was evaluated by measuring anti-BSA antibodies in blood samples at biweekly intervals."
p48
aS'18363737 | diacylglycerol | We observed co-localization of fatty acids and diacylglycerol, which may indicate lipid-storing parts of the skeletal muscle.'
p49
aS'16861275 | whey | Amino acid sequence analysis showed the protein to consist of 134 amino acids and to contain three sequence repeats of approximately 40 amino acids which were very similar to the well-known whey acidic protein domains of other proteins.'
p50
aS'17249489 | sauce | In this study, the migrations of Fe, Mg, Mn, Cr, Ni and Ca, along seven cooking cycles were evaluated for two food preparations (polished rice and commercial tomato sauce, the latter as an acid food), performed in unused stainless steel, cast iron and soapstone pans, taking refractory glass as a blank.'
p51
aS'11790001 | avena sativa | A pot experiment with wheat (Triticum aestivum L.), oat (Avena sativa L.), and redbeet (Beta vulgaris L.) was conducted to test the ability of limestone and hydrous ferric oxide (HFO) to ameliorate Ni phytotoxicity in two soils contaminated by particulate emissions from a nickel refinery.'
p52
aS'23200379 | syrup | As a model analyte, valproic acid (VPA, antiepileptic drug) was selected and its extraction from biological (human serum) and pharmaceutical (tablet and syrup) samples were performed without any considerable matrix effect.'
p53
aS'5912899 | triticum aestivum | A pot experiment with wheat (Triticum aestivum L.), oat (Avena sativa L.), and redbeet (Beta vulgaris L.) was conducted to test the ability of limestone and hydrous ferric oxide (HFO) to ameliorate Ni phytotoxicity in two soils contaminated by particulate emissions from a nickel refinery.'
p54
aS'16515824 | hordeum vulgare | A laboratory batch experiment using 15 potential amendments was used to select 5 amendments to treat contaminated soil in a pot study using two Barley (Hordeum vulgare L.) cultivars that differed in their ability to accumulate cadmium.'
p55
aS"2619883 | squirrel | Using the porcine zona pellucida Mr = 55,000 (ZP3) glycoprotein as immunogen, the effect of varying ZP3 dosages (50 micrograms, 25 micrograms, 5 micrograms) or adjuvants (200 micrograms ZP3 with either Freund's, A1[OH]3, or a muramyl dipeptide analog [MDP] on antibody response was evaluated in female squirrel monkeys."
p56
aS'1185602 | cocoa butter | Studies have been made on the bioavailability in blood of sodium cyantate administered orally in gelatin capsules, in gelatin capsules plus antacid, in enteric-coated capsules and in cocoa butter suppositories administered rectally to patients with sickle cell disease.'
p57
aS'11790001 | oat | A pot experiment with wheat (Triticum aestivum L.), oat (Avena sativa L.), and redbeet (Beta vulgaris L.) was conducted to test the ability of limestone and hydrous ferric oxide (HFO) to ameliorate Ni phytotoxicity in two soils contaminated by particulate emissions from a nickel refinery.'
p58
aS'12495426 | (z,z)-9,12-octadecadienoic acid | The dominant compounds were: 1-heptadecyne (1.5-8%), hexadecanoic acid (14-36%), (Z,Z)-9,12-octadecadienoic acid (12-30%), (Z,Z,Z)-9,12,15-octadecatrienoic acid (6-12%), n-heptadecane (4-16%), and 1-heptadecene (1.5-8%).'
p59
aS'21337839 | fruits | It is well known that predisposing factors of phytobezoar formation are ingestion of fruits containing soluble tannin, presence of dilute hydrochloric acid in the stomach, and gastric stasis or delayed emptying.'
p60
aS'239592 | chocolate | When GER was detected the authors recommended conservative treatment: postural position, restricted fluid intake before going to bed, elimination of cocoa and chocolate, antacids.'
p61
aS'11198175 | bean | Bi(EDTA) and Bi(Cys)(3) are competitive inhibitors of jack bean urease with K(i) values of 1.74 +/- 0.14 and 1.84 +/- 0.15 mM, while the anti-ulcer drug, ranitidine bismuth citrate (RBC) is a non-competitive inhibitor with a K (i) value of 1.17 +/- 0.09 mM.'
p62
aS'21889174 | chicory | Oxidative damage evaluated by lipid peroxidation increase measured by (i) malondialdehyde (MDA) production and (ii) the antioxidant enzyme peroxidase (POD) activities, was highlighted in chicory roots grown in the presence of CaCO(3).'
p63
aS'11790001 | beta vulgaris | A pot experiment with wheat (Triticum aestivum L.), oat (Avena sativa L.), and redbeet (Beta vulgaris L.) was conducted to test the ability of limestone and hydrous ferric oxide (HFO) to ameliorate Ni phytotoxicity in two soils contaminated by particulate emissions from a nickel refinery.'
p64
aS'2331951 | pancake | In a randomized study design, antacid or placebo were given 1 hr after either a protein or a carbohydrate pancake, of which only the former had any acid-buffering capacity.'
p65
aS'2331951 | pancake | The antacid had no effect in the corpus after either pancake.'
p66
aS'2331951 | pancake | It raised intraluminal pH markedly in the antrum after a carbohydrate pancake (median antral pH before antacid: 2.0; after antacid: 3.3), whereas its effect in the antrum was weak after a protein pancake.'
p67
aS'2331951 | pancake | In vitro experiments were conducted to explain the in vivo results: in contrast to a carbohydrate pancake, a protein pancake reduced the buffering capacity of the antacid by direct interaction.'
p68
aS'10819205 | cabbage | The effects of chemical amendments (calcium carbonate (CC), steel sludge (SS) and furnace slag (FS)) on the growth and uptake of cadmium (Cd) by wetland rice, Chinese cabbage and wheat grown in a red soil contaminated with Cd were investigated using a pot experiment.'
p69
aS'11601708 | cabbage | The decrease in the L-ascorbic acid content of shredded cabbage was approximately 20 to 30% for scallop-shell powder treatment at 0.1 and 0.5 g dm(-3) (20 degrees C), which is almost identical to that by sodium hypochlorite treatment at 200 micorg dm(-3).'
p70
aS'22484377 | grapefruit | Samples were power-brushed, outside the mouth, twice daily with test products (dentifrices containing 8% strontium or 8% arginine) or control (1,450 ppm NaF or water) and subjected to an agitated grapefruit juice acid challenge on days 3 and 4.'
p71
aS'27770929 | aflatoxin | This immunosensor was fabricated by immobilization of anti-aflatoxin monoclonal antibodies (Ab-AFB1) and bovine serum albumin (BSA) for aflatoxin B1 detection.'
p72
aS'8099348 | aflatoxin | In Trial 1, pigs (n = 54; trial length 4 wk) were assigned to either an uncontaminated treatment (NC), 800 ppb of aflatoxin from contaminated corn (AC), or AC with one of four clays.'
p73
aS'3587329 | butter | Studies have been made on the bioavailability in blood of sodium cyantate administered orally in gelatin capsules, in gelatin capsules plus antacid, in enteric-coated capsules and in cocoa butter suppositories administered rectally to patients with sickle cell disease.'
p74
aS'8717010 | vinegar | This article reviews such non-conventional topical therapies as aloe vera, antacids, benzoyl peroxide, collagen, dilantin, gentian violet, impregnated gauzes, insulin, mercurochrome, oxygen therapy, sugar, and vinegar.'
p75
aS'20213972 | vinegar | Experiments reveal that, in the case of acetic acid and pearls, the concentration found in vinegar made from wine is ideal.'
p76
aS'3998237 | sunflower | Milk fat from cows fed sunflower seed rations contained less carbon-14:0, 16:0, and 16:1 fatty acids but more carbon-18:0.'
p77
aS'3998237 | sunflower | Insoluble salts of fatty acids were increased in ruminal fluid dry matter from cows fed sunflower seeds but were not increased further by additional limestone.'
p78
aS'3998237 | sunflower | Concentrations of nonesterified carbon-18:1 fatty acids in ruminal fluid dry matter were lower for cows fed sunflower seeds with additional limestone.'
p79
aS'23962634 | salad | Besides eating chicken, using antacids, and having chronic enteropathies, we identified eating vegetable salad outside Europe, drinking bottled water in high-risk destinations, and handling/eating undercooked pork as possible risk factors for travel-related campylobacteriosis.'
p80
aS'26186724 | scallop | We studied the population dynamics and parasite load of the foraminifer Cibicides antarcticus on its host the Antarctic scallop Adamussium colbecki from three localities differing by sea ice cover within western McMurdo Sound, Ross Sea, Antarctica: Explorers Cove, Bay of Sails and Herbertson Glacier.'
p81
aS'28231537 | p-coumaric acid | The release kinetics of esterified p-coumaric acid (PCA) and ferulic acid (FA) from rice straw under a mild alkaline condition were investigated to collect fundamental data for the design of a recovery process.'
p82
aS'1551350 | biscuit | We evaluated the effect of a compound containing alginic acid plus antacid (extra-strength Gaviscon) versus active control antacid with equal acid-neutralizing capacity on intraesophageal acid exposure following a high-fat meal (61% fat: sausage, egg, and biscuit).'
p83
aS'2170086 | buttermilk | Results indicated that milk and buttermilk did not aggravate or protect against duodenal injury, while antacid and prostaglandin did significantly protect against inflammation (P less than 0.02).'
p84
aS'21889174 | chicory roots | Oxidative damage evaluated by lipid peroxidation increase measured by (i) malondialdehyde (MDA) production and (ii) the antioxidant enzyme peroxidase (POD) activities, was highlighted in chicory roots grown in the presence of CaCO(3).'
p85
aS'24835954 | mustard spinach | The enhancement of Japanese mustard spinach growth and the increased in plant uptake of phosphates following acid washing were observed.'
p86
aS'15691943 | l-phenylalanine | strain BI grew with several other aromatic acids as carbon sources: benzoate, 3-hydroxybenzoate, 4-hydroxybenzoate, gentisate, d-mandelate, l-phenylalanine, l-tyrosine, phenylacetate, 3-hydroxyphenylacetate, 4-hydroxyphenylacetate, and phenylpropionate.'
p87
aS'25310996 | l-phenylalanine | Eight bismuth(III) complexes derived from a variety of -amino acids covering a range of physico-chemical properties (L-phenylalanine (Phe), L-proline (Pro), L-methionine (Met), L-cysteine (Cys), D,L-serine (Ser), L-tyrosine (Tyr), l-aspartic acid (Asp) and L-glutamic acid (Glu)) have been synthesised, characterised, and evaluated for their activity against Helicobacter pylori.'
p88
aS'28213721 | oryza sativa | Three different chemical amendments, lime stone, steel slag, and acid mine drainage sludge, were applied to paddy fields, and rice (Oryza sativa L. Milyang 23) was cultivated.'
p89
aS'21780397 | tamarindus indica | The control experiments were carried out to establish the plausible role of tartaric acid from Tamarindus indica and ascorbic acid from Emblica officinalis in this regard.'
p90
aS'18299148 | horseradish | The in vitro release of two model proteins (horseradish peroxidase (HRP) and bovine serum albumin labeled with fluorescein isothiocyanate (FITC-BSA)) was evaluated from crosslinked networks composed of sebacic acid dimethacrylate (MSA), 1,6-bis-carboxyphenoxyhexane dimethacrylate (MCPH), and poly(ethylene glycol) diacrylate (PEGDA), supplemented with calcium carbonate.'
p91
aS'3996704 | rainbow trout | Rainbow trout held in net pens for 4 weeks in three locations contaminated by heavy metals developed elevated levels of hepatic metallothionein but no acclimation to a combination of zinc, copper and cadmium.'
p92
a.