(lp0
S'monoamine oxidase  "kaempferol 3-rhamnofuranoside"'
p1
aS'monoamine oxidase  "malonyl-coa"'
p2
aS'monoamine oxidase  "arabinose"'
p3
aS'monoamine oxidase  "l-alanine"'
p4
aS'monoamine oxidase  "n8-acetylspermidine"'
p5
aS'monoamine oxidase  "lycopene"'
p6
aS'monoamine oxidase  "orotic acid"'
p7
aS'monoamine oxidase  "ribonuclease"'
p8
aS'monoamine oxidase  "mevalonic acid-5p"'
p9
aS'monoamine oxidase  "angelicin"'
p10
aS'monoamine oxidase  "hydrogen sulfide"'
p11
aS'monoamine oxidase  "hesperidin 7-o-alpha-l-rhamno-glucoside"'
p12
aS'monoamine oxidase  "1-phenyl-1,3-dodecanedione"'
p13
aS'monoamine oxidase  "psoralidin"'
p14
aS'monoamine oxidase  "tricin 7-diglucuronoside"'
p15
aS'monoamine oxidase  "myristicin"'
p16
aS'monoamine oxidase  "naringin glucoside"'
p17
aS'monoamine oxidase  "cyclohexanone"'
p18
aS'monoamine oxidase  "emodin"'
p19
aS'monoamine oxidase  "epigallocatechin"'
p20
aS'monoamine oxidase  "papain"'
p21
aS'monoamine oxidase  "luteolin 7-malonylglucoside"'
p22
aS'monoamine oxidase  "peroxiredoxin-(s-hydroxycysteine)"'
p23
aS'monoamine oxidase  "trans-2-decadienic acid ethyl ester"'
p24
aS'monoamine oxidase  "dehydrogibberellin ga-25"'
p25
aS'monoamine oxidase  "cyanidin 7-arabinoside"'
p26
aS'monoamine oxidase  "deoxyuridine"'
p27
aS'monoamine oxidase  "20-hydroxyrutacridone epoxide"'
p28
aS'monoamine oxidase  "protein r"'
p29
aS'monoamine oxidase  "erucic acid"'
p30
aS'monoamine oxidase  "deoxycytidine"'
p31
aS'monoamine oxidase  "lipoamide"'
p32
aS'monoamine oxidase  "xanthotoxin"'
p33
aS'monoamine oxidase  "kaempferol 3-(6-acetylgalactoside)"'
p34
aS'monoamine oxidase  "sodium nitrite"'
p35
aS'monoamine oxidase  "2-amino-3-methylimidazo[4,5-f]quinoline"'
p36
aS'monoamine oxidase  "s-formylglutathione"'
p37
aS'monoamine oxidase  "triacylglycerol"'
p38
aS'monoamine oxidase  "6\'-hmg sdg"'
p39
aS'monoamine oxidase  "cyanidin 3-o-(6\'\'-malonyl-3\'\'-glucosyl-glucoside)"'
p40
aS'monoamine oxidase  "methoxyphenylacetic acid"'
p41
aS'monoamine oxidase  "2-methylpropyl 3-hydroxy-2-methylidenebutanoate"'
p42
aS'monoamine oxidase  "dimethoxycoumarin"'
p43
aS'monoamine oxidase  "1,5-dihydroxyxanthone"'
p44
aS'monoamine oxidase  "apigenin 7-o-beta-d-galactomannoside"'
p45
aS'monoamine oxidase  "pantothenic acid"'
p46
aS'monoamine oxidase  "apigenin 3,6-di-c-glucoside"'
p47
aS'monoamine oxidase  "oleanolic acid methyl ester"'
p48
aS'monoamine oxidase  "kaempferol 3-feruloyltriglucoside"'
p49
aS'monoamine oxidase  "h2o"'
p50
aS'monoamine oxidase  "pelargonidin"'
p51
aS'monoamine oxidase  "n-(2r-hydroxytricosanoyl)-2s-amino-1,3s,4r-octadecanetriol"'
p52
aS'monoamine oxidase  "5-hydroxytryptophol"'
p53
aS'monoamine oxidase  "2-oxoglutarate"'
p54
aS'monoamine oxidase  "s-methyl-5-thio-\xce\xb1-d-ribose 1-phosphate"'
p55
aS'monoamine oxidase  "apigenin 7-rhamnosylglucoside"'
p56
aS'monoamine oxidase  "isorhamnetin 3-rhamnodiglucoside"'
p57
aS'monoamine oxidase  "acteoside"'
p58
aS'monoamine oxidase  "carbon disulfide"'
p59
aS'monoamine oxidase  "quercetin 3-glucuronide"'
p60
aS'monoamine oxidase  "oxaloacetate"'
p61
aS'monoamine oxidase  "o-quinone"'
p62
aS'monoamine oxidase  "2,6,6-trimethylcyclohex-2-en-1,4-dione"'
p63
aS'monoamine oxidase  "salidroside"'
p64
aS'monoamine oxidase  "carotene"'
p65
aS'monoamine oxidase  "2\'-deoxyguanosine"'
p66
aS'monoamine oxidase  "pyridoxamine"'
p67
aS'monoamine oxidase  "fadh2"'
p68
aS'monoamine oxidase  "3,4-dicaffeoylquinic acid"'
p69
aS'monoamine oxidase  "formononetin 7-(2-p-hydroxybenzoylglucoside)"'
p70
aS'monoamine oxidase  "2-nonenal"'
p71
aS'monoamine oxidase  "4-hydroxy-2,6-dimethyl-7-octen-3-one"'
p72
aS'monoamine oxidase  "cyanidin 3-o-beta-d-diglycoside"'
p73
aS'monoamine oxidase  "(x)-1-nonen-3-yl acetate"'
p74
aS'monoamine oxidase  "cinnamic acid"'
p75
aS'monoamine oxidase  "3-(4-hydroxy-3-methoxyphenyl)-1-glucosyl-prop-2-ene"'
p76
aS'monoamine oxidase  "stigmasterol"'
p77
aS'monoamine oxidase  "cinnamaldehyde"'
p78
aS'monoamine oxidase  "gladiatoside c2"'
p79
aS'monoamine oxidase  "beta-thujaplicin"'
p80
aS'monoamine oxidase  "3-methyladenine"'
p81
aS'monoamine oxidase  "hesperetin"'
p82
aS'monoamine oxidase  "liquiritin 2\'\'-apioside"'
p83
aS'monoamine oxidase  "kaempferol 7-(6\'\'-p-coumaroylglucoside)"'
p84
aS'monoamine oxidase  "thymoquinone"'
p85
aS'monoamine oxidase  "4-hydroxybenzylamine"'
p86
aS'monoamine oxidase  "trans-1,8-terpin"'
p87
aS'monoamine oxidase  "d-xylose"'
p88
aS'monoamine oxidase  "3b,18b-3-methoxy-11-oxo-12-oleanen-30-oic acid"'
p89
aS'monoamine oxidase  "beryllium"'
p90
aS'monoamine oxidase  "norspermidine"'
p91
aS'monoamine oxidase  "3-aminopropionaldehyde"'
p92
aS'monoamine oxidase  "arctic acid"'
p93
aS'monoamine oxidase  "beta-amylase"'
p94
aS'monoamine oxidase  "mellein"'
p95
aS'monoamine oxidase  "tungsten"'
p96
aS'monoamine oxidase  "kaempferol 3-o-beta-d-xylofuranoside"'
p97
aS'monoamine oxidase  "tamarixetin"'
p98
aS'monoamine oxidase  "hg2+"'
p99
aS'monoamine oxidase  "l-2-aminoethyl seryl phosphate"'
p100
aS'monoamine oxidase  "fadh"'
p101
aS'monoamine oxidase  "polysaccharides"'
p102
aS'monoamine oxidase  "prostaglandin e2"'
p103
aS'monoamine oxidase  "tricin 7-triglucuronoside"'
p104
aS'monoamine oxidase  "alpha-tocopherolquinone"'
p105
aS'monoamine oxidase  "3-oxodecanoic acid glycerides"'
p106
aS'monoamine oxidase  "pedunculagin"'
p107
aS'monoamine oxidase  "lactyltrimethylammonium betaine"'
p108
aS'monoamine oxidase  "coproporphyrinogen iii"'
p109
aS'monoamine oxidase  "plumbagin"'
p110
aS'monoamine oxidase  "taxifolin"'
p111
aS'monoamine oxidase  "6alpha,7alpha-17-tetrahydroxy"'
p112
aS'monoamine oxidase  "kaempferol 3-o-xylosyl-rutinoside"'
p113
aS'monoamine oxidase  "3-(3,4-dihydroxyphenyl)lactic acid"'
p114
aS'monoamine oxidase  "l-threonine"'
p115
aS'monoamine oxidase  "lysozyme"'
p116
aS'monoamine oxidase  "oleate"'
p117
aS'monoamine oxidase  "concanavalin a"'
p118
aS'monoamine oxidase  "citrinin"'
p119
aS'monoamine oxidase  "cis-2,8-menthadien-2-ol"'
p120
aS'monoamine oxidase  "uroporphyrinogen-i"'
p121
aS'monoamine oxidase  "benzyl alcohol"'
p122
aS'monoamine oxidase  "ergosterol peroxide"'
p123
aS'monoamine oxidase  "kaempferol 3-(2\'\'\'-sinapoylsophoroside) 7-cellobioside"'
p124
aS'monoamine oxidase  "4-hydroxyphenylpyruvate"'
p125
aS'monoamine oxidase  "isorhamnetin 3-dirhamnoside"'
p126
aS'monoamine oxidase  "procyanidin b2"'
p127
aS'monoamine oxidase  "4-aminobenzoic acid"'
p128
aS'monoamine oxidase  "apigenin 7-di-o-xyloside"'
p129
aS'monoamine oxidase  "s-methyl 1-propenesulfinothioate"'
p130
aS'monoamine oxidase  "propylene glycol"'
p131
aS'monoamine oxidase  "diosmetin"'
p132
aS'monoamine oxidase  "debenzoylzucchini factor b"'
p133
aS'monoamine oxidase  "kaempferol 3-(2g-p-coumaroylrutinoside)"'
p134
aS'monoamine oxidase  "isorhamnetin"'
p135
aS'monoamine oxidase  "2,6-dimethylocta-2-trans-6-trans-dien-1,8-diol"'
p136
aS'monoamine oxidase  "3,4-dihydroxyphenylglycolaldehyde"'
p137
aS'monoamine oxidase  "betulinic acid"'
p138
aS'monoamine oxidase  "pelargonidin-3,5-diglucoside-5-o-caffeoylglucoside"'
p139
aS'monoamine oxidase  "cyanidin 3-(6\'\'-acetyl-galactoside)"'
p140
aS'monoamine oxidase  "kaempferol 3-(2\\"'
p141
aS'monoamine oxidase  "hebevinoside viii"'
p142
aS'monoamine oxidase  "myricetin"'
p143
aS'monoamine oxidase  "trans-resveratrol"'
p144
aS'monoamine oxidase  "cyclohexanones"'
p145
aS'monoamine oxidase  "3-methoxy-4-hydroxyphenylacetic acid"'
p146
aS'monoamine oxidase  "l-ornithine"'
p147
aS'monoamine oxidase  "melilotussaponin o1"'
p148
aS'monoamine oxidase  "ergothioneine"'
p149
aS'monoamine oxidase  "umbelliferone"'
p150
aS'monoamine oxidase  "2-hydroxy-3,5,5-trimethylcyclohexa-1,4-dion-2-ene"'
p151
aS'monoamine oxidase  "xantofyl palmitate"'
p152
aS'monoamine oxidase  "l-tyrosine"'
p153
aS'monoamine oxidase  "apigenin"'
p154
aS'monoamine oxidase  "(e)-10,11-dihydro-alpha-atlantone"'
p155
aS'monoamine oxidase  "alpha-linolenic acid"'
p156
aS'monoamine oxidase  "2\'\'-o-alpha-rhamnosyl-6-c-(6-deoxo-xylo-hexos-4-ulosyl)-apigenin"'
p157
aS'monoamine oxidase  "1-phenyl-1,3-heneicosanedione"'
p158
aS'monoamine oxidase  "l-aspartate"'
p159
aS'monoamine oxidase  "propanoate"'
p160
aS'monoamine oxidase  "phloretic acid"'
p161
aS'monoamine oxidase  "oxalate"'
p162
aS'monoamine oxidase  "kaempferol 3-o-alpha-l-galactoside"'
p163
aS'monoamine oxidase  "apigenin 7-digalacturonoside"'
p164
aS'monoamine oxidase  "formic acid"'
p165
aS'monoamine oxidase  "6,7-dihydro-5-methyl-5h-cyclopenta[b]pyrazine"'
p166
aS'monoamine oxidase  "chrysin"'
p167
aS'monoamine oxidase  "isoquercitrin 4\'\'-rhamnoside"'
p168
aS'monoamine oxidase  "apigenin 7-arabinoside"'
p169
aS'monoamine oxidase  "o-methylcorypalline"'
p170
aS'monoamine oxidase  "dicoumarol"'
p171
aS'monoamine oxidase  "l-proline"'
p172
aS'monoamine oxidase  "cu2+"'
p173
aS'monoamine oxidase  "azulene"'
p174
aS'monoamine oxidase  "beta-carotene"'
p175
aS'monoamine oxidase  "di-n-propylamine"'
p176
aS'monoamine oxidase  "hippuric acid"'
p177
aS'monoamine oxidase  "norspermine"'
p178
aS'monoamine oxidase  "luteolin 7-(2\'\'-apiosylglucoside)"'
p179
aS'monoamine oxidase  "sesamol"'
p180
aS'monoamine oxidase  "4-methylsulfonyl-3-butenyl glucosinolate"'
p181
aS'monoamine oxidase  "ethyl 7-epi-12-hydroxyjasmonate glucoside"'
p182
aS'monoamine oxidase  "5-methylcytosine"'
p183
aS'monoamine oxidase  "n-acetyl-serotonin"'
p184
aS'monoamine oxidase  "n-carbamoyl-2-amino-2-(4-hydroxyphenyl)acetic acid"'
p185
aS'monoamine oxidase  "graecunin h-4"'
p186
aS'monoamine oxidase  "acetylsalicylic acid"'
p187
aS'monoamine oxidase  "5-hydroxy-7,8-dimethoxyflavonol"'
p188
aS'monoamine oxidase  "dimethyl peroxide"'
p189
aS'monoamine oxidase  "sennoside a"'
p190
aS'monoamine oxidase  "phloroglucinol"'
p191
aS'monoamine oxidase  "succinate semialdehyde"'
p192
aS'monoamine oxidase  "okadaic acid"'
p193
aS'monoamine oxidase  "agavasaponin c\'"'
p194
aS'monoamine oxidase  "4,6-heptadiyne-1,3-diol"'
p195
aS'monoamine oxidase  "dimethyl sulfide"'
p196
aS'monoamine oxidase  "3\' 5\'-cyclic amp"'
p197
aS'monoamine oxidase  "myosmine"'
p198
aS'monoamine oxidase  "betaine"'
p199
aS'monoamine oxidase  "azi"'
p200
aS'monoamine oxidase  "thymine"'
p201
aS'monoamine oxidase  "n,n-dimethylbenzylamine"'
p202
aS'monoamine oxidase  "glyoxal"'
p203
aS'monoamine oxidase  "di-o-punicyl-o-octadeca-8z,11z,13e-trienylglycerol"'
p204
aS'monoamine oxidase  "anethole"'
p205
aS'monoamine oxidase  "4-hydroxybenzaldehyde"'
p206
aS'monoamine oxidase  "(6e)-piperamide-c7:1"'
p207
aS'monoamine oxidase  "myoglobin"'
p208
aS'monoamine oxidase  "salvigenin"'
p209
aS'monoamine oxidase  "7-methylxanthine"'
p210
aS'monoamine oxidase  "sphingosine"'
p211
aS'monoamine oxidase  "(+)-6-hydroxy-2,6-dimethyl-7-octen-4-one"'
p212
aS'monoamine oxidase  "1,7,7-trimethyltricyclo[2.2.1.02,6]heptane"'
p213
aS'monoamine oxidase  "3beta,6beta-dihydroxynortropane"'
p214
aS'monoamine oxidase  "cyclo(aspartylleucylthreonylvalyltyrosylphenylalanylglycyl)"'
p215
aS'monoamine oxidase  "pelargonidin 5-galactoside"'
p216
aS'monoamine oxidase  "isolimocitrol 3-glucoside"'
p217
aS'monoamine oxidase  "7-(4-hydroxyphenyl)-1-phenyl-4-hepten-3-one"'
p218
aS'monoamine oxidase  "succinic acid"'
p219
aS'monoamine oxidase  "sarsasapogenin"'
p220
aS'monoamine oxidase  "anthranilic acid"'
p221
aS'monoamine oxidase  "3-hydroxyanthranilic acid"'
p222
aS'monoamine oxidase  "hydroxybupropion"'
p223
aS'monoamine oxidase  "2-amino-3,4-dihydroxypentanedioic acid"'
p224
aS'monoamine oxidase  "haem"'
p225
aS'monoamine oxidase  "starch"'
p226
aS'monoamine oxidase  "pterin"'
p227
aS'monoamine oxidase  "gamma-sitosterol"'
p228
aS'monoamine oxidase  "piceatannol 4\'-galloylglucoside"'
p229
aS'monoamine oxidase  "d-glyceraldehyde"'
p230
aS'monoamine oxidase  "pyridoxal 5\'-phosphate"'
p231
aS'monoamine oxidase  "2-(2-carboxy-4-methylthiazol-5-yl)ethyl phosphate"'
p232
aS'monoamine oxidase  "formamide"'
p233
aS'monoamine oxidase  "apigenin 8-c-rhamnosyl-glucoside"'
p234
aS'monoamine oxidase  "dimethylaniline-n-oxide"'
p235
aS'monoamine oxidase  "(2a,3a)-dihydroxy-12-ursen-24-oic acid"'
p236
aS'monoamine oxidase  "silicon"'
p237
aS'monoamine oxidase  "l-kynurenine"'
p238
aS'monoamine oxidase  "uroporphyrinogen i"'
p239
aS'monoamine oxidase  "methylene glutamic acid"'
p240
aS'monoamine oxidase  "phytoene"'
p241
aS'monoamine oxidase  "oleanolic acid"'
p242
aS'monoamine oxidase  "retinol palmitate"'
p243
aS'monoamine oxidase  "diacetyl"'
p244
aS'monoamine oxidase  "licofuranone"'
p245
aS'monoamine oxidase  "ginsenoside rb1"'
p246
aS'monoamine oxidase  "(9z)-valenciaxanthin"'
p247
aS'monoamine oxidase  "cudraflavone a"'
p248
aS'monoamine oxidase  "chrysarone methyl ether"'
p249
aS'monoamine oxidase  "galangin"'
p250
aS'monoamine oxidase  "kaempferol 3-(2g-glucosylgentiobioside)"'
p251
aS'monoamine oxidase  "cyanidin"'
p252
aS'monoamine oxidase  "l-glutamic acid"'
p253
aS'monoamine oxidase  "squalene"'
p254
aS'monoamine oxidase  "5,10-methylenetetrahydrofolate"'
p255
aS'monoamine oxidase  "n1-acetylspermine"'
p256
aS'monoamine oxidase  "pc(20:0/18:0)"'
p257
aS'monoamine oxidase  "glycyrrhizin"'
p258
aS'monoamine oxidase  "galactosamine"'
p259
aS'monoamine oxidase  "methoxyl"'
p260
aS'monoamine oxidase  "d-mannitol"'
p261
aS'monoamine oxidase  "pentanal"'
p262
aS'monoamine oxidase  "indole-3-ethanol"'
p263
aS'monoamine oxidase  "carbamic acid"'
p264
aS'monoamine oxidase  "ctp"'
p265
aS'monoamine oxidase  "eicosapentaenoic acid"'
p266
aS'monoamine oxidase  "3-hydroxy-1,10-bisaboladien-9-one"'
p267
aS'monoamine oxidase  "pelargonidin 3-(2gluglucosylrutinoside)"'
p268
aS'monoamine oxidase  "prephenate"'
p269
aS'monoamine oxidase  "kaempferol 3-coumaroyl-triglucoside"'
p270
aS'monoamine oxidase  "luteolin 7-rhamnosylglucoside"'
p271
aS'monoamine oxidase  "cincassiol c2"'
p272
aS'monoamine oxidase  "2-butanol"'
p273
aS'monoamine oxidase  "tellurium"'
p274
aS'monoamine oxidase  "kaempferol 3-o-rhamnosyl-rhamnosyl-glucoside"'
p275
aS'monoamine oxidase  "stearate"'
p276
aS'monoamine oxidase  "salicyl alcohol"'
p277
aS'monoamine oxidase  "hydroxamic acid"'
p278
aS'monoamine oxidase  "magnoflorine"'
p279
aS'monoamine oxidase  "palmitoyl-coa"'
p280
aS'monoamine oxidase  "smilagenin 3-[2\'\'-glucosyl-6\'\'-arabinosylglucoside]"'
p281
aS'monoamine oxidase  "ubiquinone 9"'
p282
aS'monoamine oxidase  "6-hydroxymelatonin"'
p283
aS'monoamine oxidase  "terpene"'
p284
aS'monoamine oxidase  "simonin ii"'
p285
aS'monoamine oxidase  "benzoyl-coa"'
p286
aS'monoamine oxidase  "cyanidin 3-(6\'\'-malonyllaminaribioside)"'
p287
aS'monoamine oxidase  "emblicanin a"'
p288
aS'monoamine oxidase  "emblicanin b"'
p289
aS'monoamine oxidase  "glutaminase"'
p290
aS'monoamine oxidase  "(-)-gossypol"'
p291
aS'monoamine oxidase  "mangiferin 6\'-gallate"'
p292
aS'monoamine oxidase  "cyanidin 3,5-digalactoside"'
p293
aS'monoamine oxidase  "monodehydroascorbate"'
p294
aS'monoamine oxidase  "4-methoxy-3-geranylgeranyl-1,2-dihydroxybenzene"'
p295
aS'monoamine oxidase  "apigenin 6-c-glucosyl-o-arabinoside"'
p296
aS'monoamine oxidase  "anthocyanins"'
p297
aS'monoamine oxidase  "taurine"'
p298
aS'monoamine oxidase  "1-deoxy-l-glycero-tetrulose 4-phosphate"'
p299
aS'monoamine oxidase  "cyanidin 3-rutinoside"'
p300
aS'monoamine oxidase  "phenylacetate"'
p301
aS'monoamine oxidase  "licopyranocoumarin"'
p302
aS'monoamine oxidase  "3-aminopropanal"'
p303
aS'monoamine oxidase  "5-hydroxyindole acetaldehyde"'
p304
aS'monoamine oxidase  "tartaric acid"'
p305
aS'monoamine oxidase  "indole-3-acetate"'
p306
aS'monoamine oxidase  "aminoadipic acid"'
p307
aS'monoamine oxidase  "lanthanum"'
p308
aS'monoamine oxidase  "vanadium"'
p309
aS'monoamine oxidase  "protocatechuic acid"'
p310
aS'monoamine oxidase  "galactosyl erythro-5-hydroxy-l-lysine"'
p311
aS'monoamine oxidase  "palladium"'
p312
aS'monoamine oxidase  "eremopetasitenin b1"'
p313
aS'monoamine oxidase  "eugenol"'
p314
aS'monoamine oxidase  "arabinogalactan"'
p315
aS'monoamine oxidase  "(s)-2,3-dihydro-5-hydroxy-2-methyl-1,4-naphthoquinone"'
p316
aS'monoamine oxidase  "coenzyme q"'
p317
aS'monoamine oxidase  "sodium borohydride"'
p318
aS'monoamine oxidase  "luteolin 7-glucuronylglucoside"'
p319
aS'monoamine oxidase  "6,7-dihydro-2-methyl-5h-cyclopenta[b]pyrazine"'
p320
aS'monoamine oxidase  "apigenin 7-glucuronosyl-glucoside"'
p321
aS'monoamine oxidase  "antimony"'
p322
aS'monoamine oxidase  "5alpha-stigmastan-3,6-dione"'
p323
aS'monoamine oxidase  "1,4-benzoquinone"'
p324
aS'monoamine oxidase  "epicatechin"'
p325
aS'monoamine oxidase  "apigenin 7-o-glucuronide"'
p326
aS'monoamine oxidase  "sarsasapogenin 3-[4\'\'-glucosyl-6\'\'-arabinosylglucoside]"'
p327
aS'monoamine oxidase  "estriol"'
p328
aS'monoamine oxidase  "17\xce\xb2-estradiol"'
p329
aS'monoamine oxidase  "3,4,5-trimethoxyphenyl 2,6-digalloylglucoside"'
p330
aS'monoamine oxidase  "arecoline"'
p331
aS'monoamine oxidase  "(+)-2,3-dihydro-9-hydroxy-2[1-(6-sinapinoyl)beta-d-glucosyloxy-1-methylethyl]-7h-furo[3,2-g][1]benzopyran-7-one"'
p332
aS'monoamine oxidase  "1-hydroxy-3,5-dimethoxy-2-prenylxanthone"'
p333
aS'monoamine oxidase  "glicoricone"'
p334
aS'monoamine oxidase  "alpha-lipoic acid"'
p335
aS'monoamine oxidase  "caffeic acid"'
p336
aS'monoamine oxidase  "sulfite"'
p337
aS'monoamine oxidase  "isovaleryl-coa"'
p338
aS'monoamine oxidase  "3beta-cycloartane-3,25-diol"'
p339
aS'monoamine oxidase  "3,4-dihydroxyphenylacetate"'
p340
aS'monoamine oxidase  "4-aminobutyric acid"'
p341
aS'monoamine oxidase  "(s)-naringenin"'
p342
aS'monoamine oxidase  "domoic acid"'
p343
aS'monoamine oxidase  "kaempferol 7-(3g-glucosylgentiobioside)"'
p344
aS'monoamine oxidase  "kaempferol 3-(2\'\'-rhamnosylrutinoside)"'
p345
aS'monoamine oxidase  "campest-4-en-3,6-dione"'
p346
aS'monoamine oxidase  "licocoumarone"'
p347
aS'monoamine oxidase  "7\',9\'-cis-lycopene"'
p348
aS'monoamine oxidase  "propanal"'
p349
aS'monoamine oxidase  "selenite"'
p350
aS'monoamine oxidase  "imp"'
p351
aS'monoamine oxidase  "l-citrulline"'
p352
aS'monoamine oxidase  "3\',4\',5,7,8-pentamethoxyflavanone"'
p353
aS'monoamine oxidase  "glycitein"'
p354
aS'monoamine oxidase  "kaempferol 3-(2\'\'\'-feruloylsophoroside) 7-cellobioside"'
p355
aS'monoamine oxidase  "morin"'
p356
aS'monoamine oxidase  "ergosterol"'
p357
aS'monoamine oxidase  "(24s)-24-ethylbrassinone"'
p358
aS'monoamine oxidase  "dihydrobutylidene phthalide"'
p359
aS'monoamine oxidase  "farnesol"'
p360
aS'monoamine oxidase  "acetyl-coa"'
p361
aS'monoamine oxidase  "phosphorylcholine"'
p362
aS'monoamine oxidase  "cyclohexane"'
p363
aS'monoamine oxidase  "cyanidin 3-(6\'\'-p-coumarylsambubioside)"'
p364
aS'monoamine oxidase  "hemin"'
p365
aS'monoamine oxidase  "dehydroepiandrosterone"'
p366
aS'monoamine oxidase  "physcion"'
p367
aS'monoamine oxidase  "phosphatidylglycerol"'
p368
aS'monoamine oxidase  "cyanidin 3-(cinnamoylglucoside)"'
p369
aS'monoamine oxidase  "kaempferol 7-rhamnofuranoside"'
p370
aS'monoamine oxidase  "scordinine b-3"'
p371
aS'monoamine oxidase  "3,4-dihydroxybenzaldehyde"'
p372
aS'monoamine oxidase  "globulin"'
p373
aS'monoamine oxidase  "3-hydroxy-4,5-dimethyl-2-furanone"'
p374
aS'monoamine oxidase  "geranylgeraniol"'
p375
aS'monoamine oxidase  "osmium"'
p376
aS'monoamine oxidase  "methyl helianthenoate a glucoside"'
p377
aS'monoamine oxidase  "adp-ribose"'
p378
aS'monoamine oxidase  "1-butanol"'
p379
aS'monoamine oxidase  "sitosterol"'
p380
aS'monoamine oxidase  "vanylglycol"'
p381
aS'monoamine oxidase  "4-hydroxybenzoate"'
p382
aS'monoamine oxidase  "1-hexanol"'
p383
aS'monoamine oxidase  "marneral"'
p384
aS'monoamine oxidase  "glaucarubin"'
p385
aS'monoamine oxidase  "cyanidin 3,3\'-diglucoside"'
p386
aS'monoamine oxidase  "ergocalciferol"'
p387
aS'monoamine oxidase  "inosine"'
p388
aS'monoamine oxidase  "cyanidin 3-(2g-xylosylrutinoside)"'
p389
aS'monoamine oxidase  "n1-acetylspermidine"'
p390
aS'monoamine oxidase  "(r)-2\',4\',7-trihydroxy-3\',8-diprenylisoflavan"'
p391
aS'monoamine oxidase  "3-hydroxy-2-methylidene butyric acid angelate"'
p392
aS'monoamine oxidase  "sn-glycerol-3-phosphate"'
p393
aS'monoamine oxidase  "rosmarinic acid"'
p394
aS'monoamine oxidase  "cyanidin 3-(6\'\'-dioxalylglucoside)"'
p395
aS'monoamine oxidase  "ent-16a-hydro-6a,7a,17-trihydroxy-19-kauranoic acid"'
p396
aS'monoamine oxidase  "acidissiminin epoxide"'
p397
aS'monoamine oxidase  "malic acid"'
p398
aS'monoamine oxidase  "xylene"'
p399
aS'monoamine oxidase  "acacetin"'
p400
aS'monoamine oxidase  "piceatannol"'
p401
aS'monoamine oxidase  "l-glutamate"'
p402
aS'monoamine oxidase  "luteolin 6-c-glucosyl-o-arabinoside"'
p403
aS'monoamine oxidase  "3,5,5-trimethylcyclohexa-1,4-dione"'
p404
aS'monoamine oxidase  "cd2+"'
p405
aS'monoamine oxidase  "hydantoin"'
p406
aS'monoamine oxidase  "pyruvic acid"'
p407
aS'monoamine oxidase  "n-acetylglucosamine"'
p408
aS'monoamine oxidase  "acetoacetate"'
p409
aS'monoamine oxidase  "apiosylglucosyl 4-hydroxybenzoate"'
p410
aS'monoamine oxidase  "ursolic acid"'
p411
aS'monoamine oxidase  "3,4-dihydroxymandelaldehyde"'
p412
aS'monoamine oxidase  "leukotriene-d4"'
p413
aS'monoamine oxidase  "phosphoenolpyruvate"'
p414
aS'monoamine oxidase  "glyoxylate"'
p415
aS'monoamine oxidase  "guanosine triphosphate"'
p416
aS'monoamine oxidase  "hypericin"'
p417
aS'monoamine oxidase  "secologanin"'
p418
aS'monoamine oxidase  "oleoyl-coa"'
p419
aS'monoamine oxidase  "n-acetylhistamine"'
p420
aS'monoamine oxidase  "kaempferol 3-o-rhamnosyl-rutinoside"'
p421
aS'monoamine oxidase  "methyl indole-3-acetate"'
p422
aS'monoamine oxidase  "tetradeca-2,12-dien-4,6,8,10-tetrayne"'
p423
aS'monoamine oxidase  "dimethyl benzofuran"'
p424
aS'monoamine oxidase  "mangiferin"'
p425
aS'monoamine oxidase  "guanosine diphosphate"'
p426
aS'monoamine oxidase  "chrysoeriol 7-disulfoglucoside"'
p427
aS'monoamine oxidase  "kaempferol 3-gluco-rhamnoside"'
p428
aS'monoamine oxidase  "phenethyl 6-galloylglucoside"'
p429
aS'monoamine oxidase  "kaempferol 7-o-beta-d-glucoside-o-alpha-l-rhamnosyl"'
p430
aS'monoamine oxidase  "bicyclogermacrene"'
p431
aS'monoamine oxidase  "tetrahydrofolate"'
p432
aS'monoamine oxidase  "hex-cis-3-en-1-ol caproate"'
p433
aS'monoamine oxidase  "pelargonidin-3,5-diglucoside-5-o-p-coumaroylglucoside"'
p434
aS'monoamine oxidase  "safranal"'
p435
aS'monoamine oxidase  "protoporphyrinogen ix"'
p436
aS'monoamine oxidase  "1-p-menthene-8,9-diol"'
p437
aS'monoamine oxidase  "butan-2-one"'
p438
aS'monoamine oxidase  "l-histidine"'
p439
aS'monoamine oxidase  "n-methylphenethylamine"'
p440
aS'monoamine oxidase  "isorhamnetin 3-beta-laminaribioside"'
p441
aS'monoamine oxidase  "cynaroside a"'
p442
aS'monoamine oxidase  "n,n-dimethylaniline"'
p443
aS'monoamine oxidase  "isogentisin"'
p444
aS'monoamine oxidase  "chrysoeriol 7-triglucuronide"'
p445
aS'monoamine oxidase  "dutp"'
p446
aS'monoamine oxidase  "kaempferol 3-p-coumaroylsophorotrioside"'
p447
aS'monoamine oxidase  "(+)-valine"'
p448
aS'monoamine oxidase  "2-butanone"'
p449
aS'monoamine oxidase  "n-methyltyramine"'
p450
aS'monoamine oxidase  "1-octanol"'
p451
aS'monoamine oxidase  "(+)-taxifolin"'
p452
aS'monoamine oxidase  "violet alcohol"'
p453
aS'monoamine oxidase  "naphthalene"'
p454
aS'monoamine oxidase  "s-adenosyl-l-methionine"'
p455
aS'monoamine oxidase  "folic acid"'
p456
aS'monoamine oxidase  "naringenin rutinoside-4-beta-d-glucoside"'
p457
aS'monoamine oxidase  "haemoglobin"'
p458
aS'monoamine oxidase  "gdp"'
p459
aS'monoamine oxidase  "coumestrol"'
p460
aS'monoamine oxidase  "selenide"'
p461
aS'monoamine oxidase  "acetoacetyl-coa"'
p462
aS'monoamine oxidase  "6-methyl 2-galloylgalactarate"'
p463
aS'monoamine oxidase  "epsilon-viniferin"'
p464
aS'monoamine oxidase  "10alpha-4,5-seco-11-eudesmene-4,5-dione"'
p465
aS'monoamine oxidase  "methyl (2-propenylthio) selenide"'
p466
aS'monoamine oxidase  "hesperetin 7-(2,6-dirhamnosylglucoside)"'
p467
aS'monoamine oxidase  "demethoxycurcumin"'
p468
aS'monoamine oxidase  "bicarbonate"'
p469
aS'monoamine oxidase  "polyethylene glycol"'
p470
aS'monoamine oxidase  "homogentisic acid"'
p471
aS'monoamine oxidase  "unknown 370"'
p472
aS'monoamine oxidase  "\xce\xb2-d-glucose"'
p473
aS'monoamine oxidase  "2-angeloyl-9-(3-methyl-2e-pentenoyl)-2b,9a-dihydroxy-4z,10(14)-oplopadien-3-one"'
p474
aS'monoamine oxidase  "gancaonin o"'
p475
aS'monoamine oxidase  "gancaonin b"'
p476
aS'monoamine oxidase  "gancaonin a"'
p477
aS'monoamine oxidase  "madecassoside"'
p478
aS'monoamine oxidase  "gancaonin u"'
p479
aS'monoamine oxidase  "butanoic acid"'
p480
aS'monoamine oxidase  "dihydroxyacetone"'
p481
aS'monoamine oxidase  "(s)-[10]-gingerol"'
p482
aS'monoamine oxidase  "5-hydroxyindole acetate"'
p483
aS'monoamine oxidase  "kaempferol 3-alpha-d-arabinopyranoside"'
p484
aS'monoamine oxidase  "germacrene d"'
p485
aS'monoamine oxidase  "1,2-humulene epoxide"'
p486
aS'monoamine oxidase  "trans-2-trans-4-decadienic acid ethyl ester"'
p487
aS'monoamine oxidase  "glycycoumarin"'
p488
aS'monoamine oxidase  "quercetin 3,4\',7-triglucoside"'
p489
aS'monoamine oxidase  "dtdp"'
p490
aS'monoamine oxidase  "n-(4-hydroxyphenyl)ethoxycarbothioamide"'
p491
aS'monoamine oxidase  "kaempferol 3-feruloylapioside"'
p492
aS'monoamine oxidase  "l-leucine"'
p493
aS'monoamine oxidase  "4-aminobutyraldehyde"'
p494
aS'monoamine oxidase  "cis-4-decadienic acid ethyl ester"'
p495
aS'monoamine oxidase  "2-undecyl-4(1h)-quinolinone"'
p496
aS'monoamine oxidase  "l-methionine"'
p497
aS'monoamine oxidase  "cdp"'
p498
aS'monoamine oxidase  "kaempferol 3-o-acetyl-glucoside"'
p499
aS'monoamine oxidase  "pelargonidin 3-o-\xce\xb2-d-caffeoylglucoside"'
p500
aS'monoamine oxidase  "oxalates"'
p501
aS'monoamine oxidase  "4-hydroxy-2-nonenal"'
p502
aS'monoamine oxidase  "methylglyoxal"'
p503
aS'monoamine oxidase  "harmol"'
p504
aS'monoamine oxidase  "boron"'
p505
aS'monoamine oxidase  "2\'\'-o-alpha-rhamnosyl-6-c-(6-deoxo-xylo-hexos-4-ulosyl)-chrysoeriol"'
p506
aS'monoamine oxidase  "sterols"'
p507
aS'monoamine oxidase  "n-acetyl-l-cysteine"'
p508
aS'monoamine oxidase  "sedanoic anhydride"'
p509
aS'monoamine oxidase  "sarsasapogenin 3-[2\'\'-glucosyl-4\'\'-xylosylglucoside]"'
p510
aS'monoamine oxidase  "palmitate"'
p511
aS'monoamine oxidase  "3beta-cycloart-5-ene-3,25-diol"'
p512
aS'monoamine oxidase  "hexosamine"'
p513
aS'monoamine oxidase  "chromium"'
p514
aS'monoamine oxidase  "d-serine"'
p515
aS'monoamine oxidase  "undecane"'
p516
aS'monoamine oxidase  "arsenite"'
p517
a.