(lp0
S'antacids "aesculin"'
p1
aS'antacids "phosphatidylethanolamine"'
p2
aS'antacids "caprolactam"'
p3
aS'antacids "dehydroascorbic acid"'
p4
aS'antacids "guanidine"'
p5
aS'antacids "10-hydroxy-8-nor-2-fenchanone glucoside"'
p6
aS'antacids "spermidine"'
p7
aS'antacids "nadp+"'
p8
aS'antacids "nitrogenase"'
p9
aS'antacids "n-(1-deoxy-1-fructosyl)alanine"'
p10
aS'antacids "nadph"'
p11
aS'antacids "n,n-dimethylformamide"'
p12
aS'antacids "theobromine"'
p13
aS'antacids "meso-2,2\'-iminobispropanoic acid"'
p14
aS'antacids "4-vinylpyridine"'
p15
aS'antacids "5\',5\'\'\'-diadenosine triphosphate"'
p16
aS'antacids "cellobiose"'
p17
aS'antacids "methacrylic acid"'
p18
aS'antacids "dibenzyl ether"'
p19
aS'antacids "cotinine"'
p20
aS'antacids "benzyl alcohol 6-o-l-arabinofuranosyl-beta-d-glucopyranoside"'
p21
aS'antacids "piperine"'
p22
aS'antacids "palmitoleic acid"'
p23
aS'antacids "capsaicin"'
p24
aS'antacids "integrin"'
p25
aS'antacids "kaempferol 3-(2g-apiosylrobinobioside)"'
p26
aS'antacids "4-(3-hydroxy-7-phenyl-6-heptenyl)-1,2-benzenediol"'
p27
aS'antacids "benzaldehyde"'
p28
aS'antacids "benzophenone"'
p29
aS'antacids "menatetrenone"'
p30
aS'antacids "1-phenyl-2,4-pentadiyn-1-one"'
p31
aS'antacids "cmp"'
p32
aS'antacids "4-acetyl-2-prenylphenol glucoside"'
p33
aS'antacids "l-asparagine"'
p34
aS'antacids "gliadin"'
p35
aS'antacids "d-galactose"'
p36
aS'antacids "toluidine"'
p37
aS'antacids "7\',8\'-dihydro-8\'-hydroxycitraniaxanthin"'
p38
aS'antacids "1-propanol"'
p39
aS'antacids "o-toluidine"'
p40
aS'antacids "xylan"'
p41
aS'antacids "ubiquinone 100"'
p42
aS'antacids "pyrazine"'
p43
aS'antacids "cyclo(glycylleucylvalylleucylprolylseryl)"'
p44
aS'antacids "(8e)-piperamide-c9:1"'
p45
aS'antacids "s-methyl hexanethioate"'
p46
aS'antacids "kaempferol 3-rhamno-glucoside"'
p47
aS'antacids "kaempferol"'
p48
aS'antacids "ornithine"'
p49
aS'antacids "1,8-epoxy-p-menthan-4-ol glucoside"'
p50
aS'antacids "6-(gamma,gamma-dimethylallyl-amino)-purine"'
p51
aS'antacids "mevalonic acid"'
p52
aS'antacids "cyclo(glycylglycylleucylleucylleucylprolylprolylphenylalanyl)"'
p53
aS'antacids "sesquiterpenes"'
p54
aS'antacids "acetamide"'
p55
aS'antacids "kynurenine"'
p56
aS'antacids "acetic acid hex-cis-3-enyl ester"'
p57
aS'antacids "aflatoxin b1"'
p58
aS'antacids "propene"'
p59
aS'antacids "3\',4\',7-trimethylgossypetin"'
p60
aS'antacids "pyrrolidine"'
p61
aS'antacids "13-nor-6-eremophilene-8,11-dione"'
p62
aS'antacids "pyrrole"'
p63
aS'antacids "d-sorbitol"'
p64
aS'antacids "d-glutamic acid"'
p65
aS'antacids "deoxypyridinoline"'
p66
aS'antacids "carvone"'
p67
aS'antacids "uracil"'
p68
aS'antacids "inulin"'
p69
aS'antacids "octanoate"'
p70
aS'antacids "saturated fatty acids"'
p71
aS'antacids "n-(2r-hydroxypentacosanoyl)-2s-amino-1,3s,4r-octadecanetriol"'
p72
aS'antacids "prostaglandin e-2"'
p73
aS'antacids "benzoic acid"'
p74
aS'antacids "thaumatin"'
p75
aS'antacids "iridium"'
p76
aS'antacids "flavones"'
p77
aS'antacids "calmodulin"'
p78
aS'antacids "diethylamine"'
p79
aS'antacids "l-serine"'
p80
aS'antacids "kaempferol 3-(2\'\'\'-caffeoylsophoroside) 7-cellobioside"'
p81
aS'antacids "phytochelatin a"'
p82
aS'antacids "tetradecanoic acid"'
p83
aS'antacids "petunin"'
p84
aS'antacids "anthracene"'
p85
aS'antacids "lupeol"'
p86
aS'antacids "gladiatoside b3"'
p87
aS'antacids "quercetin 3-o-rhamnodiglucoside"'
p88
aS'antacids "kaempferol 7-arabinoside"'
p89
aS'antacids "pyrrolidine carboxylic acid"'
p90
aS'antacids "cholate"'
p91
aS'antacids "10-hydroxymyristic acid methyl ester"'
p92
aS'antacids "cytarabine"'
p93
aS'antacids "\xce\xb2-alanine"'
p94
aS'antacids "ethanolamine"'
p95
aS'antacids "carbamate"'
p96
aS'antacids "hexane"'
p97
aS'antacids "pavetannin d1"'
p98
aS'antacids "methyl 7-epi-12-hydroxyjasmonate glucoside"'
p99
aS'antacids "nicotinamide"'
p100
aS'antacids "tocopherols"'
p101
aS'antacids "dihydroxyacetone phosphate"'
p102
aS'antacids "alpha,alpha-p-trimethylbenzyl alcohol ether"'
p103
aS'antacids "esterase"'
p104
aS'antacids "sativoside r1"'
p105
a.