(lp0
S'statins "okra"'
p1
aS'statins "avocado"'
p2
aS'statins "lard"'
p3
aS'statins "gin"'
p4
aS'statins "miso"'
p5
aS'statins "sorghum"'
p6
aS'statins "kale"'
p7
aS'statins "animal foods"'
p8
aS'statins "alfalfa"'
p9
aS'statins "sherry"'
p10
aS'statins "turbot"'
p11
aS'statins "other snack food"'
p12
aS'statins "rainbow trout"'
p13
aS'statins "other fish product"'
p14
aS'statins "lotus"'
p15
aS'statins "liquor"'
p16
aS'statins "almond"'
p17
aS'statins "ginger"'
p18
aS'statins "spinach"'
p19
aS'statins "amaranth"'
p20
aS'statins "quince"'
p21
aS'statins "whey"'
p22
aS'statins "papaya"'
p23
aS'statins "capers"'
p24
aS'statins "cheese"'
p25
aS'statins "pulses"'
p26
aS'statins "common ling"'
p27
aS'statins "banana"'
p28
aS'statins "mustard"'
p29
aS'statins "snail"'
p30
aS'statins "cabbage"'
p31
aS'statins "milkshake"'
p32
aS'statins "cake"'
p33
aS'statins "milk (other mammals)"'
p34
aS'statins "dill"'
p35
aS'statins "apple"'
p36
aS'statins "ginseng"'
p37
aS'statins "deer"'
p38
aS'statins "cisco"'
p39
aS'statins "horse"'
p40
aS'statins "elk"'
p41
aS'statins "bitter gourd"'
p42
aS'statins "pate"'
p43
aS'statins "soy bean"'
p44
aS'statins "hamburger"'
p45
aS'statins "canola"'
p46
aS'statins "malabar plum"'
p47
aS'statins "quail"'
p48
aS'statins "fruit juice"'
p49
aS'statins "other fruit product"'
p50
aS'statins "tallow"'
p51
aS'statins "mango"'
p52
aS'statins "guava"'
p53
aS'statins "liquorice"'
p54
aS'statins "black chokeberry"'
p55
aS'statins "yam"'
p56
aS'statins "vinegar"'
p57
aS'statins "borage"'
p58
aS'statins "allium (onion)"'
p59
aS'statins "shrimp"'
p60
aS'statins "cinnamon"'
p61
aS'statins "eggplant"'
p62
aS'statins "whiting"'
p63
aS'statins "radish"'
p64
aS'statins "lime"'
p65
aS'statins "peach"'
p66
aS'statins "shiitake"'
p67
aS'statins "crab"'
p68
aS'statins "alcoholic beverages"'
p69
aS'statins "chives"'
p70
aS'statins "pomegranate"'
p71
aS'statins "dock"'
p72
aS'statins "spirit"'
p73
aS'statins "kiwi"'
p74
aS'statins "cauliflower"'
p75
aS'statins "sesame"'
p76
aS'statins "strawberry"'
p77
aS'statins "malus (crab apple)"'
p78
aS'statins "rosemary"'
p79
aS'statins "dripping"'
p80
aS'statins "atlantic cod"'
p81
aS'statins "cassava"'
p82
aS'statins "sunflower"'
p83
aS'statins "breakfast cereal"'
p84
aS'statins "pectin"'
p85
aS'statins "pudding"'
p86
aS'statins "cowpea"'
p87
aS'statins "flour"'
p88
aS'statins "beaver"'
p89
aS'statins "opossum"'
p90
aS'statins "other meat product"'
p91
aS'statins "dried milk"'
p92
aS'statins "berry wine"'
p93
aS'statins "butter"'
p94
aS'statins "columbidae (dove, pigeon)"'
p95
aS'statins "sake"'
p96
aS'statins "fenugreek"'
p97
aS'statins "topping"'
p98
aS'statins "squirrel"'
p99
aS'statins "soup"'
p100
aS'statins "agave"'
p101
aS'statins "other sandwich"'
p102
aS'statins "milk (human)"'
p103
aS'statins "millet"'
p104
aS'statins "grape wine"'
p105
aS'statins "oil palm"'
p106
aS'statins "chestnut"'
p107
aS'statins "chocolate"'
p108
aS'statins "salad"'
p109
aS'statins "potato"'
p110
aS'statins "oyster mushroom"'
p111
aS'statins "flatfish"'
p112
aS'statins "yogurt"'
p113
aS'statins "sweet potato"'
p114
aS'statins "pheasant"'
p115
aS'statins "soy yogurt"'
p116
aS'statins "pie"'
p117
aS'statins "common wheat"'
p118
aS'statins "honey"'
p119
aS'statins "kefir"'
p120
aS'statins "peanut"'
p121
aS'statins "catfish"'
p122
aS'statins "sturgeon"'
p123
aS'statins "angelica"'
p124
aS'statins "grape"'
p125
aS'statins "roselle"'
p126
aS'statins "barley"'
p127
aS'statins "lemon"'
p128
aS'statins "spelt"'
p129
aS'statins "cereals and cereal products"'
p130
aS'statins "horseradish"'
p131
aS'statins "safflower"'
p132
aS'statins "red rice"'
p133
aS'statins "coffee and coffee products"'
p134
aS'statins "thistle"'
p135
aS'statins "tamarind"'
p136
aS'statins "cream"'
p137
aS'statins "mulberry"'
p138
aS'statins "spirulina"'
p139
aS'statins "other vegetable product"'
p140
aS'statins "flaxseed"'
p141
aS'statins "vitis vinifera"'
p142
aS'statins "morus"'
p143
aS'statins "basella alba"'
p144
aS'statins "vaccinium deliciosum"'
p145
aS'statins "bivalvia"'
p146
aS'statins "vaccinium macrocarpon"'
p147
aS'statins "cynara scolymus"'
p148
aS'statins "ananas comosus"'
p149
aS'statins "citrus sinensis"'
p150
aS'statins "manihot esculenta"'
p151
aS'statins "columbidae"'
p152
aS'statins "allium"'
p153
aS'statins "gossypium"'
p154
aS'statins "lagenaria siceraria"'
p155
aS'statins "columba"'
p156
aS'statins "carica papaya"'
p157
aS'statins "sus scrofa domestica"'
p158
aS'statins "spinacia oleracea"'
p159
aS'statins "vitis"'
p160
aS'statins "ipomoea batatas"'
p161
aS'statins "hordeum vulgare"'
p162
aS'statins "allium sativum"'
p163
aS'statins "brassica oleracea"'
p164
aS'statins "oncorhynchus mykiss"'
p165
aS'statins "zea mays"'
p166
aS'statins "solanum melongena"'
p167
aS'statins "vaccinium myrtillus"'
p168
aS'statins "sciuridae"'
p169
aS'statins "cinnamomum"'
p170
aS'statins "agaricus bisporus"'
p171
aS'statins "oryza sativa"'
p172
aS'statins "glycine max"'
p173
aS'statins "borago officinalis"'
p174
aS'statins "curcuma longa"'
p175
aS'statins "solanum tuberosum"'
p176
aS'statins "oncorhynchus"'
p177
aS'statins "pinus"'
p178
aS'statins "quercus"'
p179
aS'statins "moringa oleifera"'
p180
aS'statins "gallus gallus"'
p181
aS'statins "amaranthus"'
p182
aS'statins "laminaria"'
p183
aS'statins "oryctolagus"'
p184
aS'statins "anguilla"'
p185
aS'statins "linum usitatissimum"'
p186
aS'statins "hibiscus sabbariffa"'
p187
aS'statins "agave"'
p188
aS'statins "trigonella foenum-graecum"'
p189
aS'statins "diospyros"'
p190
aS'statins "pleurotus ostreatus"'
p191
aS'statins "malus"'
p192
aS'statins "cydonia oblonga"'
p193
aS'statins "zingiber officinale"'
p194
aS'statins "prunus"'
p195
aS'statins "myrica"'
p196
aS'statins "panax"'
p197
aS'statins "spirulina"'
p198
aS'statins "capsicum"'
p199
aS'statins "phaseolus vulgaris"'
p200
aS'statins "triticum"'
p201
aS'statins "sus scrofa"'
p202
aS'statins "medicago sativa"'
p203
aS'statins "camellia sinensis"'
p204
aS'statins "dioscorea"'
p205
aS'statins "eugenia"'
p206
aS'statins "vaccinium"'
p207
aS'statins "hippophae rhamnoides"'
p208
aS'statins "abelmoschus esculentus"'
p209
aS'statins "triticum aestivum"'
p210
aS'statins "morus"'
p211
aS'statins "b. alba"'
p212
aS'statins "bivalvia"'
p213
aS'statins "eugenia"'
p214
aS'statins "p. ostreatus"'
p215
aS'statins "columbidae"'
p216
aS'statins "allium"'
p217
aS'statins "g. biloba"'
p218
aS'statins "malus"'
p219
aS'statins "gossypium"'
p220
aS'statins "columba"'
p221
aS'statins "c. papaya"'
p222
aS'statins "vitis"'
p223
aS'statins "h. sabdariffa"'
p224
aS'statins "a. fimbria"'
p225
aS'statins "sciuridae"'
p226
aS'statins "cinnamomum"'
p227
aS'statins "vaccinium"'
p228
aS'statins "a. bisporus"'
p229
aS'statins "oncorhynchus"'
p230
aS'statins "pinus"'
p231
aS'statins "quercus"'
p232
aS'statins "m. oleifera"'
p233
aS'statins "amaranthus"'
p234
aS'statins "laminaria"'
p235
aS'statins "oryctolagus"'
p236
aS'statins "anguilla"'
p237
aS'statins "m. officinalis"'
p238
aS'statins "agave"'
p239
aS'statins "diospyros"'
p240
aS'statins "m. x"'
p241
aS'statins "c. x"'
p242
aS'statins "prunus"'
p243
aS'statins "o. x"'
p244
aS'statins "myrica"'
p245
aS'statins "panax"'
p246
aS'statins "capsicum"'
p247
aS'statins "triticum"'
p248
aS'statins "m. x"'
p249
aS'statins "p. melanocarpa"'
p250
aS'statins "dioscorea"'
p251
aS'statins "spirulina"'
p252
aS'statins "1,4-dimethylpyrrolo[1,2-a]pyrazine"'
p253
aS'statins "5-hydroxycapsanthin-3,6-epoxide"'
p254
aS'statins "ellagic acid acetyl-arabinoside"'
p255
aS'statins "2\'-deoxyinosine"'
p256
aS'statins "6beta,7beta-dihydroxykaurenoic acid"'
p257
aS'statins "stigmastanol"'
p258
aS'statins "auxin"'
p259
aS'statins "octanoic acid"'
p260
aS'statins "prostaglandin e-1"'
p261
aS'statins "kaempferol 3-feruloyl-triglucoside"'
p262
aS'statins "hexadecanedioic acid"'
p263
aS'statins "delta-6,7-octadecanoic acid"'
p264
aS'statins "aflatoxin"'
p265
aS'statins "(23r)-acetoxytomatine"'
p266
aS'statins "ampicillin"'
p267
aS'statins "delphinidin 3-(4\'\'-p-coumaroylgalloylglucoside)"'
p268
aS'statins "delphinidin galactoside"'
p269
aS'statins "trans-zeatin"'
p270
aS'statins "oxalic acid"'
p271
aS'statins "lignans"'
p272
aS'statins "flavan-3-ol"'
p273
aS'statins "cyanidin 3-(4-acetylglucoside)"'
p274
aS'statins "vanillin"'
p275
aS'statins "ash"'
p276
aS'statins "epigallocatechin 3-gallate"'
p277
aS'statins "acetophenone"'
p278
aS'statins "mevalonate-5-phosphate"'
p279
aS'statins "cyanidin 3-glucogalactoside"'
p280
aS'statins "peonidin 3-(6\'\'-caffeoyl-glucoside)"'
p281
aS'statins "peonidin 3-glucoside"'
p282
aS'statins "(r)-apiumetin glucoside"'
p283
aS'statins "benzyl ethyl ether"'
p284
aS'statins "uridine diphosphate"'
p285
aS'statins "(-)-jasmonate"'
p286
aS'statins "cyanidin 3-o-sophoroside"'
p287
aS'statins "2-methylbutanoic acid"'
p288
aS'statins "(r)-mevalonate"'
p289
aS'statins "hex-cis-3-en-1-ol isobutyrate"'
p290
aS'statins "cysteinylglycine"'
p291
aS'statins "ruthenium"'
p292
aS'statins "(-)-menthol"'
p293
aS'statins "l-phenylalanine"'
p294
aS'statins "aloe emodin w-acetate"'
p295
aS'statins "lysolecithin"'
p296
aS'statins "1,8-cineole"'
p297
aS'statins "abscisic acid"'
p298
aS'statins "malvin"'
p299
aS'statins "4-methylsulfoxidebuten-(3)-yl cyanide"'
p300
aS'statins "l-ascorbic acid"'
p301
aS'statins "kaempferol 3-sophoroside-rhamnoside"'
p302
aS'statins "steviol"'
p303
aS'statins "isopropylamine"'
p304
aS'statins "ubiquinol-10"'
p305
aS'statins "cyanidin 3-(p-coumaroylferuloylglucoside)"'
p306
aS'statins "alpha-farnesene"'
p307
aS'statins "proanthocyanidins"'
p308
aS'statins "cytosine"'
p309
aS'statins "l-(-)-phenylalanine"'
p310
aS'statins "alpha-carotene"'
p311
aS'statins "ethyl methyl amine"'
p312
aS'statins "vanillic acid"'
p313
aS'statins "lophenol"'
p314
aS'statins "cyanidin 3-(arabinosylgalactoside)"'
p315
aS'statins "ampeloside bs1"'
p316
aS'statins "cardiolipin"'
p317
aS'statins "cyanidin 3-(sinapoyl-xylosyl-glucosyl)-galactoside"'
p318
aS'statins "3-methylglutaconyl-coa"'
p319
aS'statins "malvidin 3-(6-coumaroylglucoside)"'
p320
aS'statins "peonidin 3-[4-hydroxycinnamoyl-b-d-glucopyranoside]"'
p321
aS'statins "malvidin 3-alpha-l-galactoside"'
p322
aS'statins "tyramine"'
p323
aS'statins "glycyrrhiza triterpene"'
p324
aS'statins "chinese tannin"'
p325
aS'statins "kaempferol 3-(2g-rhamnosylgentiobioside)"'
p326
aS'statins "4alpha,5alpha-epoxy-11-eudesmen-3a-ol"'
p327
aS'statins "(2e)-piperamide-c5:1"'
p328
aS'statins "trimethylamine"'
p329
aS'statins "2-methyl-1,5-dinitro-3-nitrosobenzene"'
p330
aS'statins "5\',8-dihydroxy-3\',4\',7-trimethoxyflavan"'
p331
aS'statins "epigallocatechin 3,4\'-digallate"'
p332
aS'statins "hydrogen peroxide (h2o2)"'
p333
aS'statins "3-methylcrotonyl-coa"'
p334
aS'statins "1-propenyl-2-hydroxy-5-methoxybenzene-2-(2-methylbutyrate)"'
p335
aS'statins "delphinidin 3-glucosylglucoside"'
p336
aS'statins "5-\xce\xb2-pregnan-3,20 dione"'
p337
aS'statins "epigallocatechin 3-(3-methylgallate)"'
p338
aS'statins "psoralen"'
p339
aS'statins "kaempferol 3-o-alpha-l-rhamnoside-beta-d-glucosyl"'
p340
aS'statins "l-lactic acid"'
p341
aS'statins "ethanamine"'
p342
aS'statins "5-oxoheptyl glucosinolate"'
p343
aS'statins "prostaglandin f-1-alpha"'
p344
aS'statins "beta-glucan"'
p345
aS'statins "trans-1,10-heptadecadiene-5,7-diyn-3-ol"'
p346
aS'statins "isothiocyanates"'
p347
aS'statins "alternariol"'
p348
aS'statins "rubidium"'
p349
aS'statins "delphinidin 3-alpha-l-galactoside"'
p350
aS'statins "thial-1-propene-1-thiol s-oxide"'
p351
aS'statins "cytokinin b"'
p352
aS'statins "molybdenum"'
p353
aS'statins "utp"'
p354
aS'statins "p-coumaric acid"'
p355
aS'statins "3\',4\',5\',7,8-pentamethoxyflavan"'
p356
aS'statins "quercitrin"'
p357
aS'statins "chlorophyll"'
p358
aS'statins "pipernonaline"'
p359
aS'statins "delphinidin 3-feruloylglucoside"'
p360
aS'statins "phosphofructokinase"'
p361
aS'statins "(+)-secoisolariciresinol"'
p362
aS'statins "aniline"'
p363
aS'statins "chlorogenic acid"'
p364
aS'statins "bupropion"'
p365
aS'statins "lucidenic acid i"'
p366
aS'statins "lucidenic acid j"'
p367
aS'statins "[10]-dehydrogingerdione"'
p368
aS'statins "formaldehyde"'
p369
aS'statins "bixin aldehyde"'
p370
aS'statins "mn2+"'
p371
aS'statins "apigenin 5-[4\'\'-rhamnosyl-6\'\'-acetylglucoside]"'
p372
aS'statins "2,5-dimethylthiazole"'
p373
aS'statins "leukotriene-c4"'
p374
aS'statins "docusate sodium"'
p375
aS'statins "bisulfite"'
p376
aS'statins "laurate"'
p377
aS'statins "chloroform"'
p378
aS'statins "hydroxycinnamic acid"'
p379
aS'statins "11b-hydroxygibberellin a7"'
p380
aS'statins "kaempferol 3-o-rhamnodiglucoside"'
p381
aS'statins "2(or 3)-methylindole"'
p382
aS'statins "n-butanol"'
p383
aS'statins "glutathione disulfide"'
p384
aS'statins "sulforaphane"'
p385
aS'statins "pterostilbene"'
p386
aS'statins "alpha-terpineol"'
p387
aS'statins "ajoene"'
p388
aS'statins "pyridoxal"'
p389
aS'statins "(3beta,5alpha)-3-hydroxypregn-16-en-20-one"'
p390
aS'statins "vanillyl caproylamide"'
p391
aS'statins "enterolactone"'
p392
aS'statins "soja hispidasaponin c"'
p393
aS'statins "2,3-dihydroxy-2,4-cyclopentadien-1-one"'
p394
aS'statins "pyrroline"'
p395
aS'statins "isodulcitol"'
p396
aS'statins "daidzin"'
p397
aS'statins "kaempferol 3-o-glucosyl-rhamnosyl-galactoside"'
p398
aS'statins "styrene"'
p399
aS'statins "2,3-dihydroxy-2-methylbutanoic acid"'
p400
aS'statins "pelargonidin 3-beta-d-glucosyl-rutinoside"'
p401
aS'statins "tantalum"'
p402
aS'statins "luteolin 7-disulfoglucoside"'
p403
aS'statins "beta-cryptoxanthin"'
p404
aS'statins "zymosterol"'
p405
aS'statins "ethyl icosapentate"'
p406
aS'statins "cyanidin 3-glucoside"'
p407
aS'statins "protoporphyrin ix"'
p408
aS'statins "2-c-hydroxymethyl-d-erythrono-1,4-lactone"'
p409
aS'statins "methylether"'
p410
aS'statins "n-(2r-hydroxydocosanoyl)-2s-amino-1,3s,4r-octadecanetriol"'
p411
aS'statins "formate"'
p412
aS'statins "2-(methylthio)phenol"'
p413
aS'statins "pentadecanoic acid"'
p414
aS'statins "phloroacetophenone"'
p415
aS'statins "glutaric acid"'
p416
aS'statins "cincassiol d4"'
p417
aS'statins "latex"'
p418
aS'statins "n-butyl acetate"'
p419
aS'statins "ethyl carbamate"'
p420
aS'statins "behenate"'
p421
aS'statins "hydrogen carbonate"'
p422
aS'statins "nerol"'
p423
aS'statins "peonidin 3-rhamnosyl-glucosyl-glucoside"'
p424
aS'statins "s-methyl methanesulfinothioate"'
p425
aS'statins "cytidine"'
p426
aS'statins "hydroxytyrosol"'
p427
aS'statins "kaempferol 3-glucosylxyloside"'
p428
aS'statins "polyisoprene"'
p429
aS'statins "pentosan polysulfate"'
p430
aS'statins "hebevinoside xii"'
p431
aS'statins "quercitin 3-glucosyl-rhamnoside"'
p432
aS'statins "4\',5,6,7,8-pentahydroxy-3\'-methoxyflavone"'
p433
aS'statins "hebevinoside xiv"'
p434
aS'statins "allyl alcohol"'
p435
aS'statins "zn2+"'
p436
aS'statins "anthranilate"'
p437
aS'statins "citrullin"'
p438
aS'statins "(2r)-1-o-beta-d-galactopyranosylglycerol"'
p439
aS'statins "luteolin"'
p440
aS'statins "epigallocatechin 3-(4-methylgallate)"'
p441
aS'statins "cis-lutein-5,6-epoxide"'
p442
aS'statins "5-(methylthio)-pentanonitrile"'
p443
aS'statins "myo-inositol"'
p444
aS'statins "2\',4\',5,7-tetrahydroxy-8-prenylisoflavone"'
p445
aS'statins "hydrogen sulfide (h2s)"'
p446
aS'statins "orotate"'
p447
aS'statins "2-cis,4-trans-xanthoxin"'
p448
aS'statins "4-hydroxybenzoic acid"'
p449
aS'statins "platinum"'
p450
aS'statins "1-undecanol"'
p451
aS'statins "zymostenol"'
p452
aS'statins "peonidin"'
p453
aS'statins "cycloartenol"'
p454
aS'statins "(-)-quinic acid"'
p455
aS'statins "punicalagin"'
p456
aS'statins "\xce\xb2-cryptoxanthin"'
p457
aS'statins "ferulic acid"'
p458
aS'statins "olomoucine"'
p459
aS'statins "tetramethylpyrazine"'
p460
aS'statins "2h-1,4-benzoxazin-3(4h)-one"'
p461
aS'statins "kaempferol 3-gluco-xyloside"'
p462
aS'statins "17alpha-ethynylestradiol"'
p463
aS'statins "opc"'
p464
aS'statins "anthocyanidins"'
p465
aS'statins "3\'\',4\'\'-diacetylafzelin"'
p466
aS'statins "6,7-dimethyoxy coumarin"'
p467
aS'statins "hypoxanthine"'
p468
aS'statins "2-propanol"'
p469
aS'statins "intermedine"'
p470
aS'statins "levocarnitine"'
p471
aS'statins "s-methyl 2-propene-1-sulfinothioate"'
p472
aS'statins "baicalein"'
p473
aS'statins "beta-amyrin"'
p474
aS'statins "hesperidin"'
p475
aS'statins "rhein"'
p476
aS'statins "n-acetylneuraminic acid"'
p477
aS'statins "benzylamine"'
p478
aS'statins "chlorohydrin"'
p479
aS'statins "nobiletin"'
p480
aS'statins "allantoin"'
p481
aS'statins "hexadecane"'
p482
aS'statins "cyanide"'
p483
aS'statins "d-glucitol"'
p484
aS'statins "acetylcholine(1+)"'
p485
aS'statins "hexacosanoic acid"'
p486
aS'statins "betulin"'
p487
aS'statins "\xce\xb1-linolenate"'
p488
aS'statins "capsidiol"'
p489
aS'statins "hydroxysintaxanthin 5,6-epoxide"'
p490
aS'statins "uricase"'
p491
aS'statins "pelargonidin 3-o-\xce\xb2-d-p-coumaroylglucoside"'
p492
aS'statins "gibberellin a34-catabolite"'
p493
aS'statins "1,3-dimethylpyrrolo[1,2-a]pyrazine"'
p494
aS'statins "stearoyl-coa"'
p495
aS'statins "2\',3,4\',5-tetrahydroxy-4-prenylstilbene"'
p496
aS'statins "lignin"'
p497
aS'statins "fluorine"'
p498
aS'statins "cyclohexanol"'
p499
aS'statins "linalool"'
p500
aS'statins "8-c-ascorbylepigallocatechin 3-gallate"'
p501
aS'statins "chitinase"'
p502
aS'statins "dihydrobenzofuran"'
p503
aS'statins "l-lysine"'
p504
aS'statins "apigenin 5-[4\'\'-rhamnosylglucoside]"'
p505
aS'statins "bergapten"'
p506
aS'statins "alpha-cryptoxanthin"'
p507
aS'statins "cyanidin 3-rhamnosyl-glucosyl-glucoside"'
p508
aS'statins "cyanidin 3-(feruloylxylosylglucosylgalactoside)"'
p509
aS'statins "delta-7,8-octadecanoic acid"'
p510
aS'statins "n-(2r-hydroxyhexacosanoyl)-2s-amino-1,3s,4r-octadecanetriol"'
p511
aS'statins "purine"'
p512
aS'statins "glycolipids"'
p513
aS'statins "peroxiredoxin-(s-hydroxy-s-oxocysteine)"'
p514
aS'statins "beta-amyrin acetate"'
p515
aS'statins "phosphatidylethanolamine"'
p516
aS'statins "caprolactam"'
p517
aS'statins "dehydroascorbic acid"'
p518
aS'statins "guanidine"'
p519
aS'statins "d-xylulose 5-phosphate"'
p520
aS'statins "fisetin"'
p521
aS'statins "oleuropein"'
p522
aS'statins "spermidine"'
p523
aS'statins "tuberin"'
p524
aS'statins "5-hete"'
p525
aS'statins "beta-phenylethanol 6-beta-d-arabinofuranosyl-beta-d-glucopyranoside"'
p526
aS'statins "(5alpha,14alpha)-14-methylcholestan-3-one"'
p527
aS'statins "4\'-phosphopantetheine"'
p528
aS'statins "zein"'
p529
aS'statins "ochratoxin a"'
p530
aS'statins "mannan"'
p531
aS'statins "propyl gallate"'
p532
aS'statins "methacrylic acid"'
p533
aS'statins "(+)-sesamin"'
p534
aS'statins "4-propan-2-ol-2-yl toluene"'
p535
aS'statins "cotinine"'
p536
aS'statins "piperine"'
p537
aS'statins "palmitoleic acid"'
p538
aS'statins "gamma-l-glutamyl-s-(2-carboxy-beta-methyl-ethyl)-cysteinyl-glycine"'
p539
aS'statins "capsaicin"'
p540
aS'statins "pc(16:0/p-16:0)"'
p541
aS'statins "delta-sitosterol"'
p542
aS'statins "4-hydroxyferuloxyl methane"'
p543
aS'statins "kaempferol 3-(2g-apiosylrobinobioside)"'
p544
aS'statins "benzophenone"'
p545
aS'statins "cmp"'
p546
aS'statins "fumaric acid"'
p547
aS'statins "polygalacturonase"'
p548
aS'statins "malvidin"'
p549
aS'statins "gliadin"'
p550
aS'statins "(s)-argpyrimidine"'
p551
aS'statins "d-galactose"'
p552
aS'statins "coproporphyrin iii"'
p553
aS'statins "toluidine"'
p554
aS'statins "1-propanol"'
p555
aS'statins "isopropyl benzoate"'
p556
aS'statins "pyrazine"'
p557
aS'statins "(8e)-piperamide-c9:1"'
p558
aS'statins "2\'-hydroxy-3\',4\',5\',7,8-pentamethoxyflavan"'
p559
aS'statins "dihydromaleimide beta-d-glucoside"'
p560
aS'statins "s-methyl hexanethioate"'
p561
aS'statins "kaempferol 3-rhamno-glucoside"'
p562
aS'statins "kaempferol"'
p563
aS'statins "brassinolide"'
p564
aS'statins "pyridoxine"'
p565
aS'statins "ubiquinone 10"'
p566
aS'statins "3,4-dihydro-2,2,5,7,8-pentamethyl-2h-1-benzopyran-6-ol"'
p567
aS'statins "1-octacosanol"'
p568
aS'statins "diosgenin"'
p569
aS'statins "6-(gamma,gamma-dimethylallyl-amino)-purine"'
p570
aS'statins "alliin"'
p571
aS'statins "l-homocysteine"'
p572
aS'statins "arsenic"'
p573
aS'statins "abscisic alcohol 11-glucoside"'
p574
aS'statins "kynurenine"'
p575
aS'statins "isoquercitrin"'
p576
aS'statins "15beta,19-ent-dihydroxy-7-trachylobanone"'
p577
aS'statins "2\'\',6\'\'-diacetylorientin"'
p578
aS'statins "pyrrolidine"'
p579
aS'statins "cyanidin 3-o-alpha-l-galactoside"'
p580
aS'statins "acrylic acid"'
p581
aS'statins "deoxypyridinoline"'
p582
aS'statins "hex-cis-3-en-1-ol beta-d-glucoside"'
p583
aS'statins "uracil"'
p584
aS'statins "ureidopropionic acid"'
p585
aS'statins "malvidin 3-(6\'\'-p-caffeyglucoside)"'
p586
aS'statins "octanoate"'
p587
aS'statins "cerebroside"'
p588
aS'statins "2-decenoic acid"'
p589
aS'statins "cyanidin 3-(malonylxyloside)"'
p590
aS'statins "n-(2r-hydroxypentacosanoyl)-2s-amino-1,3s,4r-octadecanetriol"'
p591
aS'statins "2h-1-benzopyran-2-one"'
p592
aS'statins "geranylgeranyl-pp"'
p593
aS'statins "prostaglandin e-2"'
p594
aS'statins "benzoic acid"'
p595
aS'statins "catechol"'
p596
aS'statins "monoferulyl succinic acid"'
p597
aS'statins "flavones"'
p598
aS'statins "petunidin"'
p599
aS'statins "procyanidin"'
p600
aS'statins "diethylamine"'
p601
aS'statins "peonidin 3-(6\'\'-p-coumaroyl-glucoside)"'
p602
aS'statins "131-oxo-magnesium-protoporphyrin ix 13-monomethyl ester"'
p603
aS'statins "3-methyl-2-oxobutanoate"'
p604
aS'statins "kaempferol 3-(2\'\'\'-caffeoylsophoroside) 7-cellobioside"'
p605
aS'statins "erythritol"'
p606
aS'statins "cyanidin 3-(2-caffeoylglucosylrutinoside)"'
p607
aS'statins "3alpha,7alpha,22alpha-trihydroxystigmasten-(5)"'
p608
aS'statins "anthracene"'
p609
aS'statins "all-trans-lycopene"'
p610
aS'statins "lignan"'
p611
aS'statins "amylose"'
p612
aS'statins "s-allylcysteine"'
p613
aS'statins "kaempferol 7-arabinoside"'
p614
aS'statins "pyrrolidine carboxylic acid"'
p615
aS'statins "3-mercaptopyruvate"'
p616
aS'statins "xi-5-isopropyl-2(5h)-furanone"'
p617
aS'statins "6,10-dehydrogingerdione"'
p618
aS'statins "cytarabine"'
p619
aS'statins "dehydrogingerdione"'
p620
aS'statins "benzene"'
p621
aS'statins "\xce\xb2-alanine"'
p622
aS'statins "carbamate"'
p623
aS'statins "tetrahydro-6-(2-hydroxy-16,19-dimethylhexacosyl)-4-methyl-2h-pyran-2-one"'
p624
aS'statins "tyrosol"'
p625
aS'statins "methyl 7-epi-12-hydroxyjasmonate glucoside"'
p626
aS'statins "1-(1-methylcyclohexyl)-2-hydroxy-4-methylbenzene-methylchavicol"'
p627
aS'statins "dihydroxyacetone phosphate"'
p628
aS'statins "cesium"'
p629
aS'statins "propyl propionate"'
p630
aS'statins "alpha,alpha-p-trimethylbenzyl alcohol ether"'
p631
aS'statins "1-phenylethanol"'
p632
aS'statins "benzyl benzoate"'
p633
aS'statins "fad"'
p634
aS'statins "elaidic acid"'
p635
aS'statins "petunidin 3-(6\'\'-p-coumaroyl-glucoside)"'
p636
aS'statins "cyanidin 3-feruloylglucoside"'
p637
aS'statins "3alpha,15-dihydroxymarasmene"'
p638
aS'statins "cystathione"'
p639
aS'statins "petunidin 3-glucoside"'
p640
aS'statins "deoxynivalenol"'
p641
aS'statins "maxepa"'
p642
aS'statins "shikimic acid"'
p643
aS'statins "cyanidin 3-o-(6\'\'-acetyl-arabinoside)"'
p644
aS'statins "hydroquinone"'
p645
aS'statins "dimethylamine"'
p646
aS'statins "glycolate"'
p647
aS'statins "malvidin 3-(6\'\'-acetyl-galactoside)"'
p648
aS'statins "hebevinoside xiii"'
p649
aS'statins "beta-amyrin palmitate"'
p650
aS'statins "alkanes"'
p651
aS'statins "perillic acid"'
p652
aS'statins "acetovanillone"'
p653
aS'statins "malonyl coa"'
p654
aS'statins "eriodictyol"'
p655
aS'statins "3-methylglutarylcarnitine"'
p656
aS'statins "campestanol"'
p657
aS'statins "aconitic acid"'
p658
aS'statins "s-methyl 4-methylpentanethioate"'
p659
aS'statins "ent-epigallocatechin 3-gallate"'
p660
aS'statins "thiamine"'
p661
aS'statins "gallic acid"'
p662
aS'statins "ellagic acid"'
p663
aS'statins "peonidin 3-alpha-l-galactoside"'
p664
aS'statins "lycopsamine"'
p665
aS'statins "octane"'
p666
aS'statins "dl-lactic acid"'
p667
aS'statins "ganolucidic acid a"'
p668
aS'statins "butyl heptanoate"'
p669
aS'statins "ganolucidic acid c"'
p670
aS'statins "glyoxylic acid"'
p671
aS'statins "pentanoic acid"'
p672
aS'statins "4-phenylpyridine"'
p673
aS'statins "methyl acetate"'
p674
aS'statins "4-methoxybenzyl o-(2-sulfoglucoside)"'
p675
aS'statins "kaempferol 3-(3r-glucosylrutinoside)"'
p676
aS'statins "petunidin 3-o-(6\'\'-acetyl-galactoside)"'
p677
aS'statins "substance p"'
p678
aS'statins "4-hydroxy-3,5,5-trimethylcyclohexan-1-on-2-ene"'
p679
aS'statins "kaempferol 3-rhamnofuranoside"'
p680
aS'statins "malonyl-coa"'
p681
aS'statins "2\'\',6\'\'-o-diacetyloninin"'
p682
aS'statins "l-alanine"'
p683
aS'statins "catechols"'
p684
aS'statins "lucidumol b"'
p685
aS'statins "3-deoxy-d-arabino-hexono-1,4-lactone"'
p686
aS'statins "orotic acid"'
p687
aS'statins "ribonuclease"'
p688
aS'statins "hydrogen sulfide"'
p689
aS'statins "hesperidin 7-o-alpha-l-rhamno-glucoside"'
p690
aS'statins "prostaglandin-h2"'
p691
aS'statins "benzoate"'
p692
aS'statins "butyl acetate"'
p693
aS'statins "beta-conglycinin"'
p694
aS'statins "emodin"'
p695
aS'statins "papain"'
p696
aS'statins "pinene"'
p697
aS'statins "luteolin 7-malonylglucoside"'
p698
aS'statins "peroxiredoxin-(s-hydroxycysteine)"'
p699
aS'statins "7-hydroxy-n-hentriacontan-14,16-dione"'
p700
aS'statins "cyanidin 7-arabinoside"'
p701
aS'statins "d-xylulose"'
p702
aS'statins "lipoamide"'
p703
aS'statins "wheat gluten"'
p704
aS'statins "phytol"'
p705
aS'statins "(-)-lactol"'
p706
aS'statins "kaempferol 3-(6-acetylgalactoside)"'
p707
aS'statins "bergamottin"'
p708
aS'statins "sodium nitrite"'
p709
aS'statins "4-hydroxy-2e-nonenal"'
p710
aS'statins "6\'-hmg sdg"'
p711
aS'statins "cyanidin 3-o-(6\'\'-malonyl-3\'\'-glucosyl-glucoside)"'
p712
aS'statins "17-\xce\xb1-hydroxypregnenolone"'
p713
aS'statins "hydroxylamine"'
p714
aS'statins "allicin"'
p715
aS'statins "coronin"'
p716
aS'statins "(s)-2-methylbutanoic acid"'
p717
aS'statins "cyanidin 3-[6-(6-sinapylglucosyl)-2-xylosylgalactoside]"'
p718
aS'statins "apigenin 7-o-beta-d-galactomannoside"'
p719
aS'statins "3-methylbutyl 3-hydroxy-2-methylidenebutanoate"'
p720
aS'statins "pantothenic acid"'
p721
aS'statins "apigenin 3,6-di-c-glucoside"'
p722
aS'statins "hexadecanedioate"'
p723
aS'statins "kaempferol 3-feruloyltriglucoside"'
p724
aS'statins "pelargonidin"'
p725
aS'statins "n-(2r-hydroxytricosanoyl)-2s-amino-1,3s,4r-octadecanetriol"'
p726
aS'statins "4,6-decadiyn-1-ol isovalerate"'
p727
aS'statins "pseudouridine"'
p728
aS'statins "2-oxoglutarate"'
p729
aS'statins "deoxyuridine triphosphate"'
p730
aS'statins "apigenin 7-rhamnosylglucoside"'
p731
aS'statins "12-hete"'
p732
aS'statins "acteoside"'
p733
aS'statins "oxaloacetate"'
p734
aS'statins "kaempferol 3-o-alpha-l-(2,3-di-trans-p-coumaroyl-rhamnopyranoside)"'
p735
aS'statins "mulberrin"'
p736
aS'statins "dihydrosphingosine"'
p737
aS'statins "pyridoxamine"'
p738
aS'statins "beta-ionone"'
p739
aS'statins "calcium oxalate"'
p740
aS'statins "2-nonenal"'
p741
aS'statins "arjunolic acid"'
p742
aS'statins "\xce\xb3-tocopherol"'
p743
aS'statins "cyanidin 3-o-beta-d-diglycoside"'
p744
aS'statins "2-dehydropantoate"'
p745
aS'statins "cinnamic acid"'
p746
aS'statins "(2e,6e)-piperamide-c7:2"'
p747
aS'statins "stigmasterol"'
p748
aS'statins "pc(14:0/p-16:0)"'
p749
aS'statins "abscisic alcohol"'
p750
aS'statins "lucidenic acid m"'
p751
aS'statins "3-methyladenine"'
p752
aS'statins "(3s,6e)-6-caryophyllen-15-al"'
p753
aS'statins "5-oxoproline"'
p754
aS'statins "hesperetin"'
p755
aS'statins "kaempferol 7-(6\'\'-p-coumaroylglucoside)"'
p756
aS'statins "genistin"'
p757
aS'statins "dioscin"'
p758
aS'statins "chiro-inositol"'
p759
aS'statins "trans-1,8-terpin"'
p760
aS'statins "3b,18b-3-methoxy-11-oxo-12-oleanen-30-oic acid"'
p761
aS'statins "10-dehydrogingerdione"'
p762
aS'statins "2-c-methyl-d-erythritol-4-phosphate"'
p763
aS'statins "plastoquinone 8"'
p764
aS'statins "(25s)-26-hydroxy-24-methylenecycloartan-3-one"'
p765
aS'statins "delphinidin 3-(3\'\'-p-coumaroylglucoside)"'
p766
aS'statins "butter acids"'
p767
aS'statins "kaempferol 3-o-beta-d-xylofuranoside"'
p768
aS'statins "daidzein"'
p769
aS'statins "tamarixetin"'
p770
aS'statins "l-2-aminoethyl seryl phosphate"'
p771
aS'statins "myricetin 3-(6\'\'-acetylgalactoside)"'
p772
aS'statins "jasmonic acid"'
p773
aS'statins "lactyltrimethylammonium betaine"'
p774
aS'statins "plumbagin"'
p775
aS'statins "taxifolin"'
p776
aS'statins "6alpha,7alpha-17-tetrahydroxy"'
p777
aS'statins "scandium"'
p778
aS'statins "kaempferol 3-o-xylosyl-rutinoside"'
p779
aS'statins "3-(3,4-dihydroxyphenyl)lactic acid"'
p780
aS'statins "lysozyme"'
p781
aS'statins "maltose"'
p782
aS'statins "dibutyl phthalate"'
p783
aS'statins "cellulase"'
p784
aS'statins "isopropyl acetate"'
p785
aS'statins "alpha-amyrin tetratriacontanoate"'
p786
aS'statins "kaempferol 3-(2\'\'\'-sinapoylsophoroside) 7-cellobioside"'
p787
aS'statins "pinocembrin"'
p788
aS'statins "procyanidin b2"'
p789
aS'statins "4-aminobenzoic acid"'
p790
aS'statins "apigenin 7-di-o-xyloside"'
p791
aS'statins "s-methyl 1-propenesulfinothioate"'
p792
aS'statins "hesperetin 7-glucoside"'
p793
aS'statins "5-hydroxycapsanthin-5,6-epoxide"'
p794
aS'statins "methyl jasmonate"'
p795
aS'statins "debenzoylzucchini factor b"'
p796
aS'statins "kaempferol 3-(2g-p-coumaroylrutinoside)"'
p797
aS'statins "geranyl diphosphate"'
p798
aS'statins "betulinic acid"'
p799
aS'statins "cyanidin 3-(6\'\'-acetyl-galactoside)"'
p800
aS'statins "kaempferol 3-(2\\"'
p801
aS'statins "myricetin"'
p802
aS'statins "trans-resveratrol"'
p803
aS'statins "pelargonidin 3-o-sophoroside"'
p804
aS'statins "cyclohexanones"'
p805
aS'statins "cholest-7-en-3beta-ol"'
p806
aS'statins "acrolein"'
p807
aS'statins "patatin"'
p808
aS'statins "l-ornithine"'
p809
aS'statins "malvidin 3-glucoside-4-vinylphenol"'
p810
aS'statins "melilotussaponin o1"'
p811
aS'statins "ergothioneine"'
p812
aS'statins "yttrium"'
p813
aS'statins "atropine"'
p814
aS'statins "malvidin 3-(6\'\'-caffeoyl-glucoside)"'
p815
aS'statins "phthalic acid"'
p816
aS'statins "xi-3-hydroxy-5-phenylpentanoic acid o-beta-d-glucopyranoside"'
p817
aS'statins "l-tyrosine"'
p818
aS'statins "apigenin"'
p819
aS'statins "fmn"'
p820
aS'statins "arabinoxylan"'
p821
aS'statins "(e)-10,11-dihydro-alpha-atlantone"'
p822
aS'statins "2\'\'-o-alpha-rhamnosyl-6-c-(6-deoxo-xylo-hexos-4-ulosyl)-apigenin"'
p823
aS'statins "ethyl oleate"'
p824
aS'statins "cobalt"'
p825
aS'statins "farnesylcysteine"'
p826
aS'statins "l-aspartate"'
p827
aS'statins "artemin"'
p828
aS'statins "3\'\',4\'\'-diacetylcosmosiin"'
p829
aS'statins "oxalate"'
p830
aS'statins "kaempferol 3-o-alpha-l-galactoside"'
p831
aS'statins "2-deoxy-d-lyxono-1,4-lactone"'
p832
aS'statins "apigenin 7-digalacturonoside"'
p833
aS'statins "chrysin"'
p834
aS'statins "isoquercitrin 4\'\'-rhamnoside"'
p835
aS'statins "n1,n10-dicoumaroylspermidine"'
p836
aS'statins "apigenin 7-arabinoside"'
p837
aS'statins "dextrin"'
p838
aS'statins "hex-cis-3-en-1-ol isovalerate"'
p839
aS'statins "ginkgolide b"'
p840
aS'statins "menadione"'
p841
aS'statins "lignan diglucoside"'
p842
aS'statins "cu2+"'
p843
aS'statins "(1s,3r,4r)-8,10-dihydroxyfenchone 10-o-b-d-glucoside"'
p844
aS'statins "gibberellin a51-catabolite"'
p845
aS'statins "hippuric acid"'
p846
aS'statins "delphinidin 3-(6-p-coumaroylgalactoside)"'
p847
aS'statins "indole-3-acetic acid cellulosiglucan"'
p848
aS'statins "methyl pentanoate"'
p849
aS'statins "4-methylsulfonyl-3-butenyl glucosinolate"'
p850
aS'statins "ethyl 7-epi-12-hydroxyjasmonate glucoside"'
p851
aS'statins "mfa"'
p852
aS'statins "barium"'
p853
aS'statins "n-carbamoyl-2-amino-2-(4-hydroxyphenyl)acetic acid"'
p854
aS'statins "graecunin h-4"'
p855
aS'statins "ethyl acetoacetate"'
p856
aS'statins "2\'\'-methoxy-(s)-oleuropein"'
p857
aS'statins "2-furancarboxylic acid"'
p858
aS'statins "5-hydroxy-7,8-dimethoxyflavonol"'
p859
aS'statins "dimethyl peroxide"'
p860
aS'statins "okadaic acid"'
p861
aS'statins "agavasaponin c\'"'
p862
aS'statins "4,6-heptadiyne-1,3-diol"'
p863
aS'statins "3\' 5\'-cyclic amp"'
p864
aS'statins "selenocysteine"'
p865
aS'statins "betaine"'
p866
aS'statins "azi"'
p867
aS'statins "thymine"'
p868
aS'statins "prenyl acetate"'
p869
aS'statins "glyoxal"'
p870
aS'statins "di-o-punicyl-o-octadeca-8z,11z,13e-trienylglycerol"'
p871
aS'statins "raffinose"'
p872
aS'statins "(6e)-piperamide-c7:1"'
p873
aS'statins "gibberellins"'
p874
aS'statins "kaempferide"'
p875
aS'statins "5-hydroxy-n-hentriacontan-14,16-dione"'
p876
aS'statins "toluene"'
p877
aS'statins "prostaglandin b-2"'
p878
aS'statins "cadmium"'
p879
aS'statins "rubrofusarin"'
p880
aS'statins "2,4-decadienal"'
p881
aS'statins "fe2+"'
p882
aS'statins "(+)-6-hydroxy-2,6-dimethyl-7-octen-4-one"'
p883
aS'statins "bilobalide a"'
p884
aS'statins "1,7,7-trimethyltricyclo[2.2.1.02,6]heptane"'
p885
aS'statins "pelargonidin 5-galactoside"'
p886
aS'statins "isolimocitrol 3-glucoside"'
p887
aS'statins "ptr toxin"'
p888
aS'statins "2,3,5,6,8,8a-hexahydro-2,5,5,8a-tetramethyl-7h-1-benzopyran-7-one"'
p889
aS'statins "succinic acid"'
p890
aS'statins "2-amino-3,4-dihydroxypentanedioic acid"'
p891
aS'statins "haem"'
p892
aS'statins "parthenolide"'
p893
aS'statins "ganoderenic acid c"'
p894
aS'statins "pterin"'
p895
aS'statins "6-hydroxy-n-hentriacontan-14,16-dione"'
p896
aS'statins "gamma-l-glutamyl-s-(2-carboxy-1-propyl)cysteinylglycine"'
p897
aS'statins "petunidin 3-o-alpha-l-galactoside"'
p898
aS'statins "2-(2-carboxy-4-methylthiazol-5-yl)ethyl phosphate"'
p899
aS'statins "linoleoyl-coa"'
p900
aS'statins "apigenin 8-c-rhamnosyl-glucoside"'
p901
aS'statins "prostaglandin f-2-alpha"'
p902
aS'statins "(2a,3a)-dihydroxy-12-ursen-24-oic acid"'
p903
aS'statins "citicoline"'
p904
aS'statins "lucidenic acid k"'
p905
aS'statins "calcium lactate"'
p906
aS'statins "oleanolic acid"'
p907
aS'statins "retinol palmitate"'
p908
aS'statins "diacetyl"'
p909
aS'statins "malvidin 3-glucoside-4-vinylguaiacol"'
p910
aS'statins "2\'\',6\'\'-diacetylisoorientin"'
p911
aS'statins "galangin"'
p912
aS'statins "xanthophylls"'
p913
aS'statins "kaempferol 3-(2g-glucosylgentiobioside)"'
p914
aS'statins "beta-glucuronidase"'
p915
aS'statins "cyanidin"'
p916
aS'statins "plastoquinone"'
p917
aS'statins "diphenylamine"'
p918
aS'statins "vitamin k2"'
p919
aS'statins "glycyrrhizin"'
p920
aS'statins "ganolucidic acid b"'
p921
aS'statins "uridine diphosphate glucuronic acid"'
p922
aS'statins "3,3\',4\',7,8-pentamethylgossypetin"'
p923
aS'statins "petunidin 3-(4\'\'\'-p-coumaroyl-rutinoside)"'
p924
aS'statins "(+)-camphene"'
p925
aS'statins "galactosamine"'
p926
aS'statins "methoxyl"'
p927
aS'statins "d-mannitol"'
p928
aS'statins "d-lactic acid"'
p929
aS'statins "zirconium"'
p930
aS'statins "cryptotanshinone"'
p931
aS'statins "(-)-trans-2,5-diethyltetrahydrofuran"'
p932
aS'statins "beta-caryophyllene"'
p933
aS'statins "camphene"'
p934
aS'statins "pelargonidin 3-(2gluglucosylrutinoside)"'
p935
aS'statins "leukotriene b4"'
p936
aS'statins "5alpha-cholestane"'
p937
aS'statins "5-deoxykievitone hydrate"'
p938
aS'statins "kaempferol 3-coumaroyl-triglucoside"'
p939
aS'statins "maleic acid"'
p940
aS'statins "luteolin 7-rhamnosylglucoside"'
p941
aS'statins "1-rhamnono-1,4-lactone"'
p942
aS'statins "2-butanol"'
p943
aS'statins "cafestol"'
p944
aS'statins "tellurium"'
p945
aS'statins "kaempferol 3-o-rhamnosyl-rhamnosyl-glucoside"'
p946
aS'statins "stearate"'
p947
aS'statins "hydroxamic acid"'
p948
a.