(lp0
S'antacids "pentoses"'
p1
aS'antacids "(all-e)-6\'-apo-y-caroten-6\'-al"'
p2
aS'antacids "mn2+"'
p3
aS'antacids "2-ethylhexanoic acid"'
p4
aS'antacids "leukotriene-c4"'
p5
aS'antacids "curcumin"'
p6
aS'antacids "docusate sodium"'
p7
aS'antacids "bisulfite"'
p8
aS'antacids "laurate"'
p9
aS'antacids "adp"'
p10
aS'antacids "hex-cis-3-en-1-ol hexanoate"'
p11
aS'antacids "11b-hydroxygibberellin a7"'
p12
aS'antacids "kaempferol 3-o-rhamnodiglucoside"'
p13
aS'antacids "n-butanol"'
p14
aS'antacids "pyridoxal"'
p15
aS'antacids "monoterpenes"'
p16
aS'antacids "3-hydroxyflavone"'
p17
aS'antacids "soja hispidasaponin c"'
p18
aS'antacids "isodulcitol"'
p19
aS'antacids "kaempferol 3-o-glucosyl-rhamnosyl-galactoside"'
p20
aS'antacids "synergistic antifungal protein"'
p21
aS'antacids "1-methyl 2-galloylgalactarate"'
p22
aS'antacids "guanosine"'
p23
aS'antacids "protoporphyrin ix"'
p24
aS'antacids "n-(2r-hydroxydocosanoyl)-2s-amino-1,3s,4r-octadecanetriol"'
p25
aS'antacids "2a-hydroxyoleanolic acid methyl ester"'
p26
aS'antacids "dihydrolipoamide"'
p27
aS'antacids "2\',4\'-dihydroxy-2-biphenylcarboxylic acid"'
p28
aS'antacids "cincassiol d4"'
p29
aS'antacids "cincassiol d1"'
p30
aS'antacids "behenate"'
p31
aS'antacids "hydrogen carbonate"'
p32
aS'antacids "s-methyl methanesulfinothioate"'
p33
aS'antacids "cytidine"'
p34
aS'antacids "d-glucose"'
p35
aS'antacids "crassostrea secocarotenoid"'
p36
aS'antacids "kaempferol 3-glucosylxyloside"'
p37
aS'antacids "polyisoprene"'
p38
aS'antacids "hebevinoside xii"'
p39
aS'antacids "phytin phosphorus"'
p40
aS'antacids "avocadyne 1-acetate"'
p41
aS'antacids "4\',5,6,7,8-pentahydroxy-3\'-methoxyflavone"'
p42
aS'antacids "hebevinoside xiv"'
p43
aS'antacids "beta-galactosidase"'
p44
aS'antacids "d-ribulose 5-phosphate"'
p45
aS'antacids "allyl alcohol"'
p46
aS'antacids "zn2+"'
p47
aS'antacids "(2r)-1-o-beta-d-galactopyranosylglycerol"'
p48
aS'antacids "nicotinic acid"'
p49
aS'antacids "5-(methylthio)-pentanonitrile"'
p50
aS'antacids "myo-inositol"'
p51
aS'antacids "2\',4\',5,7-tetrahydroxy-8-prenylisoflavone"'
p52
aS'antacids "alline"'
p53
aS'antacids "fluorene"'
p54
aS'antacids "hydrogen sulfide (h2s)"'
p55
aS'antacids "calcium nitrate"'
p56
aS'antacids "d-glucaric acid"'
p57
aS'antacids "n-heptadecane"'
p58
aS'antacids "pyrazines"'
p59
aS'antacids "avocadene 1-acetate"'
p60
aS'antacids "isoliquiritigenin"'
p61
aS'antacids "4-hydroxybenzoic acid"'
p62
aS'antacids "delta-maslinic acid methyl ester"'
p63
aS'antacids "n-nitrosodimethylamine"'
p64
aS'antacids "thromboxane a2"'
p65
aS'antacids "trans-p-menth-2-ene-1,4-diol"'
p66
aS'antacids "hydroxymethylbilane"'
p67
aS'antacids "quercetin 3-o-glucosyl-xyloside"'
p68
aS'antacids "hexadecanoic acid"'
p69
aS'antacids "7-epi-12-hydroxyjasmonic acid glucoside"'
p70
aS'antacids "(-)-quinic acid"'
p71
aS'antacids "ferulic acid"'
p72
aS'antacids "l-carnosine"'
p73
aS'antacids "kaempferol 3-gluco-xyloside"'
p74
aS'antacids "opc"'
p75
aS'antacids "quercetin 7-o-beta-d-glucopyranoside-beta-l-rhamnopyranoside"'
p76
aS'antacids "6,7-dimethyoxy coumarin"'
p77
aS'antacids "hypoxanthine"'
p78
aS'antacids "2-propanol"'
p79
aS'antacids "s-methyl 2-propene-1-sulfinothioate"'
p80
aS'antacids "hesperidin"'
p81
aS'antacids "rhein"'
p82
aS'antacids "n-acetylneuraminic acid"'
p83
aS'antacids "quercetin 3-o-glucosyl-galactoside"'
p84
aS'antacids "gossypol"'
p85
aS'antacids "bromine"'
p86
aS'antacids "benzylamine"'
p87
aS'antacids "quercetin 3-coumaroyl-triglucoside"'
p88
aS'antacids "6-epi-7-isocucurbic acid glucoside"'
p89
aS'antacids "xylitol"'
p90
aS'antacids "hexadecane"'
p91
aS'antacids "cyanide"'
p92
aS'antacids "glycerol trioleate"'
p93
aS'antacids "chitin-binding protein n"'
p94
aS'antacids "1alpha,15-dihydroxymarasmene"'
p95
aS'antacids "1-heptadecene"'
p96
aS'antacids "3,3\'-digalloylprodelphinidin b1"'
p97
aS'antacids "gibberellin a34-catabolite"'
p98
aS'antacids "propanoic acid"'
p99
aS'antacids "levoglutamide"'
p100
aS'antacids "2\',3,4\',5-tetrahydroxy-4-prenylstilbene"'
p101
aS'antacids "homoserine"'
p102
aS'antacids "cyclohexanol"'
p103
aS'antacids "l-malic acid"'
p104
aS'antacids "chitinase"'
p105
aS'antacids "3-hydroxybenzoic acid"'
p106
aS'antacids "n-heptane"'
p107
aS'antacids "dihydrobenzofuran"'
p108
aS'antacids "l-lysine"'
p109
aS'antacids "n-(2r-hydroxyhexacosanoyl)-2s-amino-1,3s,4r-octadecanetriol"'
p110
aS'antacids "purine"'
p111
aS'antacids "ceramide"'
p112
aS'antacids "ethyl benzene"'
p113
aS'antacids "glycolipids"'
p114
aS'antacids "(s)-3-methylthiohexyl butyrate"'
p115
a.