(lp0
S'warfarin "levoglutamide"'
p1
aS'warfarin "2\',3,4\',5-tetrahydroxy-4-prenylstilbene"'
p2
aS'warfarin "fluorine"'
p3
aS'warfarin "rhapontin"'
p4
aS'warfarin "cyclohexanol"'
p5
aS'warfarin "maltol"'
p6
aS'warfarin "wax"'
p7
aS'warfarin "l-lysine"'
p8
aS'warfarin "melilotussaponin o2"'
p9
aS'warfarin "bergapten"'
p10
aS'warfarin "titanium"'
p11
aS'warfarin "quercetin 3,3\'-diglucoside"'
p12
aS'warfarin "n-(2r-hydroxyhexacosanoyl)-2s-amino-1,3s,4r-octadecanetriol"'
p13
aS'warfarin "purine"'
p14
aS'warfarin "glycolipids"'
p15
aS'warfarin "phosphatidylethanolamine"'
p16
aS'warfarin "guanidine"'
p17
aS'warfarin "3,6-dimethyl-7-oxo-octanoic acid ethyl ester"'
p18
aS'warfarin "fisetin"'
p19
aS'warfarin "quercetin 3-(6\'\'-caffeoylsophorotrioside)"'
p20
aS'warfarin "3-oxododecanoic acid glycerides"'
p21
aS'warfarin "beta-phenylethanol 6-beta-d-arabinofuranosyl-beta-d-glucopyranoside"'
p22
aS'warfarin "zein"'
p23
aS'warfarin "ochratoxin a"'
p24
aS'warfarin "isoimperatorin"'
p25
aS'warfarin "theobromine"'
p26
aS'warfarin "methyl-[10]-gingerol"'
p27
aS'warfarin "5\',5\'\'\'-diadenosine triphosphate"'
p28
aS'warfarin "cellobiose"'
p29
aS'warfarin "methacrylic acid"'
p30
aS'warfarin "cotinine"'
p31
aS'warfarin "benzyl alcohol 6-o-l-arabinofuranosyl-beta-d-glucopyranoside"'
p32
aS'warfarin "piperine"'
p33
aS'warfarin "capsaicin"'
p34
aS'warfarin "pavetannin b6"'
p35
aS'warfarin "pc(16:0/p-16:0)"'
p36
aS'warfarin "integrin"'
p37
aS'warfarin "4-hydroxyferuloxyl methane"'
p38
aS'warfarin "kaempferol 3-(2g-apiosylrobinobioside)"'
p39
aS'warfarin "4-(3-hydroxy-7-phenyl-6-heptenyl)-1,2-benzenediol"'
p40
aS'warfarin "scopoletin"'
p41
aS'warfarin "eremopetasitenin c2"'
p42
aS'warfarin "1-phenyl-2,4-pentadiyn-1-one"'
p43
aS'warfarin "quercetin 3-(sulfatoglucoside)"'
p44
aS'warfarin "cmp"'
p45
aS'warfarin "methyl-[8]-gingerol"'
p46
aS'warfarin "l-asparagine"'
p47
aS'warfarin "gliadin"'
p48
aS'warfarin "sapogenins"'
p49
aS'warfarin "toluidine"'
p50
aS'warfarin "7\',8\'-dihydro-8\'-hydroxycitraniaxanthin"'
p51
aS'warfarin "1-propanol"'
p52
aS'warfarin "sanguinarine"'
p53
aS'warfarin "ubiquinone 100"'
p54
aS'warfarin "glycerol 1,2-dioctacosanoate"'
p55
aS'warfarin "2\'-hydroxy-3\',4\',5\',7,8-pentamethoxyflavan"'
p56
aS'warfarin "s-methyl hexanethioate"'
p57
aS'warfarin "kaempferol 3-rhamno-glucoside"'
p58
aS'warfarin "kaempferol"'
p59
aS'warfarin "ornithine"'
p60
aS'warfarin "pyridoxine"'
p61
aS'warfarin "sulfides"'
p62
aS'warfarin "6-(gamma,gamma-dimethylallyl-amino)-purine"'
p63
aS'warfarin "beta-methylthiopropionic acid ethyl ester"'
p64
aS'warfarin "dopamine"'
p65
aS'warfarin "eremopetasitenin a1"'
p66
aS'warfarin "1-phenyl-1,3-eicosanedione"'
p67
aS'warfarin "dihydrouracil"'
p68
aS'warfarin "hederagenin"'
p69
aS'warfarin "arsenic"'
p70
aS'warfarin "xi-2,3-octadiene-5,7-diyn-1-ol"'
p71
aS'warfarin "co2"'
p72
aS'warfarin "sesquiterpenes"'
p73
aS'warfarin "acetamide"'
p74
aS'warfarin "kynurenine"'
p75
aS'warfarin "acetic acid hex-cis-3-enyl ester"'
p76
aS'warfarin "aflatoxin b1"'
p77
aS'warfarin "quercetin 3-(3r-glucosylrutinoside)"'
p78
aS'warfarin "3\',4\',7-trimethylgossypetin"'
p79
aS'warfarin "[10]-shogaol"'
p80
aS'warfarin "pyrrolidine"'
p81
aS'warfarin "pyrrole"'
p82
aS'warfarin "hyperforin"'
p83
aS'warfarin "acrylic acid"'
p84
aS'warfarin "inulin"'
p85
aS'warfarin "7-epizucchini factor a"'
p86
aS'warfarin "zingiberene"'
p87
aS'warfarin "octanoate"'
p88
aS'warfarin "cerebroside"'
p89
aS'warfarin "sulfur"'
p90
aS'warfarin "methyl butyrate"'
p91
aS'warfarin "n-(2r-hydroxypentacosanoyl)-2s-amino-1,3s,4r-octadecanetriol"'
p92
aS'warfarin "2h-1-benzopyran-2-one"'
p93
aS'warfarin "prostaglandin e-2"'
p94
aS'warfarin "benzoic acid"'
p95
aS'warfarin "iridium"'
p96
aS'warfarin "catechol"'
p97
aS'warfarin "monoferulyl succinic acid"'
p98
aS'warfarin "flavones"'
p99
aS'warfarin "quercetin 3-(4-glucosylrhamnoside)"'
p100
aS'warfarin "phosphatidylcholine"'
p101
aS'warfarin "sativoside b1"'
p102
aS'warfarin "vitamin d3"'
p103
aS'warfarin "l-serine"'
p104
aS'warfarin "131-oxo-magnesium-protoporphyrin ix 13-monomethyl ester"'
p105
aS'warfarin "kaempferol 3-(2\'\'\'-caffeoylsophoroside) 7-cellobioside"'
p106
aS'warfarin "anthracene"'
p107
aS'warfarin "gladiatoside b1"'
p108
aS'warfarin "amylose"'
p109
aS'warfarin "kaempferol 7-arabinoside"'
p110
aS'warfarin "kaempferol 3-o-beta-robinoside 7-o-alpha-l-rhamnopyranoside"'
p111
aS'warfarin "cholate"'
p112
aS'warfarin "10-hydroxymyristic acid methyl ester"'
p113
aS'warfarin "cytarabine"'
p114
aS'warfarin "benzene"'
p115
aS'warfarin "carotenoids"'
p116
aS'warfarin "ethanolamine"'
p117
aS'warfarin "carbamate"'
p118
aS'warfarin "pavetannin d1"'
p119
aS'warfarin "methyl 7-epi-12-hydroxyjasmonate glucoside"'
p120
aS'warfarin "nicotinamide"'
p121
aS'warfarin "tocopherols"'
p122
aS'warfarin "cerium"'
p123
aS'warfarin "cesium"'
p124
aS'warfarin "\xce\xb4-tocopherol"'
p125
aS'warfarin "propyl propionate"'
p126
aS'warfarin "alpha,alpha-p-trimethylbenzyl alcohol ether"'
p127
aS'warfarin "phytomenadione"'
p128
aS'warfarin "fad"'
p129
aS'warfarin "sativoside r1"'
p130
aS'warfarin "3alpha,15-dihydroxymarasmene"'
p131
aS'warfarin "1,4-naphtoquinone"'
p132
aS'warfarin "retinol"'
p133
aS'warfarin "benzoxazole"'
p134
aS'warfarin "l-glutamine"'
p135
aS'warfarin "hebevinoside xiii"'
p136
aS'warfarin "2-galloyl-1,4-galactarolactone methyl ester"'
p137
aS'warfarin "acetovanillone"'
p138
aS'warfarin "rotenone"'
p139
aS'warfarin "melatonin"'
p140
aS'warfarin "[6]-shogaol"'
p141
aS'warfarin "malonyl coa"'
p142
aS'warfarin "dimethyl n,n-dimethylanthranilate"'
p143
aS'warfarin "1,2-di-o-myristoyl-3-o-(6-sulfoquinovopyranosyl)glycerol"'
p144
aS'warfarin "s-methyl 4-methylpentanethioate"'
p145
aS'warfarin "5-megastigmen-7-yne-3,9-diol"'
p146
aS'warfarin "thiamine"'
p147
aS'warfarin "ellagic acid"'
p148
aS'warfarin "5-octyl-cyclopenta-1,3-dione"'
p149
aS'warfarin "3,5-dimethylquercetin glucoside"'
p150
aS'warfarin "pentanoic acid"'
p151
aS'warfarin "(3s)-3-hydroxycyclocitral"'
p152
aS'warfarin "7\',8\'-dihydro-8\'-hydroxyreticulataxanthin"'
p153
aS'warfarin "quercetin 3-(6\'\'-sinapoylsophorotrioside)"'
p154
aS'warfarin "methyl-[10]-shogaol"'
p155
aS'warfarin "kaempferol 3-(3r-glucosylrutinoside)"'
p156
aS'warfarin "substance p"'
p157
aS'warfarin "4-hydroxy-3,5,5-trimethylcyclohexan-1-on-2-ene"'
p158
aS'warfarin "kaempferol 3-rhamnofuranoside"'
p159
aS'warfarin "malonyl-coa"'
p160
aS'warfarin "xanthine"'
p161
aS'warfarin "manganese"'
p162
aS'warfarin "l-alanine"'
p163
aS'warfarin "catechols"'
p164
aS'warfarin "3-deoxy-d-arabino-hexono-1,4-lactone"'
p165
aS'warfarin "2-(3,4-dihydroxyphenyl)-5,6-dihydroxy-7-methoxy-4h-1-benzopyran-4-one"'
p166
aS'warfarin "lycopene"'
p167
aS'warfarin "orotic acid"'
p168
aS'warfarin "ribonuclease"'
p169
aS'warfarin "hesperidin 7-o-alpha-l-rhamno-glucoside"'
p170
aS'warfarin "l-valine"'
p171
aS'warfarin "1-phenyl-1,3-dodecanedione"'
p172
aS'warfarin "dctp"'
p173
aS'warfarin "benzoate"'
p174
aS'warfarin "epigallocatechin"'
p175
aS'warfarin "papain"'
p176
aS'warfarin "luteolin 7-malonylglucoside"'
p177
aS'warfarin "trans-2-decadienic acid ethyl ester"'
p178
aS'warfarin "dehydrogibberellin ga-25"'
p179
aS'warfarin "[6]-gingerdione"'
p180
aS'warfarin "deoxyuridine"'
p181
aS'warfarin "protein r"'
p182
aS'warfarin "caffeoylquinic acid"'
p183
aS'warfarin "quercetin 3-(6\'\'\'\'-p-coumarylsophorotrioside)"'
p184
aS'warfarin "lipoamide"'
p185
aS'warfarin "xanthotoxin"'
p186
aS'warfarin "phytosterol"'
p187
aS'warfarin "phytol"'
p188
aS'warfarin "kaempferol 3-(6-acetylgalactoside)"'
p189
aS'warfarin "quercetin 3-(6\'\'\'-rhamnosylgentiobioside)"'
p190
aS'warfarin "genistein"'
p191
aS'warfarin "dimethoxycoumarin"'
p192
aS'warfarin "trans-2-decadienic acid methyl ester"'
p193
aS'warfarin "apigenin 7-o-beta-d-galactomannoside"'
p194
aS'warfarin "epicatechin 3-(3-methylgallate)"'
p195
aS'warfarin "apigenin 3,6-di-c-glucoside"'
p196
aS'warfarin "trehalose"'
p197
aS'warfarin "kaempferol 3-feruloyltriglucoside"'
p198
aS'warfarin "h2o"'
p199
aS'warfarin "n-(2r-hydroxytricosanoyl)-2s-amino-1,3s,4r-octadecanetriol"'
p200
aS'warfarin "apigenin 7-rhamnosylglucoside"'
p201
aS'warfarin "2,6,6-trimethylcyclohex-2-en-1,4-dione"'
p202
aS'warfarin "carotene"'
p203
aS'warfarin "pyridoxamine"'
p204
aS'warfarin "chromone"'
p205
aS'warfarin "calcium oxalate"'
p206
aS'warfarin "4-hydroxy-2,6-dimethyl-7-octen-3-one"'
p207
aS'warfarin "(x)-1-nonen-3-yl acetate"'
p208
aS'warfarin "isosilybin"'
p209
aS'warfarin "gladiatoside c2"'
p210
aS'warfarin "hesperetin"'
p211
aS'warfarin "kaempferol 7-(6\'\'-p-coumaroylglucoside)"'
p212
aS'warfarin "thymoquinone"'
p213
aS'warfarin "cyclic gmp"'
p214
aS'warfarin "3b,18b-3-methoxy-11-oxo-12-oleanen-30-oic acid"'
p215
aS'warfarin "urate"'
p216
aS'warfarin "l-cystine"'
p217
aS'warfarin "tungsten"'
p218
aS'warfarin "1,2-di-o-palmitoyl-3-o-(6-sulfoquinovopyranosyl)glycerol"'
p219
aS'warfarin "kaempferol 3-o-beta-d-xylofuranoside"'
p220
aS'warfarin "daidzein"'
p221
aS'warfarin "hydrogen peroxide"'
p222
aS'warfarin "prostaglandin e2"'
p223
aS'warfarin "3-oxodecanoic acid glycerides"'
p224
aS'warfarin "cyclic-amp"'
p225
aS'warfarin "phenoxyacetic acid"'
p226
aS'warfarin "lactyltrimethylammonium betaine"'
p227
aS'warfarin "scutellarein"'
p228
aS'warfarin "6alpha,7alpha-17-tetrahydroxy"'
p229
aS'warfarin "kaempferol 3-o-xylosyl-rutinoside"'
p230
aS'warfarin "3-(3,4-dihydroxyphenyl)lactic acid"'
p231
aS'warfarin "lysozyme"'
p232
aS'warfarin "\xce\xb1-tocopherol"'
p233
aS'warfarin "oleate"'
p234
aS'warfarin "epicatechin 3-(4-methylgallate)"'
p235
aS'warfarin "concanavalin a"'
p236
aS'warfarin "quercetin 3-(2gal-apiosylrobinobioside)"'
p237
aS'warfarin "maltose"'
p238
aS'warfarin "cellulase"'
p239
aS'warfarin "benzyl alcohol"'
p240
aS'warfarin "kaempferol 3-(2\'\'\'-sinapoylsophoroside) 7-cellobioside"'
p241
aS'warfarin "dimethyl sulfoxide"'
p242
aS'warfarin "apigenin 7-di-o-xyloside"'
p243
aS'warfarin "s-methyl 1-propenesulfinothioate"'
p244
aS'warfarin "propylene glycol"'
p245
aS'warfarin "isoprene"'
p246
aS'warfarin "quercetin 3-(2g-glucosylgentiobioside)"'
p247
aS'warfarin "(-)-3-cyanomethyl-3-hydroxy-1h-indol-2(3h)-one"'
p248
aS'warfarin "debenzoylzucchini factor b"'
p249
aS'warfarin "kaempferol 3-(2g-p-coumaroylrutinoside)"'
p250
aS'warfarin "choline"'
p251
aS'warfarin "kaempferol 3-(2\\"'
p252
aS'warfarin "ammonia"'
p253
aS'warfarin "trans-resveratrol"'
p254
aS'warfarin "guanine"'
p255
aS'warfarin "fluoride"'
p256
aS'warfarin "acrolein"'
p257
aS'warfarin "kb 2"'
p258
aS'warfarin "melilotussaponin o1"'
p259
aS'warfarin "umbelliferone"'
p260
aS'warfarin "yttrium"'
p261
aS'warfarin "2-hydroxy-3,5,5-trimethylcyclohexa-1,4-dion-2-ene"'
p262
aS'warfarin "quercetin 3-(feruloylsophorotrioside)"'
p263
aS'warfarin "xantofyl palmitate"'
p264
aS'warfarin "apigenin"'
p265
aS'warfarin "fmn"'
p266
aS'warfarin "alpha-linolenic acid"'
p267
aS'warfarin "2\'\'-o-alpha-rhamnosyl-6-c-(6-deoxo-xylo-hexos-4-ulosyl)-apigenin"'
p268
aS'warfarin "3,3\',4\',7-tetramethylgossypetin"'
p269
aS'warfarin "1-phenyl-1,3-heneicosanedione"'
p270
aS'warfarin "cobalt"'
p271
aS'warfarin "l-aspartate"'
p272
aS'warfarin "propanoate"'
p273
aS'warfarin "syringin"'
p274
aS'warfarin "oxalate"'
p275
aS'warfarin "kaempferol 3-o-alpha-l-galactoside"'
p276
aS'warfarin "2-deoxy-d-lyxono-1,4-lactone"'
p277
aS'warfarin "cucurbitacin b"'
p278
aS'warfarin "apigenin 7-digalacturonoside"'
p279
aS'warfarin "cucurbitacin e"'
p280
aS'warfarin "cucurbitacin k"'
p281
aS'warfarin "pyruvate"'
p282
aS'warfarin "chrysin"'
p283
aS'warfarin "n1,n10-dicoumaroylspermidine"'
p284
aS'warfarin "apigenin 7-arabinoside"'
p285
aS'warfarin "ginkgolide b"'
p286
aS'warfarin "l-proline"'
p287
aS'warfarin "cu2+"'
p288
aS'warfarin "beta-carotene"'
p289
aS'warfarin "hippuric acid"'
p290
aS'warfarin "2-phenylpyridine"'
p291
aS'warfarin "indole-3-acetic acid cellulosiglucan"'
p292
aS'warfarin "luteolin 7-(2\'\'-apiosylglucoside)"'
p293
aS'warfarin "mfa"'
p294
aS'warfarin "[8]-shogaol"'
p295
aS'warfarin "neuraminic-acid"'
p296
aS'warfarin "graecunin h-4"'
p297
aS'warfarin "n-demethyldiazepam"'
p298
aS'warfarin "phloroglucinol"'
p299
aS'warfarin "agavasaponin c\'"'
p300
aS'warfarin "quercetin 3-(6\'\'\'\'-ferulylsophorotrioside)"'
p301
aS'warfarin "cyanate"'
p302
aS'warfarin "alkaloid"'
p303
aS'warfarin "4,6-heptadiyne-1,3-diol"'
p304
aS'warfarin "bentonite"'
p305
aS'warfarin "3\' 5\'-cyclic amp"'
p306
aS'warfarin "betaine"'
p307
aS'warfarin "glyoxal"'
p308
aS'warfarin "glycerol 1,3-dihexadecanoate"'
p309
aS'warfarin "(6e)-piperamide-c7:1"'
p310
aS'warfarin "myoglobin"'
p311
aS'warfarin "toluene"'
p312
aS'warfarin "cadmium"'
p313
aS'warfarin "sphingosine"'
p314
aS'warfarin "fe2+"'
p315
aS'warfarin "bilobalide a"'
p316
aS'warfarin "1,7,7-trimethyltricyclo[2.2.1.02,6]heptane"'
p317
aS'warfarin "3beta,6beta-dihydroxynortropane"'
p318
aS'warfarin "7-(4-hydroxyphenyl)-1-phenyl-4-hepten-3-one"'
p319
aS'warfarin "cis-4-decadienic acid methyl ester"'
p320
aS'warfarin "anthranilic acid"'
p321
aS'warfarin "iodide"'
p322
aS'warfarin "haem"'
p323
aS'warfarin "(s)-3-methylthiohexyl hexanoate"'
p324
aS'warfarin "starch"'
p325
aS'warfarin "pyridoxal 5\'-phosphate"'
p326
aS'warfarin "2-(2-carboxy-4-methylthiazol-5-yl)ethyl phosphate"'
p327
aS'warfarin "apigenin 8-c-rhamnosyl-glucoside"'
p328
aS'warfarin "dimethylaniline-n-oxide"'
p329
aS'warfarin "isosafrole"'
p330
aS'warfarin "[12]-gingerdione"'
p331
aS'warfarin "oleanolic acid"'
p332
aS'warfarin "diacetyl"'
p333
aS'warfarin "chrysarone methyl ether"'
p334
aS'warfarin "galangin"'
p335
aS'warfarin "kaempferol 3-(2g-glucosylgentiobioside)"'
p336
aS'warfarin "beta-glucuronidase"'
p337
aS'warfarin "plastoquinone"'
p338
aS'warfarin "l-glutamic acid"'
p339
aS'warfarin "squalene"'
p340
aS'warfarin "5,10-methylenetetrahydrofolate"'
p341
aS'warfarin "glycyrrhizin"'
p342
aS'warfarin "3,3\',4\',7,8-pentamethylgossypetin"'
p343
aS'warfarin "galactosamine"'
p344
aS'warfarin "pinostrobin"'
p345
aS'warfarin "peucedanin"'
p346
aS'warfarin "zirconium"'
p347
aS'warfarin "cryptotanshinone"'
p348
aS'warfarin "mg2+"'
p349
aS'warfarin "eicosapentaenoic acid"'
p350
aS'warfarin "3-hydroxy-1,10-bisaboladien-9-one"'
p351
aS'warfarin "aldehydes"'
p352
aS'warfarin "leukotriene b4"'
p353
aS'warfarin "erbium"'
p354
aS'warfarin "kaempferol 3-coumaroyl-triglucoside"'
p355
aS'warfarin "maleic acid"'
p356
aS'warfarin "luteolin 7-rhamnosylglucoside"'
p357
aS'warfarin "1-rhamnono-1,4-lactone"'
p358
aS'warfarin "cincassiol c2"'
p359
aS'warfarin "2-butanol"'
p360
aS'warfarin "tellurium"'
p361
aS'warfarin "kaempferol 3-o-rhamnosyl-rhamnosyl-glucoside"'
p362
aS'warfarin "stearate"'
p363
aS'warfarin "octacosanoic acid"'
p364
aS'warfarin "terpene"'
p365
aS'warfarin "benzoyl-coa"'
p366
aS'warfarin "hex-cis-3-en-1-ol pyruvate"'
p367
aS'warfarin "apigenin 6-c-glucosyl-o-arabinoside"'
p368
aS'warfarin "anthocyanins"'
p369
aS'warfarin "taurine"'
p370
aS'warfarin "1-deoxy-l-glycero-tetrulose 4-phosphate"'
p371
aS'warfarin "4-hydroxy-2h-1-benzopyran-2-one"'
p372
aS'warfarin "1-deoxynojirimycin"'
p373
aS'warfarin "tartaric acid"'
p374
aS'warfarin "curcumin 4\'-o-\xce\xb2-d-gentiobiosyl 4\'\'-o-\xce\xb2-d-glucoside"'
p375
aS'warfarin "lanthanum"'
p376
aS'warfarin "vanadium"'
p377
aS'warfarin "galactosyl erythro-5-hydroxy-l-lysine"'
p378
aS'warfarin "palladium"'
p379
aS'warfarin "succinate"'
p380
aS'warfarin "l-arginine"'
p381
aS'warfarin "eremopetasitenin b1"'
p382
aS'warfarin "pc(p-16:0/20:0)"'
p383
aS'warfarin "acetaldehyde"'
p384
aS'warfarin "arabinogalactan"'
p385
aS'warfarin "(s)-2,3-dihydro-5-hydroxy-2-methyl-1,4-naphthoquinone"'
p386
aS'warfarin "coenzyme q"'
p387
aS'warfarin "sodium borohydride"'
p388
aS'warfarin "2-butylisovaleric acid methyl ester"'
p389
aS'warfarin "methyl-[12]-gingerol"'
p390
aS'warfarin "luteolin 7-glucuronylglucoside"'
p391
aS'warfarin "apigenin 7-glucuronosyl-glucoside"'
p392
aS'warfarin "antimony"'
p393
aS'warfarin "5alpha-stigmastan-3,6-dione"'
p394
aS'warfarin "quercetin 3-(2-caffeoylglucuronoside)"'
p395
aS'warfarin "1,4-benzoquinone"'
p396
aS'warfarin "gmp"'
p397
aS'warfarin "scordinine b-1"'
p398
aS'warfarin "leukotriene a4"'
p399
aS'warfarin "harman"'
p400
aS'warfarin "17\xce\xb2-estradiol"'
p401
aS'warfarin "(+)-2,3-dihydro-9-hydroxy-2[1-(6-sinapinoyl)beta-d-glucosyloxy-1-methylethyl]-7h-furo[3,2-g][1]benzopyran-7-one"'
p402
aS'warfarin "nickel"'
p403
aS'warfarin "alpha-lipoic acid"'
p404
aS'warfarin "caffeic acid"'
p405
aS'warfarin "sulfite"'
p406
aS'warfarin "catalase"'
p407
aS'warfarin "melilotoside a"'
p408
aS'warfarin "kaempferol 7-(3g-glucosylgentiobioside)"'
p409
aS'warfarin "kaempferol 3-(2\'\'-rhamnosylrutinoside)"'
p410
aS'warfarin "campest-4-en-3,6-dione"'
p411
aS'warfarin "trans-2-trans-4-decadienic acid methyl ester"'
p412
aS'warfarin "scoparone"'
p413
aS'warfarin "7\',9\'-cis-lycopene"'
p414
aS'warfarin "imp"'
p415
aS'warfarin "1-dodecanol"'
p416
aS'warfarin "3\',4\',5,7,8-pentamethoxyflavanone"'
p417
aS'warfarin "l-dopa"'
p418
aS'warfarin "methyl salicylate"'
p419
aS'warfarin "kaempferol 3-(2\'\'\'-feruloylsophoroside) 7-cellobioside"'
p420
aS'warfarin "dorsteniol"'
p421
aS'warfarin "morin"'
p422
aS'warfarin "putrescine"'
p423
aS'warfarin "ergosterol"'
p424
aS'warfarin "dihydrobutylidene phthalide"'
p425
aS'warfarin "cyclohexane"'
p426
aS'warfarin "linoleate"'
p427
aS'warfarin "hemin"'
p428
aS'warfarin "quercetin 3-(6\'\'\'\'-sinapylsophorotrioside)"'
p429
aS'warfarin "dehydroepiandrosterone"'
p430
aS'warfarin "methylparaben"'
p431
aS'warfarin "phosphatidylglycerol"'
p432
aS'warfarin "3-oxo-2-(2-entenyl)cyclopentaneoctanoic acid"'
p433
aS'warfarin "selenium"'
p434
aS'warfarin "cucurbitacin d"'
p435
aS'warfarin "avenestergenin a1"'
p436
aS'warfarin "i2"'
p437
aS'warfarin "kaempferol 7-rhamnofuranoside"'
p438
aS'warfarin "scordinine b-3"'
p439
aS'warfarin "prunasin"'
p440
aS'warfarin "benzofuran"'
p441
aS'warfarin "geranylgeraniol"'
p442
aS'warfarin "osmium"'
p443
aS'warfarin "methyl helianthenoate a glucoside"'
p444
aS'warfarin "1-butanol"'
p445
aS'warfarin "sitosterol"'
p446
aS'warfarin "pc(p-16:0/16:0)"'
p447
aS'warfarin "beta-lactoglobulin"'
p448
aS'warfarin "glycolaldehyde"'
p449
aS'warfarin "ergocalciferol"'
p450
aS'warfarin "nitrite"'
p451
aS'warfarin "(r)-2\',4\',7-trihydroxy-3\',8-diprenylisoflavan"'
p452
aS'warfarin "2-deoxy-l-ribono-1,4-lactone"'
p453
aS'warfarin "rosmarinic acid"'
p454
aS'warfarin "2-acetylpyridine"'
p455
aS'warfarin "ent-16a-hydro-6a,7a,17-trihydroxy-19-kauranoic acid"'
p456
aS'warfarin "hexanoic acid"'
p457
aS'warfarin "citric acid"'
p458
aS'warfarin "xi-2,3-dihydro-3-methylfuran"'
p459
aS'warfarin "gallium"'
p460
aS'warfarin "luteolin 6-c-glucosyl-o-arabinoside"'
p461
aS'warfarin "3,5,5-trimethylcyclohexa-1,4-dione"'
p462
aS'warfarin "hydantoin"'
p463
aS'warfarin "ursolic acid"'
p464
aS'warfarin "cyclic-gmp"'
p465
aS'warfarin "leukotriene-d4"'
p466
aS'warfarin "phosphoenolpyruvate"'
p467
aS'warfarin "gtp"'
p468
aS'warfarin "eremopetasitenin d1"'
p469
aS'warfarin "3-(4-hydroxyphenyl)-3-hydroxy-propionyl-coa"'
p470
aS'warfarin "hypericin"'
p471
aS'warfarin "amentoflavone"'
p472
aS'warfarin "kaempferol 3-o-rhamnosyl-rutinoside"'
p473
aS'warfarin "2\',4\',5,7,8-pentahydroxyisoflavone"'
p474
aS'warfarin "quinoline"'
p475
aS'warfarin "lutein"'
p476
aS'warfarin "kaempferol 3-gluco-rhamnoside"'
p477
aS'warfarin "phenethyl 6-galloylglucoside"'
p478
aS'warfarin "kaempferol 7-o-beta-d-glucoside-o-alpha-l-rhamnosyl"'
p479
aS'warfarin "cobalamin"'
p480
aS'warfarin "xi-2,5-dimethyltridecane"'
p481
aS'warfarin "kaempferol 3-o-alpha-l-(3-trans-p-coumaroyl-rhamnopyranoside)"'
p482
aS'warfarin "resveratrol"'
p483
aS'warfarin "alpha-amylase"'
p484
aS'warfarin "tetrahydrofolate"'
p485
aS'warfarin "hex-cis-3-en-1-ol caproate"'
p486
aS'warfarin "papaverine"'
p487
aS'warfarin "1-p-menthene-8,9-diol"'
p488
aS'warfarin "quercetin 3-(2\'\'-acetylrutinoside)"'
p489
aS'warfarin "3\',4\',5\'-trimethoxytricetin"'
p490
aS'warfarin "131-hydroxy-magnesium-protoporphyrin ix 13-monomethyl ester"'
p491
aS'warfarin "n-methylphenethylamine"'
p492
aS'warfarin "alpha-tocopherol"'
p493
aS'warfarin "n,n-dimethylaniline"'
p494
aS'warfarin "unsaturated fatty acids"'
p495
aS'warfarin "dutp"'
p496
aS'warfarin "methyl-1,5-alpha-stigmast-7-en-3beta-ol"'
p497
aS'warfarin "kaempferol 3-p-coumaroylsophorotrioside"'
p498
aS'warfarin "(+)-valine"'
p499
aS'warfarin "saponins"'
p500
aS'warfarin "1-octanol"'
p501
aS'warfarin "violet alcohol"'
p502
aS'warfarin "naphthalene"'
p503
aS'warfarin "oripavine"'
p504
aS'warfarin "ajmaline"'
p505
aS'warfarin "hydroxysafflor yellow a"'
p506
aS'warfarin "3-epigibberellin a72"'
p507
aS'warfarin "naringenin rutinoside-4-beta-d-glucoside"'
p508
aS'warfarin "piperidine"'
p509
aS'warfarin "gladiatoside a3"'
p510
aS'warfarin "gladiatoside a1"'
p511
aS'warfarin "neodymium"'
p512
aS'warfarin "gdp"'
p513
aS'warfarin "6-methyl 2-galloylgalactarate"'
p514
aS'warfarin "10alpha-4,5-seco-11-eudesmene-4,5-dione"'
p515
aS'warfarin "hesperetin 7-(2,6-dirhamnosylglucoside)"'
p516
aS'warfarin "bicarbonate"'
p517
aS'warfarin "polyethylene glycol"'
p518
aS'warfarin "unknown 370"'
p519
aS'warfarin "(s)-[10]-gingerol"'
p520
aS'warfarin "kaempferol 3-alpha-d-arabinopyranoside"'
p521
aS'warfarin "chlorine"'
p522
aS'warfarin "trans-2-trans-4-decadienic acid ethyl ester"'
p523
aS'warfarin "quercetin 3,4\',7-triglucoside"'
p524
aS'warfarin "n-(4-hydroxyphenyl)ethoxycarbothioamide"'
p525
aS'warfarin "kaempferol 3-feruloylapioside"'
p526
aS'warfarin "cis-4-decadienic acid ethyl ester"'
p527
aS'warfarin "l-methionine"'
p528
aS'warfarin "cdp"'
p529
aS'warfarin "2,3-dihydro-2,3-dihydroxy-9-phenyl-1h-phenalen-1-one"'
p530
aS'warfarin "kaempferol 3-o-acetyl-glucoside"'
p531
aS'warfarin "oxalates"'
p532
aS'warfarin "pc(20:0/p-16:0)"'
p533
aS'warfarin "methylglyoxal"'
p534
aS'warfarin "sterols"'
p535
aS'warfarin "maltodextrin"'
p536
aS'warfarin "sedanoic anhydride"'
p537
aS'warfarin "palmitate"'
p538
aS'warfarin "riboflavin"'
p539
aS'warfarin "arsenite"'
p540
a.