(lp0
S'ACE inhibitor "trans-1,10-heptadecadiene-5,7-diyn-3-ol"'
p1
aS'ACE inhibitor "isothiocyanates"'
p2
aS'ACE inhibitor "rubidium"'
p3
aS'ACE inhibitor "orientin"'
p4
aS'ACE inhibitor "delphinidin 3-alpha-l-galactoside"'
p5
aS'ACE inhibitor "gein"'
p6
aS'ACE inhibitor "iron oxide"'
p7
aS'ACE inhibitor "thial-1-propene-1-thiol s-oxide"'
p8
aS'ACE inhibitor "potato carboxypeptidase a inhibitor"'
p9
aS'ACE inhibitor "molybdenum"'
p10
aS'ACE inhibitor "utp"'
p11
aS'ACE inhibitor "p-coumaric acid"'
p12
aS'ACE inhibitor "fructose-1-phosphate"'
p13
aS'ACE inhibitor "3\',4\',5\',7,8-pentamethoxyflavan"'
p14
aS'ACE inhibitor "quercitrin"'
p15
aS'ACE inhibitor "chlorophyll"'
p16
aS'ACE inhibitor "3,5-di-o-caffeoylquinic acid"'
p17
aS'ACE inhibitor "isovitexin 2\'\'-galactoside"'
p18
aS'ACE inhibitor "delphinidin 3-feruloylglucoside"'
p19
aS'ACE inhibitor "phosphofructokinase"'
p20
aS'ACE inhibitor "(+)-secoisolariciresinol"'
p21
aS'ACE inhibitor "aniline"'
p22
aS'ACE inhibitor "chlorogenic acid"'
p23
aS'ACE inhibitor "bupropion"'
p24
aS'ACE inhibitor "formaldehyde"'
p25
aS'ACE inhibitor "r-2-hydroxy-3-methylbutanoic acid 3-methylbutanoyl"'
p26
aS'ACE inhibitor "mn2+"'
p27
aS'ACE inhibitor "naringin 6\'\'-rhamnoside"'
p28
aS'ACE inhibitor "pentane"'
p29
aS'ACE inhibitor "apigenin 5-[4\'\'-rhamnosyl-6\'\'-acetylglucoside]"'
p30
aS'ACE inhibitor "1,2,3,4-tetrahydro-b-carboline-1,3-dicarboxylic acid"'
p31
aS'ACE inhibitor "isorhamnetin 3-rhamnosylgalactoside"'
p32
aS'ACE inhibitor "leukotriene-c4"'
p33
aS'ACE inhibitor "laurate"'
p34
aS'ACE inhibitor "7alpha,16beta-17-trihydroxy"'
p35
aS'ACE inhibitor "procyanidin c"'
p36
aS'ACE inhibitor "chloroform"'
p37
aS'ACE inhibitor "asiatic acid"'
p38
aS'ACE inhibitor "hex-cis-3-en-1-ol hexanoate"'
p39
aS'ACE inhibitor "hydroxycinnamic acid"'
p40
aS'ACE inhibitor "11b-hydroxygibberellin a7"'
p41
aS'ACE inhibitor "kaempferol 3-o-rhamnodiglucoside"'
p42
aS'ACE inhibitor "prunus inhibitor a"'
p43
aS'ACE inhibitor "sulforaphane"'
p44
aS'ACE inhibitor "pyridoxal"'
p45
aS'ACE inhibitor "(3beta,5alpha)-3-hydroxypregn-16-en-20-one"'
p46
aS'ACE inhibitor "licochalcone a"'
p47
aS'ACE inhibitor "monoterpenes"'
p48
aS'ACE inhibitor "vanillyl caproylamide"'
p49
aS'ACE inhibitor "soja hispidasaponin c"'
p50
aS'ACE inhibitor "pyrroline"'
p51
aS'ACE inhibitor "isodulcitol"'
p52
aS'ACE inhibitor "1-(4-hydroxy-3-methoxyphenyl)-3,5-diacetoxyoctane"'
p53
aS'ACE inhibitor "naringin"'
p54
aS'ACE inhibitor "kaempferol 3-o-glucosyl-rhamnosyl-galactoside"'
p55
aS'ACE inhibitor "pelargonidin 3-beta-d-glucosyl-rutinoside"'
p56
aS'ACE inhibitor "cyanocobalamin"'
p57
aS'ACE inhibitor "synergistic antifungal protein"'
p58
aS'ACE inhibitor "luteolin 7-disulfoglucoside"'
p59
aS'ACE inhibitor "tryptophol"'
p60
aS'ACE inhibitor "ethyl icosapentate"'
p61
aS'ACE inhibitor "2-c-hydroxymethyl-d-erythrono-1,4-lactone"'
p62
aS'ACE inhibitor "paraffin wax"'
p63
aS'ACE inhibitor "methylether"'
p64
aS'ACE inhibitor "formate"'
p65
aS'ACE inhibitor "pentadecanoic acid"'
p66
aS'ACE inhibitor "osthol"'
p67
aS'ACE inhibitor "hyperin"'
p68
aS'ACE inhibitor "xi-5-hexyldihydro-2(3h)-furanone"'
p69
aS'ACE inhibitor "glutaric acid"'
p70
aS'ACE inhibitor "dihydrolipoamide"'
p71
aS'ACE inhibitor "artemetin"'
p72
aS'ACE inhibitor "latex"'
p73
aS'ACE inhibitor "behenate"'
p74
aS'ACE inhibitor "hydrogen carbonate"'
p75
aS'ACE inhibitor "apigenin 7-o-(6\'\'-malonyl-apiosyl-glucoside)"'
p76
aS'ACE inhibitor "dcmp"'
p77
aS'ACE inhibitor "s-methyl methanesulfinothioate"'
p78
aS'ACE inhibitor "cytidine"'
p79
aS'ACE inhibitor "crassostrea secocarotenoid"'
p80
aS'ACE inhibitor "alpha-pinene"'
p81
aS'ACE inhibitor "sugars"'
p82
aS'ACE inhibitor "luteolin 7-o-(2-apiosyl-6-malonyl)-glucoside"'
p83
aS'ACE inhibitor "kaempferol 3-glucosylxyloside"'
p84
aS'ACE inhibitor "2,8-dihydroxy-3,4,7-trimethoxy-dibenzofuran"'
p85
aS'ACE inhibitor "isorhamnetin 3-arabino-glucoside"'
p86
aS'ACE inhibitor "fe3+"'
p87
aS'ACE inhibitor "4\',5,6,7,8-pentahydroxy-3\'-methoxyflavone"'
p88
aS'ACE inhibitor "hebevinoside xiv"'
p89
aS'ACE inhibitor "beta-galactosidase"'
p90
aS'ACE inhibitor "allyl alcohol"'
p91
aS'ACE inhibitor "prostaglandin b-1"'
p92
aS'ACE inhibitor "luteolin"'
p93
aS'ACE inhibitor "epigallocatechin 3-(4-methylgallate)"'
p94
aS'ACE inhibitor "nicotinic acid"'
p95
aS'ACE inhibitor "pyrophosphate"'
p96
aS'ACE inhibitor "phosvitin"'
p97
aS'ACE inhibitor "5-(methylthio)-pentanonitrile"'
p98
aS'ACE inhibitor "myo-inositol"'
p99
aS'ACE inhibitor "2\',4\',5,7-tetrahydroxy-8-prenylisoflavone"'
p100
aS'ACE inhibitor "hydrogen sulfide (h2s)"'
p101
aS'ACE inhibitor "tetradeca-trans-4-cis-6-diene-8,12-diyn-1,3-diol diacetate"'
p102
aS'ACE inhibitor "d-glucaric acid"'
p103
aS'ACE inhibitor "orotate"'
p104
aS'ACE inhibitor "strontium"'
p105
aS'ACE inhibitor "isoliquiritigenin"'
p106
aS'ACE inhibitor "3-methoxy-4,5-methylenedioxypropylbenzene"'
p107
aS'ACE inhibitor "isofraxidin"'
p108
aS'ACE inhibitor "platinum"'
p109
aS'ACE inhibitor "uronic acid"'
p110
aS'ACE inhibitor "cirsimaritin"'
p111
aS'ACE inhibitor "lithospermic acid"'
p112
aS'ACE inhibitor "trans-p-menth-2-ene-1,4-diol"'
p113
aS'ACE inhibitor "butyl nitrite"'
p114
aS'ACE inhibitor "desmosine"'
p115
aS'ACE inhibitor "eupatorin"'
p116
aS'ACE inhibitor "7-epi-12-hydroxyjasmonic acid glucoside"'
p117
aS'ACE inhibitor "(-)-quinic acid"'
p118
aS'ACE inhibitor "pelargonidin 3-glucoside"'
p119
aS'ACE inhibitor "ginsenoside a2"'
p120
aS'ACE inhibitor "ginsenoside a1"'
p121
aS'ACE inhibitor "l-carnosine"'
p122
aS'ACE inhibitor "kaempferol 3-gluco-xyloside"'
p123
aS'ACE inhibitor "opc"'
p124
aS'ACE inhibitor "anthocyanidins"'
p125
aS'ACE inhibitor "2-phenylethanol"'
p126
aS'ACE inhibitor "methyl rosmarinate"'
p127
aS'ACE inhibitor "6,7-dimethyoxy coumarin"'
p128
aS'ACE inhibitor "silicic acid"'
p129
aS'ACE inhibitor "2-propanol"'
p130
aS'ACE inhibitor "levocarnitine"'
p131
aS'ACE inhibitor "s-methyl 2-propene-1-sulfinothioate"'
p132
aS'ACE inhibitor "baicalein"'
p133
aS'ACE inhibitor "ellagic acid 2-(6-glucosylglucoside)"'
p134
aS'ACE inhibitor "hesperidin"'
p135
aS'ACE inhibitor "rhein"'
p136
aS'ACE inhibitor "n-acetylneuraminic acid"'
p137
aS'ACE inhibitor "gossypol"'
p138
aS'ACE inhibitor "oleoside"'
p139
aS'ACE inhibitor "bromine"'
p140
aS'ACE inhibitor "8-hydroxy-2-methoxy-6-methyl-1,4-naphthoquinone"'
p141
aS'ACE inhibitor "nobiletin"'
p142
aS'ACE inhibitor "6-epi-7-isocucurbic acid glucoside"'
p143
aS'ACE inhibitor "sanguisobic acid dilactone"'
p144
aS'ACE inhibitor "15-hete"'
p145
aS'ACE inhibitor "alcohols"'
p146
aS'ACE inhibitor "allantoin"'
p147
aS'ACE inhibitor "pc(20:0/p-18:0)"'
p148
aS'ACE inhibitor "n2-(2-carboxymethyl-2-hydroxysuccinoyl)arginine"'
p149
aS'ACE inhibitor "oleic acid"'
p150
aS'ACE inhibitor "acetylcholine(1+)"'
p151
aS'ACE inhibitor "astragalin 2\'\'-galactoside 6\'\'-rhamnoside"'
p152
aS'ACE inhibitor "fumarate"'
p153
aS'ACE inhibitor "uricase"'
p154
aS'ACE inhibitor "pelargonidin 3-o-\xce\xb2-d-p-coumaroylglucoside"'
p155
aS'ACE inhibitor "propanoic acid"'
p156
aS'ACE inhibitor "2\',3,4\',5-tetrahydroxy-4-prenylstilbene"'
p157
aS'ACE inhibitor "lignin"'
p158
aS'ACE inhibitor "fluorine"'
p159
aS'ACE inhibitor "delphinidin 3-sambubioside"'
p160
aS'ACE inhibitor "8-c-ascorbylepigallocatechin 3-gallate"'
p161
aS'ACE inhibitor "n-heptane"'
p162
aS'ACE inhibitor "dihydrobenzofuran"'
p163
aS'ACE inhibitor "wax"'
p164
aS'ACE inhibitor "apigenin 5-[4\'\'-rhamnosylglucoside]"'
p165
aS'ACE inhibitor "bergapten"'
p166
aS'ACE inhibitor "titanium"'
p167
aS'ACE inhibitor "cyanidin 3-rhamnosyl-glucosyl-glucoside"'
p168
aS'ACE inhibitor "(-)-alpha-pinene"'
p169
aS'ACE inhibitor "cyanidin 3-(feruloylxylosylglucosylgalactoside)"'
p170
aS'ACE inhibitor "ceramide"'
p171
aS'ACE inhibitor "peroxiredoxin-(s-hydroxy-s-oxocysteine)"'
p172
aS'ACE inhibitor "phosphatidylethanolamine"'
p173
aS'ACE inhibitor "caprolactam"'
p174
aS'ACE inhibitor "guanidine"'
p175
aS'ACE inhibitor "fisetin"'
p176
aS'ACE inhibitor "oleuropein"'
p177
aS'ACE inhibitor "pc(14:0/p-18:0)"'
p178
aS'ACE inhibitor "spermidine"'
p179
aS'ACE inhibitor "5-hete"'
p180
aS'ACE inhibitor "beta-phenylethanol 6-beta-d-arabinofuranosyl-beta-d-glucopyranoside"'
p181
aS'ACE inhibitor "n,n-dimethylformamide"'
p182
aS'ACE inhibitor "zein"'
p183
aS'ACE inhibitor "uranium"'
p184
aS'ACE inhibitor "mannan"'
p185
aS'ACE inhibitor "dodecanoic acid"'
p186
aS'ACE inhibitor "theobromine"'
p187
aS'ACE inhibitor "meso-2,2\'-iminobispropanoic acid"'
p188
aS'ACE inhibitor "4-vinylpyridine"'
p189
aS'ACE inhibitor "5\',5\'\'\'-diadenosine triphosphate"'
p190
aS'ACE inhibitor "cellobiose"'
p191
aS'ACE inhibitor "methacrylic acid"'
p192
aS'ACE inhibitor "sinensetin"'
p193
aS'ACE inhibitor "cotinine"'
p194
aS'ACE inhibitor "benzyl alcohol 6-o-l-arabinofuranosyl-beta-d-glucopyranoside"'
p195
aS'ACE inhibitor "gamma-l-glutamyl-s-(2-carboxy-beta-methyl-ethyl)-cysteinyl-glycine"'
p196
aS'ACE inhibitor "cis-2,5-diethyl-tetrahydrofuran"'
p197
aS'ACE inhibitor "pc(16:0/p-16:0)"'
p198
aS'ACE inhibitor "4-hydroxyferuloxyl methane"'
p199
aS'ACE inhibitor "isorhamnetin 3,7-beta-d-diglucoside"'
p200
aS'ACE inhibitor "(9e)-valenciaxanthin"'
p201
aS'ACE inhibitor "kaempferol 3-(2g-apiosylrobinobioside)"'
p202
aS'ACE inhibitor "4-(3-hydroxy-7-phenyl-6-heptenyl)-1,2-benzenediol"'
p203
aS'ACE inhibitor "benzaldehyde"'
p204
aS'ACE inhibitor "scopoletin"'
p205
aS'ACE inhibitor "l-3-aminodihydro-2(3h)-furanone"'
p206
aS'ACE inhibitor "benzophenone"'
p207
aS'ACE inhibitor "menatetrenone"'
p208
aS'ACE inhibitor "cmp"'
p209
aS'ACE inhibitor "propyl butyrate"'
p210
aS'ACE inhibitor "n2-(3-hydroxysuccinoyl)arginine"'
p211
aS'ACE inhibitor "malvidin"'
p212
aS'ACE inhibitor "gliadin"'
p213
aS'ACE inhibitor "d-galactose"'
p214
aS'ACE inhibitor "toluidine"'
p215
aS'ACE inhibitor "(2s,3\'s)-alpha-amino-2-carboxy-5-oxo-1-pyrrolidinebutanoic acid"'
p216
aS'ACE inhibitor "1-propanol"'
p217
aS'ACE inhibitor "xylan"'
p218
aS'ACE inhibitor "ubiquinone 100"'
p219
aS'ACE inhibitor "eugenyl glucoside"'
p220
aS'ACE inhibitor "astin i"'
p221
aS'ACE inhibitor "(8e)-piperamide-c9:1"'
p222
aS'ACE inhibitor "2\'-hydroxy-3\',4\',5\',7,8-pentamethoxyflavan"'
p223
aS'ACE inhibitor "dihydromaleimide beta-d-glucoside"'
p224
aS'ACE inhibitor "s-methyl hexanethioate"'
p225
aS'ACE inhibitor "kaempferol 3-rhamno-glucoside"'
p226
aS'ACE inhibitor "kaempferol"'
p227
aS'ACE inhibitor "pyridoxine"'
p228
aS'ACE inhibitor "3,4-dihydro-2,2,5,7,8-pentamethyl-2h-1-benzopyran-6-ol"'
p229
aS'ACE inhibitor "sulfides"'
p230
aS'ACE inhibitor "6-(gamma,gamma-dimethylallyl-amino)-purine"'
p231
aS'ACE inhibitor "alliin"'
p232
aS'ACE inhibitor "l-homocysteine"'
p233
aS'ACE inhibitor "isoorientin 6\'\'-rhamnoside"'
p234
aS'ACE inhibitor "oleacein"'
p235
aS'ACE inhibitor "2-propene-1-thiol"'
p236
aS'ACE inhibitor "mevalonic acid"'
p237
aS'ACE inhibitor "arsenic"'
p238
aS'ACE inhibitor "5-acetyl-2,3-dihydro-6-methyl-1h-pyrrolizine"'
p239
aS'ACE inhibitor "sesquiterpenes"'
p240
aS'ACE inhibitor "acetamide"'
p241
aS'ACE inhibitor "kynurenine"'
p242
aS'ACE inhibitor "acetic acid hex-cis-3-enyl ester"'
p243
aS'ACE inhibitor "amygdalin"'
p244
aS'ACE inhibitor "isoquercitrin"'
p245
aS'ACE inhibitor "2\'\',6\'\'-diacetylorientin"'
p246
aS'ACE inhibitor "propene"'
p247
aS'ACE inhibitor "luteolin 3\'-(3\'\'-acetylglucuronide)"'
p248
aS'ACE inhibitor "3\',4\',7-trimethylgossypetin"'
p249
aS'ACE inhibitor "13-nor-6-eremophilene-8,11-dione"'
p250
aS'ACE inhibitor "udp-d-glucuronate"'
p251
aS'ACE inhibitor "avocadyne 2-acetate"'
p252
aS'ACE inhibitor "cyanidin 3-o-alpha-l-galactoside"'
p253
aS'ACE inhibitor "pyrrole"'
p254
aS'ACE inhibitor "hyperforin"'
p255
aS'ACE inhibitor "beta-sitosterol"'
p256
aS'ACE inhibitor "acrylic acid"'
p257
aS'ACE inhibitor "d-sorbitol"'
p258
aS'ACE inhibitor "d-glutamic acid"'
p259
aS'ACE inhibitor "deoxypyridinoline"'
p260
aS'ACE inhibitor "hex-cis-3-en-1-ol beta-d-glucoside"'
p261
aS'ACE inhibitor "uracil"'
p262
aS'ACE inhibitor "elemene"'
p263
aS'ACE inhibitor "saturated fatty acids"'
p264
aS'ACE inhibitor "cyanidin 3-(malonylxyloside)"'
p265
aS'ACE inhibitor "amaranthin"'
p266
aS'ACE inhibitor "oleoresin"'
p267
aS'ACE inhibitor "prostaglandin e-2"'
p268
aS'ACE inhibitor "benzoic acid"'
p269
aS'ACE inhibitor "iridium"'
p270
aS'ACE inhibitor "monoferulyl succinic acid"'
p271
aS'ACE inhibitor "flavones"'
p272
aS'ACE inhibitor "procyanidin"'
p273
aS'ACE inhibitor "methyl gallate"'
p274
aS'ACE inhibitor "diethylamine"'
p275
aS'ACE inhibitor "udp"'
p276
aS'ACE inhibitor "vitamin d3"'
p277
aS'ACE inhibitor "l-serine"'
p278
aS'ACE inhibitor "131-oxo-magnesium-protoporphyrin ix 13-monomethyl ester"'
p279
aS'ACE inhibitor "kaempferol 3-(2\'\'\'-caffeoylsophoroside) 7-cellobioside"'
p280
aS'ACE inhibitor "n-acetylgalactosamine"'
p281
aS'ACE inhibitor "cyanidin 3-(2-caffeoylglucosylrutinoside)"'
p282
aS'ACE inhibitor "3alpha,7alpha,22alpha-trihydroxystigmasten-(5)"'
p283
aS'ACE inhibitor "anthracene"'
p284
aS'ACE inhibitor "gamma-l-glutamyl-s-(2-carboxy-1-propyl)-cysteine-glycine"'
p285
aS'ACE inhibitor "benzothiazole"'
p286
aS'ACE inhibitor "avocadene 2-acetate"'
p287
aS'ACE inhibitor "lignan"'
p288
aS'ACE inhibitor "gladiatoside b3"'
p289
aS'ACE inhibitor "s-allylcysteine"'
p290
aS'ACE inhibitor "betanin"'
p291
aS'ACE inhibitor "potassium citrate"'
p292
aS'ACE inhibitor "kaempferol 7-arabinoside"'
p293
aS'ACE inhibitor "pyrrolidine carboxylic acid"'
p294
aS'ACE inhibitor "cholate"'
p295
aS'ACE inhibitor "xi-5-isopropyl-2(5h)-furanone"'
p296
aS'ACE inhibitor "chrysoeriol 7-(2\'\'-glucuronylglucuronide)"'
p297
aS'ACE inhibitor "cytarabine"'
p298
aS'ACE inhibitor "n2-(3-carboxy-2-hydroxy-1-oxopropyl)arginine"'
p299
aS'ACE inhibitor "carotenoids"'
p300
aS'ACE inhibitor "\xce\xb2-alanine"'
p301
aS'ACE inhibitor "carbamate"'
p302
aS'ACE inhibitor "(s)-methylmalonate-semialdehyde"'
p303
aS'ACE inhibitor "tyrosol"'
p304
aS'ACE inhibitor "methyl 7-epi-12-hydroxyjasmonate glucoside"'
p305
aS'ACE inhibitor "tocopherols"'
p306
aS'ACE inhibitor "dihydroxyacetone phosphate"'
p307
aS'ACE inhibitor "cerium"'
p308
aS'ACE inhibitor "vitexin"'
p309
aS'ACE inhibitor "cesium"'
p310
aS'ACE inhibitor "propyl propionate"'
p311
aS'ACE inhibitor "alpha,alpha-p-trimethylbenzyl alcohol ether"'
p312
aS'ACE inhibitor "isoorientin 7-arabinosyl-glucoside"'
p313
aS'ACE inhibitor "fad"'
p314
aS'ACE inhibitor "schaftoside"'
p315
aS'ACE inhibitor "d-mannose 6-phosphate"'
p316
aS'ACE inhibitor "cyanidin 3-feruloylglucoside"'
p317
aS'ACE inhibitor "isoorientin 2\'\'-arabinoside"'
p318
aS'ACE inhibitor "3alpha,15-dihydroxymarasmene"'
p319
aS'ACE inhibitor "3-methoxy-4,5-methylenedioxycinnamaldehyde"'
p320
aS'ACE inhibitor "isodityrosine"'
p321
aS'ACE inhibitor "chrysophanol 1-tetraglucoside"'
p322
aS'ACE inhibitor "cystathione"'
p323
aS'ACE inhibitor "l-arabinose"'
p324
aS'ACE inhibitor "retinol"'
p325
aS'ACE inhibitor "ms 3"'
p326
aS'ACE inhibitor "vitexin 2\'\'-xyloside"'
p327
aS'ACE inhibitor "cyanidin 3-o-(6\'\'-acetyl-arabinoside)"'
p328
aS'ACE inhibitor "dimethylamine"'
p329
aS'ACE inhibitor "butein"'
p330
aS'ACE inhibitor "glycolate"'
p331
aS'ACE inhibitor "phenylacetaldehyde"'
p332
aS'ACE inhibitor "l-isoleucine"'
p333
aS'ACE inhibitor "cadaverine"'
p334
aS'ACE inhibitor "benzoxazole"'
p335
aS'ACE inhibitor "l-glutamine"'
p336
aS'ACE inhibitor "alkanes"'
p337
aS'ACE inhibitor "chrysoeriol"'
p338
aS'ACE inhibitor "malonyl coa"'
p339
aS'ACE inhibitor "trigonelline"'
p340
aS'ACE inhibitor "turmerone"'
p341
aS'ACE inhibitor "osmanthuside a"'
p342
aS'ACE inhibitor "spermine"'
p343
aS'ACE inhibitor "spathulenol"'
p344
aS'ACE inhibitor "s-methyl 4-methylpentanethioate"'
p345
aS'ACE inhibitor "ent-epigallocatechin 3-gallate"'
p346
aS'ACE inhibitor "(24s)-24-methyl-25-dehydrocholesterol"'
p347
aS'ACE inhibitor "rhenium"'
p348
aS'ACE inhibitor "thiamine"'
p349
aS'ACE inhibitor "ellagic acid"'
p350
aS'ACE inhibitor "(-)-glycinol"'
p351
aS'ACE inhibitor "5-octyl-cyclopenta-1,3-dione"'
p352
aS'ACE inhibitor "dl-lactic acid"'
p353
aS'ACE inhibitor "glyoxylic acid"'
p354
aS'ACE inhibitor "lysophosphatidylethanolamine"'
p355
aS'ACE inhibitor "pentanoic acid"'
p356
aS'ACE inhibitor "4-phenylpyridine"'
p357
aS'ACE inhibitor "d-glyceraldehyde 3-phosphate"'
p358
aS'ACE inhibitor "kaempferol 3-(3r-glucosylrutinoside)"'
p359
aS'ACE inhibitor "4-hydroxy-3,5,5-trimethylcyclohexan-1-on-2-ene"'
p360
aS'ACE inhibitor "benzyl butyl ether"'
p361
aS'ACE inhibitor "kaempferol 3-rhamnofuranoside"'
p362
aS'ACE inhibitor "malonyl-coa"'
p363
aS'ACE inhibitor "2\'\',6\'\'-o-diacetyloninin"'
p364
aS'ACE inhibitor "arabinose"'
p365
aS'ACE inhibitor "l-alanine"'
p366
aS'ACE inhibitor "catechols"'
p367
aS'ACE inhibitor "3-deoxy-d-arabino-hexono-1,4-lactone"'
p368
aS'ACE inhibitor "lycopene"'
p369
aS'ACE inhibitor "mevalonic acid-5p"'
p370
aS'ACE inhibitor "hesperidin 7-o-alpha-l-rhamno-glucoside"'
p371
aS'ACE inhibitor "(s)-2-azetidinecarboxylic acid"'
p372
aS'ACE inhibitor "l-valine"'
p373
aS'ACE inhibitor "dctp"'
p374
aS'ACE inhibitor "cyclohexanone"'
p375
aS'ACE inhibitor "butyl acetate"'
p376
aS'ACE inhibitor "beta-conglycinin"'
p377
aS'ACE inhibitor "emodin"'
p378
aS'ACE inhibitor "epigallocatechin"'
p379
aS'ACE inhibitor "pinene"'
p380
aS'ACE inhibitor "isoorientin"'
p381
aS'ACE inhibitor "luteolin 7-malonylglucoside"'
p382
aS'ACE inhibitor "chrysoeriol 7-o-(6\'\'-malonyl-apiosyl-glucoside)"'
p383
aS'ACE inhibitor "pipecolic acid"'
p384
aS'ACE inhibitor "(s)-4\',5,7-trihydroxy-8-prenylflavanone"'
p385
aS'ACE inhibitor "1-(4-hydroxy-3-methoxyphenyl)-5-(4-hydroxyphenyl)-penta-trans-1-trans-4-dien-3-one"'
p386
aS'ACE inhibitor "peroxiredoxin-(s-hydroxycysteine)"'
p387
aS'ACE inhibitor "lathosterol"'
p388
aS'ACE inhibitor "2-oxobutanoic acid"'
p389
aS'ACE inhibitor "cyanidin 7-arabinoside"'
p390
aS'ACE inhibitor "protein r"'
p391
aS'ACE inhibitor "rubisco"'
p392
aS'ACE inhibitor "caffeoylquinic acid"'
p393
aS'ACE inhibitor "deoxycytidine"'
p394
aS'ACE inhibitor "isoorientin 6\'\'-diglucoside"'
p395
aS'ACE inhibitor "ficin"'
p396
aS'ACE inhibitor "lipoamide"'
p397
aS'ACE inhibitor "wheat gluten"'
p398
aS'ACE inhibitor "kaempferol 3-(6-acetylgalactoside)"'
p399
aS'ACE inhibitor "bergamottin"'
p400
aS'ACE inhibitor "sodium nitrite"'
p401
aS'ACE inhibitor "4-hydroxyproline"'
p402
aS'ACE inhibitor "triacylglycerol"'
p403
aS'ACE inhibitor "6\'-hmg sdg"'
p404
aS'ACE inhibitor "cyanidin 3-o-(6\'\'-malonyl-3\'\'-glucosyl-glucoside)"'
p405
aS'ACE inhibitor "2-oxopentanoic acid"'
p406
aS'ACE inhibitor "hydroxylamine"'
p407
aS'ACE inhibitor "allicin"'
p408
aS'ACE inhibitor "2-phenylethanol butyrate"'
p409
aS'ACE inhibitor "ecdysone"'
p410
aS'ACE inhibitor "cyanidin 3-[6-(6-sinapylglucosyl)-2-xylosylgalactoside]"'
p411
aS'ACE inhibitor "apigenin 7-o-beta-d-galactomannoside"'
p412
aS'ACE inhibitor "apigenin 3,6-di-c-glucoside"'
p413
aS'ACE inhibitor "oleanolic acid methyl ester"'
p414
aS'ACE inhibitor "trehalose"'
p415
aS'ACE inhibitor "kaempferol 3-feruloyltriglucoside"'
p416
aS'ACE inhibitor "pelargonidin"'
p417
aS'ACE inhibitor "pseudouridine"'
p418
aS'ACE inhibitor "isovitexin 2\'\'-arabinoside"'
p419
aS'ACE inhibitor "2-oxoglutarate"'
p420
aS'ACE inhibitor "deoxyuridine triphosphate"'
p421
aS'ACE inhibitor "phenylhydrazine"'
p422
aS'ACE inhibitor "s-methyl-5-thio-\xce\xb1-d-ribose 1-phosphate"'
p423
aS'ACE inhibitor "apigenin 7-rhamnosylglucoside"'
p424
aS'ACE inhibitor "isorhamnetin 3-rhamnodiglucoside"'
p425
aS'ACE inhibitor "12-hete"'
p426
aS'ACE inhibitor "acteoside"'
p427
aS'ACE inhibitor "3-methyl-2-oxobutanoic acid"'
p428
aS'ACE inhibitor "carbon disulfide"'
p429
aS'ACE inhibitor "oxaloacetate"'
p430
aS'ACE inhibitor "5,10-methenyltetrahydrofolate"'
p431
aS'ACE inhibitor "phytic acid"'
p432
aS'ACE inhibitor "o-quinone"'
p433
aS'ACE inhibitor "2,6,6-trimethylcyclohex-2-en-1,4-dione"'
p434
aS'ACE inhibitor "2\'-deoxyguanosine"'
p435
aS'ACE inhibitor "notoginsenoside a"'
p436
aS'ACE inhibitor "fadh2"'
p437
aS'ACE inhibitor "samarium"'
p438
aS'ACE inhibitor "soyasaponin i"'
p439
aS'ACE inhibitor "chromone"'
p440
aS'ACE inhibitor "soyasaponin d"'
p441
aS'ACE inhibitor "calcium oxalate"'
p442
aS'ACE inhibitor "bromelains"'
p443
aS'ACE inhibitor "2-nonenal"'
p444
aS'ACE inhibitor "cyanidin 3-o-beta-d-diglycoside"'
p445
aS'ACE inhibitor "cinnamic acid"'
p446
aS'ACE inhibitor "3-(4-hydroxy-3-methoxyphenyl)-1-glucosyl-prop-2-ene"'
p447
aS'ACE inhibitor "(2e,6e)-piperamide-c7:2"'
p448
aS'ACE inhibitor "cinnamaldehyde"'
p449
aS'ACE inhibitor "3-methyladenine"'
p450
aS'ACE inhibitor "kaempferol 7-(6\'\'-p-coumaroylglucoside)"'
p451
aS'ACE inhibitor "genistin"'
p452
aS'ACE inhibitor "trans-1,8-terpin"'
p453
aS'ACE inhibitor "3b,18b-3-methoxy-11-oxo-12-oleanen-30-oic acid"'
p454
aS'ACE inhibitor "galactomannan"'
p455
aS'ACE inhibitor "pc(p-18:0/20:0)"'
p456
aS'ACE inhibitor "(25s)-26-hydroxy-24-methylenecycloartan-3-one"'
p457
aS'ACE inhibitor "delphinidin 3-(3\'\'-p-coumaroylglucoside)"'
p458
aS'ACE inhibitor "1,8-dihydroxy-3,5-dimethoxy-2-prenylxanthone"'
p459
aS'ACE inhibitor "mellein"'
p460
aS'ACE inhibitor "l-cystine"'
p461
aS'ACE inhibitor "tungsten"'
p462
aS'ACE inhibitor "kaempferol 3-o-beta-d-xylofuranoside"'
p463
aS'ACE inhibitor "hg2+"'
p464
aS'ACE inhibitor "l-2-aminoethyl seryl phosphate"'
p465
aS'ACE inhibitor "5-hexyldihydro-4-methyl-2(3h)-furanone"'
p466
aS'ACE inhibitor "myricetin 3-(6\'\'-acetylgalactoside)"'
p467
aS'ACE inhibitor "morroniside"'
p468
aS'ACE inhibitor "(s)-1\',2\'-epoxy-1\',2\'-dihydro-b,y-carotene"'
p469
aS'ACE inhibitor "lactyltrimethylammonium betaine"'
p470
aS'ACE inhibitor "plumbagin"'
p471
aS'ACE inhibitor "taxifolin"'
p472
aS'ACE inhibitor "6alpha,7alpha-17-tetrahydroxy"'
p473
aS'ACE inhibitor "(22\xce\xb1)-hydroxy-cholestanol"'
p474
aS'ACE inhibitor "kaempferol 3-o-xylosyl-rutinoside"'
p475
aS'ACE inhibitor "l-threonine"'
p476
aS'ACE inhibitor "oleate"'
p477
aS'ACE inhibitor "farnesyl pyrophosphate"'
p478
aS'ACE inhibitor "maltose"'
p479
aS'ACE inhibitor "cellulase"'
p480
aS'ACE inhibitor "cis-2,8-menthadien-2-ol"'
p481
aS'ACE inhibitor "benzyl alcohol"'
p482
aS'ACE inhibitor "kaempferol 3-(2\'\'\'-sinapoylsophoroside) 7-cellobioside"'
p483
aS'ACE inhibitor "(3\'\'-apiosyl-6\'\'-malonyl)astragalin"'
p484
aS'ACE inhibitor "(-)-bornesitol"'
p485
aS'ACE inhibitor "isorhamnetin 3-dirhamnoside"'
p486
aS'ACE inhibitor "2,4-dinitrophenyl-s-glutathione"'
p487
aS'ACE inhibitor "4-aminobenzoic acid"'
p488
aS'ACE inhibitor "apigenin 7-di-o-xyloside"'
p489
aS'ACE inhibitor "s-methyl 1-propenesulfinothioate"'
p490
aS'ACE inhibitor "propylene glycol"'
p491
aS'ACE inhibitor "d-cysteine"'
p492
aS'ACE inhibitor "debenzoylzucchini factor b"'
p493
aS'ACE inhibitor "kaempferol 3-(2g-p-coumaroylrutinoside)"'
p494
aS'ACE inhibitor "isorhamnetin"'
p495
aS'ACE inhibitor "betulinic acid"'
p496
aS'ACE inhibitor "pelargonidin-3,5-diglucoside-5-o-caffeoylglucoside"'
p497
aS'ACE inhibitor "(22\xce\xb1)-hydroxy-isofucosterol"'
p498
aS'ACE inhibitor "cyanidin 3-(6\'\'-acetyl-galactoside)"'
p499
aS'ACE inhibitor "kaempferol 3-(2\\"'
p500
aS'ACE inhibitor "myricetin"'
p501
aS'ACE inhibitor "glutelin"'
p502
aS'ACE inhibitor "cyclohexanones"'
p503
aS'ACE inhibitor "diaminopimelic acid"'
p504
aS'ACE inhibitor "acrolein"'
p505
aS'ACE inhibitor "l-ornithine"'
p506
aS'ACE inhibitor "kb 2"'
p507
aS'ACE inhibitor "malvidin 3-glucoside-4-vinylphenol"'
p508
aS'ACE inhibitor "astragalin 2\'\'-galactoside"'
p509
aS'ACE inhibitor "melilotussaponin o1"'
p510
aS'ACE inhibitor "ergothioneine"'
p511
aS'ACE inhibitor "2-hydroxy-3,5,5-trimethylcyclohexa-1,4-dion-2-ene"'
p512
aS'ACE inhibitor "xantofyl palmitate"'
p513
aS'ACE inhibitor "heptanoic acid"'
p514
aS'ACE inhibitor "phthalic acid"'
p515
aS'ACE inhibitor "apigenin"'
p516
aS'ACE inhibitor "fmn"'
p517
aS'ACE inhibitor "astragalin"'
p518
aS'ACE inhibitor "octadecane"'
p519
aS'ACE inhibitor "alpha-linolenic acid"'
p520
aS'ACE inhibitor "2\'\'-o-alpha-rhamnosyl-6-c-(6-deoxo-xylo-hexos-4-ulosyl)-apigenin"'
p521
aS'ACE inhibitor "3,3\',4\',7-tetramethylgossypetin"'
p522
aS'ACE inhibitor "ethyl pentanoate"'
p523
aS'ACE inhibitor "l-aspartate"'
p524
aS'ACE inhibitor "propanoate"'
p525
aS'ACE inhibitor "loganin"'
p526
aS'ACE inhibitor "oxalate"'
p527
aS'ACE inhibitor "kaempferol 3-o-alpha-l-galactoside"'
p528
aS'ACE inhibitor "2-deoxy-d-lyxono-1,4-lactone"'
p529
aS'ACE inhibitor "apigenin 7-digalacturonoside"'
p530
aS'ACE inhibitor "cinnamyl alcohol"'
p531
aS'ACE inhibitor "isoquercitrin 4\'\'-rhamnoside"'
p532
aS'ACE inhibitor "n1,n10-dicoumaroylspermidine"'
p533
aS'ACE inhibitor "apigenin 7-arabinoside"'
p534
aS'ACE inhibitor "dextrin"'
p535
aS'ACE inhibitor "4-methyl-2-oxopentanoic acid"'
p536
aS'ACE inhibitor "ginkgolide b"'
p537
aS'ACE inhibitor "vicenin"'
p538
aS'ACE inhibitor "chrysophanol 8-(6-galloylglucoside)"'
p539
aS'ACE inhibitor "lignan diglucoside"'
p540
aS'ACE inhibitor "cu2+"'
p541
aS'ACE inhibitor "vicenin 2"'
p542
aS'ACE inhibitor "vicenin 1"'
p543
aS'ACE inhibitor "delphinidin 3-(6-p-coumaroylgalactoside)"'
p544
aS'ACE inhibitor "indole-3-acetic acid cellulosiglucan"'
p545
aS'ACE inhibitor "d-fructose"'
p546
aS'ACE inhibitor "xi-5-acetyltetrahydro-2(3h)-furanone"'
p547
aS'ACE inhibitor "luteolin 7-(2\'\'-apiosylglucoside)"'
p548
aS'ACE inhibitor "sedoheptulose"'
p549
aS'ACE inhibitor "l-aspartic acid"'
p550
aS'ACE inhibitor "ethyl 7-epi-12-hydroxyjasmonate glucoside"'
p551
aS'ACE inhibitor "d-erythrose 4-phosphate"'
p552
aS'ACE inhibitor "5-methylcytosine"'
p553
aS'ACE inhibitor "mfa"'
p554
aS'ACE inhibitor "barium"'
p555
aS'ACE inhibitor "garlicin"'
p556
aS'ACE inhibitor "apiin"'
p557
aS'ACE inhibitor "2\'\'-methoxy-(s)-oleuropein"'
p558
aS'ACE inhibitor "dimethyl peroxide"'
p559
aS'ACE inhibitor "toralactone"'
p560
aS'ACE inhibitor "legumin"'
p561
aS'ACE inhibitor "3,6-dimethyl-2,3,4,5,8,9-hexahydrobenzofuran"'
p562
aS'ACE inhibitor "phloroglucinol"'
p563
aS'ACE inhibitor "pc(p-18:0/14:0)"'
p564
aS'ACE inhibitor "okadaic acid"'
p565
aS'ACE inhibitor "agavasaponin c\'"'
p566
aS'ACE inhibitor "4,6-heptadiyne-1,3-diol"'
p567
aS'ACE inhibitor "3\' 5\'-cyclic amp"'
p568
aS'ACE inhibitor "(+)-alpha-pinene"'
p569
aS'ACE inhibitor "selenocysteine"'
p570
aS'ACE inhibitor "betaine"'
p571
aS'ACE inhibitor "thymine"'
p572
aS'ACE inhibitor "glyoxal"'
p573
aS'ACE inhibitor "raffinose"'
p574
aS'ACE inhibitor "(6e)-piperamide-c7:1"'
p575
aS'ACE inhibitor "kaempferide"'
p576
aS'ACE inhibitor "myoglobin"'
p577
aS'ACE inhibitor "toluene"'
p578
aS'ACE inhibitor "sphingosine"'
p579
aS'ACE inhibitor "3,4-dihydroxyphenylglycol"'
p580
aS'ACE inhibitor "xanthohumol"'
p581
aS'ACE inhibitor "fe2+"'
p582
aS'ACE inhibitor "1,7,7-trimethyltricyclo[2.2.1.02,6]heptane"'
p583
aS'ACE inhibitor "3beta,6beta-dihydroxynortropane"'
p584
aS'ACE inhibitor "pc(18:0/p-18:0)"'
p585
aS'ACE inhibitor "pelargonidin 5-galactoside"'
p586
aS'ACE inhibitor "isolimocitrol 3-glucoside"'
p587
aS'ACE inhibitor "7-(4-hydroxyphenyl)-1-phenyl-4-hepten-3-one"'
p588
aS'ACE inhibitor "succinic acid"'
p589
aS'ACE inhibitor "anthranilic acid"'
p590
aS'ACE inhibitor "2-amino-3,4-dihydroxypentanedioic acid"'
p591
aS'ACE inhibitor "haem"'
p592
aS'ACE inhibitor "(s)-3-methylthiohexyl hexanoate"'
p593
aS'ACE inhibitor "parthenolide"'
p594
aS'ACE inhibitor "pterin"'
p595
aS'ACE inhibitor "gamma-sitosterol"'
p596
aS'ACE inhibitor "d-glyceraldehyde"'
p597
aS'ACE inhibitor "pyridoxal 5\'-phosphate"'
p598
aS'ACE inhibitor "2-(2-carboxy-4-methylthiazol-5-yl)ethyl phosphate"'
p599
aS'ACE inhibitor "formamide"'
p600
aS'ACE inhibitor "apigenin 8-c-rhamnosyl-glucoside"'
p601
aS'ACE inhibitor "(2a,3a)-dihydroxy-12-ursen-24-oic acid"'
p602
aS'ACE inhibitor "l-kynurenine"'
p603
aS'ACE inhibitor "oleanolic acid"'
p604
aS'ACE inhibitor "retinol palmitate"'
p605
aS'ACE inhibitor "ginsenoside rb1"'
p606
aS'ACE inhibitor "malvidin 3-glucoside-4-vinylguaiacol"'
p607
aS'ACE inhibitor "2\'\',6\'\'-diacetylisoorientin"'
p608
aS'ACE inhibitor "chrysarone methyl ether"'
p609
aS'ACE inhibitor "momordin a"'
p610
aS'ACE inhibitor "apigenin 6-c-glucoside 8-c-riboside"'
p611
aS'ACE inhibitor "galangin"'
p612
aS'ACE inhibitor "xanthophylls"'
p613
aS'ACE inhibitor "chrysophanol 1-triglucoside"'
p614
aS'ACE inhibitor "kaempferol 3-(2g-glucosylgentiobioside)"'
p615
aS'ACE inhibitor "beta-glucuronidase"'
p616
aS'ACE inhibitor "cyanidin"'
p617
aS'ACE inhibitor "l-glutamic acid"'
p618
aS'ACE inhibitor "diphenylamine"'
p619
aS'ACE inhibitor "squalene"'
p620
aS'ACE inhibitor "5,10-methylenetetrahydrofolate"'
p621
aS'ACE inhibitor "ferulate"'
p622
aS'ACE inhibitor "vitamin k2"'
p623
aS'ACE inhibitor "glycyrrhizin"'
p624
aS'ACE inhibitor "3,3\',4\',7,8-pentamethylgossypetin"'
p625
aS'ACE inhibitor "galactosamine"'
p626
aS'ACE inhibitor "d-mannitol"'
p627
aS'ACE inhibitor "n-acetylserotonin"'
p628
aS'ACE inhibitor "zirconium"'
p629
aS'ACE inhibitor "indole-3-ethanol"'
p630
aS'ACE inhibitor "ctp"'
p631
aS'ACE inhibitor "gentiobiose"'
p632
aS'ACE inhibitor "xi-5-ethyldihydro-2(3h)-furanone"'
p633
aS'ACE inhibitor "aldehydes"'
p634
aS'ACE inhibitor "pelargonidin 3-(2gluglucosylrutinoside)"'
p635
aS'ACE inhibitor "5alpha-cholestane"'
p636
aS'ACE inhibitor "5-deoxykievitone hydrate"'
p637
aS'ACE inhibitor "kaempferol 3-coumaroyl-triglucoside"'
p638
aS'ACE inhibitor "maleic acid"'
p639
aS'ACE inhibitor "luteolin 7-rhamnosylglucoside"'
p640
aS'ACE inhibitor "1-rhamnono-1,4-lactone"'
p641
aS'ACE inhibitor "2-butanol"'
p642
aS'ACE inhibitor "chrysophanol 8-gentiobioside"'
p643
aS'ACE inhibitor "oleoside 11-methyl ester"'
p644
aS'ACE inhibitor "kaempferol 3-o-rhamnosyl-rhamnosyl-glucoside"'
p645
aS'ACE inhibitor "stearate"'
p646
aS'ACE inhibitor "thiamine hydrochloride"'
p647
aS'ACE inhibitor "6-methylheptanoic acid"'
p648
aS'ACE inhibitor "l-n-(1h-indol-3-ylacetyl)aspartic acid"'
p649
aS'ACE inhibitor "cyanidin 3-(6\'\'-malonyllaminaribioside)"'
p650
aS'ACE inhibitor "(-)-gossypol"'
p651
aS'ACE inhibitor "myricetin 3-(4\'\'-acetylrhamnoside)"'
p652
aS'ACE inhibitor "1-(3-methylbutanoyl)-6-apiosylglucose"'
p653
aS'ACE inhibitor "mangiferin 6\'-gallate"'
p654
aS'ACE inhibitor "cyanidin 3,5-digalactoside"'
p655
aS'ACE inhibitor "monodehydroascorbate"'
p656
aS'ACE inhibitor "4-methoxy-3-geranylgeranyl-1,2-dihydroxybenzene"'
p657
aS'ACE inhibitor "apigenin 6-c-glucosyl-o-arabinoside"'
p658
aS'ACE inhibitor "epicatechin 3-glucoside"'
p659
aS'ACE inhibitor "anthocyanins"'
p660
aS'ACE inhibitor "1-deoxy-l-glycero-tetrulose 4-phosphate"'
p661
aS'ACE inhibitor "1-deoxynojirimycin"'
p662
aS'ACE inhibitor "cyclopentanone"'
p663
aS'ACE inhibitor "calsequestrin"'
p664
aS'ACE inhibitor "tartaric acid"'
p665
aS'ACE inhibitor "harmaline"'
p666
aS'ACE inhibitor "aminoadipic acid"'
p667
aS'ACE inhibitor "2-butyl-4,5-diethyloxazole"'
p668
aS'ACE inhibitor "protocatechuic acid"'
p669
aS'ACE inhibitor "palladium"'
p670
aS'ACE inhibitor "d-fructose 6-phosphate"'
p671
aS'ACE inhibitor "eugenol"'
p672
aS'ACE inhibitor "pc(p-16:0/20:0)"'
p673
aS'ACE inhibitor "acetaldehyde"'
p674
aS'ACE inhibitor "isovitexin"'
p675
aS'ACE inhibitor "(s)-2,3-dihydro-5-hydroxy-2-methyl-1,4-naphthoquinone"'
p676
aS'ACE inhibitor "pc(p-18:0/18:0)"'
p677
aS'ACE inhibitor "coenzyme q"'
p678
aS'ACE inhibitor "cassiaside c"'
p679
aS'ACE inhibitor "sodium borohydride"'
p680
aS'ACE inhibitor "luteolin 7-glucuronylglucoside"'
p681
aS'ACE inhibitor "apigenin 7-glucuronosyl-glucoside"'
p682
aS'ACE inhibitor "antimony"'
p683
aS'ACE inhibitor "1,4-benzoquinone"'
p684
aS'ACE inhibitor "epicatechin"'
p685
aS'ACE inhibitor "momordin"'
p686
aS'ACE inhibitor "harman"'
p687
aS'ACE inhibitor "estriol"'
p688
aS'ACE inhibitor "eicosadienoic acid"'
p689
aS'ACE inhibitor "arecoline"'
p690
aS'ACE inhibitor "2,3-dihydroxybenzoic acid"'
p691
aS'ACE inhibitor "alpha-lipoic acid"'
p692
aS'ACE inhibitor "tomatine"'
p693
aS'ACE inhibitor "caffeic acid"'
p694
aS'ACE inhibitor "sulfite"'
p695
aS'ACE inhibitor "astragalin 2\'\'-xyloside 6\'\'-rhamnoside"'
p696
aS'ACE inhibitor "3beta-cycloartane-3,25-diol"'
p697
aS'ACE inhibitor "4-aminobutyric acid"'
p698
aS'ACE inhibitor "4-aminobenzoate"'
p699
aS'ACE inhibitor "kaempferol 3-[6\'\'\'-p-coumarylglucosyl-(1->2)-rhamnoside]"'
p700
aS'ACE inhibitor "kaempferol 7-(3g-glucosylgentiobioside)"'
p701
aS'ACE inhibitor "kaempferol 3-(2\'\'-rhamnosylrutinoside)"'
p702
aS'ACE inhibitor "2\'\',3\'\'-diacetylcosmosiin"'
p703
aS'ACE inhibitor "ficin b"'
p704
aS'ACE inhibitor "isodesmosine"'
p705
aS'ACE inhibitor "cassiaside"'
p706
aS'ACE inhibitor "selenite"'
p707
aS'ACE inhibitor "isovitexin 6\'\'-rhamnoside"'
p708
aS'ACE inhibitor "dihydroxyferuloyl-sinapoyl spermidine"'
p709
aS'ACE inhibitor "xi-dihydro-5-octyl-2(3h)-furanone"'
p710
aS'ACE inhibitor "imp"'
p711
aS'ACE inhibitor "l-citrulline"'
p712
aS'ACE inhibitor "3\',4\',5,7,8-pentamethoxyflavanone"'
p713
aS'ACE inhibitor "l-dopa"'
p714
aS'ACE inhibitor "kaempferol 3-(2\'\'\'-feruloylsophoroside) 7-cellobioside"'
p715
aS'ACE inhibitor "putrescine"'
p716
aS'ACE inhibitor "(24s)-24-ethylbrassinone"'
p717
aS'ACE inhibitor "delphinidin 3,5,3\'-triglucoside"'
p718
aS'ACE inhibitor "acetyl-coa"'
p719
aS'ACE inhibitor "phosphorylcholine"'
p720
aS'ACE inhibitor "cyclohexane"'
p721
aS'ACE inhibitor "linoleate"'
p722
aS'ACE inhibitor "2-heptanone"'
p723
aS'ACE inhibitor "cyanidin 3-(6\'\'-p-coumarylsambubioside)"'
p724
aS'ACE inhibitor "4-methylpentanoic acid"'
p725
aS'ACE inhibitor "hemin"'
p726
aS'ACE inhibitor "nicotinate"'
p727
aS'ACE inhibitor "dehydroepiandrosterone"'
p728
aS'ACE inhibitor "europium"'
p729
aS'ACE inhibitor "isovitexin 2\'\'-caffeoylglucoside"'
p730
aS'ACE inhibitor "methylparaben"'
p731
aS'ACE inhibitor "chrysophanol"'
p732
aS'ACE inhibitor "cyanidin 3-(cinnamoylglucoside)"'
p733
aS'ACE inhibitor "kaempferol 7-rhamnofuranoside"'
p734
aS'ACE inhibitor "scordinine b-3"'
p735
aS'ACE inhibitor "3-hydroxy-4,5-dimethyl-2-furanone"'
p736
aS'ACE inhibitor "n-(2-hydroxybenzoyl)glycine"'
p737
aS'ACE inhibitor "benzofuran"'
p738
aS'ACE inhibitor "methyl helianthenoate a glucoside"'
p739
aS'ACE inhibitor "\xce\xb1-carotene"'
p740
aS'ACE inhibitor "1-butanol"'
p741
aS'ACE inhibitor "sitosterol"'
p742
aS'ACE inhibitor "pc(p-16:0/16:0)"'
p743
aS'ACE inhibitor "invert sugar"'
p744
aS'ACE inhibitor "3,4-dihydroxyphenylacetic acid"'
p745
aS'ACE inhibitor "conglutin"'
p746
aS'ACE inhibitor "4-hydroxybenzoate"'
p747
aS'ACE inhibitor "cyanidin 3-sambubioside"'
p748
aS'ACE inhibitor "cyanidin 3,3\'-diglucoside"'
p749
aS'ACE inhibitor "syringic acid"'
p750
aS'ACE inhibitor "phlorizin"'
p751
aS'ACE inhibitor "ergocalciferol"'
p752
aS'ACE inhibitor "inosine"'
p753
aS'ACE inhibitor "cyanidin 3-(2g-xylosylrutinoside)"'
p754
aS'ACE inhibitor "2-deoxy-l-ribono-1,4-lactone"'
p755
aS'ACE inhibitor "arachin"'
p756
aS'ACE inhibitor "rosmarinic acid"'
p757
aS'ACE inhibitor "cyanidin 3-(6\'\'-dioxalylglucoside)"'
p758
aS'ACE inhibitor "ent-16a-hydro-6a,7a,17-trihydroxy-19-kauranoic acid"'
p759
aS'ACE inhibitor "hexanoic acid"'
p760
aS'ACE inhibitor "malic acid"'
p761
aS'ACE inhibitor "gallium"'
p762
aS'ACE inhibitor "salicylates"'
p763
aS'ACE inhibitor "arbutin"'
p764
aS'ACE inhibitor "l-glutamate"'
p765
aS'ACE inhibitor "luteolin 6-c-glucosyl-o-arabinoside"'
p766
aS'ACE inhibitor "xi-dihydro-4-methyl-2(3h)-furanone"'
p767
aS'ACE inhibitor "cd2+"'
p768
aS'ACE inhibitor "hydantoin"'
p769
aS'ACE inhibitor "secoisolariciresinol"'
p770
aS'ACE inhibitor "gamma-butyrolactone"'
p771
aS'ACE inhibitor "pyruvic acid"'
p772
aS'ACE inhibitor "notoginsenoside d"'
p773
aS'ACE inhibitor "codeine"'
p774
aS'ACE inhibitor "carbonic acid"'
p775
aS'ACE inhibitor "n-acetylglucosamine"'
p776
aS'ACE inhibitor "apiosylglucosyl 4-hydroxybenzoate"'
p777
aS'ACE inhibitor "ursolic acid"'
p778
aS'ACE inhibitor "2\'\',3\'\'-di-o-p-coumaroylafzelin"'
p779
aS'ACE inhibitor "cassitoroside"'
p780
aS'ACE inhibitor "leukotriene-d4"'
p781
aS'ACE inhibitor "phosphoenolpyruvate"'
p782
aS'ACE inhibitor "glyoxylate"'
p783
aS'ACE inhibitor "guanosine triphosphate"'
p784
aS'ACE inhibitor "3-(4-hydroxyphenyl)-3-hydroxy-propionyl-coa"'
p785
aS'ACE inhibitor "secologanin"'
p786
aS'ACE inhibitor "kaempferol 3-o-rhamnosyl-rutinoside"'
p787
aS'ACE inhibitor "notoginsenoside i"'
p788
aS'ACE inhibitor "2\',4\',5,7,8-pentahydroxyisoflavone"'
p789
aS'ACE inhibitor "mangiferin"'
p790
aS'ACE inhibitor "guanosine diphosphate"'
p791
aS'ACE inhibitor "quinoline"'
p792
aS'ACE inhibitor "chrysoeriol 7-disulfoglucoside"'
p793
aS'ACE inhibitor "lutein"'
p794
aS'ACE inhibitor "kaempferol 3-gluco-rhamnoside"'
p795
aS'ACE inhibitor "phenethyl 6-galloylglucoside"'
p796
aS'ACE inhibitor "kaempferol 7-o-beta-d-glucoside-o-alpha-l-rhamnosyl"'
p797
aS'ACE inhibitor "cobalamin"'
p798
aS'ACE inhibitor "tetrahydrofolate"'
p799
aS'ACE inhibitor "pelargonidin-3,5-diglucoside-5-o-p-coumaroylglucoside"'
p800
aS'ACE inhibitor "isobutanol"'
p801
aS'ACE inhibitor "delphinidin 3-o-glucosyl-5-o-caffeoylglucoside"'
p802
aS'ACE inhibitor "3\',4\',5\'-trimethoxytricetin"'
p803
aS'ACE inhibitor "l-histidine"'
p804
aS'ACE inhibitor "nonane"'
p805
aS'ACE inhibitor "131-hydroxy-magnesium-protoporphyrin ix 13-monomethyl ester"'
p806
aS'ACE inhibitor "n-methylphenethylamine"'
p807
aS'ACE inhibitor "isorhamnetin 3-beta-laminaribioside"'
p808
aS'ACE inhibitor "zingibain"'
p809
aS'ACE inhibitor "chrysoeriol 7-triglucuronide"'
p810
aS'ACE inhibitor "gamma-glutamyl-cysteine"'
p811
aS'ACE inhibitor "kaempferol 3-p-coumaroylsophorotrioside"'
p812
aS'ACE inhibitor "2-oxobutanoate"'
p813
aS'ACE inhibitor "1-octanol"'
p814
aS'ACE inhibitor "(+)-taxifolin"'
p815
aS'ACE inhibitor "violet alcohol"'
p816
aS'ACE inhibitor "naphthalene"'
p817
aS'ACE inhibitor "delphinidin"'
p818
aS'ACE inhibitor "pyridinoline"'
p819
aS'ACE inhibitor "pregnenolone"'
p820
aS'ACE inhibitor "tryptamine"'
p821
aS'ACE inhibitor "hydroxysafflor yellow a"'
p822
aS'ACE inhibitor "coumarin"'
p823
aS'ACE inhibitor "naringenin rutinoside-4-beta-d-glucoside"'
p824
aS'ACE inhibitor "piperidine"'
p825
aS'ACE inhibitor "gladiatoside a3"'
p826
aS'ACE inhibitor "gdp"'
p827
aS'ACE inhibitor "amoxycillin"'
p828
aS'ACE inhibitor "6-methyl 2-galloylgalactarate"'
p829
aS'ACE inhibitor "epsilon-viniferin"'
p830
aS'ACE inhibitor "10alpha-4,5-seco-11-eudesmene-4,5-dione"'
p831
aS'ACE inhibitor "2\'\',4\'\'-diacetylafzelin"'
p832
aS'ACE inhibitor "soyasaponin aa"'
p833
aS'ACE inhibitor "b-chlorogenin 3-[2\'\',4\'\'-dirhamnosylglucoside]"'
p834
aS'ACE inhibitor "\xce\xb2-d-glucose"'
p835
aS'ACE inhibitor "carveol"'
p836
aS'ACE inhibitor "phenol"'
p837
aS'ACE inhibitor "delphinidin 3-o-glucosyl-5-o-caffeoylglucoside-3\'-o-glucoside"'
p838
aS'ACE inhibitor "butanoic acid"'
p839
aS'ACE inhibitor "vitisin a"'
p840
aS'ACE inhibitor "dihydroxyacetone"'
p841
aS'ACE inhibitor "kaempferol 3-alpha-d-arabinopyranoside"'
p842
aS'ACE inhibitor "alpha-zein"'
p843
aS'ACE inhibitor "acetoin"'
p844
aS'ACE inhibitor "chlorine"'
p845
aS'ACE inhibitor "quercetin 3,4\',7-triglucoside"'
p846
aS'ACE inhibitor "3,4-epoxy-p-menth-1(7)-ene"'
p847
aS'ACE inhibitor "n-(4-hydroxyphenyl)ethoxycarbothioamide"'
p848
aS'ACE inhibitor "kaempferol 3-feruloylapioside"'
p849
aS'ACE inhibitor "glycinol"'
p850
aS'ACE inhibitor "l-methionine"'
p851
aS'ACE inhibitor "cdp"'
p852
aS'ACE inhibitor "6\'\'-acetylapiin"'
p853
aS'ACE inhibitor "2,3-dihydro-2,3-dihydroxy-9-phenyl-1h-phenalen-1-one"'
p854
aS'ACE inhibitor "kaempferol 3-o-acetyl-glucoside"'
p855
aS'ACE inhibitor "n-propanol"'
p856
aS'ACE inhibitor "pelargonidin 3-o-\xce\xb2-d-caffeoylglucoside"'
p857
aS'ACE inhibitor "oxalates"'
p858
aS'ACE inhibitor "pc(20:0/p-16:0)"'
p859
aS'ACE inhibitor "methylglyoxal"'
p860
aS'ACE inhibitor "glycinin"'
p861
aS'ACE inhibitor "harmol"'
p862
aS'ACE inhibitor "boron"'
p863
aS'ACE inhibitor "2\'\'-o-alpha-rhamnosyl-6-c-(6-deoxo-xylo-hexos-4-ulosyl)-chrysoeriol"'
p864
aS'ACE inhibitor "19-hydroxyandrostenedione"'
p865
aS'ACE inhibitor "sterols"'
p866
aS'ACE inhibitor "n-methylanthranilic acid"'
p867
aS'ACE inhibitor "maltodextrin"'
p868
aS'ACE inhibitor "palmitate"'
p869
aS'ACE inhibitor "3beta-cycloart-5-ene-3,25-diol"'
p870
aS'ACE inhibitor "hexosamine"'
p871
aS'ACE inhibitor "uridine triphosphate"'
p872
aS'ACE inhibitor "riboflavin"'
p873
aS'ACE inhibitor "arsenite"'
p874
a.