(lp0
VACE inhibitor "oregon yampah"
p1
aVACE inhibitor "sugar"
p2
aVACE inhibitor "common bean"
p3
aVACE inhibitor "fig"
p4
aVACE inhibitor "lard"
p5
aVACE inhibitor "gin"
p6
aVACE inhibitor "sweet basil"
p7
aVACE inhibitor "cichlidae (tilapia)"
p8
aVACE inhibitor "miso"
p9
aVACE inhibitor "apricot"
p10
aVACE inhibitor "haddock"
p11
aVACE inhibitor "poppy"
p12
aVACE inhibitor "sorghum"
p13
aVACE inhibitor "kale"
p14
aVACE inhibitor "turkey"
p15
aVACE inhibitor "lovage"
p16
aVACE inhibitor "shortening"
p17
aVACE inhibitor "rice"
p18
aVACE inhibitor "lemon balm"
p19
aVACE inhibitor "beverages"
p20
aVACE inhibitor "red algae"
p21
aVACE inhibitor "soy milk"
p22
aVACE inhibitor "mung bean"
p23
aVACE inhibitor "rainbow trout"
p24
aVACE inhibitor "other fish product"
p25
aVACE inhibitor "pistachio"
p26
aVACE inhibitor "lotus"
p27
aVACE inhibitor "liquor"
p28
aVACE inhibitor "almond"
p29
aVACE inhibitor "ginger"
p30
aVACE inhibitor "lettuce"
p31
aVACE inhibitor "spinach"
p32
aVACE inhibitor "lima bean"
p33
aVACE inhibitor "amaranth"
p34
aVACE inhibitor "quince"
p35
aVACE inhibitor "whey"
p36
aVACE inhibitor "papaya"
p37
aVACE inhibitor "buffalo"
p38
aVACE inhibitor "corn"
p39
aVACE inhibitor "canada blueberry"
p40
aVACE inhibitor "wheat bread"
p41
aVACE inhibitor "other bread"
p42
aVACE inhibitor "cheese"
p43
aVACE inhibitor "tofu"
p44
aVACE inhibitor "oat"
p45
aVACE inhibitor "pulses"
p46
aVACE inhibitor "common ling"
p47
aVACE inhibitor "banana"
p48
aVACE inhibitor "mushrooms"
p49
aVACE inhibitor "mustard"
p50
aVACE inhibitor "snail"
p51
aVACE inhibitor "wild rice"
p52
aVACE inhibitor "acorn"
p53
aVACE inhibitor "agar"
p54
aVACE inhibitor "persimmon"
p55
aVACE inhibitor "cake"
p56
aVACE inhibitor "milk (other mammals)"
p57
aVACE inhibitor "apple"
p58
aVACE inhibitor "ginseng"
p59
aVACE inhibitor "deer"
p60
aVACE inhibitor "chewing gum"
p61
aVACE inhibitor "casein"
p62
aVACE inhibitor "horse"
p63
aVACE inhibitor "elk"
p64
aVACE inhibitor "pate"
p65
aVACE inhibitor "soy bean"
p66
aVACE inhibitor "pasta"
p67
aVACE inhibitor "hamburger"
p68
aVACE inhibitor "turmeric"
p69
aVACE inhibitor "coconut"
p70
aVACE inhibitor "canola"
p71
aVACE inhibitor "squid"
p72
aVACE inhibitor "quail"
p73
aVACE inhibitor "chanterelle"
p74
aVACE inhibitor "tartary buckwheat"
p75
aVACE inhibitor "wheat"
p76
aVACE inhibitor "rabbit"
p77
aVACE inhibitor "blue whiting"
p78
aVACE inhibitor "skipjack tuna"
p79
aVACE inhibitor "adzuki bean"
p80
aVACE inhibitor "gadiformes (cod, hake)"
p81
aVACE inhibitor "peppermint"
p82
aVACE inhibitor "wakame"
p83
aVACE inhibitor "mango"
p84
aVACE inhibitor "liquorice"
p85
aVACE inhibitor "yam"
p86
aVACE inhibitor "cocktail"
p87
aVACE inhibitor "vinegar"
p88
aVACE inhibitor "garlic"
p89
aVACE inhibitor "shrimp"
p90
aVACE inhibitor "date"
p91
aVACE inhibitor "milk and milk products"
p92
aVACE inhibitor "eggplant"
p93
aVACE inhibitor "whiting"
p94
aVACE inhibitor "radish"
p95
aVACE inhibitor "chickpea"
p96
aVACE inhibitor "cucurbita (gourd)"
p97
aVACE inhibitor "lime"
p98
aVACE inhibitor "lentils"
p99
aVACE inhibitor "peach"
p100
aVACE inhibitor "shiitake"
p101
aVACE inhibitor "crab"
p102
aVACE inhibitor "alcoholic beverages"
p103
aVACE inhibitor "pineappple sage"
p104
aVACE inhibitor "spirit"
p105
aVACE inhibitor "blue mussel"
p106
aVACE inhibitor "soy sauce"
p107
aVACE inhibitor "sesame"
p108
aVACE inhibitor "strawberry"
p109
aVACE inhibitor "malus (crab apple)"
p110
aVACE inhibitor "rosemary"
p111
aVACE inhibitor "teff"
p112
aVACE inhibitor "dripping"
p113
aVACE inhibitor "atlantic cod"
p114
aVACE inhibitor "sunflower"
p115
aVACE inhibitor "alaska pollock"
p116
aVACE inhibitor "fishes"
p117
aVACE inhibitor "butterfat"
p118
aVACE inhibitor "salt"
p119
aVACE inhibitor "tea"
p120
aVACE inhibitor "spread"
p121
aVACE inhibitor "focaccia"
p122
aVACE inhibitor "linden"
p123
aVACE inhibitor "rum"
p124
aVACE inhibitor "water"
p125
aVACE inhibitor "pectin"
p126
aVACE inhibitor "jellyfish"
p127
aVACE inhibitor "bilberry"
p128
aVACE inhibitor "cowpea"
p129
aVACE inhibitor "flour"
p130
aVACE inhibitor "beaver"
p131
aVACE inhibitor "margarine"
p132
aVACE inhibitor "opossum"
p133
aVACE inhibitor "other meat product"
p134
aVACE inhibitor "syrup"
p135
aVACE inhibitor "cucumber"
p136
aVACE inhibitor "anguilliformes (eel)"
p137
aVACE inhibitor "cuttlefish"
p138
aVACE inhibitor "greenthread tea"
p139
aVACE inhibitor "berry wine"
p140
aVACE inhibitor "butter"
p141
aVACE inhibitor "rubus (blackberry, raspberry)"
p142
aVACE inhibitor "columbidae (dove, pigeon)"
p143
aVACE inhibitor "evening primrose"
p144
aVACE inhibitor "sake"
p145
aVACE inhibitor "fenugreek"
p146
aVACE inhibitor "squirrel"
p147
aVACE inhibitor "bean"
p148
aVACE inhibitor "black raspberry"
p149
aVACE inhibitor "nance"
p150
aVACE inhibitor "cumin"
p151
aVACE inhibitor "soup"
p152
aVACE inhibitor "agave"
p153
aVACE inhibitor "bamboo shoots"
p154
aVACE inhibitor "other sandwich"
p155
aVACE inhibitor "milk (human)"
p156
aVACE inhibitor "millet"
p157
aVACE inhibitor "nuts"
p158
aVACE inhibitor "chia"
p159
aVACE inhibitor "eggs"
p160
aVACE inhibitor "chestnut"
p161
aVACE inhibitor "chocolate"
p162
aVACE inhibitor "winged bean"
p163
aVACE inhibitor "olive"
p164
aVACE inhibitor "pacific cod"
p165
aVACE inhibitor "salad"
p166
aVACE inhibitor "potato"
p167
aVACE inhibitor "oyster mushroom"
p168
aVACE inhibitor "vodka"
p169
aVACE inhibitor "cocoa and cocoa products"
p170
aVACE inhibitor "yogurt"
p171
aVACE inhibitor "sweet potato"
p172
aVACE inhibitor "pheasant"
p173
aVACE inhibitor "soft-necked garlic"
p174
aVACE inhibitor "pie"
p175
aVACE inhibitor "honey"
p176
aVACE inhibitor "kefir"
p177
aVACE inhibitor "blue crab"
p178
aVACE inhibitor "peanut"
p179
aVACE inhibitor "walnut"
p180
aVACE inhibitor "beer"
p181
aVACE inhibitor "grapefruit"
p182
aVACE inhibitor "catfish"
p183
aVACE inhibitor "coffee"
p184
aVACE inhibitor "citrus"
p185
aVACE inhibitor "sea cucumber"
p186
aVACE inhibitor "atlantic salmon"
p187
aVACE inhibitor "other animal fat"
p188
aVACE inhibitor "fruits"
p189
aVACE inhibitor "roe"
p190
aVACE inhibitor "sturgeon"
p191
aVACE inhibitor "rape"
p192
aVACE inhibitor "angelica"
p193
aVACE inhibitor "grape"
p194
aVACE inhibitor "natto"
p195
aVACE inhibitor "pollock"
p196
aVACE inhibitor "barley"
p197
aVACE inhibitor "sauce"
p198
aVACE inhibitor "crustaceans"
p199
aVACE inhibitor "lemon"
p200
aVACE inhibitor "ketchup"
p201
aVACE inhibitor "cereals and cereal products"
p202
aVACE inhibitor "mollusks"
p203
aVACE inhibitor "asparagus"
p204
aVACE inhibitor "horseradish"
p205
aVACE inhibitor "safflower"
p206
aVACE inhibitor "sourdough"
p207
aVACE inhibitor "coffee and coffee products"
p208
aVACE inhibitor "spiny dogfish"
p209
aVACE inhibitor "other candy"
p210
aVACE inhibitor "thistle"
p211
aVACE inhibitor "gelatin"
p212
aVACE inhibitor "cream"
p213
aVACE inhibitor "wax gourd"
p214
aVACE inhibitor "rye"
p215
aVACE inhibitor "condensed milk"
p216
aVACE inhibitor "kelp"
p217
aVACE inhibitor "spirulina"
p218
aVACE inhibitor "other vegetable product"
p219
aVACE inhibitor "flaxseed"
p220
aVACE inhibitor "shark"
p221
aVACE inhibitor "pot marjoram"
p222
aVACE inhibitor "scyphozoa"
p223
aVACE inhibitor "morus"
p224
aVACE inhibitor "cucurbita maxima"
p225
aVACE inhibitor "vaccinium deliciosum"
p226
aVACE inhibitor "bivalvia"
p227
aVACE inhibitor "lupinus albus"
p228
aVACE inhibitor "citrus maxima"
p229
aVACE inhibitor "rubus"
p230
aVACE inhibitor "vaccinium macrocarpon"
p231
aVACE inhibitor "cantharellus cibarius"
p232
aVACE inhibitor "nelumbo"
p233
aVACE inhibitor "cynara scolymus"
p234
aVACE inhibitor "olea europaea"
p235
aVACE inhibitor "asparagus officinalis"
p236
aVACE inhibitor "opuntia"
p237
aVACE inhibitor "bubalus bubalis"
p238
aVACE inhibitor "apium graveolens"
p239
aVACE inhibitor "cyprinus carpio"
p240
aVACE inhibitor "lactuca sativa"
p241
aVACE inhibitor "manihot esculenta"
p242
aVACE inhibitor "columbidae"
p243
aVACE inhibitor "allium"
p244
aVACE inhibitor "ginkgo biloba"
p245
aVACE inhibitor "gossypium"
p246
aVACE inhibitor "vigna unguiculata"
p247
aVACE inhibitor "rubus occidentalis"
p248
aVACE inhibitor "perciformes"
p249
aVACE inhibitor "physalis"
p250
aVACE inhibitor "columba"
p251
aVACE inhibitor "carica papaya"
p252
aVACE inhibitor "benincasa hispida"
p253
aVACE inhibitor "fragaria x ananassa"
p254
aVACE inhibitor "spinacia oleracea"
p255
aVACE inhibitor "rosa"
p256
aVACE inhibitor "vitis"
p257
aVACE inhibitor "ipomoea batatas"
p258
aVACE inhibitor "hordeum vulgare"
p259
aVACE inhibitor "arachis hypogaea"
p260
aVACE inhibitor "allium sativum"
p261
aVACE inhibitor "oncorhynchus mykiss"
p262
aVACE inhibitor "hibiscus sabdariffa"
p263
aVACE inhibitor "zea mays"
p264
aVACE inhibitor "crassostrea gigas"
p265
aVACE inhibitor "gadiformes"
p266
aVACE inhibitor "gadus"
p267
aVACE inhibitor "solanum melongena"
p268
aVACE inhibitor "vaccinium myrtillus"
p269
aVACE inhibitor "sciuridae"
p270
aVACE inhibitor "cinnamomum"
p271
aVACE inhibitor "agaricus bisporus"
p272
aVACE inhibitor "cucurbita"
p273
aVACE inhibitor "hyssopus officinalis"
p274
aVACE inhibitor "lentinus edodes"
p275
aVACE inhibitor "salvia elegans"
p276
aVACE inhibitor "ocimum basilicum"
p277
aVACE inhibitor "mangifera indica"
p278
aVACE inhibitor "thunnus"
p279
aVACE inhibitor "glycine max"
p280
aVACE inhibitor "vicia faba"
p281
aVACE inhibitor "fagopyrum esculentum"
p282
aVACE inhibitor "capra aegagrus hircus"
p283
aVACE inhibitor "curcuma longa"
p284
aVACE inhibitor "melanogrammus aeglefinus"
p285
aVACE inhibitor "undaria pinnatifida"
p286
aVACE inhibitor "solanum tuberosum"
p287
aVACE inhibitor "oncorhynchus"
p288
aVACE inhibitor "pinus"
p289
aVACE inhibitor "quercus"
p290
aVACE inhibitor "allium cepa"
p291
aVACE inhibitor "brassica rapa"
p292
aVACE inhibitor "brachyura"
p293
aVACE inhibitor "gallus gallus"
p294
aVACE inhibitor "ostreidae"
p295
aVACE inhibitor "artocarpus altilis"
p296
aVACE inhibitor "avena sativa"
p297
aVACE inhibitor "momordica charantia"
p298
aVACE inhibitor "arctium lappa"
p299
aVACE inhibitor "amaranthus"
p300
aVACE inhibitor "oryctolagus"
p301
aVACE inhibitor "anguilla"
p302
aVACE inhibitor "rhodophyta"
p303
aVACE inhibitor "linum usitatissimum"
p304
aVACE inhibitor "hibiscus sabbariffa"
p305
aVACE inhibitor "agave"
p306
aVACE inhibitor "diospyros"
p307
aVACE inhibitor "solanum quitoense"
p308
aVACE inhibitor "salmo salar"
p309
aVACE inhibitor "malus"
p310
aVACE inhibitor "flammulina velutipes"
p311
aVACE inhibitor "micromesistius poutassou"
p312
aVACE inhibitor "gastropoda"
p313
aVACE inhibitor "phaseolus lunatus"
p314
aVACE inhibitor "cydonia oblonga"
p315
aVACE inhibitor "salmonidae"
p316
aVACE inhibitor "zingiber officinale"
p317
aVACE inhibitor "zizania"
p318
aVACE inhibitor "prunus"
p319
aVACE inhibitor "myrica"
p320
aVACE inhibitor "pisum sativum"
p321
aVACE inhibitor "panax"
p322
aVACE inhibitor "prunus dulcis"
p323
aVACE inhibitor "spirulina"
p324
aVACE inhibitor "coffea"
p325
aVACE inhibitor "helianthus annuus"
p326
aVACE inhibitor "gadus macrocephalus"
p327
aVACE inhibitor "diospyros kaki"
p328
aVACE inhibitor "mytilus edulis"
p329
aVACE inhibitor "theragra chalcogramma"
p330
aVACE inhibitor "phaseolus vulgaris"
p331
aVACE inhibitor "triticum"
p332
aVACE inhibitor "callinectes sapidus"
p333
aVACE inhibitor "cynara cardunculus"
p334
aVACE inhibitor "gadus morhua"
p335
aVACE inhibitor "sus scrofa"
p336
aVACE inhibitor "lupinus"
p337
aVACE inhibitor "camellia sinensis"
p338
aVACE inhibitor "bos taurus"
p339
aVACE inhibitor "psophocarpus tetragonolobus"
p340
aVACE inhibitor "juglans"
p341
aVACE inhibitor "dioscorea"
p342
aVACE inhibitor "eugenia"
p343
aVACE inhibitor "null"
p344
aVACE inhibitor "vaccinium"
p345
aVACE inhibitor "angelica keiskei"
p346
aVACE inhibitor "anas platyrhynchos"
p347
aVACE inhibitor "carthamus tinctorius"
p348
aVACE inhibitor "taraxacum officinale"
p349
aVACE inhibitor "squalus acanthias"
p350
aVACE inhibitor "scomber scombrus"
p351
aVACE inhibitor "scyphozoa"
p352
aVACE inhibitor "morus"
p353
aVACE inhibitor "v. deliciosum"
p354
aVACE inhibitor "bivalvia"
p355
aVACE inhibitor "l. albus"
p356
aVACE inhibitor "rubus"
p357
aVACE inhibitor "c. cibarius"
p358
aVACE inhibitor "v. locusta"
p359
aVACE inhibitor "nelumbo"
p360
aVACE inhibitor "lupinus"
p361
aVACE inhibitor "c. sinensis"
p362
aVACE inhibitor "opuntia"
p363
aVACE inhibitor "eugenia"
p364
aVACE inhibitor "columbidae"
p365
aVACE inhibitor "allium"
p366
aVACE inhibitor "malus"
p367
aVACE inhibitor "gossypium"
p368
aVACE inhibitor "thunnus"
p369
aVACE inhibitor "v. unguiculata"
p370
aVACE inhibitor "perciformes"
p371
aVACE inhibitor "physalis"
p372
aVACE inhibitor "columba"
p373
aVACE inhibitor "f. x"
p374
aVACE inhibitor "rosa"
p375
aVACE inhibitor "vitis"
p376
aVACE inhibitor "a. sativum"
p377
aVACE inhibitor "h. sabdariffa"
p378
aVACE inhibitor "gadiformes"
p379
aVACE inhibitor "gadus"
p380
aVACE inhibitor "sciuridae"
p381
aVACE inhibitor "cinnamomum"
p382
aVACE inhibitor "cucurbita"
p383
aVACE inhibitor "a. sativum"
p384
aVACE inhibitor "l. edodes"
p385
aVACE inhibitor "m. indica"
p386
aVACE inhibitor "v. unguiculata"
p387
aVACE inhibitor "vaccinium"
p388
aVACE inhibitor "oncorhynchus"
p389
aVACE inhibitor "a. chinensis"
p390
aVACE inhibitor "pinus"
p391
aVACE inhibitor "quercus"
p392
aVACE inhibitor "brachyura"
p393
aVACE inhibitor "ostreidae"
p394
aVACE inhibitor "a. altilis"
p395
aVACE inhibitor "m. charantia"
p396
aVACE inhibitor "amaranthus"
p397
aVACE inhibitor "oryctolagus"
p398
aVACE inhibitor "anguilla"
p399
aVACE inhibitor "rhodophyta"
p400
aVACE inhibitor "h. sabbariffa"
p401
aVACE inhibitor "agave"
p402
aVACE inhibitor "diospyros"
p403
aVACE inhibitor "m. x"
p404
aVACE inhibitor "f. velutipes"
p405
aVACE inhibitor "gastropoda"
p406
aVACE inhibitor "p. lunatus"
p407
aVACE inhibitor "salmonidae"
p408
aVACE inhibitor "c. x"
p409
aVACE inhibitor "z. officinale"
p410
aVACE inhibitor "zizania"
p411
aVACE inhibitor "prunus"
p412
aVACE inhibitor "myrica"
p413
aVACE inhibitor "panax"
p414
aVACE inhibitor "coffea"
p415
aVACE inhibitor "g. macrocephalus"
p416
aVACE inhibitor "p. vulgaris"
p417
aVACE inhibitor "triticum"
p418
aVACE inhibitor "m. x"
p419
aVACE inhibitor "c. sinensis"
p420
aVACE inhibitor "v. unguiculata"
p421
aVACE inhibitor "p. melanocarpa"
p422
aVACE inhibitor "juglans"
p423
aVACE inhibitor "dioscorea"
p424
aVACE inhibitor "null"
p425
aVACE inhibitor "v. unguiculata"
p426
aVACE inhibitor "spirulina"
p427
aVACE inhibitor "isorhamnetin 3-(2g-apiosylrutinoside)"
p428
aVACE inhibitor "1,3,5,11-bisabolatetraen-10-one"
p429
aVACE inhibitor "pc(14:0/22:0)"
p430
aVACE inhibitor "d-alpha-oxyglutaric acid"
p431
aVACE inhibitor "glutathione"
p432
aVACE inhibitor "sp1"
p433
aVACE inhibitor "delta-maslinic acid"
p434
aVACE inhibitor "ellagic acid acetyl-arabinoside"
p435
aVACE inhibitor "gadolinium"
p436
aVACE inhibitor "3,5,6-trihydroxy-5-(hydroxymethyl)-2-methoxy-2-cyclohexen-1-one"
p437
aVACE inhibitor "pyranomammea b"
p438
aVACE inhibitor "pitheduloside d"
p439
aVACE inhibitor "resins"
p440
aVACE inhibitor "pitheduloside c"
p441
aVACE inhibitor "pitheduloside a"
p442
aVACE inhibitor "pitheduloside j"
p443
aVACE inhibitor "pitheduloside k"
p444
aVACE inhibitor "heneicosan-1-oic acid"
p445
aVACE inhibitor "nb-trans-p-coumaroylserotonin glucoside"
p446
aVACE inhibitor "carlinoside"
p447
aVACE inhibitor "prostaglandin e-1"
p448
aVACE inhibitor "nicotianamine"
p449
aVACE inhibitor "pyranodelphinin b"
p450
aVACE inhibitor "5,5-diisopropyl-2,2'-dimethylbiphenyl-3,3',4,4'-tetrone"
p451
aVACE inhibitor "kaempferol 3-feruloyl-triglucoside"
p452
aVACE inhibitor "testosterone"
p453
aVACE inhibitor "(s)-8-acetoxycarvotanacetone"
p454
aVACE inhibitor "ginsenoside m7cd"
p455
aVACE inhibitor "19alpha-19-hydroxy-3,11-dioxo-12-ursen-28-oic acid"
p456
aVACE inhibitor "ficin d"
p457
aVACE inhibitor "2,3,4,5-tetrahydro-alpha-methyl-2-pyridine ethanol"
p458
aVACE inhibitor "corchorosol a"
p459
aVACE inhibitor "lf"
p460
aVACE inhibitor "estrone"
p461
aVACE inhibitor "trideca-1-trans-11-dien-3,5,7,9-tetrayn"
p462
aVACE inhibitor "1-pentanesulfenothioic acid"
p463
aVACE inhibitor "3-oxo-18-dehydroursolic acid"
p464
aVACE inhibitor "yamogenintetroside b"
p465
aVACE inhibitor "d-ribose"
p466
aVACE inhibitor "4-hexenylol acetate"
p467
aVACE inhibitor "graecunin h-3"
p468
aVACE inhibitor "rhoifolin"
p469
aVACE inhibitor "graecunin h-1"
p470
aVACE inhibitor "3'-methylgancaonin p"
p471
aVACE inhibitor "luteolin 7-(6''-apiosylglucoside)"
p472
aVACE inhibitor "isorhamnetin 3-o-b-d-glucofuranoside 4'-o-a-l-rhamnopyranoside"
p473
aVACE inhibitor "xi-dihydro-5-propyl-2(3h)-furanone"
p474
aVACE inhibitor "(23r)-acetoxytomatine"
p475
aVACE inhibitor "2-(1-methylethyl)-4-propylthiazole"
p476
aVACE inhibitor "isorhamnetin 3-vicianoside"
p477
aVACE inhibitor "medicoside f"
p478
aVACE inhibitor "3beta-hydroxyurea-12,20(30)-dien-17-on acid"
p479
aVACE inhibitor "ampicillin"
p480
aVACE inhibitor "delphinidin 3-(4''-p-coumaroylgalloylglucoside)"
p481
aVACE inhibitor "sodium curcumate"
p482
aVACE inhibitor "alpha-furancarbonic acid"
p483
aVACE inhibitor "1,2,4-trihydroxyheptadeca-16-ene"
p484
aVACE inhibitor "3-(but-cis-1-enyl)-pyridine"
p485
aVACE inhibitor "cyclotricuspidogenin c"
p486
aVACE inhibitor "cyclotricuspidogenin b"
p487
aVACE inhibitor "9,10-dioxystearic acid"
p488
aVACE inhibitor "luteolin 3'-(4''-acetylglucuronide)"
p489
aVACE inhibitor "rheinoside d"
p490
aVACE inhibitor "lignans"
p491
aVACE inhibitor "rheinoside a"
p492
aVACE inhibitor "rheinoside c"
p493
aVACE inhibitor "flavan-3-ol"
p494
aVACE inhibitor "hex-trans-3-enyl propionate"
p495
aVACE inhibitor "cyanidin 3-(4-acetylglucoside)"
p496
aVACE inhibitor "vanillin"
p497
aVACE inhibitor "pyranomammea c"
p498
aVACE inhibitor "8-4'-dehydrodiferulic acid"
p499
aVACE inhibitor "d-mannose"
p500
aVACE inhibitor "myricyl alcohol"
p501
aVACE inhibitor "ash"
p502
aVACE inhibitor "2,4,6-octatriynoic acid"
p503
aVACE inhibitor "gamma-amino-alpha-methylene butyric acid"
p504
aVACE inhibitor "(+)-1,2-epoxyneomenthyl acetate"
p505
aVACE inhibitor "epigallocatechin 3-gallate"
p506
aVACE inhibitor "cyanidin 3-glucogalactoside"
p507
aVACE inhibitor "p-oxycinnamic acid"
p508
aVACE inhibitor "n-methoxyspirobrassinol methyl ether"
p509
aVACE inhibitor "lactic acid"
p510
aVACE inhibitor "(r)-apiumetin glucoside"
p511
aVACE inhibitor "benzyl ethyl ether"
p512
aVACE inhibitor "uridine diphosphate"
p513
aVACE inhibitor "protoporphyrin"
p514
aVACE inhibitor "1,2,4-trigalloyl-beta-d-glucopyranose"
p515
aVACE inhibitor "isoflavones"
p516
aVACE inhibitor "ca2+"
p517
aVACE inhibitor "5-heptyltetrahydro-2-oxo-3-furancarboxylic acid"
p518
aVACE inhibitor "(-)-1(6),10-pacifigorgiadiene"
p519
aVACE inhibitor "beta-methylthiopropionic acid methyl ester"
p520
aVACE inhibitor "pitheduloside f"
p521
aVACE inhibitor "myristolic acid"
p522
aVACE inhibitor "pisumflavonoside ii"
p523
aVACE inhibitor "pitheduloside b"
p524
aVACE inhibitor "5-oxooctadecanoic acid"
p525
aVACE inhibitor "ruthenium"
p526
aVACE inhibitor "pitheduloside h"
p527
aVACE inhibitor "pitheduloside i"
p528
aVACE inhibitor "(-)-menthol"
p529
aVACE inhibitor "l-phenylalanine"
p530
aVACE inhibitor "neodihydrocarvyl acetate"
p531
aVACE inhibitor "catechin"
p532
aVACE inhibitor "4'-o-methylkanzonol w"
p533
aVACE inhibitor "aloe emodin w-acetate"
p534
aVACE inhibitor "lysolecithin"
p535
aVACE inhibitor "2,4,6,8-tridecatetrayne"
p536
aVACE inhibitor "3-epikatonic acid"
p537
aVACE inhibitor "2,6,7-trimethyldecane"
p538
aVACE inhibitor "23-hydroxy-3-oxocycloart-24-en-26-oic acid"
p539
aVACE inhibitor "malvin"
p540
aVACE inhibitor "3-mercapto-2-oxopropanoic acid"
p541
aVACE inhibitor "4-methylsulfoxidebuten-(3)-yl cyanide"
p542
aVACE inhibitor "1,1,1,3,3,3-hexachloro-2-propanone"
p543
aVACE inhibitor "l-ascorbic acid"
p544
aVACE inhibitor "quercetin 3-(2g-rhamnosylgentiobioside)"
p545
aVACE inhibitor "3,5,5-trimethylcyclohexa-1,4-dion-2-ene"
p546
aVACE inhibitor "ent-17-hydroxyisokaur-15-en-19-oic acid"
p547
aVACE inhibitor "diacylglycerol"
p548
aVACE inhibitor "kaempferol 3-sophoroside-rhamnoside"
p549
aVACE inhibitor "rubraflavone c"
p550
aVACE inhibitor "rubraflavone b"
p551
aVACE inhibitor "rubraflavone a"
p552
aVACE inhibitor "rubraflavone d"
p553
aVACE inhibitor "niazicin a"
p554
aVACE inhibitor "niazicin b"
p555
aVACE inhibitor "l-trans-3-hydroxy-2-pyrrolidinecarboxylic acid"
p556
aVACE inhibitor "6-amino-9h-purine-9-propanoic acid"
p557
aVACE inhibitor "ubiquinol-10"
p558
aVACE inhibitor "imperatorin"
p559
aVACE inhibitor "phosphatidinic acid"
p560
aVACE inhibitor "creatinine"
p561
aVACE inhibitor "cyanidin 3-(p-coumaroylferuloylglucoside)"
p562
aVACE inhibitor "proanthocyanidins"
p563
aVACE inhibitor "cytosine"
p564
aVACE inhibitor "l-(-)-phenylalanine"
p565
aVACE inhibitor "alpha-carotene"
p566
aVACE inhibitor "ethyl methyl amine"
p567
aVACE inhibitor "vanillic acid"
p568
aVACE inhibitor "gamma-dihydrositosterol ferulic acid ester"
p569
aVACE inhibitor "annopentocin b"
p570
aVACE inhibitor "annopentocin c"
p571
aVACE inhibitor "annopentocin a"
p572
aVACE inhibitor "5,6,7-trimethylpsoralen"
p573
aVACE inhibitor "cyanidin 3-(arabinosylgalactoside)"
p574
aVACE inhibitor "trans-p-methoxycinnamic acid"
p575
aVACE inhibitor "torvonin a"
p576
aVACE inhibitor "l-tryptophan"
p577
aVACE inhibitor "humulene-1,2-oxide"
p578
aVACE inhibitor "cardiolipin"
p579
aVACE inhibitor "sulfate"
p580
aVACE inhibitor "4-hydroxy-3-prenylbenzoic acid glucoside"
p581
aVACE inhibitor "porphobilinogen"
p582
aVACE inhibitor "malvidin 3-alpha-l-galactoside"
p583
aVACE inhibitor "2-methylpropanoic acid"
p584
aVACE inhibitor "tyramine"
p585
aVACE inhibitor "5,7-megastigmadien-9-ol glucoside"
p586
aVACE inhibitor "dukunolide d"
p587
aVACE inhibitor "m1"
p588
aVACE inhibitor "2,10-bisaboladiene-1,4-diol"
p589
aVACE inhibitor "dukunolide f"
p590
aVACE inhibitor "carnitine"
p591
aVACE inhibitor "chinese tannin"
p592
aVACE inhibitor "nonahexadecanoic acid"
p593
aVACE inhibitor "kaempferol 3-(2g-rhamnosylgentiobioside)"
p594
aVACE inhibitor "7,13-eperudien-15-oic acid"
p595
aVACE inhibitor "ginsenoside m6-bc"
p596
aVACE inhibitor "4alpha,5alpha-epoxy-11-eudesmen-3a-ol"
p597
aVACE inhibitor "(2e)-piperamide-c5:1"
p598
aVACE inhibitor "trimethylamine"
p599
aVACE inhibitor "hex-trans-2-enyl hexanoate"
p600
aVACE inhibitor "sanguisorbin b"
p601
aVACE inhibitor "cis-gamma-linoleic acid"
p602
aVACE inhibitor "2-methyl-1,5-dinitro-3-nitrosobenzene"
p603
aVACE inhibitor "cis-limonene-1,2-oxide"
p604
aVACE inhibitor "5',8-dihydroxy-3',4',7-trimethoxyflavan"
p605
aVACE inhibitor "epigallocatechin 3,4'-digallate"
p606
aVACE inhibitor "hydrogen peroxide (h2o2)"
p607
aVACE inhibitor "polyamines"
p608
aVACE inhibitor "1,3,5,8-tetrahydroxy-6-methoxy-2-methylanthraquinone"
p609
aVACE inhibitor "1,2:3,4-diepoxy-p-menth-8-ene"
p610
aVACE inhibitor "1,4-naphthoquinone"
p611
aVACE inhibitor "glucosides"
p612
aVACE inhibitor "4-(hydroxymethyl)-2-pyrrolidinecarboxylic acid"
p613
aVACE inhibitor "(s)-alpha-amino-4-carboxy-3-furanpropanoic acid"
p614
aVACE inhibitor "1,2,4,5,7,8-hexathionane"
p615
aVACE inhibitor "hex-cis-3-en-1-ol acetate"
p616
aVACE inhibitor "hex-cis-3-en-1-ol phenylacetate"
p617
aVACE inhibitor "delphinidin 3-glucosylglucoside"
p618
aVACE inhibitor "5-aminolevulinic acid"
p619
aVACE inhibitor "13-demethylspirolide c"
p620
aVACE inhibitor "7-epijasmonic acid"
p621
aVACE inhibitor "epigallocatechin 3-(3-methylgallate)"
p622
aVACE inhibitor "1-chloro-2,4-dinitrobenzene"
p623
aVACE inhibitor "notoginsenoside r1"
p624
aVACE inhibitor "2,2,8-trimethyldecane"
p625
aVACE inhibitor "silica"
p626
aVACE inhibitor "3-o-trans-feruloyleuscaphic acid"
p627
aVACE inhibitor "psoralen"
p628
aVACE inhibitor "kaempferol 3-o-alpha-l-rhamnoside-beta-d-glucosyl"
p629
aVACE inhibitor "(s)-8-prenylphaseollinisoflavan"
p630
aVACE inhibitor "4'-dihydroabscisic acid"
p631
aVACE inhibitor "n-(carbethoxyacetyl)-4-chloro-l-tryptophan"
p632
aVACE inhibitor "2-(cis-2-nonenyl-oxy)-5-pentyl-tetrahydrofuran"
p633
aVACE inhibitor "l-lactic acid"
p634
aVACE inhibitor "ethanamine"
p635
aVACE inhibitor "propionylcarnitine"
p636
aVACE inhibitor "quercetin 3-o-rhamnosyl-galactoside"
p637
aVACE inhibitor "garciduol c"
p638
aVACE inhibitor "phosphocholine"
p639
aVACE inhibitor "zeanoside c"
p640
aVACE inhibitor "zeanoside a"
p641
aVACE inhibitor "prostaglandin f-1-alpha"
p642
aVACE inhibitor "beta-glucan"
p643
aVACE inhibitor "decanoate"
p644
aVACE inhibitor "glycerol 1,3-didodecanoate 2-decanoate"
p645
aVACE inhibitor "disulfides"
p646
aVACE inhibitor "s-(beta-carboxy-beta-methyl-ethyl)-cysteine"
p647
aVACE inhibitor "pseudoscoridinine b"
p648
aVACE inhibitor "phosphoric acid"
p649
aVACE inhibitor "omega-hydroxymoracin n"
p650
aVACE inhibitor "trans-1,10-heptadecadiene-5,7-diyn-3-ol"
p651
aVACE inhibitor "isothiocyanates"
p652
aVACE inhibitor "yuccoside c"
p653
aVACE inhibitor "rubidium"
p654
aVACE inhibitor "amaranthussaponin iii"
p655
aVACE inhibitor "orientin"
p656
aVACE inhibitor "delphinidin 3-alpha-l-galactoside"
p657
aVACE inhibitor "22-deoxoisocucurbitacin d"
p658
aVACE inhibitor "tin"
p659
aVACE inhibitor "gein"
p660
aVACE inhibitor "4'-methylisoscutellarein 8-(2''-sulfoglucoside)"
p661
aVACE inhibitor "n,n-dihydroxy-l-tyrosine"
p662
aVACE inhibitor "iron oxide"
p663
aVACE inhibitor "acidissiminol epoxide"
p664
aVACE inhibitor "thial-1-propene-1-thiol s-oxide"
p665
aVACE inhibitor "gold"
p666
aVACE inhibitor "potato carboxypeptidase a inhibitor"
p667
aVACE inhibitor "glycerol trihexadecanoate"
p668
aVACE inhibitor "gamma-methylene-alpha-ketoglutaric acid"
p669
aVACE inhibitor "artomunoxanthentrione epoxide"
p670
aVACE inhibitor "avenalumin iii"
p671
aVACE inhibitor "molybdenum"
p672
aVACE inhibitor "benzyl senevol"
p673
aVACE inhibitor "utp"
p674
aVACE inhibitor "iron"
p675
aVACE inhibitor "p-coumaric acid"
p676
aVACE inhibitor "2-hydroxy-4-oxopentanoic acid"
p677
aVACE inhibitor "carnosolic acid"
p678
aVACE inhibitor "fructose-1-phosphate"
p679
aVACE inhibitor "3',4',5',7,8-pentamethoxyflavan"
p680
aVACE inhibitor "undylic acid"
p681
aVACE inhibitor "quercitrin"
p682
aVACE inhibitor "chlorophyll"
p683
aVACE inhibitor "3,5-di-o-caffeoylquinic acid"
p684
aVACE inhibitor "isovitexin 2''-galactoside"
p685
aVACE inhibitor "delphinidin 3-feruloylglucoside"
p686
aVACE inhibitor "arginine"
p687
aVACE inhibitor "6-ketomyristic acid"
p688
aVACE inhibitor "12,13(s)-epoxylinolenate"
p689
aVACE inhibitor "phosphofructokinase"
p690
aVACE inhibitor "(+)-secoisolariciresinol"
p691
aVACE inhibitor "quercetin 3-(6''''-caffeylsophorotrioside)"
p692
aVACE inhibitor "aniline"
p693
aVACE inhibitor "delta-jasmin lactone"
p694
aVACE inhibitor "chlorogenic acid"
p695
aVACE inhibitor "salicylate"
p696
aVACE inhibitor "bupropion"
p697
aVACE inhibitor "glycerol"
p698
aVACE inhibitor "2,3,4-tri-o-methylxylose"
p699
aVACE inhibitor "isochavicinic acid"
p700
aVACE inhibitor "scordinine a-1"
p701
aVACE inhibitor "scordinine a-2"
p702
aVACE inhibitor "3,6-dimethyl-6-oxo-octanoic acid"
p703
aVACE inhibitor "3-epimasticadienolic acid"
p704
aVACE inhibitor "formaldehyde"
p705
aVACE inhibitor "18alpha-hydroxyglycyrrhetic acid"
p706
aVACE inhibitor "bisosthenon b"
p707
aVACE inhibitor "2-methylbutyl-2-methyl propionate"
p708
aVACE inhibitor "br-xanthone a"
p709
aVACE inhibitor "quercetin 3-(2-galloylglucoside)"
p710
aVACE inhibitor "4,11,13,15-tetrahydroridentin b"
p711
aVACE inhibitor "acetylcholine"
p712
aVACE inhibitor "r-2-hydroxy-3-methylbutanoic acid 3-methylbutanoyl"
p713
aVACE inhibitor "cis-pentylhydro disulfide"
p714
aVACE inhibitor "mn2+"
p715
aVACE inhibitor "quercetin 3-(2-glucosylrhamnoside)"
p716
aVACE inhibitor "naringin 6''-rhamnoside"
p717
aVACE inhibitor "hebevinoside x"
p718
aVACE inhibitor "pentane"
p719
aVACE inhibitor "apigenin 5-[4''-rhamnosyl-6''-acetylglucoside]"
p720
aVACE inhibitor "1,2,3,4-tetrahydro-b-carboline-1,3-dicarboxylic acid"
p721
aVACE inhibitor "hebevinoside i"
p722
aVACE inhibitor "isorhamnetin 3-rhamnosylgalactoside"
p723
aVACE inhibitor "thymidine"
p724
aVACE inhibitor "leukotriene-c4"
p725
aVACE inhibitor "curcumin"
p726
aVACE inhibitor "tetrahydrogeranylgeranyl-chlorophyll a"
p727
aVACE inhibitor "laurate"
p728
aVACE inhibitor "hex-trans-2-enyl butyrate"
p729
aVACE inhibitor "adp"
p730
aVACE inhibitor "7alpha,16beta-17-trihydroxy"
p731
aVACE inhibitor "procyanidin c"
p732
aVACE inhibitor "chloroform"
p733
aVACE inhibitor "asiatic acid"
p734
aVACE inhibitor "1,2,3,6-tetragalloyl-beta-d-glucopyranose"
p735
aVACE inhibitor "cincassiol a"
p736
aVACE inhibitor "cincassiol b"
p737
aVACE inhibitor "xi-17-methyloctadecanoic acid"
p738
aVACE inhibitor "hex-cis-3-en-1-ol hexanoate"
p739
aVACE inhibitor "biphenyl"
p740
aVACE inhibitor "methyl 4z-octenoate"
p741
aVACE inhibitor "myristate"
p742
aVACE inhibitor "phosphatase"
p743
aVACE inhibitor "2,6,10-trimethyldodecanoic acid"
p744
aVACE inhibitor "hydroxycinnamic acid"
p745
aVACE inhibitor "11b-hydroxygibberellin a7"
p746
aVACE inhibitor "dihydroxycitracridone i"
p747
aVACE inhibitor "kaempferol 3-o-rhamnodiglucoside"
p748
aVACE inhibitor "(s)-a-amino-2,5-dihydro-5-oxo-4-isoxazolepropanoic acid n2-glucoside"
p749
aVACE inhibitor "carbon dioxide"
p750
aVACE inhibitor "prunus inhibitor a"
p751
aVACE inhibitor "n-butanol"
p752
aVACE inhibitor "glutathione disulfide"
p753
aVACE inhibitor "sulforaphane"
p754
aVACE inhibitor "genipic acid"
p755
aVACE inhibitor "theiferin b"
p756
aVACE inhibitor "theiferin a"
p757
aVACE inhibitor "3,5,5-trimethyl-4-hydroxy-1-cyclohexanone-2-ene"
p758
aVACE inhibitor "oxycitronic acid"
p759
aVACE inhibitor "n-p-coumarylglutamic acid"
p760
aVACE inhibitor "pyridoxal"
p761
aVACE inhibitor "piperenol a"
p762
aVACE inhibitor "(3beta,5alpha)-3-hydroxypregn-16-en-20-one"
p763
aVACE inhibitor "3beta-29-dihydroxyolean-12-en-28-oic acid"
p764
aVACE inhibitor "methyl 3-carbazolecarboxylate"
p765
aVACE inhibitor "licochalcone a"
p766
aVACE inhibitor "glucosidase"
p767
aVACE inhibitor "chloride"
p768
aVACE inhibitor "monoterpenes"
p769
aVACE inhibitor "vanillyl caproylamide"
p770
aVACE inhibitor "3-trans-caffeoyltormentic acid"
p771
aVACE inhibitor "acetyl dehydrorishitinol"
p772
aVACE inhibitor "3-ethoxyniveusin b"
p773
aVACE inhibitor "1,3,5,8-tetrahydroxy-6-methoxy-2-methylanthraquinone 8-o-b-d-glucoside"
p774
aVACE inhibitor "soja hispidasaponin c"
p775
aVACE inhibitor "pyrroline"
p776
aVACE inhibitor "(s)-valerianine"
p777
aVACE inhibitor "2-(7'-methylthio)heptylmalate"
p778
aVACE inhibitor "1,2,6,8-tetrahydroxy-3-methylanthraquinone 2-o-b-d-glucoside"
p779
aVACE inhibitor "isodulcitol"
p780
aVACE inhibitor "feruloylsuccinic acid"
p781
aVACE inhibitor "1-(4-hydroxy-3-methoxyphenyl)-3,5-diacetoxyoctane"
p782
aVACE inhibitor "calotropenol acetate"
p783
aVACE inhibitor "1,7,9-heptadecatriene-11,13,15-triyne"
p784
aVACE inhibitor "naringin"
p785
aVACE inhibitor "kaempferol 3-o-glucosyl-rhamnosyl-galactoside"
p786
aVACE inhibitor "1,3,11(13)-eudesmatrien-12-oic acid"
p787
aVACE inhibitor "pelargonidin 3-beta-d-glucosyl-rutinoside"
p788
aVACE inhibitor "cyanocobalamin"
p789
aVACE inhibitor "ketones"
p790
a.