(lp0
S'monoamine oxidase inhibitor "epicatechin 3-(3-methylgallate)"'
p1
aS'monoamine oxidase inhibitor "pantothenic acid"'
p2
aS'monoamine oxidase inhibitor "apigenin 3,6-di-c-glucoside"'
p3
aS'monoamine oxidase inhibitor "oleanolic acid methyl ester"'
p4
aS'monoamine oxidase inhibitor "trehalose"'
p5
aS'monoamine oxidase inhibitor "3-methylpyridine"'
p6
aS'monoamine oxidase inhibitor "kaempferol 3-feruloyltriglucoside"'
p7
aS'monoamine oxidase inhibitor "h2o"'
p8
aS'monoamine oxidase inhibitor "n-(2r-hydroxytricosanoyl)-2s-amino-1,3s,4r-octadecanetriol"'
p9
aS'monoamine oxidase inhibitor "5-hydroxytryptophol"'
p10
aS'monoamine oxidase inhibitor "2-oxoglutarate"'
p11
aS'monoamine oxidase inhibitor "deoxyuridine triphosphate"'
p12
aS'monoamine oxidase inhibitor "s-methyl-5-thio-\xce\xb1-d-ribose 1-phosphate"'
p13
aS'monoamine oxidase inhibitor "apigenin 7-rhamnosylglucoside"'
p14
aS'monoamine oxidase inhibitor "isorhamnetin 3-rhamnodiglucoside"'
p15
aS'monoamine oxidase inhibitor "carbon disulfide"'
p16
aS'monoamine oxidase inhibitor "quercetin 3-glucuronide"'
p17
aS'monoamine oxidase inhibitor "o-quinone"'
p18
aS'monoamine oxidase inhibitor "2,6,6-trimethylcyclohex-2-en-1,4-dione"'
p19
aS'monoamine oxidase inhibitor "carotene"'
p20
aS'monoamine oxidase inhibitor "2\'-deoxyguanosine"'
p21
aS'monoamine oxidase inhibitor "pyridoxamine"'
p22
aS'monoamine oxidase inhibitor "calcium oxalate"'
p23
aS'monoamine oxidase inhibitor "bromelains"'
p24
aS'monoamine oxidase inhibitor "formononetin 7-(2-p-hydroxybenzoylglucoside)"'
p25
aS'monoamine oxidase inhibitor "2-nonenal"'
p26
aS'monoamine oxidase inhibitor "4-hydroxy-2,6-dimethyl-7-octen-3-one"'
p27
aS'monoamine oxidase inhibitor "cyanidin 3-o-beta-d-diglycoside"'
p28
aS'monoamine oxidase inhibitor "(x)-1-nonen-3-yl acetate"'
p29
aS'monoamine oxidase inhibitor "cinnamic acid"'
p30
aS'monoamine oxidase inhibitor "3-(4-hydroxy-3-methoxyphenyl)-1-glucosyl-prop-2-ene"'
p31
aS'monoamine oxidase inhibitor "stigmasterol"'
p32
aS'monoamine oxidase inhibitor "cinnamaldehyde"'
p33
aS'monoamine oxidase inhibitor "8,10-octacosanedione"'
p34
aS'monoamine oxidase inhibitor "beta-thujaplicin"'
p35
aS'monoamine oxidase inhibitor "3-methyladenine"'
p36
aS'monoamine oxidase inhibitor "hesperetin"'
p37
aS'monoamine oxidase inhibitor "liquiritin 2\'\'-apioside"'
p38
aS'monoamine oxidase inhibitor "kaempferol 7-(6\'\'-p-coumaroylglucoside)"'
p39
aS'monoamine oxidase inhibitor "thymoquinone"'
p40
aS'monoamine oxidase inhibitor "4-hydroxybenzylamine"'
p41
aS'monoamine oxidase inhibitor "trans-1,8-terpin"'
p42
aS'monoamine oxidase inhibitor "d-xylose"'
p43
aS'monoamine oxidase inhibitor "3b,18b-3-methoxy-11-oxo-12-oleanen-30-oic acid"'
p44
aS'monoamine oxidase inhibitor "beryllium"'
p45
aS'monoamine oxidase inhibitor "ethoxyacetic acid"'
p46
aS'monoamine oxidase inhibitor "urate"'
p47
aS'monoamine oxidase inhibitor "galactomannan"'
p48
aS'monoamine oxidase inhibitor "menthofuran"'
p49
aS'monoamine oxidase inhibitor "3-aminopropionaldehyde"'
p50
aS'monoamine oxidase inhibitor "beta-amylase"'
p51
aS'monoamine oxidase inhibitor "mellein"'
p52
aS'monoamine oxidase inhibitor "tungsten"'
p53
aS'monoamine oxidase inhibitor "hydroxymethylpyrimidine"'
p54
aS'monoamine oxidase inhibitor "kaempferol 3-o-beta-d-xylofuranoside"'
p55
aS'monoamine oxidase inhibitor "tamarixetin"'
p56
aS'monoamine oxidase inhibitor "hg2+"'
p57
aS'monoamine oxidase inhibitor "l-2-aminoethyl seryl phosphate"'
p58
aS'monoamine oxidase inhibitor "fadh"'
p59
aS'monoamine oxidase inhibitor "prostaglandin e2"'
p60
aS'monoamine oxidase inhibitor "tricin 7-triglucuronoside"'
p61
aS'monoamine oxidase inhibitor "alpha-tocopherolquinone"'
p62
aS'monoamine oxidase inhibitor "3-oxodecanoic acid glycerides"'
p63
aS'monoamine oxidase inhibitor "pedunculagin"'
p64
aS'monoamine oxidase inhibitor "lactyltrimethylammonium betaine"'
p65
aS'monoamine oxidase inhibitor "plumbagin"'
p66
aS'monoamine oxidase inhibitor "taxifolin"'
p67
aS'monoamine oxidase inhibitor "6alpha,7alpha-17-tetrahydroxy"'
p68
aS'monoamine oxidase inhibitor "scandium"'
p69
aS'monoamine oxidase inhibitor "kaempferol 3-o-xylosyl-rutinoside"'
p70
aS'monoamine oxidase inhibitor "3-(3,4-dihydroxyphenyl)lactic acid"'
p71
aS'monoamine oxidase inhibitor "lysozyme"'
p72
aS'monoamine oxidase inhibitor "oleate"'
p73
aS'monoamine oxidase inhibitor "epicatechin 3-(4-methylgallate)"'
p74
aS'monoamine oxidase inhibitor "citrinin"'
p75
aS'monoamine oxidase inhibitor "cellulase"'
p76
aS'monoamine oxidase inhibitor "cis-2,8-menthadien-2-ol"'
p77
aS'monoamine oxidase inhibitor "benzyl alcohol"'
p78
aS'monoamine oxidase inhibitor "kaempferol 3-(2\'\'\'-sinapoylsophoroside) 7-cellobioside"'
p79
aS'monoamine oxidase inhibitor "isorhamnetin 3-dirhamnoside"'
p80
aS'monoamine oxidase inhibitor "procyanidin b2"'
p81
aS'monoamine oxidase inhibitor "4-aminobenzoic acid"'
p82
aS'monoamine oxidase inhibitor "apigenin 7-di-o-xyloside"'
p83
aS'monoamine oxidase inhibitor "propylene glycol"'
p84
aS'monoamine oxidase inhibitor "diosmetin"'
p85
aS'monoamine oxidase inhibitor "d-cysteine"'
p86
aS'monoamine oxidase inhibitor "debenzoylzucchini factor b"'
p87
aS'monoamine oxidase inhibitor "kaempferol 3-(2g-p-coumaroylrutinoside)"'
p88
aS'monoamine oxidase inhibitor "isorhamnetin"'
p89
aS'monoamine oxidase inhibitor "2,6-dimethylocta-2-trans-6-trans-dien-1,8-diol"'
p90
aS'monoamine oxidase inhibitor "3,4-dihydroxyphenylglycolaldehyde"'
p91
aS'monoamine oxidase inhibitor "betulinic acid"'
p92
aS'monoamine oxidase inhibitor "cyanidin 3-(6\'\'-acetyl-galactoside)"'
p93
aS'monoamine oxidase inhibitor "4-o-alpha-d-galactopyranosylcalystegine b2"'
p94
aS'monoamine oxidase inhibitor "kaempferol 3-(2\\"'
p95
aS'monoamine oxidase inhibitor "hebevinoside viii"'
p96
aS'monoamine oxidase inhibitor "4-vinyl-4-deethyl chlorophyll a"'
p97
aS'monoamine oxidase inhibitor "myricetin"'
p98
aS'monoamine oxidase inhibitor "trans-resveratrol"'
p99
aS'monoamine oxidase inhibitor "fluoride"'
p100
aS'monoamine oxidase inhibitor "cyclohexanones"'
p101
aS'monoamine oxidase inhibitor "3-methoxy-4-hydroxyphenylacetic acid"'
p102
aS'monoamine oxidase inhibitor "l-ornithine"'
p103
aS'monoamine oxidase inhibitor "melilotussaponin o1"'
p104
aS'monoamine oxidase inhibitor "ergothioneine"'
p105
aS'monoamine oxidase inhibitor "umbelliferone"'
p106
aS'monoamine oxidase inhibitor "8-desoxygartanin"'
p107
aS'monoamine oxidase inhibitor "2-hydroxy-3,5,5-trimethylcyclohexa-1,4-dion-2-ene"'
p108
aS'monoamine oxidase inhibitor "xantofyl palmitate"'
p109
aS'monoamine oxidase inhibitor "apigenin"'
p110
aS'monoamine oxidase inhibitor "fmn"'
p111
aS'monoamine oxidase inhibitor "(e)-10,11-dihydro-alpha-atlantone"'
p112
aS'monoamine oxidase inhibitor "alpha-linolenic acid"'
p113
aS'monoamine oxidase inhibitor "2\'\'-o-alpha-rhamnosyl-6-c-(6-deoxo-xylo-hexos-4-ulosyl)-apigenin"'
p114
aS'monoamine oxidase inhibitor "1-phenyl-1,3-heneicosanedione"'
p115
aS'monoamine oxidase inhibitor "campesterol 6\'-hexadecanoylglucoside"'
p116
aS'monoamine oxidase inhibitor "methyl isothiocyanate"'
p117
aS'monoamine oxidase inhibitor "l-aspartate"'
p118
aS'monoamine oxidase inhibitor "propanoate"'
p119
aS'monoamine oxidase inhibitor "oxalate"'
p120
aS'monoamine oxidase inhibitor "kaempferol 3-o-alpha-l-galactoside"'
p121
aS'monoamine oxidase inhibitor "apigenin 7-digalacturonoside"'
p122
aS'monoamine oxidase inhibitor "6,7-dihydro-5-methyl-5h-cyclopenta[b]pyrazine"'
p123
aS'monoamine oxidase inhibitor "theogallin"'
p124
aS'monoamine oxidase inhibitor "chrysin"'
p125
aS'monoamine oxidase inhibitor "isoquercitrin 4\'\'-rhamnoside"'
p126
aS'monoamine oxidase inhibitor "apigenin 7-arabinoside"'
p127
aS'monoamine oxidase inhibitor "o-methylcorypalline"'
p128
aS'monoamine oxidase inhibitor "dicoumarol"'
p129
aS'monoamine oxidase inhibitor "l-proline"'
p130
aS'monoamine oxidase inhibitor "cu2+"'
p131
aS'monoamine oxidase inhibitor "azulene"'
p132
aS'monoamine oxidase inhibitor "beta-carotene"'
p133
aS'monoamine oxidase inhibitor "di-n-propylamine"'
p134
aS'monoamine oxidase inhibitor "d-fructose"'
p135
aS'monoamine oxidase inhibitor "norspermine"'
p136
aS'monoamine oxidase inhibitor "luteolin 7-(2\'\'-apiosylglucoside)"'
p137
aS'monoamine oxidase inhibitor "sesamol"'
p138
aS'monoamine oxidase inhibitor "5-methylcytosine"'
p139
aS'monoamine oxidase inhibitor "barium"'
p140
aS'monoamine oxidase inhibitor "polyacetylene"'
p141
aS'monoamine oxidase inhibitor "n-acetyl-serotonin"'
p142
aS'monoamine oxidase inhibitor "graecunin h-4"'
p143
aS'monoamine oxidase inhibitor "acetylsalicylic acid"'
p144
aS'monoamine oxidase inhibitor "5-hydroxy-7,8-dimethoxyflavonol"'
p145
aS'monoamine oxidase inhibitor "dimethyl peroxide"'
p146
aS'monoamine oxidase inhibitor "sennoside a"'
p147
aS'monoamine oxidase inhibitor "phloroglucinol"'
p148
aS'monoamine oxidase inhibitor "succinate semialdehyde"'
p149
aS'monoamine oxidase inhibitor "okadaic acid"'
p150
aS'monoamine oxidase inhibitor "agavasaponin c\'"'
p151
aS'monoamine oxidase inhibitor "4,6-heptadiyne-1,3-diol"'
p152
aS'monoamine oxidase inhibitor "bentonite"'
p153
aS'monoamine oxidase inhibitor "3\' 5\'-cyclic amp"'
p154
aS'monoamine oxidase inhibitor "myosmine"'
p155
aS'monoamine oxidase inhibitor "betaine"'
p156
aS'monoamine oxidase inhibitor "azi"'
p157
aS'monoamine oxidase inhibitor "thymine"'
p158
aS'monoamine oxidase inhibitor "n,n-dimethylbenzylamine"'
p159
aS'monoamine oxidase inhibitor "glyoxal"'
p160
aS'monoamine oxidase inhibitor "anethole"'
p161
aS'monoamine oxidase inhibitor "4-hydroxybenzaldehyde"'
p162
aS'monoamine oxidase inhibitor "raffinose"'
p163
aS'monoamine oxidase inhibitor "(6e)-piperamide-c7:1"'
p164
aS'monoamine oxidase inhibitor "myoglobin"'
p165
aS'monoamine oxidase inhibitor "salvigenin"'
p166
aS'monoamine oxidase inhibitor "7-methylxanthine"'
p167
aS'monoamine oxidase inhibitor "1,3,7-trimethyluric acid"'
p168
aS'monoamine oxidase inhibitor "sphingosine"'
p169
aS'monoamine oxidase inhibitor "fe2+"'
p170
aS'monoamine oxidase inhibitor "(+)-6-hydroxy-2,6-dimethyl-7-octen-4-one"'
p171
aS'monoamine oxidase inhibitor "1,7,7-trimethyltricyclo[2.2.1.02,6]heptane"'
p172
aS'monoamine oxidase inhibitor "3beta,6beta-dihydroxynortropane"'
p173
aS'monoamine oxidase inhibitor "isolimocitrol 3-glucoside"'
p174
aS'monoamine oxidase inhibitor "7-(4-hydroxyphenyl)-1-phenyl-4-hepten-3-one"'
p175
aS'monoamine oxidase inhibitor "succinic acid"'
p176
aS'monoamine oxidase inhibitor "sarsasapogenin"'
p177
aS'monoamine oxidase inhibitor "anthranilic acid"'
p178
aS'monoamine oxidase inhibitor "3-hydroxyanthranilic acid"'
p179
aS'monoamine oxidase inhibitor "hydroxybupropion"'
p180
aS'monoamine oxidase inhibitor "2-amino-3,4-dihydroxypentanedioic acid"'
p181
aS'monoamine oxidase inhibitor "starch"'
p182
aS'monoamine oxidase inhibitor "pterin"'
p183
aS'monoamine oxidase inhibitor "gamma-sitosterol"'
p184
aS'monoamine oxidase inhibitor "piceatannol 4\'-galloylglucoside"'
p185
aS'monoamine oxidase inhibitor "pyridoxal 5\'-phosphate"'
p186
aS'monoamine oxidase inhibitor "2-(2-carboxy-4-methylthiazol-5-yl)ethyl phosphate"'
p187
aS'monoamine oxidase inhibitor "apigenin 8-c-rhamnosyl-glucoside"'
p188
aS'monoamine oxidase inhibitor "dimethylaniline-n-oxide"'
p189
aS'monoamine oxidase inhibitor "(2a,3a)-dihydroxy-12-ursen-24-oic acid"'
p190
aS'monoamine oxidase inhibitor "silicon"'
p191
aS'monoamine oxidase inhibitor "citicoline"'
p192
aS'monoamine oxidase inhibitor "l-kynurenine"'
p193
aS'monoamine oxidase inhibitor "3\'-(6\'\'-galloylglucosyl)-phloroacetophenone"'
p194
aS'monoamine oxidase inhibitor "methylene glutamic acid"'
p195
aS'monoamine oxidase inhibitor "2,6-diaminopurine"'
p196
aS'monoamine oxidase inhibitor "oleanolic acid"'
p197
aS'monoamine oxidase inhibitor "diacetyl"'
p198
aS'monoamine oxidase inhibitor "licofuranone"'
p199
aS'monoamine oxidase inhibitor "(9z)-valenciaxanthin"'
p200
aS'monoamine oxidase inhibitor "cudraflavone a"'
p201
aS'monoamine oxidase inhibitor "carbadox"'
p202
aS'monoamine oxidase inhibitor "galangin"'
p203
aS'monoamine oxidase inhibitor "8,8\'-methylenebiscatechin"'
p204
aS'monoamine oxidase inhibitor "kaempferol 3-(2g-glucosylgentiobioside)"'
p205
aS'monoamine oxidase inhibitor "beta-glucuronidase"'
p206
aS'monoamine oxidase inhibitor "cyanidin"'
p207
aS'monoamine oxidase inhibitor "l-glutamic acid"'
p208
aS'monoamine oxidase inhibitor "diphenylamine"'
p209
aS'monoamine oxidase inhibitor "squalene"'
p210
aS'monoamine oxidase inhibitor "n1-acetylspermine"'
p211
aS'monoamine oxidase inhibitor "pc(20:0/18:0)"'
p212
aS'monoamine oxidase inhibitor "hydrogen cyanide"'
p213
aS'monoamine oxidase inhibitor "glycyrrhizin"'
p214
aS'monoamine oxidase inhibitor "uridine diphosphate glucuronic acid"'
p215
aS'monoamine oxidase inhibitor "galactosamine"'
p216
aS'monoamine oxidase inhibitor "methoxyl"'
p217
aS'monoamine oxidase inhibitor "d-mannitol"'
p218
aS'monoamine oxidase inhibitor "zirconium"'
p219
aS'monoamine oxidase inhibitor "pentanal"'
p220
aS'monoamine oxidase inhibitor "indole-3-ethanol"'
p221
aS'monoamine oxidase inhibitor "carbamic acid"'
p222
aS'monoamine oxidase inhibitor "8,10-hentriacontanedione"'
p223
aS'monoamine oxidase inhibitor "eicosapentaenoic acid"'
p224
aS'monoamine oxidase inhibitor "3-hydroxy-1,10-bisaboladien-9-one"'
p225
aS'monoamine oxidase inhibitor "1,2,3-trimethoxybenzene"'
p226
aS'monoamine oxidase inhibitor "kaempferol 3-coumaroyl-triglucoside"'
p227
aS'monoamine oxidase inhibitor "luteolin 7-rhamnosylglucoside"'
p228
aS'monoamine oxidase inhibitor "2-butanol"'
p229
aS'monoamine oxidase inhibitor "tellurium"'
p230
aS'monoamine oxidase inhibitor "kaempferol 3-o-rhamnosyl-rhamnosyl-glucoside"'
p231
aS'monoamine oxidase inhibitor "coenzyme a"'
p232
aS'monoamine oxidase inhibitor "stearate"'
p233
aS'monoamine oxidase inhibitor "hydroxamic acid"'
p234
aS'monoamine oxidase inhibitor "palmitoyl-coa"'
p235
aS'monoamine oxidase inhibitor "ubiquinone 9"'
p236
aS'monoamine oxidase inhibitor "6-hydroxymelatonin"'
p237
aS'monoamine oxidase inhibitor "terpene"'
p238
aS'monoamine oxidase inhibitor "simonin ii"'
p239
aS'monoamine oxidase inhibitor "cyanidin 3-(6\'\'-malonyllaminaribioside)"'
p240
aS'monoamine oxidase inhibitor "emblicanin a"'
p241
aS'monoamine oxidase inhibitor "emblicanin b"'
p242
aS'monoamine oxidase inhibitor "glutaminase"'
p243
aS'monoamine oxidase inhibitor "(-)-gossypol"'
p244
aS'monoamine oxidase inhibitor "mangiferin 6\'-gallate"'
p245
aS'monoamine oxidase inhibitor "cyanidin 3,5-digalactoside"'
p246
aS'monoamine oxidase inhibitor "monodehydroascorbate"'
p247
aS'monoamine oxidase inhibitor "4-methoxy-3-geranylgeranyl-1,2-dihydroxybenzene"'
p248
aS'monoamine oxidase inhibitor "apigenin 6-c-glucosyl-o-arabinoside"'
p249
aS'monoamine oxidase inhibitor "anthocyanins"'
p250
aS'monoamine oxidase inhibitor "1-deoxy-l-glycero-tetrulose 4-phosphate"'
p251
aS'monoamine oxidase inhibitor "cyanidin 3-rutinoside"'
p252
aS'monoamine oxidase inhibitor "phenylacetate"'
p253
aS'monoamine oxidase inhibitor "licopyranocoumarin"'
p254
aS'monoamine oxidase inhibitor "3-aminopropanal"'
p255
aS'monoamine oxidase inhibitor "1-deoxynojirimycin"'
p256
aS'monoamine oxidase inhibitor "5-hydroxyindole acetaldehyde"'
p257
aS'monoamine oxidase inhibitor "(-)-matairesinol"'
p258
aS'monoamine oxidase inhibitor "tartaric acid"'
p259
aS'monoamine oxidase inhibitor "indole-3-acetate"'
p260
aS'monoamine oxidase inhibitor "aminoadipic acid"'
p261
aS'monoamine oxidase inhibitor "lanthanum"'
p262
aS'monoamine oxidase inhibitor "vanadium"'
p263
aS'monoamine oxidase inhibitor "protocatechuic acid"'
p264
aS'monoamine oxidase inhibitor "galactosyl erythro-5-hydroxy-l-lysine"'
p265
aS'monoamine oxidase inhibitor "eremopetasitenin b2"'
p266
aS'monoamine oxidase inhibitor "eugenol"'
p267
aS'monoamine oxidase inhibitor "arabinogalactan"'
p268
aS'monoamine oxidase inhibitor "(s)-2,3-dihydro-5-hydroxy-2-methyl-1,4-naphthoquinone"'
p269
aS'monoamine oxidase inhibitor "coenzyme q"'
p270
aS'monoamine oxidase inhibitor "l-homoserine"'
p271
aS'monoamine oxidase inhibitor "sodium borohydride"'
p272
aS'monoamine oxidase inhibitor "luteolin 7-glucuronylglucoside"'
p273
aS'monoamine oxidase inhibitor "6,7-dihydro-2-methyl-5h-cyclopenta[b]pyrazine"'
p274
aS'monoamine oxidase inhibitor "apigenin 7-glucuronosyl-glucoside"'
p275
aS'monoamine oxidase inhibitor "antimony"'
p276
aS'monoamine oxidase inhibitor "5alpha-stigmastan-3,6-dione"'
p277
aS'monoamine oxidase inhibitor "1,4-benzoquinone"'
p278
aS'monoamine oxidase inhibitor "epicatechin"'
p279
aS'monoamine oxidase inhibitor "estriol"'
p280
aS'monoamine oxidase inhibitor "17\xce\xb2-estradiol"'
p281
aS'monoamine oxidase inhibitor "3,4,5-trimethoxyphenyl 2,6-digalloylglucoside"'
p282
aS'monoamine oxidase inhibitor "arecoline"'
p283
aS'monoamine oxidase inhibitor "(+)-2,3-dihydro-9-hydroxy-2[1-(6-sinapinoyl)beta-d-glucosyloxy-1-methylethyl]-7h-furo[3,2-g][1]benzopyran-7-one"'
p284
aS'monoamine oxidase inhibitor "1-hydroxy-3,5-dimethoxy-2-prenylxanthone"'
p285
aS'monoamine oxidase inhibitor "quinolinic acid"'
p286
aS'monoamine oxidase inhibitor "(cis)-crotonaldehyde"'
p287
aS'monoamine oxidase inhibitor "8,10-nonacosanedione"'
p288
aS'monoamine oxidase inhibitor "glicoricone"'
p289
aS'monoamine oxidase inhibitor "alpha-lipoic acid"'
p290
aS'monoamine oxidase inhibitor "caffeic acid"'
p291
aS'monoamine oxidase inhibitor "sulfite"'
p292
aS'monoamine oxidase inhibitor "3,4-dihydroxyphenylacetate"'
p293
aS'monoamine oxidase inhibitor "4-aminobutyric acid"'
p294
aS'monoamine oxidase inhibitor "cdp-choline"'
p295
aS'monoamine oxidase inhibitor "(s)-naringenin"'
p296
aS'monoamine oxidase inhibitor "domoic acid"'
p297
aS'monoamine oxidase inhibitor "kaempferol 7-(3g-glucosylgentiobioside)"'
p298
aS'monoamine oxidase inhibitor "kaempferol 3-(2\'\'-rhamnosylrutinoside)"'
p299
aS'monoamine oxidase inhibitor "campest-4-en-3,6-dione"'
p300
aS'monoamine oxidase inhibitor "licocoumarone"'
p301
aS'monoamine oxidase inhibitor "isodesmosine"'
p302
aS'monoamine oxidase inhibitor "7\',9\'-cis-lycopene"'
p303
aS'monoamine oxidase inhibitor "propanal"'
p304
aS'monoamine oxidase inhibitor "selenite"'
p305
aS'monoamine oxidase inhibitor "imp"'
p306
aS'monoamine oxidase inhibitor "l-citrulline"'
p307
aS'monoamine oxidase inhibitor "3\',4\',5,7,8-pentamethoxyflavanone"'
p308
aS'monoamine oxidase inhibitor "glycitein"'
p309
aS'monoamine oxidase inhibitor "kaempferol 3-(2\'\'\'-feruloylsophoroside) 7-cellobioside"'
p310
aS'monoamine oxidase inhibitor "ergosterol"'
p311
aS'monoamine oxidase inhibitor "l-(+)-homoserine"'
p312
aS'monoamine oxidase inhibitor "(24s)-24-ethylbrassinone"'
p313
aS'monoamine oxidase inhibitor "dihydrobutylidene phthalide"'
p314
aS'monoamine oxidase inhibitor "farnesol"'
p315
aS'monoamine oxidase inhibitor "acetyl-coa"'
p316
aS'monoamine oxidase inhibitor "phosphorylcholine"'
p317
aS'monoamine oxidase inhibitor "cyclohexane"'
p318
aS'monoamine oxidase inhibitor "linoleate"'
p319
aS'monoamine oxidase inhibitor "pavetannin b2"'
p320
aS'monoamine oxidase inhibitor "cyanidin 3-(6\'\'-p-coumarylsambubioside)"'
p321
aS'monoamine oxidase inhibitor "hemin"'
p322
aS'monoamine oxidase inhibitor "dehydroepiandrosterone"'
p323
aS'monoamine oxidase inhibitor "europium"'
p324
aS'monoamine oxidase inhibitor "physcion"'
p325
aS'monoamine oxidase inhibitor "indole-3-acetonitrile"'
p326
aS'monoamine oxidase inhibitor "phosphatidylglycerol"'
p327
aS'monoamine oxidase inhibitor "cyanidin 3-(cinnamoylglucoside)"'
p328
aS'monoamine oxidase inhibitor "kaempferol 7-rhamnofuranoside"'
p329
aS'monoamine oxidase inhibitor "scordinine b-3"'
p330
aS'monoamine oxidase inhibitor "globulin"'
p331
aS'monoamine oxidase inhibitor "5-methylthioribose"'
p332
aS'monoamine oxidase inhibitor "3-hydroxy-4,5-dimethyl-2-furanone"'
p333
aS'monoamine oxidase inhibitor "avenestergenin b2"'
p334
aS'monoamine oxidase inhibitor "osmium"'
p335
aS'monoamine oxidase inhibitor "methyl helianthenoate a glucoside"'
p336
aS'monoamine oxidase inhibitor "1-butanol"'
p337
aS'monoamine oxidase inhibitor "sitosterol"'
p338
aS'monoamine oxidase inhibitor "vanylglycol"'
p339
aS'monoamine oxidase inhibitor "beta-lactoglobulin"'
p340
aS'monoamine oxidase inhibitor "4-hydroxybenzoate"'
p341
aS'monoamine oxidase inhibitor "marneral"'
p342
aS'monoamine oxidase inhibitor "cyanidin 3,3\'-diglucoside"'
p343
aS'monoamine oxidase inhibitor "phlorizin"'
p344
aS'monoamine oxidase inhibitor "ergocalciferol"'
p345
aS'monoamine oxidase inhibitor "1-aminocyclopropane-1-carboxylate"'
p346
aS'monoamine oxidase inhibitor "inosine"'
p347
aS'monoamine oxidase inhibitor "cyanidin 3-(2g-xylosylrutinoside)"'
p348
aS'monoamine oxidase inhibitor "n1-acetylspermidine"'
p349
aS'monoamine oxidase inhibitor "(r)-2\',4\',7-trihydroxy-3\',8-diprenylisoflavan"'
p350
aS'monoamine oxidase inhibitor "3-hydroxy-2-methylidene butyric acid angelate"'
p351
aS'monoamine oxidase inhibitor "cyanidin 3-(6\'\'-dioxalylglucoside)"'
p352
aS'monoamine oxidase inhibitor "ent-16a-hydro-6a,7a,17-trihydroxy-19-kauranoic acid"'
p353
aS'monoamine oxidase inhibitor "citric acid"'
p354
aS'monoamine oxidase inhibitor "malic acid"'
p355
aS'monoamine oxidase inhibitor "gallium"'
p356
aS'monoamine oxidase inhibitor "anisic acid"'
p357
aS'monoamine oxidase inhibitor "xylene"'
p358
aS'monoamine oxidase inhibitor "acacetin"'
p359
aS'monoamine oxidase inhibitor "piceatannol"'
p360
aS'monoamine oxidase inhibitor "l-glutamate"'
p361
aS'monoamine oxidase inhibitor "luteolin 6-c-glucosyl-o-arabinoside"'
p362
aS'monoamine oxidase inhibitor "3,5,5-trimethylcyclohexa-1,4-dione"'
p363
aS'monoamine oxidase inhibitor "cd2+"'
p364
aS'monoamine oxidase inhibitor "hydantoin"'
p365
aS'monoamine oxidase inhibitor "carbonic acid"'
p366
aS'monoamine oxidase inhibitor "acetoacetate"'
p367
aS'monoamine oxidase inhibitor "apiosylglucosyl 4-hydroxybenzoate"'
p368
aS'monoamine oxidase inhibitor "ursolic acid"'
p369
aS'monoamine oxidase inhibitor "3,4-dihydroxymandelaldehyde"'
p370
aS'monoamine oxidase inhibitor "phosphoenolpyruvate"'
p371
aS'monoamine oxidase inhibitor "glyoxylate"'
p372
aS'monoamine oxidase inhibitor "guanosine triphosphate"'
p373
aS'monoamine oxidase inhibitor "hypericin"'
p374
aS'monoamine oxidase inhibitor "n-acetylhistamine"'
p375
aS'monoamine oxidase inhibitor "amentoflavone"'
p376
aS'monoamine oxidase inhibitor "kaempferol 3-o-rhamnosyl-rutinoside"'
p377
aS'monoamine oxidase inhibitor "methyl indole-3-acetate"'
p378
aS'monoamine oxidase inhibitor "2\',4\',5,7,8-pentahydroxyisoflavone"'
p379
aS'monoamine oxidase inhibitor "tetradeca-2,12-dien-4,6,8,10-tetrayne"'
p380
aS'monoamine oxidase inhibitor "dimethyl benzofuran"'
p381
aS'monoamine oxidase inhibitor "mangiferin"'
p382
aS'monoamine oxidase inhibitor "guanosine diphosphate"'
p383
aS'monoamine oxidase inhibitor "chrysoeriol 7-disulfoglucoside"'
p384
aS'monoamine oxidase inhibitor "2-octene"'
p385
aS'monoamine oxidase inhibitor "kaempferol 3-gluco-rhamnoside"'
p386
aS'monoamine oxidase inhibitor "phenethyl 6-galloylglucoside"'
p387
aS'monoamine oxidase inhibitor "kaempferol 7-o-beta-d-glucoside-o-alpha-l-rhamnosyl"'
p388
aS'monoamine oxidase inhibitor "bicyclogermacrene"'
p389
aS'monoamine oxidase inhibitor "tetrahydrofolate"'
p390
aS'monoamine oxidase inhibitor "hex-cis-3-en-1-ol caproate"'
p391
aS'monoamine oxidase inhibitor "2,5-dimethylpyrazine"'
p392
aS'monoamine oxidase inhibitor "safranal"'
p393
aS'monoamine oxidase inhibitor "1-p-menthene-8,9-diol"'
p394
aS'monoamine oxidase inhibitor "butan-2-one"'
p395
aS'monoamine oxidase inhibitor "oryzanol"'
p396
aS'monoamine oxidase inhibitor "l-histidine"'
p397
aS'monoamine oxidase inhibitor "isorhamnetin 3-beta-laminaribioside"'
p398
aS'monoamine oxidase inhibitor "cynaroside a"'
p399
aS'monoamine oxidase inhibitor "n,n-dimethylaniline"'
p400
aS'monoamine oxidase inhibitor "isogentisin"'
p401
aS'monoamine oxidase inhibitor "unsaturated fatty acids"'
p402
aS'monoamine oxidase inhibitor "chrysoeriol 7-triglucuronide"'
p403
aS'monoamine oxidase inhibitor "methyl 2,3-dihydro-3,5-dihydroxy-2-oxo-3-indoleacetic acid"'
p404
aS'monoamine oxidase inhibitor "kaempferol 3-p-coumaroylsophorotrioside"'
p405
aS'monoamine oxidase inhibitor "(+)-valine"'
p406
aS'monoamine oxidase inhibitor "2-butanone"'
p407
aS'monoamine oxidase inhibitor "n-methyltyramine"'
p408
aS'monoamine oxidase inhibitor "saponins"'
p409
aS'monoamine oxidase inhibitor "1-octanol"'
p410
aS'monoamine oxidase inhibitor "(+)-taxifolin"'
p411
aS'monoamine oxidase inhibitor "violet alcohol"'
p412
aS'monoamine oxidase inhibitor "naphthalene"'
p413
aS'monoamine oxidase inhibitor "s-adenosyl-l-methionine"'
p414
aS'monoamine oxidase inhibitor "ajmaline"'
p415
aS'monoamine oxidase inhibitor "pregnenolone"'
p416
aS'monoamine oxidase inhibitor "naringenin rutinoside-4-beta-d-glucoside"'
p417
aS'monoamine oxidase inhibitor "gladiatoside a3"'
p418
aS'monoamine oxidase inhibitor "haemoglobin"'
p419
aS'monoamine oxidase inhibitor "neodymium"'
p420
aS'monoamine oxidase inhibitor "gdp"'
p421
aS'monoamine oxidase inhibitor "coumestrol"'
p422
aS'monoamine oxidase inhibitor "amoxycillin"'
p423
aS'monoamine oxidase inhibitor "selenide"'
p424
aS'monoamine oxidase inhibitor "6-methyl 2-galloylgalactarate"'
p425
aS'monoamine oxidase inhibitor "epsilon-viniferin"'
p426
aS'monoamine oxidase inhibitor "10alpha-4,5-seco-11-eudesmene-4,5-dione"'
p427
aS'monoamine oxidase inhibitor "methyl (2-propenylthio) selenide"'
p428
aS'monoamine oxidase inhibitor "hesperetin 7-(2,6-dirhamnosylglucoside)"'
p429
aS'monoamine oxidase inhibitor "demethoxycurcumin"'
p430
aS'monoamine oxidase inhibitor "polyethylene glycol"'
p431
aS'monoamine oxidase inhibitor "unknown 370"'
p432
aS'monoamine oxidase inhibitor "\xce\xb2-d-glucose"'
p433
aS'monoamine oxidase inhibitor "2-angeloyl-9-(3-methyl-2e-pentenoyl)-2b,9a-dihydroxy-4z,10(14)-oplopadien-3-one"'
p434
aS'monoamine oxidase inhibitor "gancaonin o"'
p435
aS'monoamine oxidase inhibitor "gancaonin b"'
p436
aS'monoamine oxidase inhibitor "gancaonin a"'
p437
aS'monoamine oxidase inhibitor "gancaonin u"'
p438
aS'monoamine oxidase inhibitor "dihydroxyacetone"'
p439
aS'monoamine oxidase inhibitor "5-hydroxyindole acetate"'
p440
aS'monoamine oxidase inhibitor "kaempferol 3-alpha-d-arabinopyranoside"'
p441
aS'monoamine oxidase inhibitor "germacrene d"'
p442
aS'monoamine oxidase inhibitor "1,2-humulene epoxide"'
p443
aS'monoamine oxidase inhibitor "glycycoumarin"'
p444
aS'monoamine oxidase inhibitor "quercetin 3,4\',7-triglucoside"'
p445
aS'monoamine oxidase inhibitor "dtdp"'
p446
aS'monoamine oxidase inhibitor "beta-fructofuranosidase"'
p447
aS'monoamine oxidase inhibitor "3,4-epoxy-p-menth-1(7)-ene"'
p448
aS'monoamine oxidase inhibitor "n-(4-hydroxyphenyl)ethoxycarbothioamide"'
p449
aS'monoamine oxidase inhibitor "kaempferol 3-feruloylapioside"'
p450
aS'monoamine oxidase inhibitor "l-leucine"'
p451
aS'monoamine oxidase inhibitor "4-aminobutyraldehyde"'
p452
aS'monoamine oxidase inhibitor "2-undecyl-4(1h)-quinolinone"'
p453
aS'monoamine oxidase inhibitor "cdp"'
p454
aS'monoamine oxidase inhibitor "2,3-dihydro-2,3-dihydroxy-9-phenyl-1h-phenalen-1-one"'
p455
aS'monoamine oxidase inhibitor "kaempferol 3-o-acetyl-glucoside"'
p456
aS'monoamine oxidase inhibitor "oxalates"'
p457
aS'monoamine oxidase inhibitor "4-hydroxy-2-nonenal"'
p458
aS'monoamine oxidase inhibitor "methylglyoxal"'
p459
aS'monoamine oxidase inhibitor "(-)-pinoresinol"'
p460
aS'monoamine oxidase inhibitor "2\'\'-o-alpha-rhamnosyl-6-c-(6-deoxo-xylo-hexos-4-ulosyl)-chrysoeriol"'
p461
aS'monoamine oxidase inhibitor "sterols"'
p462
aS'monoamine oxidase inhibitor "n-acetyl-l-cysteine"'
p463
aS'monoamine oxidase inhibitor "palmitate"'
p464
aS'monoamine oxidase inhibitor "2-amino-1,6-dimethylfuro[3,2-e]imidazo[4,5-b]pyridine"'
p465
aS'monoamine oxidase inhibitor "hexosamine"'
p466
aS'monoamine oxidase inhibitor "chromium"'
p467
aS'monoamine oxidase inhibitor "d-serine"'
p468
aS'monoamine oxidase inhibitor "uridine triphosphate"'
p469
aS'monoamine oxidase inhibitor "arsenite"'
p470
a.