(lp0
S'antacids "ranidae"'
p1
aS'antacids "mytilidae"'
p2
aS'antacids "mentha"'
p3
aS'antacids "salvelinus"'
p4
aS'antacids "a. bisporus"'
p5
aS'antacids "oncorhynchus"'
p6
aS'antacids "pinus"'
p7
aS'antacids "quercus"'
p8
aS'antacids "a. cepa"'
p9
aS'antacids "brachyura"'
p10
aS'antacids "amaranthus"'
p11
aS'antacids "c. crispus"'
p12
aS'antacids "m. x"'
p13
aS'antacids "p. philadelphica"'
p14
aS'antacids "pectinidae"'
p15
aS'antacids "papaver"'
p16
aS'antacids "p. lunatus"'
p17
aS'antacids "salmonidae"'
p18
aS'antacids "c. x"'
p19
aS'antacids "o. x"'
p20
aS'antacids "panax"'
p21
aS'antacids "cetacea"'
p22
aS'antacids "capsicum"'
p23
aS'antacids "ascidiacea"'
p24
aS'antacids "m. edulis"'
p25
aS'antacids "p. vulgaris"'
p26
aS'antacids "c. sapidus"'
p27
aS'antacids "r. officinalis"'
p28
aS'antacids "m. x"'
p29
aS'antacids "c. sinensis"'
p30
aS'antacids "carya"'
p31
aS'antacids "spirulina"'
p32
aS'antacids "t. aestivum"'
p33
aS'antacids "sp1"'
p34
aS'antacids "3,5,6-trihydroxy-5-(hydroxymethyl)-2-methoxy-2-cyclohexen-1-one"'
p35
aS'antacids "24,25-dihydroxyvitamin d3"'
p36
aS'antacids "octanoic acid"'
p37
aS'antacids "nb-trans-p-coumaroylserotonin glucoside"'
p38
aS'antacids "nicotianamine"'
p39
aS'antacids "5,5-diisopropyl-2,2\'-dimethylbiphenyl-3,3\',4,4\'-tetrone"'
p40
aS'antacids "kaempferol 3-feruloyl-triglucoside"'
p41
aS'antacids "ginsenoside m7cd"'
p42
aS'antacids "estrone"'
p43
aS'antacids "aflatoxin"'
p44
aS'antacids "2-(1-methylethyl)-4-propylthiazole"'
p45
aS'antacids "1,5,5,9-tetramethyl-bicyclo[4.3.0]-non-8-en-7-one"'
p46
aS'antacids "vanillin"'
p47
aS'antacids "4-vinylphenol"'
p48
aS'antacids "carvone oxide"'
p49
aS'antacids "(r)-apiumetin glucoside"'
p50
aS'antacids "benzyl ethyl ether"'
p51
aS'antacids "uridine diphosphate"'
p52
aS'antacids "protoporphyrin"'
p53
aS'antacids "isoflavones"'
p54
aS'antacids "beta-methylthiopropionic acid methyl ester"'
p55
aS'antacids "(-)-menthol"'
p56
aS'antacids "l-phenylalanine"'
p57
aS'antacids "catechin"'
p58
aS'antacids "aloe emodin w-acetate"'
p59
aS'antacids "lysolecithin"'
p60
aS'antacids "n-dodecane"'
p61
aS'antacids "abscisic acid"'
p62
aS'antacids "l-ascorbic acid"'
p63
aS'antacids "diacylglycerol"'
p64
aS'antacids "kaempferol 3-sophoroside-rhamnoside"'
p65
aS'antacids "n-decane"'
p66
aS'antacids "(z,z)-9,12-octadecadienoic acid"'
p67
aS'antacids "(-)-borneol"'
p68
aS'antacids "cytosine"'
p69
aS'antacids "l-(-)-phenylalanine"'
p70
aS'antacids "ethyl methyl amine"'
p71
aS'antacids "vanillic acid"'
p72
aS'antacids "gamma-dihydrositosterol ferulic acid ester"'
p73
aS'antacids "l-tryptophan"'
p74
aS'antacids "cardiolipin"'
p75
aS'antacids "4-hydroxy-3-prenylbenzoic acid glucoside"'
p76
aS'antacids "porphobilinogen"'
p77
aS'antacids "tyramine"'
p78
aS'antacids "5,7-megastigmadien-9-ol glucoside"'
p79
aS'antacids "2,10-bisaboladiene-1,4-diol"'
p80
aS'antacids "carnitine"'
p81
aS'antacids "kaempferol 3-(2g-rhamnosylgentiobioside)"'
p82
aS'antacids "ginsenoside m6-bc"'
p83
aS'antacids "(2e)-piperamide-c5:1"'
p84
aS'antacids "trimethylamine"'
p85
aS'antacids "hex-trans-2-enyl hexanoate"'
p86
aS'antacids "hafnium"'
p87
aS'antacids "5\',8-dihydroxy-3\',4\',7-trimethoxyflavan"'
p88
aS'antacids "hydrogen peroxide (h2o2)"'
p89
aS'antacids "citral"'
p90
aS'antacids "glucosides"'
p91
aS'antacids "benzoyl peroxide"'
p92
aS'antacids "5-\xce\xb2-pregnan-3,20 dione"'
p93
aS'antacids "ammonia (nh3)"'
p94
a.