(lp0
S'levothyroxine "lard"'
p1
aS'levothyroxine "gin"'
p2
aS'levothyroxine "kohlrabi"'
p3
aS'levothyroxine "polar bear"'
p4
aS'levothyroxine "stew"'
p5
aS'levothyroxine "drag\xc3\xa9e"'
p6
aS'levothyroxine "haddock"'
p7
aS'levothyroxine "bison"'
p8
aS'levothyroxine "poppy"'
p9
aS'levothyroxine "sorghum"'
p10
aS'levothyroxine "channel catfish"'
p11
aS'levothyroxine "kale"'
p12
aS'levothyroxine "fennel"'
p13
aS'levothyroxine "alfalfa"'
p14
aS'levothyroxine "pikeperch"'
p15
aS'levothyroxine "sherry"'
p16
aS'levothyroxine "beverages"'
p17
aS'levothyroxine "snapper"'
p18
aS'levothyroxine "turbot"'
p19
aS'levothyroxine "soy milk"'
p20
aS'levothyroxine "cocoa butter"'
p21
aS'levothyroxine "biscuit"'
p22
aS'levothyroxine "ostrich"'
p23
aS'levothyroxine "other fish product"'
p24
aS'levothyroxine "lotus"'
p25
aS'levothyroxine "liquor"'
p26
aS'levothyroxine "almond"'
p27
aS'levothyroxine "ginger"'
p28
aS'levothyroxine "chum salmon"'
p29
aS'levothyroxine "spinach"'
p30
aS'levothyroxine "whey"'
p31
aS'levothyroxine "papaya"'
p32
aS'levothyroxine "green turtle"'
p33
aS'levothyroxine "steller sea lion"'
p34
aS'levothyroxine "white sucker"'
p35
aS'levothyroxine "other bread"'
p36
aS'levothyroxine "cheese"'
p37
aS'levothyroxine "atlantic herring"'
p38
aS'levothyroxine "oat"'
p39
aS'levothyroxine "common ling"'
p40
aS'levothyroxine "tunicate"'
p41
aS'levothyroxine "pizza"'
p42
aS'levothyroxine "mushrooms"'
p43
aS'levothyroxine "mustard"'
p44
aS'levothyroxine "acorn"'
p45
aS'levothyroxine "cabbage"'
p46
aS'levothyroxine "beluga whale"'
p47
aS'levothyroxine "baby food"'
p48
aS'levothyroxine "moose"'
p49
aS'levothyroxine "sockeye salmon"'
p50
aS'levothyroxine "cake"'
p51
aS'levothyroxine "dill"'
p52
aS'levothyroxine "apple"'
p53
aS'levothyroxine "ginseng"'
p54
aS'levothyroxine "carrot"'
p55
aS'levothyroxine "elk"'
p56
aS'levothyroxine "common carp"'
p57
aS'levothyroxine "pate"'
p58
aS'levothyroxine "calabash"'
p59
aS'levothyroxine "broccoli"'
p60
aS'levothyroxine "anise"'
p61
aS'levothyroxine "atlantic halibut"'
p62
aS'levothyroxine "soy bean"'
p63
aS'levothyroxine "turmeric"'
p64
aS'levothyroxine "canola"'
p65
aS'levothyroxine "pacific herring"'
p66
aS'levothyroxine "molasses"'
p67
aS'levothyroxine "watermelon"'
p68
aS'levothyroxine "fruit juice"'
p69
aS'levothyroxine "domestic goat"'
p70
aS'levothyroxine "tallow"'
p71
aS'levothyroxine "walrus"'
p72
aS'levothyroxine "wakame"'
p73
aS'levothyroxine "mango"'
p74
aS'levothyroxine "liquorice"'
p75
aS'levothyroxine "yam"'
p76
aS'levothyroxine "popcorn"'
p77
aS'levothyroxine "burbot"'
p78
aS'levothyroxine "feijoa"'
p79
aS'levothyroxine "vinegar"'
p80
aS'levothyroxine "garlic"'
p81
aS'levothyroxine "shrimp"'
p82
aS'levothyroxine "cinnamon"'
p83
aS'levothyroxine "whiting"'
p84
aS'levothyroxine "radish"'
p85
aS'levothyroxine "chinese cabbage"'
p86
aS'levothyroxine "arctic ground squirrel"'
p87
aS'levothyroxine "lentils"'
p88
aS'levothyroxine "sausage"'
p89
aS'levothyroxine "peach"'
p90
aS'levothyroxine "kombu"'
p91
aS'levothyroxine "crab"'
p92
aS'levothyroxine "pineappple sage"'
p93
aS'levothyroxine "sheepshead"'
p94
aS'levothyroxine "spirit"'
p95
aS'levothyroxine "cauliflower"'
p96
aS'levothyroxine "soy sauce"'
p97
aS'levothyroxine "sesame"'
p98
aS'levothyroxine "malus (crab apple)"'
p99
aS'levothyroxine "teff"'
p100
aS'levothyroxine "scallop"'
p101
aS'levothyroxine "atlantic cod"'
p102
aS'levothyroxine "ascidians"'
p103
aS'levothyroxine "atlantic croaker"'
p104
aS'levothyroxine "caraway"'
p105
aS'levothyroxine "crayfish"'
p106
aS'levothyroxine "striped bass"'
p107
aS'levothyroxine "pink salmon"'
p108
aS'levothyroxine "grouper"'
p109
aS'levothyroxine "common pea"'
p110
aS'levothyroxine "walleye"'
p111
aS'levothyroxine "rum"'
p112
aS'levothyroxine "freshwater eel"'
p113
aS'levothyroxine "pectin"'
p114
aS'levothyroxine "jellyfish"'
p115
aS'levothyroxine "port wine"'
p116
aS'levothyroxine "ocean pout"'
p117
aS'levothyroxine "caribou"'
p118
aS'levothyroxine "cowpea"'
p119
aS'levothyroxine "beaver"'
p120
aS'levothyroxine "custard apple"'
p121
aS'levothyroxine "opossum"'
p122
aS'levothyroxine "other meat product"'
p123
aS'levothyroxine "shallot"'
p124
aS'levothyroxine "syrup"'
p125
aS'levothyroxine "cucumber"'
p126
aS'levothyroxine "milk substitute"'
p127
aS'levothyroxine "cottonseed"'
p128
aS'levothyroxine "emu"'
p129
aS'levothyroxine "butter"'
p130
aS'levothyroxine "sake"'
p131
aS'levothyroxine "fenugreek"'
p132
aS'levothyroxine "topping"'
p133
aS'levothyroxine "charr"'
p134
aS'levothyroxine "chinook salmon"'
p135
aS'levothyroxine "nance"'
p136
aS'levothyroxine "lasagna"'
p137
aS'levothyroxine "bamboo shoots"'
p138
aS'levothyroxine "other sandwich"'
p139
aS'levothyroxine "mallard duck"'
p140
aS'levothyroxine "millet"'
p141
aS'levothyroxine "nuts"'
p142
aS'levothyroxine "chia"'
p143
aS'levothyroxine "chocolate"'
p144
aS'levothyroxine "potato"'
p145
aS'levothyroxine "thunnus (common tuna)"'
p146
aS'levothyroxine "pheasant"'
p147
aS'levothyroxine "soft-necked garlic"'
p148
aS'levothyroxine "pie"'
p149
aS'levothyroxine "honey"'
p150
aS'levothyroxine "smelt"'
p151
aS'levothyroxine "walnut"'
p152
aS'levothyroxine "grapefruit"'
p153
aS'levothyroxine "citrus"'
p154
aS'levothyroxine "brassicas"'
p155
aS'levothyroxine "fruits"'
p156
aS'levothyroxine "raccoon"'
p157
aS'levothyroxine "black bear"'
p158
aS'levothyroxine "roe"'
p159
aS'levothyroxine "turnip"'
p160
aS'levothyroxine "rape"'
p161
aS'levothyroxine "angelica"'
p162
aS'levothyroxine "pollock"'
p163
aS'levothyroxine "barley"'
p164
aS'levothyroxine "sauce"'
p165
aS'levothyroxine "crustaceans"'
p166
aS'levothyroxine "lemon"'
p167
aS'levothyroxine "mollusks"'
p168
aS'levothyroxine "safflower"'
p169
aS'levothyroxine "pacific salmon"'
p170
aS'levothyroxine "coffee and coffee products"'
p171
aS'levothyroxine "brazil nut"'
p172
aS'levothyroxine "thistle"'
p173
aS'levothyroxine "bagel"'
p174
aS'levothyroxine "kelp"'
p175
aS'levothyroxine "pacific oyster"'
p176
aS'levothyroxine "spirulina"'
p177
aS'levothyroxine "lake trout"'
p178
aS'levothyroxine "other vegetable product"'
p179
aS'levothyroxine "flaxseed"'
p180
aS'levothyroxine "robusta coffee"'
p181
aS'levothyroxine "shark"'
p182
aS'levothyroxine "scyphozoa"'
p183
aS'levothyroxine "dromaius novaehollandiae"'
p184
aS'levothyroxine "alces alces"'
p185
aS'levothyroxine "chelonia mydas"'
p186
aS'levothyroxine "vaccinium deliciosum"'
p187
aS'levothyroxine "bivalvia"'
p188
aS'levothyroxine "micropogonias undulatus"'
p189
aS'levothyroxine "oncorhynchus gorbuscha"'
p190
aS'levothyroxine "brassica napus"'
p191
aS'levothyroxine "olea europaea"'
p192
aS'levothyroxine "citrus sinensis"'
p193
aS'levothyroxine "bison bison"'
p194
aS'levothyroxine "bubalus bubalis"'
p195
aS'levothyroxine "procyon lotor"'
p196
aS'levothyroxine "manihot esculenta"'
p197
aS'levothyroxine "acipenser"'
p198
aS'levothyroxine "allium"'
p199
aS'levothyroxine "ictalurus punctatus"'
p200
aS'levothyroxine "delphinapterus leucas"'
p201
aS'levothyroxine "ginkgo biloba"'
p202
aS'levothyroxine "gossypium"'
p203
aS'levothyroxine "didelphis virginiana"'
p204
aS'levothyroxine "oncorhynchus tshawytscha"'
p205
aS'levothyroxine "lagenaria siceraria"'
p206
aS'levothyroxine "eumetopias jubatus"'
p207
aS'levothyroxine "coffea arabica"'
p208
aS'levothyroxine "morone saxatilis"'
p209
aS'levothyroxine "oncorhynchus nerka"'
p210
aS'levothyroxine "columba"'
p211
aS'levothyroxine "odocoileus"'
p212
aS'levothyroxine "feijoa sellowiana"'
p213
aS'levothyroxine "vitis"'
p214
aS'levothyroxine "scophthalmus maximus"'
p215
aS'levothyroxine "rangifer tarandus"'
p216
aS'levothyroxine "cucumis sativus"'
p217
aS'levothyroxine "oncorhynchus keta"'
p218
aS'levothyroxine "sebastes"'
p219
aS'levothyroxine "allium sativum"'
p220
aS'levothyroxine "raphanus sativus"'
p221
aS'levothyroxine "brassica oleracea"'
p222
aS'levothyroxine "daucus carota"'
p223
aS'levothyroxine "annona squamosa"'
p224
aS'levothyroxine "hippoglossus"'
p225
aS'levothyroxine "zea mays"'
p226
aS'levothyroxine "crassostrea gigas"'
p227
aS'levothyroxine "equus caballus"'
p228
aS'levothyroxine "gadiformes"'
p229
aS'levothyroxine "gadus"'
p230
aS'levothyroxine "vaccinium myrtillus"'
p231
aS'levothyroxine "cinnamomum"'
p232
aS'levothyroxine "cucurbita"'
p233
aS'levothyroxine "cucumis melo"'
p234
aS'levothyroxine "solanum lycopersicum"'
p235
aS'levothyroxine "esox lucius"'
p236
aS'levothyroxine "ursus maritimus"'
p237
aS'levothyroxine "ursus americanus"'
p238
aS'levothyroxine "mangifera indica"'
p239
aS'levothyroxine "thunnus"'
p240
aS'levothyroxine "glycine max"'
p241
aS'levothyroxine "vicia faba"'
p242
aS'levothyroxine "abramis brama"'
p243
aS'levothyroxine "sambucus"'
p244
aS'levothyroxine "anguilliformes"'
p245
aS'levothyroxine "carum carvi"'
p246
aS'levothyroxine "anser anser"'
p247
aS'levothyroxine "lota lota"'
p248
aS'levothyroxine "punica granatum"'
p249
aS'levothyroxine "brassica rapa"'
p250
aS'levothyroxine "cichlidae"'
p251
aS'levothyroxine "anatidae"'
p252
aS'levothyroxine "moringa oleifera"'
p253
aS'levothyroxine "brachyura"'
p254
aS'levothyroxine "pectinidae"'
p255
aS'levothyroxine "gallus gallus"'
p256
aS'levothyroxine "ostreidae"'
p257
aS'levothyroxine "sander vitreus"'
p258
aS'levothyroxine "momordica charantia"'
p259
aS'levothyroxine "laminaria"'
p260
aS'levothyroxine "oryctolagus"'
p261
aS'levothyroxine "piper nigrum"'
p262
aS'levothyroxine "trigonella foenum-graecum"'
p263
aS'levothyroxine "coffea canephora"'
p264
aS'levothyroxine "phoca largha"'
p265
aS'levothyroxine "malus"'
p266
aS'levothyroxine "bertholletia excelsa"'
p267
aS'levothyroxine "papaver"'
p268
aS'levothyroxine "meleagris gallopavo"'
p269
aS'levothyroxine "epinephelus"'
p270
aS'levothyroxine "pisum sativum"'
p271
aS'levothyroxine "panax"'
p272
aS'levothyroxine "spirulina"'
p273
aS'levothyroxine "coffea"'
p274
aS'levothyroxine "sambucus nigra"'
p275
aS'levothyroxine "cetacea"'
p276
aS'levothyroxine "brassica juncea"'
p277
aS'levothyroxine "salvelinus namaycush"'
p278
aS'levothyroxine "phaseolus vulgaris"'
p279
aS'levothyroxine "triticum"'
p280
aS'levothyroxine "gadus morhua"'
p281
aS'levothyroxine "medicago sativa"'
p282
aS'levothyroxine "hippoglossus hippoglossus"'
p283
aS'levothyroxine "camellia sinensis"'
p284
aS'levothyroxine "ziziphus zizyphus"'
p285
aS'levothyroxine "bos taurus"'
p286
aS'levothyroxine "octopus vulgaris"'
p287
aS'levothyroxine "eugenia"'
p288
aS'levothyroxine "vaccinium"'
p289
aS'levothyroxine "carthamus tinctorius"'
p290
aS'levothyroxine "squalus acanthias"'
p291
aS'levothyroxine "scyphozoa"'
p292
aS'levothyroxine "bivalvia"'
p293
aS'levothyroxine "s. salar"'
p294
aS'levothyroxine "c. sinensis"'
p295
aS'levothyroxine "eugenia"'
p296
aS'levothyroxine "acipenser"'
p297
aS'levothyroxine "d. pectoralis"'
p298
aS'levothyroxine "r. \xc3\x97"'
p299
aS'levothyroxine "allium"'
p300
aS'levothyroxine "malus"'
p301
aS'levothyroxine "gossypium"'
p302
aS'levothyroxine "thunnus"'
p303
aS'levothyroxine "o. tshawytscha"'
p304
aS'levothyroxine "r. sativus"'
p305
aS'levothyroxine "b. rapa"'
p306
aS'levothyroxine "columba"'
p307
aS'levothyroxine "odocoileus"'
p308
aS'levothyroxine "f. sellowiana"'
p309
aS'levothyroxine "vitis"'
p310
aS'levothyroxine "b. rapa"'
p311
aS'levothyroxine "b. rapa"'
p312
aS'levothyroxine "sebastes"'
p313
aS'levothyroxine "r. sativus"'
p314
aS'levothyroxine "o. mykiss"'
p315
aS'levothyroxine "a. fimbria"'
p316
aS'levothyroxine "hippoglossus"'
p317
aS'levothyroxine "c. gigas"'
p318
aS'levothyroxine "gadiformes"'
p319
aS'levothyroxine "gadus"'
p320
aS'levothyroxine "cinnamomum"'
p321
aS'levothyroxine "anguilliformes"'
p322
aS'levothyroxine "cucurbita"'
p323
aS'levothyroxine "g. max"'
p324
aS'levothyroxine "sambucus"'
p325
aS'levothyroxine "vaccinium"'
p326
aS'levothyroxine "p. granatum"'
p327
aS'levothyroxine "b. rapa"'
p328
aS'levothyroxine "cichlidae"'
p329
aS'levothyroxine "brachyura"'
p330
aS'levothyroxine "ostreidae"'
p331
aS'levothyroxine "m. charantia"'
p332
aS'levothyroxine "laminaria"'
p333
aS'levothyroxine "oryctolagus"'
p334
aS'levothyroxine "m. kitt"'
p335
aS'levothyroxine "p. nigrum"'
p336
aS'levothyroxine "pectinidae"'
p337
aS'levothyroxine "papaver"'
p338
aS'levothyroxine "c. x"'
p339
aS'levothyroxine "epinephelus"'
p340
aS'levothyroxine "panax"'
p341
aS'levothyroxine "coffea"'
p342
aS'levothyroxine "cetacea"'
p343
aS'levothyroxine "triticum"'
p344
aS'levothyroxine "b. rapa"'
p345
aS'levothyroxine "c. sinensis"'
p346
aS'levothyroxine "s. acanthias"'
p347
aS'levothyroxine "anatidae"'
p348
aS'levothyroxine "r. sativus"'
p349
aS'levothyroxine "spirulina"'
p350
aS'levothyroxine "a. platyrhynchos"'
p351
aS'levothyroxine "r. sativus"'
p352
aS'levothyroxine "2(3)-benzoxazolinone"'
p353
aS'levothyroxine "formononetin"'
p354
aS'levothyroxine "3,5,6-trihydroxy-5-(hydroxymethyl)-2-methoxy-2-cyclohexen-1-one"'
p355
aS'levothyroxine "24,25-dihydroxyvitamin d3"'
p356
aS'levothyroxine "hex-trans-3-enyl 2-methyl-butyrate"'
p357
aS'levothyroxine "6beta,7beta-dihydroxykaurenoic acid"'
p358
aS'levothyroxine "3,4-dihydroxymandelic acid"'
p359
aS'levothyroxine "octanoic acid"'
p360
aS'levothyroxine "prostaglandin e-1"'
p361
aS'levothyroxine "kaempferol 3-feruloyl-triglucoside"'
p362
aS'levothyroxine "ginsenoside m7cd"'
p363
aS'levothyroxine "ficin d"'
p364
aS'levothyroxine "hexadecanedioic acid"'
p365
aS'levothyroxine "delta-6,7-octadecanoic acid"'
p366
aS'levothyroxine "aflatoxin"'
p367
aS'levothyroxine "luteolin 7-(6\'\'-apiosylglucoside)"'
p368
aS'levothyroxine "(23r)-acetoxytomatine"'
p369
aS'levothyroxine "2-(1-methylethyl)-4-propylthiazole"'
p370
aS'levothyroxine "ampicillin"'
p371
aS'levothyroxine "1,5,5,9-tetramethyl-bicyclo[4.3.0]-non-8-en-7-one"'
p372
aS'levothyroxine "oxalic acid"'
p373
aS'levothyroxine "benzyl isothiocyanate"'
p374
aS'levothyroxine "simmondsin"'
p375
aS'levothyroxine "(gamma-glutamyl-gamma-glutamyl)-s-methylcysteine"'
p376
aS'levothyroxine "lignans"'
p377
aS'levothyroxine "d-mannose"'
p378
aS'levothyroxine "1-penten-3-ol"'
p379
aS'levothyroxine "epigallocatechin 3-gallate"'
p380
aS'levothyroxine "lanosterol"'
p381
aS'levothyroxine "n-methoxyspirobrassinol methyl ether"'
p382
aS'levothyroxine "(r)-apiumetin glucoside"'
p383
aS'levothyroxine "quinolinate"'
p384
aS'levothyroxine "2-pyrrolidinone"'
p385
aS'levothyroxine "hex-cis-3-en-1-ol isobutyrate"'
p386
aS'levothyroxine "cysteinylglycine"'
p387
aS'levothyroxine "(-)-menthol"'
p388
aS'levothyroxine "l-phenylalanine"'
p389
aS'levothyroxine "catechin"'
p390
aS'levothyroxine "aloe emodin w-acetate"'
p391
aS'levothyroxine "lysolecithin"'
p392
aS'levothyroxine "decanoic acid"'
p393
aS'levothyroxine "malvin"'
p394
aS'levothyroxine "l-ascorbic acid"'
p395
aS'levothyroxine "quercetin 3-(2g-rhamnosylgentiobioside)"'
p396
aS'levothyroxine "capsiate"'
p397
aS'levothyroxine "kaempferol 3-sophoroside-rhamnoside"'
p398
aS'levothyroxine "proanthocyanidins"'
p399
aS'levothyroxine "l-(-)-phenylalanine"'
p400
aS'levothyroxine "alpha-carotene"'
p401
aS'levothyroxine "d-myo-inositol (1,2,5,6) tetrakisphosphate"'
p402
aS'levothyroxine "ethyl methyl amine"'
p403
aS'levothyroxine "ampeloside bs1"'
p404
aS'levothyroxine "4-hydroxy-3-prenylbenzoic acid glucoside"'
p405
aS'levothyroxine "simmondsin 2\'-ferulate"'
p406
aS'levothyroxine "porphobilinogen"'
p407
aS'levothyroxine "3,4\',7-trihydroxyflavone"'
p408
aS'levothyroxine "2-methylpropanoic acid"'
p409
aS'levothyroxine "2,10-bisaboladiene-1,4-diol"'
p410
aS'levothyroxine "kaempferol 3-(2g-rhamnosylgentiobioside)"'
p411
aS'levothyroxine "5-ethyl-4-methyl-2-(1-methylethyl)thiazole"'
p412
aS'levothyroxine "ginsenoside m6-bc"'
p413
aS'levothyroxine "4alpha,5alpha-epoxy-11-eudesmen-3a-ol"'
p414
aS'levothyroxine "(2e)-piperamide-c5:1"'
p415
aS'levothyroxine "trimethylamine"'
p416
aS'levothyroxine "hex-trans-2-enyl hexanoate"'
p417
aS'levothyroxine "2-methyl-1,5-dinitro-3-nitrosobenzene"'
p418
aS'levothyroxine "epigallocatechin 3,4\'-digallate"'
p419
aS'levothyroxine "5-hydroxyindole-3-acetic acid"'
p420
aS'levothyroxine "hydrogen peroxide (h2o2)"'
p421
aS'levothyroxine "glucosides"'
p422
aS'levothyroxine "nopol"'
p423
aS'levothyroxine "3-methoxy-4-hydroxyphenylglycol"'
p424
aS'levothyroxine "5-\xce\xb2-pregnan-3,20 dione"'
p425
aS'levothyroxine "epigallocatechin 3-(3-methylgallate)"'
p426
aS'levothyroxine "1-chloro-2,4-dinitrobenzene"'
p427
aS'levothyroxine "cholestanol"'
p428
aS'levothyroxine "psoralen"'
p429
aS'levothyroxine "kaempferol 3-o-alpha-l-rhamnoside-beta-d-glucosyl"'
p430
aS'levothyroxine "l-lactic acid"'
p431
aS'levothyroxine "phosphocholine"'
p432
aS'levothyroxine "cutin"'
p433
aS'levothyroxine "decanoate"'
p434
aS'levothyroxine "disulfides"'
p435
aS'levothyroxine "phosphoric acid"'
p436
aS'levothyroxine "isothiocyanates"'
p437
aS'levothyroxine "auxin b"'
p438
aS'levothyroxine "limonene"'
p439
aS'levothyroxine "iron oxide"'
p440
aS'levothyroxine "phosphoglucomutase"'
p441
aS'levothyroxine "molybdenum"'
p442
aS'levothyroxine "p-coumaric acid"'
p443
aS'levothyroxine "2,4-dibromophenol"'
p444
aS'levothyroxine "chlorophyll"'
p445
aS'levothyroxine "(+)-secoisolariciresinol"'
p446
aS'levothyroxine "quercetin 3-(6\'\'\'\'-caffeylsophorotrioside)"'
p447
aS'levothyroxine "bupropion"'
p448
aS'levothyroxine "dipentene o-diphenollactone"'
p449
aS'levothyroxine "quercetin 3-(2-galloylglucoside)"'
p450
aS'levothyroxine "d-myo-inositol (2,3,4) trisphosphate"'
p451
aS'levothyroxine "pentoses"'
p452
aS'levothyroxine "mn2+"'
p453
aS'levothyroxine "glucoraphanin"'
p454
aS'levothyroxine "quercetin 3-(2-glucosylrhamnoside)"'
p455
aS'levothyroxine "l-iditol"'
p456
aS'levothyroxine "naringin 6\'\'-rhamnoside"'
p457
aS'levothyroxine "pentane"'
p458
aS'levothyroxine "apigenin 5-[4\'\'-rhamnosyl-6\'\'-acetylglucoside]"'
p459
aS'levothyroxine "2-ethylhexanoic acid"'
p460
aS'levothyroxine "leukotriene-c4"'
p461
aS'levothyroxine "curcumin"'
p462
aS'levothyroxine "bisulfite"'
p463
aS'levothyroxine "laurate"'
p464
aS'levothyroxine "chloroform"'
p465
aS'levothyroxine "hex-cis-3-en-1-ol hexanoate"'
p466
aS'levothyroxine "11b-hydroxygibberellin a7"'
p467
aS'levothyroxine "kaempferol 3-o-rhamnodiglucoside"'
p468
aS'levothyroxine "2(or 3)-methylindole"'
p469
aS'levothyroxine "n-butanol"'
p470
aS'levothyroxine "sulforaphane"'
p471
aS'levothyroxine "pterostilbene"'
p472
aS'levothyroxine "(3beta,5alpha)-3-hydroxypregn-16-en-20-one"'
p473
aS'levothyroxine "vanillyl caproylamide"'
p474
aS'levothyroxine "soja hispidasaponin c"'
p475
aS'levothyroxine "2,3-dihydroxy-2,4-cyclopentadien-1-one"'
p476
aS'levothyroxine "pyrroline"'
p477
aS'levothyroxine "isodulcitol"'
p478
aS'levothyroxine "daidzin"'
p479
aS'levothyroxine "naringin"'
p480
aS'levothyroxine "kaempferol 3-o-glucosyl-rhamnosyl-galactoside"'
p481
aS'levothyroxine "styrene"'
p482
aS'levothyroxine "cyanocobalamin"'
p483
aS'levothyroxine "synergistic antifungal protein"'
p484
aS'levothyroxine "luteolin 7-disulfoglucoside"'
p485
aS'levothyroxine "protoporphyrin ix"'
p486
aS'levothyroxine "formate"'
p487
aS'levothyroxine "osthol"'
p488
aS'levothyroxine "glutaric acid"'
p489
aS'levothyroxine "dihydrolipoamide"'
p490
aS'levothyroxine "cincassiol d4"'
p491
aS'levothyroxine "dcmp"'
p492
aS'levothyroxine "s-methyl methanesulfinothioate"'
p493
aS'levothyroxine "2-phenylethylamine"'
p494
aS'levothyroxine "crassostrea secocarotenoid"'
p495
aS'levothyroxine "luteolin 7-o-(2-apiosyl-6-malonyl)-glucoside"'
p496
aS'levothyroxine "kaempferol 3-glucosylxyloside"'
p497
aS'levothyroxine "n-methylaniline"'
p498
aS'levothyroxine "fe3+"'
p499
aS'levothyroxine "hebevinoside xiv"'
p500
aS'levothyroxine "lormetazepam"'
p501
aS'levothyroxine "allyl alcohol"'
p502
aS'levothyroxine "zn2+"'
p503
aS'levothyroxine "anthranilate"'
p504
aS'levothyroxine "gallocatechin"'
p505
aS'levothyroxine "2-aminoethanol"'
p506
aS'levothyroxine "luteolin"'
p507
aS'levothyroxine "(2e,4e,6z)-2,4,6-decatrienoic acid dehydropiperidide"'
p508
aS'levothyroxine "epigallocatechin 3-(4-methylgallate)"'
p509
aS'levothyroxine "phosvitin"'
p510
aS'levothyroxine "myo-inositol"'
p511
aS'levothyroxine "p-menthan-trans-2,5-diol"'
p512
aS'levothyroxine "progoitrin"'
p513
aS'levothyroxine "d-glucaric acid"'
p514
aS'levothyroxine "orotate"'
p515
aS'levothyroxine "pyrazines"'
p516
aS'levothyroxine "2-cis,4-trans-xanthoxin"'
p517
aS'levothyroxine "uroporphyrinogen-iii"'
p518
aS'levothyroxine "3-methoxy-4,5-methylenedioxypropylbenzene"'
p519
aS'levothyroxine "4-hydroxybenzoic acid"'
p520
aS'levothyroxine "platinum"'
p521
aS'levothyroxine "uronic acid"'
p522
aS'levothyroxine "harmine"'
p523
aS'levothyroxine "thromboxane a2"'
p524
aS'levothyroxine "trans-p-menth-2-ene-1,4-diol"'
p525
aS'levothyroxine "hydroxymethylbilane"'
p526
aS'levothyroxine "1,5-bisdiphosphoinositol-1d-myo-inositol (2,3,4,6)tetrakisphosphate"'
p527
aS'levothyroxine "diethylstilbesterol"'
p528
aS'levothyroxine "7-epi-12-hydroxyjasmonic acid glucoside"'
p529
aS'levothyroxine "ferulic acid"'
p530
aS'levothyroxine "shikimate"'
p531
aS'levothyroxine "l-carnosine"'
p532
aS'levothyroxine "kaempferol 3-gluco-xyloside"'
p533
aS'levothyroxine "17alpha-ethynylestradiol"'
p534
aS'levothyroxine "opc"'
p535
aS'levothyroxine "l-selenomethionine"'
p536
aS'levothyroxine "6,7-dimethyoxy coumarin"'
p537
aS'levothyroxine "hypoxanthine"'
p538
aS'levothyroxine "silicic acid"'
p539
aS'levothyroxine "hydrogen sulfite"'
p540
aS'levothyroxine "2-propanol"'
p541
aS'levothyroxine "arsenobetaine"'
p542
aS'levothyroxine "s-methyl 2-propene-1-sulfinothioate"'
p543
aS'levothyroxine "hesperidin"'
p544
aS'levothyroxine "rhein"'
p545
aS'levothyroxine "gossypol"'
p546
aS'levothyroxine "benzylamine"'
p547
aS'levothyroxine "nobiletin"'
p548
aS'levothyroxine "6-epi-7-isocucurbic acid glucoside"'
p549
aS'levothyroxine "allantoin"'
p550
aS'levothyroxine "xylitol"'
p551
aS'levothyroxine "phosphoadenosine-5\'-phosphosulfate"'
p552
aS'levothyroxine "hexadecane"'
p553
aS'levothyroxine "camalexin"'
p554
aS'levothyroxine "acetylcholine(1+)"'
p555
aS'levothyroxine "uricase"'
p556
aS'levothyroxine "gibberellin a34-catabolite"'
p557
aS'levothyroxine "propanoic acid"'
p558
aS'levothyroxine "stearoyl-coa"'
p559
aS'levothyroxine "lignin"'
p560
aS'levothyroxine "homoserine"'
p561
aS'levothyroxine "8-c-ascorbylepigallocatechin 3-gallate"'
p562
aS'levothyroxine "chitinase"'
p563
aS'levothyroxine "n-heptane"'
p564
aS'levothyroxine "wax"'
p565
aS'levothyroxine "l-lysine"'
p566
aS'levothyroxine "apigenin 5-[4\'\'-rhamnosylglucoside]"'
p567
aS'levothyroxine "titanium"'
p568
aS'levothyroxine "quercetin 3,3\'-diglucoside"'
p569
aS'levothyroxine "glycolipids"'
p570
aS'levothyroxine "peroxiredoxin-(s-hydroxy-s-oxocysteine)"'
p571
aS'levothyroxine "methyl stearate"'
p572
aS'levothyroxine "dehydroascorbic acid"'
p573
aS'levothyroxine "3,6-dimethyl-7-oxo-octanoic acid ethyl ester"'
p574
aS'levothyroxine "fisetin"'
p575
aS'levothyroxine "oleuropein"'
p576
aS'levothyroxine "quercetin 3-(6\'\'-caffeoylsophorotrioside)"'
p577
aS'levothyroxine "glucobrassicin"'
p578
aS'levothyroxine "beta-phenylethanol 6-beta-d-arabinofuranosyl-beta-d-glucopyranoside"'
p579
aS'levothyroxine "zein"'
p580
aS'levothyroxine "biochanin-a"'
p581
aS'levothyroxine "uranium"'
p582
aS'levothyroxine "ochratoxin a"'
p583
aS'levothyroxine "alpha-alanine"'
p584
aS'levothyroxine "biochanin a"'
p585
aS'levothyroxine "mannan"'
p586
aS'levothyroxine "dodecanoic acid"'
p587
aS'levothyroxine "theobromine"'
p588
aS'levothyroxine "cellobiose"'
p589
aS'levothyroxine "methyl methanethiosulfonate"'
p590
aS'levothyroxine "methacrylic acid"'
p591
aS'levothyroxine "6-methoxy-2(3)-benzoxazolinone"'
p592
aS'levothyroxine "benzyl alcohol 6-o-l-arabinofuranosyl-beta-d-glucopyranoside"'
p593
aS'levothyroxine "piperine"'
p594
aS'levothyroxine "palmitoleic acid"'
p595
aS'levothyroxine "gamma-l-glutamyl-s-(2-carboxy-beta-methyl-ethyl)-cysteinyl-glycine"'
p596
aS'levothyroxine "7-dehydrocholesterol"'
p597
aS'levothyroxine "capsaicin"'
p598
aS'levothyroxine "cis-2,5-diethyl-tetrahydrofuran"'
p599
aS'levothyroxine "4-hydroxyferuloxyl methane"'
p600
aS'levothyroxine "(9e)-valenciaxanthin"'
p601
aS'levothyroxine "kaempferol 3-(2g-apiosylrobinobioside)"'
p602
aS'levothyroxine "4-(3-hydroxy-7-phenyl-6-heptenyl)-1,2-benzenediol"'
p603
aS'levothyroxine "scopoletin"'
p604
aS'levothyroxine "benzophenone"'
p605
aS'levothyroxine "1-phenyl-2,4-pentadiyn-1-one"'
p606
aS'levothyroxine "quercetin 3-(sulfatoglucoside)"'
p607
aS'levothyroxine "cmp"'
p608
aS'levothyroxine "formononetin 7-(6\'\'-methylmalonylglucoside)"'
p609
aS'levothyroxine "gliadin"'
p610
aS'levothyroxine "sapogenins"'
p611
aS'levothyroxine "cytidine 5\'-triphosphate"'
p612
aS'levothyroxine "d-galactose"'
p613
aS'levothyroxine "coproporphyrin iii"'
p614
aS'levothyroxine "toluidine"'
p615
aS'levothyroxine "7\',8\'-dihydro-8\'-hydroxycitraniaxanthin"'
p616
aS'levothyroxine "1-propanol"'
p617
aS'levothyroxine "ubiquinone 100"'
p618
aS'levothyroxine "isopropyl benzoate"'
p619
aS'levothyroxine "pyrazine"'
p620
aS'levothyroxine "cyclo(glycylleucylvalylleucylprolylseryl)"'
p621
aS'levothyroxine "dihydromaleimide beta-d-glucoside"'
p622
aS'levothyroxine "s-methyl hexanethioate"'
p623
aS'levothyroxine "kaempferol 3-rhamno-glucoside"'
p624
aS'levothyroxine "kaempferol"'
p625
aS'levothyroxine "3,4-dihydro-2,2,5,7,8-pentamethyl-2h-1-benzopyran-6-ol"'
p626
aS'levothyroxine "sulfides"'
p627
aS'levothyroxine "canthaxanthin"'
p628
aS'levothyroxine "6-(gamma,gamma-dimethylallyl-amino)-purine"'
p629
aS'levothyroxine "beta-methylthiopropionic acid ethyl ester"'
p630
aS'levothyroxine "l-homocysteine"'
p631
aS'levothyroxine "cyclo(glycylglycylleucylleucylleucylprolylprolylphenylalanyl)"'
p632
aS'levothyroxine "sesquiterpenes"'
p633
aS'levothyroxine "l-fucose"'
p634
aS'levothyroxine "acetamide"'
p635
aS'levothyroxine "kynurenine"'
p636
aS'levothyroxine "acetic acid hex-cis-3-enyl ester"'
p637
aS'levothyroxine "pentylamine"'
p638
aS'levothyroxine "15beta,19-ent-dihydroxy-7-trachylobanone"'
p639
aS'levothyroxine "aflatoxin b1"'
p640
aS'levothyroxine "quercetin 3-(3r-glucosylrutinoside)"'
p641
aS'levothyroxine "3,4-didehydroretinol"'
p642
aS'levothyroxine "propene"'
p643
aS'levothyroxine "pyrrolidine"'
p644
aS'levothyroxine "pyrrole"'
p645
aS'levothyroxine "beta-sitosterol"'
p646
aS'levothyroxine "acrylic acid"'
p647
aS'levothyroxine "hex-cis-3-en-1-ol beta-d-glucoside"'
p648
aS'levothyroxine "s-(2-aminoethyl)-l-cysteine"'
p649
aS'levothyroxine "octanoate"'
p650
aS'levothyroxine "saturated fatty acids"'
p651
aS'levothyroxine "cerebroside"'
p652
aS'levothyroxine "methyl butyrate"'
p653
aS'levothyroxine "prostaglandin e-2"'
p654
aS'levothyroxine "benzoic acid"'
p655
aS'levothyroxine "flavones"'
p656
aS'levothyroxine "quercetin 3-(4-glucosylrhamnoside)"'
p657
aS'levothyroxine "diethylamine"'
p658
aS'levothyroxine "l-serine"'
p659
aS'levothyroxine "3-methyl-2-oxobutanoate"'
p660
aS'levothyroxine "kaempferol 3-(2\'\'\'-caffeoylsophoroside) 7-cellobioside"'
p661
aS'levothyroxine "n-acetylgalactosamine"'
p662
aS'levothyroxine "petunin"'
p663
aS'levothyroxine "anthracene"'
p664
aS'levothyroxine "benzothiazole"'
p665
aS'levothyroxine "gladiatoside b3"'
p666
aS'levothyroxine "riboflavin cyclic-4\',5\'-phosphate"'
p667
aS'levothyroxine "potassium citrate"'
p668
aS'levothyroxine "kaempferol 7-arabinoside"'
p669
aS'levothyroxine "pyrrolidine carboxylic acid"'
p670
aS'levothyroxine "3-mercaptopyruvate"'
p671
aS'levothyroxine "cholate"'
p672
aS'levothyroxine "anacardic acid"'
p673
aS'levothyroxine "xi-5-isopropyl-2(5h)-furanone"'
p674
aS'levothyroxine "\xce\xb2-alanine"'
p675
aS'levothyroxine "carbamate"'
p676
aS'levothyroxine "hexane"'
p677
aS'levothyroxine "campesterol"'
p678
aS'levothyroxine "methyl 7-epi-12-hydroxyjasmonate glucoside"'
p679
aS'levothyroxine "tocopherols"'
p680
aS'levothyroxine "l-cystathionine"'
p681
aS'levothyroxine "propyl propionate"'
p682
aS'levothyroxine "ethylparaben"'
p683
aS'levothyroxine "elaidic acid"'
p684
aS'levothyroxine "3alpha,15-dihydroxymarasmene"'
p685
aS'levothyroxine "3-methoxy-4,5-methylenedioxycinnamaldehyde"'
p686
aS'levothyroxine "cyclo(alanylalanylglycylleucylprolyltryptophylleucylisoleucyl)"'
p687
aS'levothyroxine "deoxynivalenol"'
p688
aS'levothyroxine "carbamoylphosphate"'
p689
aS'levothyroxine "shikimic acid"'
p690
aS'levothyroxine "hydroquinone"'
p691
aS'levothyroxine "dimethylamine"'
p692
aS'levothyroxine "butein"'
p693
aS'levothyroxine "benzoxazole"'
p694
aS'levothyroxine "l-glutamine"'
p695
aS'levothyroxine "hydrocyanic acid"'
p696
aS'levothyroxine "hebevinoside xiii"'
p697
aS'levothyroxine "alkanes"'
p698
aS'levothyroxine "acetovanillone"'
p699
aS'levothyroxine "phosphoribosyl formamidocarboxamide"'
p700
aS'levothyroxine "dttp"'
p701
aS'levothyroxine "malonyl coa"'
p702
aS'levothyroxine "trigonelline"'
p703
aS'levothyroxine "campestanol"'
p704
aS'levothyroxine "s-methyl 4-methylpentanethioate"'
p705
aS'levothyroxine "ent-epigallocatechin 3-gallate"'
p706
aS'levothyroxine "rhenium"'
p707
aS'levothyroxine "gallic acid"'
p708
aS'levothyroxine "5-octyl-cyclopenta-1,3-dione"'
p709
aS'levothyroxine "amino adipic acid"'
p710
aS'levothyroxine "octane"'
p711
aS'levothyroxine "praseodymium"'
p712
aS'levothyroxine "l-cysteine"'
p713
aS'levothyroxine "molybdate"'
p714
aS'levothyroxine "lysophosphatidylethanolamine"'
p715
aS'levothyroxine "pentanoic acid"'
p716
aS'levothyroxine "(3s)-3-hydroxycyclocitral"'
p717
aS'levothyroxine "7\',8\'-dihydro-8\'-hydroxyreticulataxanthin"'
p718
aS'levothyroxine "quercetin 3-(6\'\'-sinapoylsophorotrioside)"'
p719
aS'levothyroxine "kaempferol 3-(3r-glucosylrutinoside)"'
p720
aS'levothyroxine "l-pipecolic acid"'
p721
aS'levothyroxine "5-hydroxyisourate"'
p722
aS'levothyroxine "kaempferol 3-rhamnofuranoside"'
p723
aS'levothyroxine "malonyl-coa"'
p724
aS'levothyroxine "arabinose"'
p725
aS'levothyroxine "l-alanine"'
p726
aS'levothyroxine "catechols"'
p727
aS'levothyroxine "lycopene"'
p728
aS'levothyroxine "3,5-bisdiphosphoinositol-1d-myo-inositol (2,3,4,6)tetrakisphosphate"'
p729
aS'levothyroxine "hydrogen sulfide"'
p730
aS'levothyroxine "hesperidin 7-o-alpha-l-rhamno-glucoside"'
p731
aS'levothyroxine "l-valine"'
p732
aS'levothyroxine "dctp"'
p733
aS'levothyroxine "cyclohexanone"'
p734
aS'levothyroxine "butyl acetate"'
p735
aS'levothyroxine "methionine sulfoxide"'
p736
aS'levothyroxine "beta-conglycinin"'
p737
aS'levothyroxine "emodin"'
p738
aS'levothyroxine "epigallocatechin"'
p739
aS'levothyroxine "papain"'
p740
aS'levothyroxine "biochanin a 7-(6-methylmalonylglucoside)"'
p741
aS'levothyroxine "luteolin 7-malonylglucoside"'
p742
aS'levothyroxine "pipecolic acid"'
p743
aS'levothyroxine "peroxiredoxin-(s-hydroxycysteine)"'
p744
aS'levothyroxine "lathosterol"'
p745
aS'levothyroxine "trans-2-decadienic acid ethyl ester"'
p746
aS'levothyroxine "2-tetradecanone"'
p747
aS'levothyroxine "protein r"'
p748
aS'levothyroxine "erucic acid"'
p749
aS'levothyroxine "d-xylulose"'
p750
aS'levothyroxine "deoxycytidine"'
p751
aS'levothyroxine "quercetin 3-(6\'\'\'\'-p-coumarylsophorotrioside)"'
p752
aS'levothyroxine "ficin"'
p753
aS'levothyroxine "lipoamide"'
p754
aS'levothyroxine "wheat gluten"'
p755
aS'levothyroxine "phytosterol"'
p756
aS'levothyroxine "kaempferol 3-(6-acetylgalactoside)"'
p757
aS'levothyroxine "quercetin 3-(6\'\'\'-rhamnosylgentiobioside)"'
p758
aS'levothyroxine "sodium nitrite"'
p759
aS'levothyroxine "4-hydroxyproline"'
p760
aS'levothyroxine "6\'-hmg sdg"'
p761
aS'levothyroxine "hydroxylamine"'
p762
aS'levothyroxine "apigenin 7-o-beta-d-galactomannoside"'
p763
aS'levothyroxine "epicatechin 3-(3-methylgallate)"'
p764
aS'levothyroxine "pantothenic acid"'
p765
aS'levothyroxine "apigenin 3,6-di-c-glucoside"'
p766
aS'levothyroxine "kaempferol 3-feruloyltriglucoside"'
p767
aS'levothyroxine "hydroxyacetic acid"'
p768
aS'levothyroxine "4,6-decadiyn-1-ol isovalerate"'
p769
aS'levothyroxine "5-hydroxytryptophol"'
p770
aS'levothyroxine "2-oxoglutarate"'
p771
aS'levothyroxine "deoxyuridine triphosphate"'
p772
aS'levothyroxine "phenylhydrazine"'
p773
aS'levothyroxine "s-methyl-5-thio-\xce\xb1-d-ribose 1-phosphate"'
p774
aS'levothyroxine "apigenin 7-rhamnosylglucoside"'
p775
aS'levothyroxine "12-hete"'
p776
aS'levothyroxine "carbon disulfide"'
p777
aS'levothyroxine "butyl phenylacetate"'
p778
aS'levothyroxine "dtmp"'
p779
aS'levothyroxine "phytic acid"'
p780
aS'levothyroxine "glyceric acid"'
p781
aS'levothyroxine "2\'-deoxyguanosine"'
p782
aS'levothyroxine "pyridoxamine"'
p783
aS'levothyroxine "samarium"'
p784
aS'levothyroxine "calcium oxalate"'
p785
aS'levothyroxine "formononetin 7-(2-p-hydroxybenzoylglucoside)"'
p786
aS'levothyroxine "2-nonenal"'
p787
aS'levothyroxine "4-hydroxy-2,6-dimethyl-7-octen-3-one"'
p788
aS'levothyroxine "\xce\xb3-tocopherol"'
p789
aS'levothyroxine "stigmasterol"'
p790
aS'levothyroxine "3-methyladenine"'
p791
aS'levothyroxine "hesperetin"'
p792
aS'levothyroxine "genistin"'
p793
aS'levothyroxine "sufloquinovosyl diglyceride"'
p794
aS'levothyroxine "d-myo-inositol (1,3,4,6)-tetrakisphosphate"'
p795
aS'levothyroxine "d-xylose"'
p796
aS'levothyroxine "3b,18b-3-methoxy-11-oxo-12-oleanen-30-oic acid"'
p797
aS'levothyroxine "arctic acid"'
p798
aS'levothyroxine "butter acids"'
p799
aS'levothyroxine "tungsten"'
p800
aS'levothyroxine "kaempferol 3-o-beta-d-xylofuranoside"'
p801
aS'levothyroxine "hg2+"'
p802
aS'levothyroxine "ornithokinin"'
p803
aS'levothyroxine "l-2-aminoethyl seryl phosphate"'
p804
aS'levothyroxine "fadh"'
p805
aS'levothyroxine "octopamine"'
p806
aS'levothyroxine "(s)-1\',2\'-epoxy-1\',2\'-dihydro-b,y-carotene"'
p807
aS'levothyroxine "desmosterol"'
p808
aS'levothyroxine "phenoxyacetic acid"'
p809
aS'levothyroxine "lactyltrimethylammonium betaine"'
p810
aS'levothyroxine "coproporphyrinogen iii"'
p811
aS'levothyroxine "4-methyl-5-(2-phosphonooxyethyl)thiazole"'
p812
aS'levothyroxine "kaempferol 3-o-xylosyl-rutinoside"'
p813
aS'levothyroxine "l-threonine"'
p814
aS'levothyroxine "farnesyl pyrophosphate"'
p815
aS'levothyroxine "epicatechin 3-(4-methylgallate)"'
p816
aS'levothyroxine "quercetin 3-(2gal-apiosylrobinobioside)"'
p817
aS'levothyroxine "citrinin"'
p818
aS'levothyroxine "maltose"'
p819
aS'levothyroxine "cis-2,8-menthadien-2-ol"'
p820
aS'levothyroxine "benzyl alcohol"'
p821
aS'levothyroxine "kaempferol 3-(2\'\'\'-sinapoylsophoroside) 7-cellobioside"'
p822
aS'levothyroxine "4-hydroxyphenylpyruvate"'
p823
aS'levothyroxine "4-aminobenzoic acid"'
p824
aS'levothyroxine "apigenin 7-di-o-xyloside"'
p825
aS'levothyroxine "s-methyl 1-propenesulfinothioate"'
p826
aS'levothyroxine "propylene glycol"'
p827
aS'levothyroxine "isoprene"'
p828
aS'levothyroxine "nervonic acid"'
p829
aS'levothyroxine "quercetin 3-(2g-glucosylgentiobioside)"'
p830
aS'levothyroxine "debenzoylzucchini factor b"'
p831
aS'levothyroxine "kaempferol 3-(2g-p-coumaroylrutinoside)"'
p832
aS'levothyroxine "betulinic acid"'
p833
aS'levothyroxine "kaempferol 3-(2\\"'
p834
aS'levothyroxine "isochorismate"'
p835
aS'levothyroxine "myricetin"'
p836
aS'levothyroxine "cyclohexanones"'
p837
aS'levothyroxine "acrolein"'
p838
aS'levothyroxine "l-ornithine"'
p839
aS'levothyroxine "kb 2"'
p840
aS'levothyroxine "melilotussaponin o1"'
p841
aS'levothyroxine "ergothioneine"'
p842
aS'levothyroxine "yttrium"'
p843
aS'levothyroxine "2-hydroxy-3,5,5-trimethylcyclohexa-1,4-dion-2-ene"'
p844
aS'levothyroxine "quercetin 3-(feruloylsophorotrioside)"'
p845
aS'levothyroxine "d-myo-inositol (1,2,3,6) tetrakisphosphate"'
p846
aS'levothyroxine "phthalic acid"'
p847
aS'levothyroxine "apigenin"'
p848
aS'levothyroxine "(e)-10,11-dihydro-alpha-atlantone"'
p849
aS'levothyroxine "alpha-linolenic acid"'
p850
aS'levothyroxine "2\'\'-o-alpha-rhamnosyl-6-c-(6-deoxo-xylo-hexos-4-ulosyl)-apigenin"'
p851
aS'levothyroxine "campesterol 6\'-hexadecanoylglucoside"'
p852
aS'levothyroxine "l-aspartate"'
p853
aS'levothyroxine "kaempferol 3-o-alpha-l-galactoside"'
p854
aS'levothyroxine "apigenin 7-digalacturonoside"'
p855
aS'levothyroxine "formic acid"'
p856
aS'levothyroxine "apigenin 7-arabinoside"'
p857
aS'levothyroxine "dextrin"'
p858
aS'levothyroxine "hex-cis-3-en-1-ol isovalerate"'
p859
aS'levothyroxine "ginkgolide c"'
p860
aS'levothyroxine "ginkgolide b"'
p861
aS'levothyroxine "ginkgolide a"'
p862
aS'levothyroxine "2-phosphoglycerate"'
p863
aS'levothyroxine "dioctyl phthalate"'
p864
aS'levothyroxine "dicoumarol"'
p865
aS'levothyroxine "l-proline"'
p866
aS'levothyroxine "cu2+"'
p867
aS'levothyroxine "hexadecanal"'
p868
aS'levothyroxine "gibberellin a51-catabolite"'
p869
aS'levothyroxine "hippuric acid"'
p870
aS'levothyroxine "5-hydroxy-l-tryptophan"'
p871
aS'levothyroxine "indole-3-acetic acid cellulosiglucan"'
p872
aS'levothyroxine "d-fructose"'
p873
aS'levothyroxine "dudp"'
p874
aS'levothyroxine "luteolin 7-(2\'\'-apiosylglucoside)"'
p875
aS'levothyroxine "l-aspartic acid"'
p876
aS'levothyroxine "mab 4"'
p877
aS'levothyroxine "mfa"'
p878
aS'levothyroxine "udp-glucose"'
p879
aS'levothyroxine "adenosine 3\',5\'-diphosphate"'
p880
aS'levothyroxine "d-myo-inositol (1,2) bisphosphate"'
p881
aS'levothyroxine "graecunin h-4"'
p882
aS'levothyroxine "2\'\'-methoxy-(s)-oleuropein"'
p883
aS'levothyroxine "selenate"'
p884
aS'levothyroxine "phloroglucinol"'
p885
aS'levothyroxine "okadaic acid"'
p886
aS'levothyroxine "agavasaponin c\'"'
p887
aS'levothyroxine "quercetin 3-(6\'\'\'\'-ferulylsophorotrioside)"'
p888
aS'levothyroxine "potassium nitrate (kno3)"'
p889
aS'levothyroxine "bentonite"'
p890
aS'levothyroxine "all-trans-retinal"'
p891
aS'levothyroxine "dimethyl sulfide"'
p892
aS'levothyroxine "betaine"'
p893
aS'levothyroxine "thymine"'
p894
aS'levothyroxine "4-hydroxybenzaldehyde"'
p895
aS'levothyroxine "d-myo-inositol (3,4,6)-trisphosphate"'
p896
aS'levothyroxine "raffinose"'
p897
aS'levothyroxine "(6e)-piperamide-c7:1"'
p898
aS'levothyroxine "gibberellins"'
p899
aS'levothyroxine "d-myo-inositol (1,2,3,4) tetrakisphosphate"'
p900
aS'levothyroxine "toluene"'
p901
aS'levothyroxine "4-hydroxyproline betaine"'
p902
aS'levothyroxine "xanthohumol"'
p903
aS'levothyroxine "fe2+"'
p904
aS'levothyroxine "(+)-6-hydroxy-2,6-dimethyl-7-octen-4-one"'
p905
aS'levothyroxine "3-methoxy-4,5-methylenedioxybenzoic acid"'
p906
aS'levothyroxine "cyclo(aspartylleucylthreonylvalyltyrosylphenylalanylglycyl)"'
p907
aS'levothyroxine "ethyl acetate"'
p908
aS'levothyroxine "7-(4-hydroxyphenyl)-1-phenyl-4-hepten-3-one"'
p909
aS'levothyroxine "hordein b"'
p910
aS'levothyroxine "anthranilic acid"'
p911
aS'levothyroxine "2-amino-3,4-dihydroxypentanedioic acid"'
p912
aS'levothyroxine "haem"'
p913
aS'levothyroxine "(s)-3-methylthiohexyl hexanoate"'
p914
aS'levothyroxine "parthenolide"'
p915
aS'levothyroxine "pterin"'
p916
aS'levothyroxine "gamma-l-glutamyl-s-(2-carboxy-1-propyl)cysteinylglycine"'
p917
aS'levothyroxine "gamma-sitosterol"'
p918
aS'levothyroxine "piceatannol 4\'-galloylglucoside"'
p919
aS'levothyroxine "d-glyceraldehyde"'
p920
aS'levothyroxine "pyridoxal 5\'-phosphate"'
p921
aS'levothyroxine "2-(2-carboxy-4-methylthiazol-5-yl)ethyl phosphate"'
p922
aS'levothyroxine "linoleoyl-coa"'
p923
aS'levothyroxine "8-(3,6-dimethyl-2-heptenyl)-naringenin"'
p924
aS'levothyroxine "apigenin 8-c-rhamnosyl-glucoside"'
p925
aS'levothyroxine "prostaglandin f-2-alpha"'
p926
aS'levothyroxine "isosafrole"'
p927
aS'levothyroxine "citicoline"'
p928
aS'levothyroxine "l-kynurenine"'
p929
aS'levothyroxine "calcium lactate"'
p930
aS'levothyroxine "oleanolic acid"'
p931
aS'levothyroxine "retinol palmitate"'
p932
aS'levothyroxine "diacetyl"'
p933
aS'levothyroxine "ginsenoside rb1"'
p934
aS'levothyroxine "gamma-mangostin"'
p935
aS'levothyroxine "chrysarone methyl ether"'
p936
aS'levothyroxine "carbadox"'
p937
aS'levothyroxine "kaempferol 3-(2g-glucosylgentiobioside)"'
p938
aS'levothyroxine "l-glutamic acid"'
p939
aS'levothyroxine "squalene"'
p940
aS'levothyroxine "uridine diphosphate glucuronic acid"'
p941
aS'levothyroxine "galactosamine"'
p942
aS'levothyroxine "methoxyl"'
p943
aS'levothyroxine "d-mannitol"'
p944
aS'levothyroxine "n-acetylserotonin"'
p945
aS'levothyroxine "d-lactic acid"'
p946
aS'levothyroxine "eicosapentaenoic acid"'
p947
aS'levothyroxine "3-hydroxy-1,10-bisaboladien-9-one"'
p948
aS'levothyroxine "aldehydes"'
p949
aS'levothyroxine "prephenate"'
p950
aS'levothyroxine "leukotriene b4"'
p951
aS'levothyroxine "5-deoxykievitone hydrate"'
p952
aS'levothyroxine "kaempferol 3-coumaroyl-triglucoside"'
p953
aS'levothyroxine "maleic acid"'
p954
aS'levothyroxine "luteolin 7-rhamnosylglucoside"'
p955
aS'levothyroxine "gitogenin"'
p956
aS'levothyroxine "cafestol"'
p957
aS'levothyroxine "d-myo-inositol (3,4)-bisphosphate"'
p958
aS'levothyroxine "tellurium"'
p959
aS'levothyroxine "kaempferol 3-o-rhamnosyl-rhamnosyl-glucoside"'
p960
aS'levothyroxine "stearate"'
p961
aS'levothyroxine "hydroxamic acid"'
p962
aS'levothyroxine "acetyldeoxynivalenol"'
p963
aS'levothyroxine "thiamine hydrochloride"'
p964
aS'levothyroxine "ubiquinone 9"'
p965
aS'levothyroxine "6-hydroxymelatonin"'
p966
aS'levothyroxine "terpene"'
p967
a.