(lp0
S'bronchodilator "okra"'
p1
aS'bronchodilator "avocado"'
p2
aS'bronchodilator "parsley"'
p3
aS'bronchodilator "elderberry"'
p4
aS'bronchodilator "prickly pear"'
p5
aS'bronchodilator "cloves"'
p6
aS'bronchodilator "cardamom"'
p7
aS'bronchodilator "sweet basil"'
p8
aS'bronchodilator "drag\xc3\xa9e"'
p9
aS'bronchodilator "coriander"'
p10
aS'bronchodilator "miso"'
p11
aS'bronchodilator "bluefish"'
p12
aS'bronchodilator "burdock"'
p13
aS'bronchodilator "apricot"'
p14
aS'bronchodilator "bison"'
p15
aS'bronchodilator "poppy"'
p16
aS'bronchodilator "channel catfish"'
p17
aS'bronchodilator "animal foods"'
p18
aS'bronchodilator "fennel"'
p19
aS'bronchodilator "lovage"'
p20
aS'bronchodilator "eastern oyster"'
p21
aS'bronchodilator "other soy product"'
p22
aS'bronchodilator "lemon balm"'
p23
aS'bronchodilator "snapper"'
p24
aS'bronchodilator "red algae"'
p25
aS'bronchodilator "other snack food"'
p26
aS'bronchodilator "soy milk"'
p27
aS'bronchodilator "cocoa butter"'
p28
aS'bronchodilator "common grape"'
p29
aS'bronchodilator "highbush blueberry"'
p30
aS'bronchodilator "biscuit"'
p31
aS'bronchodilator "ostrich"'
p32
aS'bronchodilator "bulgur"'
p33
aS'bronchodilator "mung bean"'
p34
aS'bronchodilator "bivalvia (clam, mussel, oyster)"'
p35
aS'bronchodilator "other fish product"'
p36
aS'bronchodilator "pistachio"'
p37
aS'bronchodilator "almond"'
p38
aS'bronchodilator "cupua\xc3\xa7u"'
p39
aS'bronchodilator "lettuce"'
p40
aS'bronchodilator "cherry tomato"'
p41
aS'bronchodilator "chum salmon"'
p42
aS'bronchodilator "pastry"'
p43
aS'bronchodilator "longan"'
p44
aS'bronchodilator "lima bean"'
p45
aS'bronchodilator "amaranth"'
p46
aS'bronchodilator "blackcurrant"'
p47
aS'bronchodilator "quince"'
p48
aS'bronchodilator "leek"'
p49
aS'bronchodilator "papaya"'
p50
aS'bronchodilator "green turtle"'
p51
aS'bronchodilator "canada blueberry"'
p52
aS'bronchodilator "jackfruit"'
p53
aS'bronchodilator "white sucker"'
p54
aS'bronchodilator "opium poppy"'
p55
aS'bronchodilator "salmonidae (salmon, trout)"'
p56
aS'bronchodilator "common hazelnut"'
p57
aS'bronchodilator "other bread"'
p58
aS'bronchodilator "capers"'
p59
aS'bronchodilator "cheese"'
p60
aS'bronchodilator "mugwort"'
p61
aS'bronchodilator "tofu"'
p62
aS'bronchodilator "wax apple"'
p63
aS'bronchodilator "common ling"'
p64
aS'bronchodilator "sacred lotus"'
p65
aS'bronchodilator "giant butterbur"'
p66
aS'bronchodilator "tunicate"'
p67
aS'bronchodilator "pizza"'
p68
aS'bronchodilator "wild rice"'
p69
aS'bronchodilator "acorn"'
p70
aS'bronchodilator "hazelnut"'
p71
aS'bronchodilator "cabbage"'
p72
aS'bronchodilator "green vegetables"'
p73
aS'bronchodilator "pitanga"'
p74
aS'bronchodilator "beluga whale"'
p75
aS'bronchodilator "spiny lobster"'
p76
aS'bronchodilator "moose"'
p77
aS'bronchodilator "persimmon"'
p78
aS'bronchodilator "breadfruit"'
p79
aS'bronchodilator "carrot"'
p80
aS'bronchodilator "chewing gum"'
p81
aS'bronchodilator "bitter gourd"'
p82
aS'bronchodilator "star fruit"'
p83
aS'bronchodilator "rambutan"'
p84
aS'bronchodilator "northern pike"'
p85
aS'bronchodilator "pate"'
p86
aS'bronchodilator "brown bear"'
p87
aS'bronchodilator "calabash"'
p88
aS'bronchodilator "broccoli"'
p89
aS'bronchodilator "anise"'
p90
aS'bronchodilator "fruit preserve"'
p91
aS'bronchodilator "cracker"'
p92
aS'bronchodilator "soy bean"'
p93
aS'bronchodilator "pasta"'
p94
aS'bronchodilator "soft drink"'
p95
aS'bronchodilator "canola"'
p96
aS'bronchodilator "seatrout"'
p97
aS'bronchodilator "breakfast sandwich"'
p98
aS'bronchodilator "gooseberry"'
p99
aS'bronchodilator "tartary buckwheat"'
p100
aS'bronchodilator "vermouth"'
p101
aS'bronchodilator "black walnut"'
p102
aS'bronchodilator "molasses"'
p103
aS'bronchodilator "watermelon"'
p104
aS'bronchodilator "fruit juice"'
p105
aS'bronchodilator "skipjack tuna"'
p106
aS'bronchodilator "adzuki bean"'
p107
aS'bronchodilator "chinese cinnamon"'
p108
aS'bronchodilator "burrito"'
p109
aS'bronchodilator "gadiformes (cod, hake)"'
p110
aS'bronchodilator "other fruit product"'
p111
aS'bronchodilator "nutmeg"'
p112
aS'bronchodilator "peppermint"'
p113
aS'bronchodilator "tallow"'
p114
aS'bronchodilator "walrus"'
p115
aS'bronchodilator "common octopus"'
p116
aS'bronchodilator "lemon grass"'
p117
aS'bronchodilator "wakame"'
p118
aS'bronchodilator "mango"'
p119
aS'bronchodilator "guava"'
p120
aS'bronchodilator "liquorice"'
p121
aS'bronchodilator "true oyster"'
p122
aS'bronchodilator "popcorn"'
p123
aS'bronchodilator "tarragon"'
p124
aS'bronchodilator "milk (cow)"'
p125
aS'bronchodilator "feijoa"'
p126
aS'bronchodilator "swordfish"'
p127
aS'bronchodilator "vinegar"'
p128
aS'bronchodilator "watercress"'
p129
aS'bronchodilator "common buckwheat"'
p130
aS'bronchodilator "yellowfin tuna"'
p131
aS'bronchodilator "eggplant"'
p132
aS'bronchodilator "marine mussel"'
p133
aS'bronchodilator "radish"'
p134
aS'bronchodilator "chinese cabbage"'
p135
aS'bronchodilator "arctic ground squirrel"'
p136
aS'bronchodilator "garland chrysanthemum"'
p137
aS'bronchodilator "lentils"'
p138
aS'bronchodilator "sausage"'
p139
aS'bronchodilator "kombu"'
p140
aS'bronchodilator "gadus (common cod)"'
p141
aS'bronchodilator "relish"'
p142
aS'bronchodilator "dock"'
p143
aS'bronchodilator "spirit"'
p144
aS'bronchodilator "blue mussel"'
p145
aS'bronchodilator "kiwi"'
p146
aS'bronchodilator "cauliflower"'
p147
aS'bronchodilator "soy sauce"'
p148
aS'bronchodilator "strawberry"'
p149
aS'bronchodilator "rosemary"'
p150
aS'bronchodilator "star anise"'
p151
aS'bronchodilator "teff"'
p152
aS'bronchodilator "chinese mustard"'
p153
aS'bronchodilator "scallop"'
p154
aS'bronchodilator "welsh onion"'
p155
aS'bronchodilator "muskrat"'
p156
aS'bronchodilator "taro"'
p157
aS'bronchodilator "ascidians"'
p158
aS'bronchodilator "herbs and spices"'
p159
aS'bronchodilator "anchovy"'
p160
aS'bronchodilator "dandelion"'
p161
aS'bronchodilator "mexican oregano"'
p162
aS'bronchodilator "boysenberry"'
p163
aS'bronchodilator "atlantic croaker"'
p164
aS'bronchodilator "caraway"'
p165
aS'bronchodilator "sweet marjoram"'
p166
aS'bronchodilator "vegetable juice"'
p167
aS'bronchodilator "striped bass"'
p168
aS'bronchodilator "pink salmon"'
p169
aS'bronchodilator "maitake"'
p170
aS'bronchodilator "grouper"'
p171
aS'bronchodilator "walleye"'
p172
aS'bronchodilator "rum"'
p173
aS'bronchodilator "freshwater eel"'
p174
aS'bronchodilator "jellyfish"'
p175
aS'bronchodilator "port wine"'
p176
aS'bronchodilator "ocean pout"'
p177
aS'bronchodilator "pudding"'
p178
aS'bronchodilator "allspice"'
p179
aS'bronchodilator "bilberry"'
p180
aS'bronchodilator "cowpea"'
p181
aS'bronchodilator "margarine"'
p182
aS'bronchodilator "arabica coffee"'
p183
aS'bronchodilator "other meat product"'
p184
aS'bronchodilator "jujube"'
p185
aS'bronchodilator "quinoa"'
p186
aS'bronchodilator "cuttlefish"'
p187
aS'bronchodilator "cocoa bean"'
p188
aS'bronchodilator "milk substitute"'
p189
aS'bronchodilator "dried milk"'
p190
aS'bronchodilator "cottonseed"'
p191
aS'bronchodilator "vanilla"'
p192
aS'bronchodilator "emu"'
p193
aS'bronchodilator "evening primrose"'
p194
aS'bronchodilator "sake"'
p195
aS'bronchodilator "mentha (mint)"'
p196
aS'bronchodilator "fudge"'
p197
aS'bronchodilator "fenugreek"'
p198
aS'bronchodilator "topping"'
p199
aS'bronchodilator "sorrel"'
p200
aS'bronchodilator "charr"'
p201
aS'bronchodilator "carob"'
p202
aS'bronchodilator "abalone"'
p203
aS'bronchodilator "pancake"'
p204
aS'bronchodilator "black raspberry"'
p205
aS'bronchodilator "chinook salmon"'
p206
aS'bronchodilator "american lobster"'
p207
aS'bronchodilator "garden tomato"'
p208
aS'bronchodilator "whisky"'
p209
aS'bronchodilator "hot dog"'
p210
aS'bronchodilator "lupine"'
p211
aS'bronchodilator "nance"'
p212
aS'bronchodilator "cumin"'
p213
aS'bronchodilator "soup"'
p214
aS'bronchodilator "agave"'
p215
aS'bronchodilator "lasagna"'
p216
aS'bronchodilator "bamboo shoots"'
p217
aS'bronchodilator "pineapple"'
p218
aS'bronchodilator "komatsuna"'
p219
aS'bronchodilator "acerola"'
p220
aS'bronchodilator "common oregano"'
p221
aS'bronchodilator "grape wine"'
p222
aS'bronchodilator "oil palm"'
p223
aS'bronchodilator "pine nut"'
p224
aS'bronchodilator "pomes"'
p225
aS'bronchodilator "cashew nut"'
p226
aS'bronchodilator "winged bean"'
p227
aS'bronchodilator "taco"'
p228
aS'bronchodilator "salad"'
p229
aS'bronchodilator "oyster mushroom"'
p230
aS'bronchodilator "vodka"'
p231
aS'bronchodilator "flatfish"'
p232
aS'bronchodilator "yogurt"'
p233
aS'bronchodilator "heart of palm"'
p234
aS'bronchodilator "sweet potato"'
p235
aS'bronchodilator "pheasant"'
p236
aS'bronchodilator "cooking oil"'
p237
aS'bronchodilator "common wheat"'
p238
aS'bronchodilator "kefir"'
p239
aS'bronchodilator "blue crab"'
p240
aS'bronchodilator "smelt"'
p241
aS'bronchodilator "oval-leaf huckleberry"'
p242
aS'bronchodilator "sea cucumber"'
p243
aS'bronchodilator "atlantic salmon"'
p244
aS'bronchodilator "babassu palm"'
p245
aS'bronchodilator "jute"'
p246
aS'bronchodilator "raccoon"'
p247
aS'bronchodilator "dumpling"'
p248
aS'bronchodilator "energy drink"'
p249
aS'bronchodilator "sturgeon"'
p250
aS'bronchodilator "turnip"'
p251
aS'bronchodilator "garden cress"'
p252
aS'bronchodilator "durian"'
p253
aS'bronchodilator "rape"'
p254
aS'bronchodilator "roselle"'
p255
aS'bronchodilator "natto"'
p256
aS'bronchodilator "sauce"'
p257
aS'bronchodilator "true sole"'
p258
aS'bronchodilator "oat bread"'
p259
aS'bronchodilator "icing"'
p260
aS'bronchodilator "sablefish"'
p261
aS'bronchodilator "spelt"'
p262
aS'bronchodilator "green bean"'
p263
aS'bronchodilator "chili"'
p264
aS'bronchodilator "ketchup"'
p265
aS'bronchodilator "asparagus"'
p266
aS'bronchodilator "grass pea"'
p267
aS'bronchodilator "red rice"'
p268
aS'bronchodilator "sourdough"'
p269
aS'bronchodilator "other candy"'
p270
aS'bronchodilator "fats and oils"'
p271
aS'bronchodilator "tamarind"'
p272
aS'bronchodilator "ice cream"'
p273
aS'bronchodilator "spanish mackerel"'
p274
aS'bronchodilator "wax gourd"'
p275
aS'bronchodilator "coho salmon"'
p276
aS'bronchodilator "condensed milk"'
p277
aS'bronchodilator "bagel"'
p278
aS'bronchodilator "kelp"'
p279
aS'bronchodilator "mulberry"'
p280
aS'bronchodilator "pacific oyster"'
p281
aS'bronchodilator "loquat"'
p282
aS'bronchodilator "other vegetable product"'
p283
aS'bronchodilator "jew\'s ear"'
p284
aS'bronchodilator "flaxseed"'
p285
aS'bronchodilator "evaporated milk"'
p286
aS'bronchodilator "robusta coffee"'
p287
aS'bronchodilator "soursop"'
p288
aS'bronchodilator "stuffing"'
p289
aS'bronchodilator "snow crab"'
p290
aS'bronchodilator "pot marjoram"'
p291
aS'bronchodilator "scyphozoa"'
p292
aS'bronchodilator "dromaius novaehollandiae"'
p293
aS'bronchodilator "pistacia vera"'
p294
aS'bronchodilator "phoenix dactylifera"'
p295
aS'bronchodilator "cinnamomum aromaticum"'
p296
aS'bronchodilator "vitis vinifera"'
p297
aS'bronchodilator "chrysanthemum coronarium"'
p298
aS'bronchodilator "sorghum bicolor"'
p299
aS'bronchodilator "haliotis"'
p300
aS'bronchodilator "chelonia mydas"'
p301
aS'bronchodilator "basella alba"'
p302
aS'bronchodilator "corchorus olitorius"'
p303
aS'bronchodilator "palinuridae"'
p304
aS'bronchodilator "lupinus albus"'
p305
aS'bronchodilator "annona muricata"'
p306
aS'bronchodilator "vaccinium macrocarpon"'
p307
aS'bronchodilator "illicium verum"'
p308
aS'bronchodilator "micropogonias undulatus"'
p309
aS'bronchodilator "oncorhynchus gorbuscha"'
p310
aS'bronchodilator "dimocarpus longan"'
p311
aS'bronchodilator "brassica napus"'
p312
aS'bronchodilator "nelumbo"'
p313
aS'bronchodilator "prunus avium"'
p314
aS'bronchodilator "vaccinium angustifolium x vaccinium corymbosum"'
p315
aS'bronchodilator "cynara scolymus"'
p316
aS'bronchodilator "tamarindus indica"'
p317
aS'bronchodilator "elettaria cardamomum"'
p318
aS'bronchodilator "ananas comosus"'
p319
aS'bronchodilator "olea europaea"'
p320
aS'bronchodilator "vigna radiata"'
p321
aS'bronchodilator "citrus sinensis"'
p322
aS'bronchodilator "nelumbo nucifera"'
p323
aS'bronchodilator "opuntia"'
p324
aS'bronchodilator "apium graveolens"'
p325
aS'bronchodilator "coriandrum sativum"'
p326
aS'bronchodilator "lactuca sativa"'
p327
aS'bronchodilator "camellia oleifera"'
p328
aS'bronchodilator "acipenser"'
p329
aS'bronchodilator "wasabia japonica"'
p330
aS'bronchodilator "phytolacca americana"'
p331
aS'bronchodilator "ictalurus punctatus"'
p332
aS'bronchodilator "foeniculum vulgare"'
p333
aS'bronchodilator "delphinapterus leucas"'
p334
aS'bronchodilator "sisymbrium"'
p335
aS'bronchodilator "pimpinella anisum"'
p336
aS'bronchodilator "didelphis virginiana"'
p337
aS'bronchodilator "oncorhynchus tshawytscha"'
p338
aS'bronchodilator "mentha spicata"'
p339
aS'bronchodilator "lagenaria siceraria"'
p340
aS'bronchodilator "thunnus thynnus"'
p341
aS'bronchodilator "vigna umbellata"'
p342
aS'bronchodilator "portulaca oleracea"'
p343
aS'bronchodilator "vigna unguiculata"'
p344
aS'bronchodilator "coffea arabica"'
p345
aS'bronchodilator "pleuronectidae"'
p346
aS'bronchodilator "morone saxatilis"'
p347
aS'bronchodilator "odocoileus"'
p348
aS'bronchodilator "carica papaya"'
p349
aS'bronchodilator "malus pumila"'
p350
aS'bronchodilator "benincasa hispida"'
p351
aS'bronchodilator "feijoa sellowiana"'
p352
aS'bronchodilator "litchi chinensis"'
p353
aS'bronchodilator "armoracia rusticana"'
p354
aS'bronchodilator "pollachius"'
p355
aS'bronchodilator "oncorhynchus kisutch"'
p356
aS'bronchodilator "syzygium cumini"'
p357
aS'bronchodilator "sus scrofa domestica"'
p358
aS'bronchodilator "macadamia"'
p359
aS'bronchodilator "vitis labrusca"'
p360
aS'bronchodilator "castanea"'
p361
aS'bronchodilator "anacardium occidentale"'
p362
aS'bronchodilator "ondatra zibethicus"'
p363
aS'bronchodilator "ipomoea batatas"'
p364
aS'bronchodilator "laurus nobilis"'
p365
aS'bronchodilator "cocos nucifera"'
p366
aS'bronchodilator "scophthalmus maximus"'
p367
aS'bronchodilator "hordeum vulgare"'
p368
aS'bronchodilator "malpighia emarginata"'
p369
aS'bronchodilator "rangifer tarandus"'
p370
aS'bronchodilator "prunus domestica"'
p371
aS'bronchodilator "pachyrhizus erosus"'
p372
aS'bronchodilator "passiflora edulis"'
p373
aS'bronchodilator "theobroma cacao"'
p374
aS'bronchodilator "nuphar lutea"'
p375
aS'bronchodilator "oncorhynchus keta"'
p376
aS'bronchodilator "arachis hypogaea"'
p377
aS'bronchodilator "lathyrus sativus"'
p378
aS'bronchodilator "sebastes"'
p379
aS'bronchodilator "coryphaena hippurus"'
p380
aS'bronchodilator "citrus aurantiifolia"'
p381
aS'bronchodilator "raphanus sativus"'
p382
aS'bronchodilator "brassica oleracea"'
p383
aS'bronchodilator "daucus carota"'
p384
aS'bronchodilator "crassostrea virginica"'
p385
aS'bronchodilator "hibiscus sabdariffa"'
p386
aS'bronchodilator "annona squamosa"'
p387
aS'bronchodilator "citrus limon"'
p388
aS'bronchodilator "citrus reticulata"'
p389
aS'bronchodilator "anoplopoma fimbria"'
p390
aS'bronchodilator "vaccinium corymbosum"'
p391
aS'bronchodilator "thymus vulgaris"'
p392
aS'bronchodilator "crassostrea gigas"'
p393
aS'bronchodilator "ficus carica"'
p394
aS'bronchodilator "capparis spinosa"'
p395
aS'bronchodilator "elaeis"'
p396
aS'bronchodilator "ipomoea aquatica"'
p397
aS'bronchodilator "psidium guajava"'
p398
aS'bronchodilator "equus caballus"'
p399
aS'bronchodilator "gadiformes"'
p400
aS'bronchodilator "citrullus lanatus"'
p401
aS'bronchodilator "cuminum cyminum"'
p402
aS'bronchodilator "solanum melongena"'
p403
aS'bronchodilator "siluriformes"'
p404
aS'bronchodilator "lepidium sativum"'
p405
aS'bronchodilator "vaccinium myrtillus"'
p406
aS'bronchodilator "juglans nigra"'
p407
aS'bronchodilator "castanea sativa"'
p408
aS'bronchodilator "vigna mungo"'
p409
aS'bronchodilator "agaricus bisporus"'
p410
aS'bronchodilator "cucurbita"'
p411
aS'bronchodilator "cucumis melo"'
p412
aS'bronchodilator "lentinus edodes"'
p413
aS'bronchodilator "esox lucius"'
p414
aS'bronchodilator "homarus americanus"'
p415
aS'bronchodilator "ursus maritimus"'
p416
aS'bronchodilator "myristica fragrans"'
p417
aS'bronchodilator "ceratonia siliqua"'
p418
aS'bronchodilator "ocimum basilicum"'
p419
aS'bronchodilator "mangifera indica"'
p420
aS'bronchodilator "thunnus"'
p421
aS'bronchodilator "rumex acetosa"'
p422
aS'bronchodilator "salvia officinalis"'
p423
aS'bronchodilator "salvelinus"'
p424
aS'bronchodilator "durio zibethinus"'
p425
aS'bronchodilator "chenopodium album"'
p426
aS'bronchodilator "borago officinalis"'
p427
aS'bronchodilator "nephelium lappaceum"'
p428
aS'bronchodilator "allium schoenoprasum"'
p429
aS'bronchodilator "vaccinium angustifolium"'
p430
aS'bronchodilator "undaria pinnatifida"'
p431
aS'bronchodilator "satureja hortensis"'
p432
aS'bronchodilator "sambucus"'
p433
aS'bronchodilator "actinidia chinensis"'
p434
aS'bronchodilator "artemisia dracunculus"'
p435
aS'bronchodilator "fagus"'
p436
aS'bronchodilator "quercus"'
p437
aS'bronchodilator "anser anser"'
p438
aS'bronchodilator "artocarpus heterophyllus"'
p439
aS'bronchodilator "garcinia mangostana"'
p440
aS'bronchodilator "punica granatum"'
p441
aS'bronchodilator "pollachius pollachius"'
p442
aS'bronchodilator "allium cepa"'
p443
aS'bronchodilator "brassica rapa"'
p444
aS'bronchodilator "cichlidae"'
p445
aS'bronchodilator "fagopyrum tataricum"'
p446
aS'bronchodilator "moringa oleifera"'
p447
aS'bronchodilator "thunnus albacares"'
p448
aS'bronchodilator "pectinidae"'
p449
aS'bronchodilator "vanilla"'
p450
aS'bronchodilator "ostreidae"'
p451
aS'bronchodilator "tilia"'
p452
aS'bronchodilator "cymbopogon citratus"'
p453
aS'bronchodilator "avena sativa"'
p454
aS'bronchodilator "lens culinaris"'
p455
aS'bronchodilator "momordica charantia"'
p456
aS'bronchodilator "arctium lappa"'
p457
aS'bronchodilator "mentha arvensis"'
p458
aS'bronchodilator "laminaria"'
p459
aS'bronchodilator "apium graveolens var. dulce"'
p460
aS'bronchodilator "oryctolagus"'
p461
aS'bronchodilator "juglans regia"'
p462
aS'bronchodilator "linum usitatissimum"'
p463
aS'bronchodilator "pyrus pyrifolia"'
p464
aS'bronchodilator "cajanus cajan"'
p465
aS'bronchodilator "allium fistulosum"'
p466
aS'bronchodilator "piper nigrum"'
p467
aS'bronchodilator "matricaria recutita"'
p468
aS'bronchodilator "sechium edule"'
p469
aS'bronchodilator "eugenia uniflora"'
p470
aS'bronchodilator "melissa officinalis"'
p471
aS'bronchodilator "xiphias gladius"'
p472
aS'bronchodilator "agave"'
p473
aS'bronchodilator "coffea canephora"'
p474
aS'bronchodilator "prunus persica"'
p475
aS'bronchodilator "mentha x piperita"'
p476
aS'bronchodilator "salmo salar"'
p477
aS'bronchodilator "mentha"'
p478
aS'bronchodilator "ovis aries"'
p479
aS'bronchodilator "pleurotus ostreatus"'
p480
aS'bronchodilator "corylus"'
p481
aS'bronchodilator "brevoortia tyrannus"'
p482
aS'bronchodilator "oenothera biennis"'
p483
aS'bronchodilator "allium porrum"'
p484
aS'bronchodilator "flammulina velutipes"'
p485
aS'bronchodilator "cynoscion"'
p486
aS'bronchodilator "cirsium"'
p487
aS'bronchodilator "pomatomus saltatrix"'
p488
aS'bronchodilator "papaver"'
p489
aS'bronchodilator "lippia graveolens"'
p490
aS'bronchodilator "phaseolus lunatus"'
p491
aS'bronchodilator "syzygium aromaticum"'
p492
aS'bronchodilator "cydonia oblonga"'
p493
aS'bronchodilator "zizania"'
p494
aS'bronchodilator "meleagris gallopavo"'
p495
aS'bronchodilator "epinephelus"'
p496
aS'bronchodilator "eriobotrya japonica"'
p497
aS'bronchodilator "myrica rubra"'
p498
aS'bronchodilator "myrica"'
p499
aS'bronchodilator "petasites japonicus"'
p500
aS'bronchodilator "prunus dulcis"'
p501
aS'bronchodilator "sambucus nigra"'
p502
aS'bronchodilator "vitis aestivalis"'
p503
aS'bronchodilator "cetacea"'
p504
aS'bronchodilator "rheum rhabarbarum"'
p505
aS'bronchodilator "brassica juncea"'
p506
aS'bronchodilator "myoxocephalus"'
p507
aS'bronchodilator "ursus arctos"'
p508
aS'bronchodilator "diospyros kaki"'
p509
aS'bronchodilator "mugil cephalus"'
p510
aS'bronchodilator "origanum vulgare"'
p511
aS'bronchodilator "prunus tomentosa"'
p512
aS'bronchodilator "callinectes sapidus"'
p513
aS'bronchodilator "rosmarinus officinalis"'
p514
aS'bronchodilator "annona reticulata"'
p515
aS'bronchodilator "fortunella"'
p516
aS'bronchodilator "lupinus"'
p517
aS'bronchodilator "ribes nigrum"'
p518
aS'bronchodilator "anethum graveolens"'
p519
aS'bronchodilator "carya"'
p520
aS'bronchodilator "octopus vulgaris"'
p521
aS'bronchodilator "origanum majorana"'
p522
aS'bronchodilator "capsicum annuum"'
p523
aS'bronchodilator "pastinaca sativa"'
p524
aS'bronchodilator "eugenia"'
p525
aS'bronchodilator "artemisia vulgaris"'
p526
aS'bronchodilator "rumex"'
p527
aS'bronchodilator "katsuwonus pelamis"'
p528
aS'bronchodilator "persea americana"'
p529
aS'bronchodilator "prunus cerasus"'
p530
aS'bronchodilator "angelica keiskei"'
p531
aS'bronchodilator "hippophae rhamnoides"'
p532
aS'bronchodilator "chenopodium quinoa"'
p533
aS'bronchodilator "abelmoschus esculentus"'
p534
aS'bronchodilator "vigna angularis"'
p535
aS'bronchodilator "petroselinum crispum"'
p536
aS'bronchodilator "scyphozoa"'
p537
aS'bronchodilator "p. vera"'
p538
aS'bronchodilator "s. japonica"'
p539
aS'bronchodilator "s. bicolor"'
p540
aS'bronchodilator "haliotis"'
p541
aS'bronchodilator "c. mydas"'
p542
aS'bronchodilator "b. alba"'
p543
aS'bronchodilator "palinuridae"'
p544
aS'bronchodilator "s. salar"'
p545
aS'bronchodilator "nelumbo"'
p546
aS'bronchodilator "lupinus"'
p547
aS'bronchodilator "t. indica"'
p548
aS'bronchodilator "o. europaea"'
p549
aS'bronchodilator "opuntia"'
p550
aS'bronchodilator "g. frondosa"'
p551
aS'bronchodilator "a. graveolens"'
p552
aS'bronchodilator "m. esculenta"'
p553
aS'bronchodilator "eugenia"'
p554
aS'bronchodilator "p. ostreatus"'
p555
aS'bronchodilator "acipenser"'
p556
aS'bronchodilator "w. japonica"'
p557
aS'bronchodilator "p. americana"'
p558
aS'bronchodilator "d. pectoralis"'
p559
aS'bronchodilator "r. \xc3\x97"'
p560
aS'bronchodilator "g. biloba"'
p561
aS'bronchodilator "sisymbrium"'
p562
aS'bronchodilator "p. anisum"'
p563
aS'bronchodilator "thunnus"'
p564
aS'bronchodilator "m. spicata"'
p565
aS'bronchodilator "l. siceraria"'
p566
aS'bronchodilator "p. oleracea"'
p567
aS'bronchodilator "v. unguiculata"'
p568
aS'bronchodilator "l. officinale"'
p569
aS'bronchodilator "c. arabica"'
p570
aS'bronchodilator "pleuronectidae"'
p571
aS'bronchodilator "m. saxatilis"'
p572
aS'bronchodilator "b. rapa"'
p573
aS'bronchodilator "odocoileus"'
p574
aS'bronchodilator "a. graveolens"'
p575
aS'bronchodilator "f. sellowiana"'
p576
aS'bronchodilator "c. sativus"'
p577
aS'bronchodilator "f. x"'
p578
aS'bronchodilator "pollachius"'
p579
aS'bronchodilator "s. cumini"'
p580
aS'bronchodilator "macadamia"'
p581
aS'bronchodilator "castanea"'
p582
aS'bronchodilator "a. occidentale"'
p583
aS'bronchodilator "l. nobilis"'
p584
aS'bronchodilator "c. nucifera"'
p585
aS'bronchodilator "m. emarginata"'
p586
aS'bronchodilator "b. rapa"'
p587
aS'bronchodilator "b. rapa"'
p588
aS'bronchodilator "a. cepa"'
p589
aS'bronchodilator "a. hypogaea"'
p590
aS'bronchodilator "p. persica"'
p591
aS'bronchodilator "sebastes"'
p592
aS'bronchodilator "a. sativum"'
p593
aS'bronchodilator "o. mykiss"'
p594
aS'bronchodilator "h. sabdariffa"'
p595
aS'bronchodilator "z. mays"'
p596
aS'bronchodilator "t. vulgaris"'
p597
aS'bronchodilator "c. gigas"'
p598
aS'bronchodilator "elaeis"'
p599
aS'bronchodilator "p. guajava"'
p600
aS'bronchodilator "f. vulgare"'
p601
aS'bronchodilator "c. sativus"'
p602
aS'bronchodilator "gadiformes"'
p603
aS'bronchodilator "s. nigra"'
p604
aS'bronchodilator "p. persica"'
p605
aS'bronchodilator "siluriformes"'
p606
aS'bronchodilator "s. hortensis"'
p607
aS'bronchodilator "c. sativa"'
p608
aS'bronchodilator "c. annuum"'
p609
aS'bronchodilator "cucurbita"'
p610
aS'bronchodilator "s. lycopersicum"'
p611
aS'bronchodilator "a. sativum"'
p612
aS'bronchodilator "l. edodes"'
p613
aS'bronchodilator "mentha"'
p614
aS'bronchodilator "o. basilicum"'
p615
aS'bronchodilator "s. lycopersicum"'
p616
aS'bronchodilator "m. indica"'
p617
aS'bronchodilator "p. edule"'
p618
aS'bronchodilator "v. unguiculata"'
p619
aS'bronchodilator "g. max"'
p620
aS'bronchodilator "o. majorana"'
p621
aS'bronchodilator "s. officinalis"'
p622
aS'bronchodilator "salvelinus"'
p623
aS'bronchodilator "t. cacao"'
p624
aS'bronchodilator "b. officinalis"'
p625
aS'bronchodilator "c. longa"'
p626
aS'bronchodilator "u. pinnatifida"'
p627
aS'bronchodilator "c. annuum"'
p628
aS'bronchodilator "sambucus"'
p629
aS'bronchodilator "a. bisporus"'
p630
aS'bronchodilator "s. tuberosum"'
p631
aS'bronchodilator "a. chinensis"'
p632
aS'bronchodilator "a. dracunculus"'
p633
aS'bronchodilator "fagus"'
p634
aS'bronchodilator "quercus"'
p635
aS'bronchodilator "a. heterophyllus"'
p636
aS'bronchodilator "a. graveolens"'
p637
aS'bronchodilator "s. montana"'
p638
aS'bronchodilator "g. mangostana"'
p639
aS'bronchodilator "p. pollachius"'
p640
aS'bronchodilator "a. cepa"'
p641
aS'bronchodilator "b. rapa"'
p642
aS'bronchodilator "cichlidae"'
p643
aS'bronchodilator "m. oleifera"'
p644
aS'bronchodilator "cynoscion"'
p645
aS'bronchodilator "vanilla"'
p646
aS'bronchodilator "ostreidae"'
p647
aS'bronchodilator "tilia"'
p648
aS'bronchodilator "c. citratus"'
p649
aS'bronchodilator "l. culinaris"'
p650
aS'bronchodilator "m. charantia"'
p651
aS'bronchodilator "a. lappa"'
p652
aS'bronchodilator "laminaria"'
p653
aS'bronchodilator "corylus"'
p654
aS'bronchodilator "a. graveolens"'
p655
aS'bronchodilator "i. punctatus"'
p656
aS'bronchodilator "oryctolagus"'
p657
aS'bronchodilator "m. kitt"'
p658
aS'bronchodilator "l. usitatissimum"'
p659
aS'bronchodilator "c. cajan"'
p660
aS'bronchodilator "p. nigrum"'
p661
aS'bronchodilator "m. recutita"'
p662
aS'bronchodilator "e. uniflora"'
p663
aS'bronchodilator "m. officinalis"'
p664
aS'bronchodilator "agave"'
p665
aS'bronchodilator "c. canephora"'
p666
aS'bronchodilator "p. persica"'
p667
aS'bronchodilator "p. largha"'
p668
aS'bronchodilator "n. lappaceum"'
p669
aS'bronchodilator "c. baccatum"'
p670
aS'bronchodilator "l. chinensis"'
p671
aS'bronchodilator "c. religiosa"'
p672
aS'bronchodilator "f. velutipes"'
p673
aS'bronchodilator "pectinidae"'
p674
aS'bronchodilator "cirsium"'
p675
aS'bronchodilator "a. keiskei"'
p676
aS'bronchodilator "papaver"'
p677
aS'bronchodilator "z. officinale"'
p678
aS'bronchodilator "zizania"'
p679
aS'bronchodilator "epinephelus"'
p680
aS'bronchodilator "e. japonica"'
p681
aS'bronchodilator "m. rubra"'
p682
aS'bronchodilator "myrica"'
p683
aS'bronchodilator "p. japonicus"'
p684
aS'bronchodilator "v. aestivalis"'
p685
aS'bronchodilator "cetacea"'
p686
aS'bronchodilator "b. juncea"'
p687
aS'bronchodilator "myoxocephalus"'
p688
aS'bronchodilator "u. arctos"'
p689
aS'bronchodilator "d. kaki"'
p690
aS'bronchodilator "b. bubalis"'
p691
aS'bronchodilator "m. edulis"'
p692
aS'bronchodilator "o. vulgare"'
p693
aS'bronchodilator "p. vulgaris"'
p694
aS'bronchodilator "p. tomentosa"'
p695
aS'bronchodilator "c. sapidus"'
p696
aS'bronchodilator "r. rubrum"'
p697
aS'bronchodilator "g. morhua"'
p698
aS'bronchodilator "fortunella"'
p699
aS'bronchodilator "l. sativus"'
p700
aS'bronchodilator "m. sativa"'
p701
aS'bronchodilator "a. graveolens"'
p702
aS'bronchodilator "b. rapa"'
p703
aS'bronchodilator "s. acanthias"'
p704
aS'bronchodilator "v. unguiculata"'
p705
aS'bronchodilator "carya"'
p706
aS'bronchodilator "o. vulgaris"'
p707
aS'bronchodilator "s. latifolia"'
p708
aS'bronchodilator "s. lycopersicum"'
p709
aS'bronchodilator "p. melanocarpa"'
p710
aS'bronchodilator "rumex"'
p711
aS'bronchodilator "p. americana"'
p712
aS'bronchodilator "v. unguiculata"'
p713
aS'bronchodilator "h. rhamnoides"'
p714
aS'bronchodilator "t. officinale"'
p715
aS'bronchodilator "t. aestivum"'
p716
aS'bronchodilator "1,4-dimethylpyrrolo[1,2-a]pyrazine"'
p717
aS'bronchodilator "2(3)-benzoxazolinone"'
p718
aS'bronchodilator "morusin"'
p719
aS'bronchodilator "5-hydroxycapsanthin-3,6-epoxide"'
p720
aS'bronchodilator "2-butenoic acid lactone"'
p721
aS'bronchodilator "formononetin"'
p722
aS'bronchodilator "rhamnogalacturonan"'
p723
aS'bronchodilator "1,2-dihydrodehydroguaiaretic acid"'
p724
aS'bronchodilator "2\'-deoxyinosine"'
p725
aS'bronchodilator "methylglutamic acid"'
p726
aS'bronchodilator "24,25-dihydroxyvitamin d3"'
p727
aS'bronchodilator "1,6,9-farnesatriene-3,11-diol"'
p728
aS'bronchodilator "gallic acid 4-o-(6-galloylglucoside)"'
p729
aS'bronchodilator "6beta,7beta-dihydroxykaurenoic acid"'
p730
aS'bronchodilator "1-propenylallyl thiosulfinate"'
p731
aS'bronchodilator "cis-10-hydroxylinalyl oxide 7-glucoside"'
p732
aS'bronchodilator "3,4-dihydroxymandelic acid"'
p733
aS'bronchodilator "nicotianamine"'
p734
aS'bronchodilator "chikusetsusaponin vi"'
p735
aS'bronchodilator "pc(p-18:1(11z)/20:0)"'
p736
aS'bronchodilator "d-myo-inositol (1,3,4,5,6)-pentakisphosphate"'
p737
aS'bronchodilator "pc(18:3(6z,9z,12z)/p-18:1(9z))"'
p738
aS'bronchodilator "3-n-butyl-4,5-dihydrophthalide"'
p739
aS'bronchodilator "hexadecanedioic acid"'
p740
aS'bronchodilator "delta-6,7-octadecanoic acid"'
p741
aS'bronchodilator "d-ribose"'
p742
aS'bronchodilator "beta-elemenone"'
p743
aS'bronchodilator "(6z,9z)-6,9-pentadecadien-2-one"'
p744
aS'bronchodilator "digalactosyl diglyceide"'
p745
aS'bronchodilator "xi-dihydro-5-propyl-2(3h)-furanone"'
p746
aS'bronchodilator "alpha-bulnesene"'
p747
aS'bronchodilator "1-heptanol"'
p748
aS'bronchodilator "(23r)-acetoxytomatine"'
p749
aS'bronchodilator "momordica charantia trypsin inhibitor i"'
p750
aS'bronchodilator "1,5,5,9-tetramethyl-bicyclo[4.3.0]-non-8-en-7-one"'
p751
aS'bronchodilator "panaxadiol"'
p752
aS'bronchodilator "grifolin"'
p753
aS'bronchodilator "trans-zeatin"'
p754
aS'bronchodilator "avicularin"'
p755
aS'bronchodilator "eupatilin"'
p756
aS'bronchodilator "benzyl isothiocyanate"'
p757
aS'bronchodilator "demethylnobiletin"'
p758
aS'bronchodilator "kaurenoic acid"'
p759
aS'bronchodilator "gnaphaliin"'
p760
aS'bronchodilator "beta-d-galactose"'
p761
aS'bronchodilator "liriodendrin"'
p762
aS'bronchodilator "pc(p-18:1(11z)/18:1(11z))"'
p763
aS'bronchodilator "3-methylidene-4-oxopentyl angelate"'
p764
aS'bronchodilator "carvone oxide"'
p765
aS'bronchodilator "3-methyl-1,2-cyclopentanedione"'
p766
aS'bronchodilator "lanosterol"'
p767
aS'bronchodilator "bisdemethoxycurcumin"'
p768
aS'bronchodilator "n-eicosane"'
p769
aS'bronchodilator "peonidin 3-(6\'\'-caffeoyl-glucoside)"'
p770
aS'bronchodilator "pc(18:3(9z,12z,15z)/20:1(11z))"'
p771
aS'bronchodilator "peonidin 3-glucoside"'
p772
aS'bronchodilator "5,7-dimethoxycoumarin"'
p773
aS'bronchodilator "quinolinate"'
p774
aS'bronchodilator "isobiflorin"'
p775
aS'bronchodilator "1-octen-3-ol"'
p776
aS'bronchodilator "2-methylbutanoic acid"'
p777
aS'bronchodilator "cobalamins"'
p778
aS'bronchodilator "pc(18:0/20:1(11z))"'
p779
aS'bronchodilator "2-pyrrolidinone"'
p780
aS'bronchodilator "beta-elemene"'
p781
aS'bronchodilator "cis-beta-carotene"'
p782
aS'bronchodilator "3,3\',4\',5,6,8-hexamethoxyflavone"'
p783
aS'bronchodilator "lysopc(18:0)"'
p784
aS'bronchodilator "5-pentacosyl-1,3-benzenediol"'
p785
aS'bronchodilator "moracin d"'
p786
aS'bronchodilator "moracin c"'
p787
aS'bronchodilator "moracin o"'
p788
aS'bronchodilator "moracin l"'
p789
aS'bronchodilator "moracin m"'
p790
aS'bronchodilator "moracin i"'
p791
aS'bronchodilator "moracin p"'
p792
aS'bronchodilator "decanoic acid"'
p793
aS'bronchodilator "7-methylxanthosine"'
p794
aS'bronchodilator "apigenin 7-glucoside"'
p795
aS'bronchodilator "multinoside b"'
p796
aS'bronchodilator "n-isobutyl-11-(3,4-methylenedioxyphenyl)-undeca-trans-2-trans-4-trans-10-trienamide"'
p797
aS'bronchodilator "alpha-ionone"'
p798
aS'bronchodilator "juglone"'
p799
aS'bronchodilator "d-camphor"'
p800
aS'bronchodilator "capsiate"'
p801
aS'bronchodilator "pc(o-24:0/18:3(9z,12z,15z))"'
p802
aS'bronchodilator "l-histidine trimethylbetaine"'
p803
aS'bronchodilator "steviol"'
p804
aS'bronchodilator "(-)-maackiain"'
p805
aS'bronchodilator "ubiquinol-10"'
p806
aS'bronchodilator "n-decane"'
p807
aS'bronchodilator "lysopc(16:0)"'
p808
aS'bronchodilator "epimyrtine"'
p809
aS'bronchodilator "patchouli alcohol"'
p810
aS'bronchodilator "4\'-methylliquiritigenin 7-glucoside"'
p811
aS'bronchodilator "n-gamma-glutamyl-s-trans-(1-propenyl)cysteine"'
p812
aS'bronchodilator "pc(18:1(11z)/20:0)"'
p813
aS'bronchodilator "(z,z)-9,12-octadecadienoic acid"'
p814
aS'bronchodilator "galanolactone"'
p815
aS'bronchodilator "(-)-borneol"'
p816
aS'bronchodilator "alpha-carotene"'
p817
aS'bronchodilator "pectolinarigenin"'
p818
aS'bronchodilator "2-butenoic acid methyl ester"'
p819
aS'bronchodilator "tangeritin"'
p820
aS'bronchodilator "quercetagetin"'
p821
aS'bronchodilator "butanal"'
p822
aS'bronchodilator "4-heptenoic acid"'
p823
aS'bronchodilator "3-(4-methylphenyl)-pyridine"'
p824
aS'bronchodilator "ampeloside bs1"'
p825
aS'bronchodilator "pc(18:4(6z,9z,12z,15z)/18:1(11z))"'
p826
aS'bronchodilator "malvidin 3-(6-coumaroylglucoside)"'
p827
aS'bronchodilator "columbianetin"'
p828
aS'bronchodilator "peonidin 3-[4-hydroxycinnamoyl-b-d-glucopyranoside]"'
p829
aS'bronchodilator "porphobilinogen"'
p830
aS'bronchodilator "3,4\',7-trihydroxyflavone"'
p831
aS'bronchodilator "malvidin 3-alpha-l-galactoside"'
p832
aS'bronchodilator "2-methyl-1-propanol"'
p833
aS'bronchodilator "indole-3-butyric acid"'
p834
aS'bronchodilator "2,10-bisaboladiene-1,4-diol"'
p835
aS'bronchodilator "tricin"'
p836
aS'bronchodilator "isorhoifolin"'
p837
aS'bronchodilator "sphondin"'
p838
aS'bronchodilator "1-nonene"'
p839
aS'bronchodilator "tridecanoic acid"'
p840
aS'bronchodilator "behenic acid"'
p841
aS'bronchodilator "4\'-methoxyacetophenone"'
p842
aS'bronchodilator "bergaptol"'
p843
aS'bronchodilator "pc(18:4(6z,9z,12z,15z)/20:0)"'
p844
aS'bronchodilator "tetrahydrocurcumin"'
p845
aS'bronchodilator "prostaglandin a-1"'
p846
aS'bronchodilator "5-hydroxyindole-3-acetic acid"'
p847
aS'bronchodilator "palustrol"'
p848
aS'bronchodilator "citral"'
p849
aS'bronchodilator "zingerone"'
p850
aS'bronchodilator "farnesylacetone"'
p851
aS'bronchodilator "4-(hydroxymethyl)-2-pyrrolidinecarboxylic acid"'
p852
aS'bronchodilator "benzoyl peroxide"'
p853
aS'bronchodilator "cadalene"'
p854
aS'bronchodilator "lumazine"'
p855
aS'bronchodilator "2-(4-methylphenyl)-1-propanol"'
p856
aS'bronchodilator "6-c-(6-deoxygalactopyranosyl)-3\',4\',5,7-tetrahydroxyflavone"'
p857
aS'bronchodilator "glycerylphosphoinositol"'
p858
aS'bronchodilator "1-propenyl-2-hydroxy-5-methoxybenzene-2-(2-methylbutyrate)"'
p859
aS'bronchodilator "beta-patchoulene"'
p860
aS'bronchodilator "n-methylbenzylamine"'
p861
aS'bronchodilator "8-hydroxypinoresinol"'
p862
aS'bronchodilator "dihydrofuran i"'
p863
aS'bronchodilator "enomelanin"'
p864
aS'bronchodilator "notoginsenoside r1"'
p865
aS'bronchodilator "limonenene-8,9-oxide"'
p866
aS'bronchodilator "isopentyl isopentanoate"'
p867
aS'bronchodilator "norvaline"'
p868
aS'bronchodilator "cholestanol"'
p869
aS'bronchodilator "hexanal"'
p870
aS'bronchodilator "panaquinquecol 7"'
p871
aS'bronchodilator "gamma-terpinene"'
p872
aS'bronchodilator "7,9-tetracosanedione"'
p873
aS'bronchodilator "prostaglandin f-1-alpha"'
p874
aS'bronchodilator "garcimangosone d"'
p875
aS'bronchodilator "egonol"'
p876
aS'bronchodilator "ephedrannin a"'
p877
aS'bronchodilator "3-(4-hydroxy-3-methoxyphenyl)-1,2-propanediol"'
p878
aS'bronchodilator "curcumol"'
p879
aS'bronchodilator "hericenone e"'
p880
aS'bronchodilator "hericenone c"'
p881
aS'bronchodilator "hericenone h"'
p882
aS'bronchodilator "p-menthane"'
p883
aS'bronchodilator "alternariol"'
p884
aS'bronchodilator "obacunone 17-o-beta-d-glucoside"'
p885
aS'bronchodilator "orientin"'
p886
aS'bronchodilator "1-dehydro-[6]-gingerdione"'
p887
aS'bronchodilator "germanium"'
p888
aS'bronchodilator "auxin a"'
p889
aS'bronchodilator "\xce\xb1-d-galactose"'
p890
aS'bronchodilator "gein"'
p891
aS'bronchodilator "1,3-diaminopropane"'
p892
aS'bronchodilator "delphinidin 3-rutinoside"'
p893
aS'bronchodilator "limonin 17-o-beta-d-glucoside"'
p894
aS'bronchodilator "licarin c"'
p895
aS'bronchodilator "thial-1-propene-1-thiol s-oxide"'
p896
aS'bronchodilator "thearubigin"'
p897
aS'bronchodilator "cytokinin b"'
p898
aS'bronchodilator "phosphoglucomutase"'
p899
aS'bronchodilator "methylglucopyranoside"'
p900
aS'bronchodilator "hexyl phenylacetate"'
p901
aS'bronchodilator "sitosterol 3-o-(6\'-o-linoleyl-beta-d-glucoside)"'
p902
aS'bronchodilator "alpha-spinasterol"'
p903
aS'bronchodilator "4\xce\xb1-methyl-5\xce\xb1-cholesta-7,24-dien-3\xce\xb2-ol"'
p904
aS'bronchodilator "butin"'
p905
aS'bronchodilator "(-)-lyoniresinol 9\'-sulfate"'
p906
aS'bronchodilator "fructose-1-phosphate"'
p907
aS'bronchodilator "8-oxo-gtp"'
p908
aS'bronchodilator "cinchonine"'
p909
aS'bronchodilator "1,2,5-trihydroxybenzene"'
p910
aS'bronchodilator "3-o-(4-o-methyl-a-d-glucopyranuronosyl)-l-arabinose"'
p911
aS'bronchodilator "diosmetin 7-neohesperidoside"'
p912
aS'bronchodilator "hydroxytyrosol acetate"'
p913
aS'bronchodilator "isovitexin 2\'\'-galactoside"'
p914
aS'bronchodilator "valencene"'
p915
aS'bronchodilator "liquiritin"'
p916
aS'bronchodilator "lysopc(18:1(9z))"'
p917
aS'bronchodilator "arachisprenol 11"'
p918
aS'bronchodilator "(+)-secoisolariciresinol"'
p919
aS'bronchodilator "s-propyl 2-propene-1-sulfinothioate"'
p920
aS'bronchodilator "prunetin"'
p921
aS'bronchodilator "sitosterol 3-o-(6\'-o-palmitoyl-beta-d-glucoside)"'
p922
aS'bronchodilator "palmitoleate"'
p923
aS'bronchodilator "gamma-eudesmol"'
p924
aS'bronchodilator "bisabolene oxide"'
p925
aS'bronchodilator "isochlorogenic acid"'
p926
aS'bronchodilator "aucubin"'
p927
aS'bronchodilator "procyanidin c1"'
p928
aS'bronchodilator "procyanidin c2"'
p929
aS'bronchodilator "[10]-dehydrogingerdione"'
p930
aS'bronchodilator "6-phospho d-gluconate"'
p931
aS'bronchodilator "ascaridole"'
p932
aS'bronchodilator "citronellal"'
p933
aS'bronchodilator "zeaxanthin dipalmitate"'
p934
aS'bronchodilator "1-tridecanoic acid"'
p935
aS'bronchodilator "pc(20:3(8z,11z,14z)/p-18:1(11z))"'
p936
aS'bronchodilator "ranupenin 3-rutinoside"'
p937
aS'bronchodilator "oxypeucedanin hydrate"'
p938
aS'bronchodilator "propane-1,3-diamine"'
p939
aS'bronchodilator "d-myo-inositol (2,3,4) trisphosphate"'
p940
aS'bronchodilator "coniferyl acetate"'
p941
aS'bronchodilator "(all-e)-6\'-apo-y-caroten-6\'-al"'
p942
aS'bronchodilator "pc(p-18:1(9z)/18:0)"'
p943
aS'bronchodilator "glucoraphanin"'
p944
aS'bronchodilator "l-iditol"'
p945
aS'bronchodilator "dimethyl diselenide"'
p946
aS'bronchodilator "2,5-dimethylthiazole"'
p947
aS'bronchodilator "docusate sodium"'
p948
aS'bronchodilator "laurate"'
p949
aS'bronchodilator "ng,n\'g-dimethyl-l-arginine"'
p950
aS'bronchodilator "procyanidin c"'
p951
aS'bronchodilator "asiatic acid"'
p952
aS'bronchodilator "quercetin 3-o-beta-robinoside 7-o-alpha-l-rhamnopyranoside"'
p953
aS'bronchodilator "acanthoside d"'
p954
aS'bronchodilator "hydroxycinnamic acid"'
p955
aS'bronchodilator "2-propenal"'
p956
aS'bronchodilator "cinchonidine"'
p957
aS'bronchodilator "glycyrol"'
p958
aS'bronchodilator "pc(18:3(9z,12z,15z)/18:3(9z,12z,15z))"'
p959
aS'bronchodilator "prunus inhibitor b"'
p960
aS'bronchodilator "prunus inhibitor a"'
p961
aS'bronchodilator "pc(18:3(6z,9z,12z)/18:0)"'
p962
aS'bronchodilator "d-myo-inositol (1,2,6) trisphosphate"'
p963
aS'bronchodilator "pterostilbene"'
p964
aS'bronchodilator "1,5-dicaffeoylquinic acid"'
p965
aS'bronchodilator "alpha-terpineol"'
p966
aS'bronchodilator "ajoene"'
p967
aS'bronchodilator "(24r)-ergost-4-ene-3,6-dione"'
p968
aS'bronchodilator "(3beta,5alpha)-3-hydroxypregn-16-en-20-one"'
p969
aS'bronchodilator "licochalcone a"'
p970
aS'bronchodilator "ethyl formate"'
p971
aS'bronchodilator "l-glutamic acid 5-phosphate"'
p972
aS'bronchodilator "cucurbitacin i"'
p973
aS'bronchodilator "betaine aldehyde"'
p974
aS'bronchodilator "mytilin a"'
p975
aS'bronchodilator "mytilin b"'
p976
aS'bronchodilator "moracin j"'
p977
aS'bronchodilator "enterolactone"'
p978
aS'bronchodilator "5,6:8,9-diepoxyergost-22-ene-3,7alpha-diol"'
p979
aS'bronchodilator "3-hydroxyflavone"'
p980
aS'bronchodilator "aromadendrin"'
p981
aS'bronchodilator "4\xce\xb1-carboxy-5\xce\xb1-cholesta-8,24-dien-3\xce\xb2-ol"'
p982
aS'bronchodilator "(9z)-12-oxo-dodec-9-enoate"'
p983
aS'bronchodilator "methylene glutamine"'
p984
aS'bronchodilator "3-thujanone"'
p985
aS'bronchodilator "pheophorbide a"'
p986
aS'bronchodilator "eupafolin"'
p987
aS'bronchodilator "ginsenoside rh3"'
p988
aS'bronchodilator "5-tricosyl-1,3-benzenediol"'
p989
aS'bronchodilator "verbenone"'
p990
aS'bronchodilator "daidzin"'
p991
aS'bronchodilator "(+)-verbenone"'
p992
aS'bronchodilator "pc(p-18:1(9z)/18:3(9z,12z,15z))"'
p993
aS'bronchodilator "curcumenone"'
p994
aS'bronchodilator "germacrene"'
p995
aS'bronchodilator "galactan"'
p996
aS'bronchodilator "sitosterol beta-d-glucoside"'
p997
aS'bronchodilator "pelargonidin 3-beta-d-glucosyl-rutinoside"'
p998
aS'bronchodilator "(r)-limonene"'
p999
aS'bronchodilator "selenomethionine"'
p1000
aS'bronchodilator "cyanocobalamin"'
p1001
aS'bronchodilator "[16]-gingerol"'
p1002
aS'bronchodilator "tantalum"'
p1003
aS'bronchodilator "octadecenoic acid"'
p1004
aS'bronchodilator "tryptophol"'
p1005
aS'bronchodilator "myricetin 3-[galloyl-(->2)-4-acetyl-a-l-rhamnoside]"'
p1006
aS'bronchodilator "allantoic acid"'
p1007
aS'bronchodilator "(r)-glabridin"'
p1008
aS'bronchodilator "pc(18:1(11z)/20:3(8z,11z,14z))"'
p1009
aS'bronchodilator "s-hydroxymethylglutathione"'
p1010
aS'bronchodilator "trans-beta-ocimene"'
p1011
aS'bronchodilator "4-hydroxyxanthone"'
p1012
aS'bronchodilator "5-methyl-tetrahydrofolate"'
p1013
aS'bronchodilator "grossamide"'
p1014
aS'bronchodilator "ethyl icosapentate"'
p1015
aS'bronchodilator "cyanidin 3-glucoside"'
p1016
aS'bronchodilator "2-c-hydroxymethyl-d-erythrono-1,4-lactone"'
p1017
aS'bronchodilator "casuarictin"'
p1018
aS'bronchodilator "paraffin wax"'
p1019
aS'bronchodilator "5\'-deoxyadenosine"'
p1020
aS'bronchodilator "safrole"'
p1021
aS'bronchodilator "methylether"'
p1022
aS'bronchodilator "xmp"'
p1023
aS'bronchodilator "2-(methylthio)phenol"'
p1024
aS'bronchodilator "ethyl butyrate"'
p1025
aS'bronchodilator "pentadecanoic acid"'
p1026
aS'bronchodilator "osthol"'
p1027
aS'bronchodilator "l-histidinol"'
p1028
aS'bronchodilator "2-amino-3,4-dimethylimidazo[4,5-f]quinoline"'
p1029
aS'bronchodilator "hyperin"'
p1030
aS'bronchodilator "xi-5-hexyldihydro-2(3h)-furanone"'
p1031
aS'bronchodilator "glutaric acid"'
p1032
aS'bronchodilator "alpha-ionol"'
p1033
aS'bronchodilator "(+)-aromadendrene"'
p1034
aS'bronchodilator "xi-2-hexyl-5-methyl-3(2h)-furanone"'
p1035
aS'bronchodilator "vitexin cinnamate"'
p1036
aS'bronchodilator "mannuronic acid"'
p1037
aS'bronchodilator "corilagin"'
p1038
aS'bronchodilator "s-propyl 1-propanesulfinothioate"'
p1039
aS'bronchodilator "ethyl carbamate"'
p1040
aS'bronchodilator "hydrogen carbonate"'
p1041
aS'bronchodilator "apigenin 7-o-(6\'\'-malonyl-apiosyl-glucoside)"'
p1042
aS'bronchodilator "dcmp"'
p1043
aS'bronchodilator "peonidin 3-rhamnosyl-glucosyl-glucoside"'
p1044
aS'bronchodilator "3\',8-dimethoxyapigenin 7-glucoside"'
p1045
aS'bronchodilator "dimethyl selenide"'
p1046
aS'bronchodilator "geranylgeranyl diphosphate"'
p1047
aS'bronchodilator "2-phenylethylamine"'
p1048
aS'bronchodilator "isopropylbenzene"'
p1049
aS'bronchodilator "crassostrea secocarotenoid"'
p1050
aS'bronchodilator "luteolin 7-glucoside"'
p1051
aS'bronchodilator "luteolin 7-o-(2-apiosyl-6-malonyl)-glucoside"'
p1052
aS'bronchodilator "4\',7-dihydroxy-2\',5-dimethoxyisoflavone"'
p1053
aS'bronchodilator "tricin 7-glucuronoside"'
p1054
aS'bronchodilator "2,8-dihydroxy-3,4,7-trimethoxy-dibenzofuran"'
p1055
aS'bronchodilator "7,8-dehydroastaxanthianthin"'
p1056
aS'bronchodilator "pc(p-18:1(9z)/20:3(8z,11z,14z))"'
p1057
aS'bronchodilator "trans-p-coumaric acid"'
p1058
aS'bronchodilator "(r)-carvone"'
p1059
aS'bronchodilator "n-methylaniline"'
p1060
aS'bronchodilator "quercitin 3-glucosyl-rhamnoside"'
p1061
aS'bronchodilator "avocadyne 1-acetate"'
p1062
aS'bronchodilator "ytterbium"'
p1063
aS'bronchodilator "aflatoxin m1"'
p1064
aS'bronchodilator "7,8-dihydroyangonin"'
p1065
aS'bronchodilator "allyl alcohol"'
p1066
aS'bronchodilator "prostaglandin b-1"'
p1067
aS'bronchodilator "harmalol"'
p1068
aS'bronchodilator "anthranilate"'
p1069
aS'bronchodilator "citrullin"'
p1070
aS'bronchodilator "alpha-caryophyllene alcohol"'
p1071
aS'bronchodilator "gallocatechin"'
p1072
aS'bronchodilator "kuwanon a"'
p1073
aS'bronchodilator "2-aminoethanol"'
p1074
aS'bronchodilator "6-hydroxykaempferol 3,6,7-triglucoside"'
p1075
aS'bronchodilator "[9]-gingerol"'
p1076
aS'bronchodilator "cis-lutein-5,6-epoxide"'
p1077
aS'bronchodilator "phosvitin"'
p1078
aS'bronchodilator "falcarindiol"'
p1079
aS'bronchodilator "fluorene"'
p1080
aS'bronchodilator "fucosterol"'
p1081
aS'bronchodilator "cubebin"'
p1082
aS'bronchodilator "p-menthan-trans-2,5-diol"'
p1083
aS'bronchodilator "d-myo-inositol (3,4,5,6)-tetrakisphosphate"'
p1084
aS'bronchodilator "6,8-dihydroxy-1,7-diprenylxanthone-2-carboxylic acid"'
p1085
aS'bronchodilator "norfuraneol"'
p1086
aS'bronchodilator "d-glucaric acid"'
p1087
aS'bronchodilator "mulberrofuran q"'
p1088
aS'bronchodilator "orotate"'
p1089
aS'bronchodilator "mulberrofuran s"'
p1090
aS'bronchodilator "gallocatechin 3-gallate"'
p1091
aS'bronchodilator "glycinoprenol 11"'
p1092
aS'bronchodilator "mulberrofuran p"'
p1093
aS'bronchodilator "2-cis,4-trans-xanthoxin"'
p1094
aS'bronchodilator "dihydroisocycloartomunin"'
p1095
aS'bronchodilator "avocadene 1-acetate"'
p1096
aS'bronchodilator "s-adenosyl-l-homocysteine"'
p1097
aS'bronchodilator "methyl linoleate"'
p1098
aS'bronchodilator "isofraxidin"'
p1099
aS'bronchodilator "4-hydroxybenzoic acid"'
p1100
aS'bronchodilator "octadeca-6,9,12,15-tetraenoic acid"'
p1101
aS'bronchodilator "heptaphylline"'
p1102
aS'bronchodilator "1-undecanol"'
p1103
aS'bronchodilator "(r)-p-mentha-1,8-dien-7-ol"'
p1104
aS'bronchodilator "lithospermic acid"'
p1105
aS'bronchodilator "(-)-linalyl acetate"'
p1106
aS'bronchodilator "trans-p-menth-2-ene-1,4-diol"'
p1107
aS'bronchodilator "quercetin 3-rutinoside 4\'-glucoside"'
p1108
aS'bronchodilator "sakuranetin"'
p1109
aS'bronchodilator "hydroxymethylbilane"'
p1110
aS'bronchodilator "butyl nitrite"'
p1111
aS'bronchodilator "ethyl methyl sulfide"'
p1112
aS'bronchodilator "alpha-cadinol"'
p1113
aS'bronchodilator "niobium"'
p1114
aS'bronchodilator "kaempferitrin"'
p1115
aS'bronchodilator "asiaticoside"'
p1116
aS'bronchodilator "geranyl acetate"'
p1117
aS'bronchodilator "hydrogen selenide"'
p1118
aS'bronchodilator "peonidin"'
p1119
aS'bronchodilator "desmosine"'
p1120
aS'bronchodilator "cycloartenol"'
p1121
aS'bronchodilator "eupatorin"'
p1122
aS'bronchodilator "isoferulic acid"'
p1123
aS'bronchodilator "1,5-bisdiphosphoinositol-1d-myo-inositol (2,3,4,6)tetrakisphosphate"'
p1124
aS'bronchodilator "ricinoleic acid"'
p1125
aS'bronchodilator "hexadecanoic acid"'
p1126
aS'bronchodilator "diethylstilbesterol"'
p1127
aS'bronchodilator "4-methylthiazole"'
p1128
aS'bronchodilator "gamma-elemene"'
p1129
aS'bronchodilator "punicalagin"'
p1130
aS'bronchodilator "5-methylnaringenin 7-glucoside"'
p1131
aS'bronchodilator "2,4-pentanedione"'
p1132
aS'bronchodilator "olomoucine"'
p1133
aS'bronchodilator "shikimate"'
p1134
aS'bronchodilator "[12]-shogaol"'
p1135
aS'bronchodilator "pc(p-18:1(11z)/20:3(8z,11z,14z))"'
p1136
aS'bronchodilator "4-ethyl-5-methyl-2-(1-methylethyl)oxazole"'
p1137
aS'bronchodilator "l-carnosine"'
p1138
aS'bronchodilator "glycine betaine"'
p1139
aS'bronchodilator "2h-1,4-benzoxazin-3(4h)-one"'
p1140
aS'bronchodilator "3-methylcatechol"'
p1141
aS'bronchodilator "methyl 4-methylpentanoate"'
p1142
aS'bronchodilator "17alpha-ethynylestradiol"'
p1143
aS'bronchodilator "piperitone"'
p1144
aS'bronchodilator "anthocyanidins"'
p1145
aS'bronchodilator "(-)-isomenthone"'
p1146
aS'bronchodilator "sinigrin"'
p1147
aS'bronchodilator "4-hydroxy-2-nonenal-[l-cys] conjugate"'
p1148
aS'bronchodilator "silicic acid"'
p1149
aS'bronchodilator "hydrogen sulfite"'
p1150
aS'bronchodilator "2-methylpropanal"'
p1151
aS'bronchodilator "levocarnitine"'
p1152
aS'bronchodilator "pc(18:1(11z)/18:0)"'
p1153
aS'bronchodilator "(r)-norepinephrine"'
p1154
aS'bronchodilator "1-undecene"'
p1155
aS'bronchodilator "7,18-dihydroxykaurenolide"'
p1156
aS'bronchodilator "beta-amyrin"'
p1157
aS'bronchodilator "phellandrene"'
p1158
aS'bronchodilator "glyurallin b"'
p1159
aS'bronchodilator "dehydrocostus lactone"'
p1160
aS'bronchodilator "feruloylquinic acid"'
p1161
aS'bronchodilator "undecanoic acid"'
p1162
aS'bronchodilator "pc(o-18:1(9z)/18:0)"'
p1163
aS'bronchodilator "pc(p-18:1(9z)/20:0)"'
p1164
aS'bronchodilator "cyanidin-3-o-\xce\xb2-d-glucoside"'
p1165
aS'bronchodilator "procurcumenol"'
p1166
aS'bronchodilator "(+)-isomenthone"'
p1167
aS'bronchodilator "chlorohydrin"'
p1168
aS'bronchodilator "sanguisobic acid dilactone"'
p1169
aS'bronchodilator "15-hete"'
p1170
aS'bronchodilator "phosphoadenosine-5\'-phosphosulfate"'
p1171
aS'bronchodilator "hexadecane"'
p1172
aS'bronchodilator "(-)-kaur-16-en-19-oic acid"'
p1173
aS'bronchodilator "ligustilide"'
p1174
aS'bronchodilator "d-glucitol"'
p1175
aS'bronchodilator "camalexin"'
p1176
aS'bronchodilator "1-hexadecene"'
p1177
aS'bronchodilator "rhamnocitrin"'
p1178
aS'bronchodilator "hulupinic acid"'
p1179
aS'bronchodilator "carvone-8,9-oxide"'
p1180
aS'bronchodilator "moracin f"'
p1181
aS'bronchodilator "betulin"'
p1182
aS'bronchodilator "\xce\xb1-linolenate"'
p1183
aS'bronchodilator "xanthyletin"'
p1184
aS'bronchodilator "moracin b"'
p1185
aS'bronchodilator "capsidiol"'
p1186
aS'bronchodilator "astragalin 2\'\'-galactoside 6\'\'-rhamnoside"'
p1187
aS'bronchodilator "2,6-dimethoxy-1,4-benzoquinone"'
p1188
aS'bronchodilator "gentisic acid"'
p1189
aS'bronchodilator "surugatoxin"'
p1190
aS'bronchodilator "24-epibrassinolide"'
p1191
aS'bronchodilator "hydroxysintaxanthin 5,6-epoxide"'
p1192
aS'bronchodilator "erythrodiol 3-decanoate"'
p1193
aS'bronchodilator "uricase"'
p1194
aS'bronchodilator "muurolol"'
p1195
aS'bronchodilator "docosenoic acid"'
p1196
aS'bronchodilator "pelargonidin 3-o-\xce\xb2-d-p-coumaroylglucoside"'
p1197
aS'bronchodilator "momilactone a"'
p1198
aS'bronchodilator "1,3-benzenediol"'
p1199
aS'bronchodilator "6-hydroxykaempferol"'
p1200
aS'bronchodilator "3-(3,4-dihydroxybenzyl)-7-hydroxy-5-methoxy-4-chromanone"'
p1201
aS'bronchodilator "1,3-dimethylpyrrolo[1,2-a]pyrazine"'
p1202
aS'bronchodilator "corosolic acid"'
p1203
aS'bronchodilator "(2e,4e)-decadienal"'
p1204
aS'bronchodilator "\xce\xb2-d-galactose"'
p1205
aS'bronchodilator "maltotriose"'
p1206
aS'bronchodilator "stearoyl-coa"'
p1207
aS'bronchodilator "reynosin"'
p1208
aS'bronchodilator "4-acorene-3,8-dione"'
p1209
aS'bronchodilator "delphinidin 3-sambubioside"'
p1210
aS'bronchodilator "l-(-)-homoserine"'
p1211
aS'bronchodilator "maltol"'
p1212
aS'bronchodilator "quercetin 3-o-beta-d-glucopyranoside 7-o-beta-l-rutinoside"'
p1213
aS'bronchodilator "dioscorine"'
p1214
aS'bronchodilator "n-heptane"'
p1215
aS'bronchodilator "n-isobutyl-13-(3,4-methylenedioxyphenyl)-trideca-trans-2-trans-4-trans-12-trienamide"'
p1216
aS'bronchodilator "dihydrobenzofuran"'
p1217
aS'bronchodilator "12,14-dotriacontanedione"'
p1218
aS'bronchodilator "3-heptanone"'
p1219
aS'bronchodilator "cnidicin"'
p1220
aS'bronchodilator "bergapten"'
p1221
aS'bronchodilator "pc(o-18:1(9z)/20:1(11z))"'
p1222
aS'bronchodilator "carpaine"'
p1223
aS'bronchodilator "pulcherosine"'
p1224
aS'bronchodilator "malvidin 3,5-diglucoside"'
p1225
aS'bronchodilator "cetyl alcohol"'
p1226
aS'bronchodilator "(1r*,3r*,6s*)-3-caranol"'
p1227
aS'bronchodilator "delta-7,8-octadecanoic acid"'
p1228
aS'bronchodilator "glucoerucin"'
p1229
aS'bronchodilator "2-butyl-4-hydroxy-5-methyl-3(2h)-furanone"'
p1230
aS'bronchodilator "pc(20:0/18:1(11z))"'
p1231
aS'bronchodilator "lucidone b"'
p1232
aS'bronchodilator "aesculin"'
p1233
aS'bronchodilator "13-tetradecene-1,3-diyne-6,7-diol"'
p1234
aS'bronchodilator "2-octanone"'
p1235
aS'bronchodilator "methyl stearate"'
p1236
aS'bronchodilator "caprolactam"'
p1237
aS'bronchodilator "d-xylulose 5-phosphate"'
p1238
aS'bronchodilator "isoginkgetin"'
p1239
aS'bronchodilator "girinimbine"'
p1240
aS'bronchodilator "cadinol"'
p1241
aS'bronchodilator "momordin i"'
p1242
aS'bronchodilator "pc(o-18:2(9z,12z)/20:0)"'
p1243
aS'bronchodilator "coniferyl aldehyde"'
p1244
aS'bronchodilator "rhapontigenin"'
p1245
aS'bronchodilator "glucobrassicin"'
p1246
aS'bronchodilator "quercetin 3-sulfate"'
p1247
aS'bronchodilator "3alpha-12-ursene-3,24-diol"'
p1248
aS'bronchodilator "trans-ferulic acid"'
p1249
aS'bronchodilator "tuberin"'
p1250
aS'bronchodilator "loliolide"'
p1251
aS'bronchodilator "hordenine"'
p1252
aS'bronchodilator "geraniol"'
p1253
aS'bronchodilator "pc(o-18:1(9z)/18:1(11z))"'
p1254
aS'bronchodilator "n,n-dimethylformamide"'
p1255
aS'bronchodilator "4-hydroxyphenylacetic acid"'
p1256
aS'bronchodilator "(2s)-pinocembrin"'
p1257
aS'bronchodilator "(5alpha,14alpha)-14-methylcholestan-3-one"'
p1258
aS'bronchodilator "ganoderic acid i"'
p1259
aS'bronchodilator "prodelphinidin"'
p1260
aS'bronchodilator "santal"'
p1261
aS'bronchodilator "ganoderic acid u"'
p1262
aS'bronchodilator "ganoderic acid t"'
p1263
aS'bronchodilator "zein"'
p1264
aS'bronchodilator "isovitexin 7-(6\'\'\'-sinapoylglucoside)"'
p1265
aS'bronchodilator "demethylsuberosin"'
p1266
aS'bronchodilator "biochanin-a"'
p1267
aS'bronchodilator "uranium"'
p1268
aS'bronchodilator "ochratoxin a"'
p1269
aS'bronchodilator "isoimperatorin"'
p1270
aS'bronchodilator "citronellol"'
p1271
aS'bronchodilator "auraptene"'
p1272
aS'bronchodilator "4-hydroxyderricin"'
p1273
aS'bronchodilator "alpha-alanine"'
p1274
aS'bronchodilator "biochanin a"'
p1275
aS'bronchodilator "oleyl alcohol"'
p1276
aS'bronchodilator "4-methoxybenzyl isothiocyanate"'
p1277
aS'bronchodilator "dodecanoic acid"'
p1278
aS'bronchodilator "methyl-[10]-gingerol"'
p1279
aS'bronchodilator "propyl gallate"'
p1280
aS'bronchodilator "4-vinylpyridine"'
p1281
aS'bronchodilator "beta-boswellic acid"'
p1282
aS'bronchodilator "cellobiose"'
p1283
aS'bronchodilator "7-hydroxybutylidenephthalide 7-glucoside"'
p1284
aS'bronchodilator "methyl methanethiosulfonate"'
p1285
aS'bronchodilator "bis-(4-hydroxycinnamoyl)-methane"'
p1286
aS'bronchodilator "sinensetin"'
p1287
aS'bronchodilator "5-nonadecyl-1,3-benzenediol"'
p1288
aS'bronchodilator "6-methoxy-2(3)-benzoxazolinone"'
p1289
aS'bronchodilator "dihydroasparagusic acid"'
p1290
aS'bronchodilator "palmitoleic acid"'
p1291
aS'bronchodilator "7-dehydrocholesterol"'
p1292
aS'bronchodilator "licorice glycoside b"'
p1293
aS'bronchodilator "(+)-pinoresinol"'
p1294
aS'bronchodilator "questinol"'
p1295
aS'bronchodilator "pc(16:0/p-16:0)"'
p1296
aS'bronchodilator "mgd 2"'
p1297
aS'bronchodilator "daphnetin"'
p1298
aS'bronchodilator "pc(18:3(9z,12z,15z)/p-18:1(11z))"'
p1299
aS'bronchodilator "sinapoyl 8-d-galactosyl 6-c-arabinosyl-apigenin"'
p1300
aS'bronchodilator "(9e)-valenciaxanthin"'
p1301
aS'bronchodilator "phellopterin"'
p1302
aS'bronchodilator "trans-p-coumaroyl beta-d-glucopyranoside"'
p1303
aS'bronchodilator "avenanthramide 2c"'
p1304
aS'bronchodilator "l-3-aminodihydro-2(3h)-furanone"'
p1305
aS'bronchodilator "bakkenolide c"'
p1306
aS'bronchodilator "2-ethylfuran"'
p1307
aS'bronchodilator "benzophenone"'
p1308
aS'bronchodilator "menatetrenone"'
p1309
aS'bronchodilator "ligustroside"'
p1310
aS'bronchodilator "ethyl cinnamate"'
p1311
aS'bronchodilator "carnosol"'
p1312
aS'bronchodilator "norharman"'
p1313
aS'bronchodilator "fumaric acid"'
p1314
aS'bronchodilator "propyl butyrate"'
p1315
aS'bronchodilator "formononetin 7-(6\'\'-methylmalonylglucoside)"'
p1316
aS'bronchodilator "l-asparagine"'
p1317
aS'bronchodilator "polygalacturonase"'
p1318
aS'bronchodilator "malvidin"'
p1319
aS'bronchodilator "ginsenoside rg3"'
p1320
aS'bronchodilator "ginsenoside rg5"'
p1321
aS'bronchodilator "citrusin i"'
p1322
aS'bronchodilator "rosmanol"'
p1323
aS'bronchodilator "kaempferol 3-gentiobioside"'
p1324
aS'bronchodilator "cytidine 5\'-triphosphate"'
p1325
aS'bronchodilator "cyclocommunin"'
p1326
aS'bronchodilator "coproporphyrin iii"'
p1327
aS'bronchodilator "actinodaphnine"'
p1328
aS'bronchodilator "pc(18:1(9z)/18:4(6z,9z,12z,15z))"'
p1329
aS'bronchodilator "4-methylphenol"'
p1330
aS'bronchodilator "(2s,3\'s)-alpha-amino-2-carboxy-5-oxo-1-pyrrolidinebutanoic acid"'
p1331
aS'bronchodilator "isomucronulatol"'
p1332
aS'bronchodilator "o-toluidine"'
p1333
aS'bronchodilator "xylan"'
p1334
aS'bronchodilator "4-methyl-2-oxopentanoate"'
p1335
aS'bronchodilator "sanguinarine"'
p1336
aS'bronchodilator "ubiquinone 100"'
p1337
aS'bronchodilator "xanthoangelol"'
p1338
aS'bronchodilator "nonadecane"'
p1339
aS'bronchodilator "isopropyl benzoate"'
p1340
aS'bronchodilator "6-hydroxy-4,6-dimethyl-3-hepten-2-one"'
p1341
aS'bronchodilator "astin i"'
p1342
aS'bronchodilator "methyl ferulate"'
p1343
aS'bronchodilator "d-myo-inositol (1,2,3,5,6) pentakisphosphate"'
p1344
aS'bronchodilator "(8e)-piperamide-c9:1"'
p1345
aS'bronchodilator "liquiritigenin"'
p1346
aS'bronchodilator "haematin"'
p1347
aS'bronchodilator "methyl phenyl disulfide"'
p1348
aS'bronchodilator "2-aminoadipic acid"'
p1349
aS'bronchodilator "brassinolide"'
p1350
aS'bronchodilator "ubiquinone 10"'
p1351
aS'bronchodilator "sugiol"'
p1352
aS'bronchodilator "malvidin 3-chlorogenic acid glucoside"'
p1353
aS'bronchodilator "12,15-cis-sylvaticin"'
p1354
aS'bronchodilator "solamargine"'
p1355
aS'bronchodilator "sequoyitol"'
p1356
aS'bronchodilator "cyclomulberrin"'
p1357
aS'bronchodilator "aesculetin"'
p1358
aS'bronchodilator "ethyl lactate"'
p1359
aS'bronchodilator "alpha-humulene"'
p1360
aS'bronchodilator "thebaine"'
p1361
aS'bronchodilator "isolappaol c"'
p1362
aS'bronchodilator "seselin"'
p1363
aS'bronchodilator "canthaxanthin"'
p1364
aS'bronchodilator "alliin"'
p1365
aS'bronchodilator "isoorientin 6\'\'-rhamnoside"'
p1366
aS'bronchodilator "lysophosphatidylserine"'
p1367
aS'bronchodilator "neral"'
p1368
aS'bronchodilator "dihydrouracil"'
p1369
aS'bronchodilator "hederagenin"'
p1370
aS'bronchodilator "myrianthic acid"'
p1371
aS'bronchodilator "3-ferulylpelargonidin 5-glucoside"'
p1372
aS'bronchodilator "3,4\',5,6,8-pentamethoxyflavone"'
p1373
aS'bronchodilator "abscisic alcohol 11-glucoside"'
p1374
aS'bronchodilator "cycloartanol"'
p1375
aS'bronchodilator "xi-p-coumaric acid 4-glucoside"'
p1376
aS'bronchodilator "3beta-7-drimene-3,11-diol"'
p1377
aS'bronchodilator "l-fucose"'
p1378
aS'bronchodilator "pectic acid"'
p1379
aS'bronchodilator "amygdalin"'
p1380
aS'bronchodilator "heptanal"'
p1381
aS'bronchodilator "pentylamine"'
p1382
aS'bronchodilator "15beta,19-ent-dihydroxy-7-trachylobanone"'
p1383
aS'bronchodilator "\xce\xb1-amyrin"'
p1384
aS'bronchodilator "nomilin 17-o-beta-d-glucoside"'
p1385
aS'bronchodilator "l-acetylcarnitine"'
p1386
aS'bronchodilator "alpha-viniferin"'
p1387
aS'bronchodilator "propene"'
p1388
aS'bronchodilator "cis-beta-ocimene"'
p1389
aS'bronchodilator "[10]-shogaol"'
p1390
aS'bronchodilator "heptadecanoic acid"'
p1391
aS'bronchodilator "isohumulone a"'
p1392
aS'bronchodilator "13-nor-6-eremophilene-8,11-dione"'
p1393
aS'bronchodilator "soyasapogenol b"'
p1394
aS'bronchodilator "2-pentanone"'
p1395
aS'bronchodilator "avocadyne 2-acetate"'
p1396
aS'bronchodilator "d-alanyl-d-alanine"'
p1397
aS'bronchodilator "hyperforin"'
p1398
aS'bronchodilator "methyl anthranilate"'
p1399
aS'bronchodilator "norartocarpetin"'
p1400
aS'bronchodilator "cyclomorusin"'
p1401
aS'bronchodilator "d-sorbitol"'
p1402
aS'bronchodilator "d-glutamic acid"'
p1403
aS'bronchodilator "carvone"'
p1404
aS'bronchodilator "4-hydroxycinnamoyl methane"'
p1405
aS'bronchodilator "pc(p-18:1(9z)/18:1(11z))"'
p1406
aS'bronchodilator "anisatin"'
p1407
aS'bronchodilator "malvidin 3-(6\'\'-p-caffeyglucoside)"'
p1408
aS'bronchodilator "elemene"'
p1409
aS'bronchodilator "pc(20:0/p-18:1(11z))"'
p1410
aS'bronchodilator "vitexin 7-glucoside 2\'\'-p-coumarate"'
p1411
aS'bronchodilator "artocarpanone a"'
p1412
aS'bronchodilator "heptadecanone"'
p1413
aS'bronchodilator "alpha-guaiene"'
p1414
aS'bronchodilator "cerebroside"'
p1415
aS'bronchodilator "isoxanthohumol"'
p1416
aS'bronchodilator "2\'-oxoaloesol 7-glucoside"'
p1417
aS'bronchodilator "2-decenoic acid"'
p1418
aS'bronchodilator "12,14-nonacosanedione"'
p1419
aS'bronchodilator "genkwanin"'
p1420
aS'bronchodilator "methanethiol"'
p1421
aS'bronchodilator "dolichyl diphosphate"'
p1422
aS'bronchodilator "oleoresin"'
p1423
aS'bronchodilator "quercetin 3-o-methyl-ether"'
p1424
aS'bronchodilator "2h-1-benzopyran-2-one"'
p1425
aS'bronchodilator "safflomin a"'
p1426
aS'bronchodilator "avenin"'
p1427
aS'bronchodilator "8-acetoxy-4\'-methoxypinoresinol 4-glucoside"'
p1428
aS'bronchodilator "petunidin"'
p1429
aS'bronchodilator "methyl gallate"'
p1430
aS'bronchodilator "gamma-guanidinobutyric acid"'
p1431
aS'bronchodilator "ferulic acid ester"'
p1432
aS'bronchodilator "pentadecane"'
p1433
aS'bronchodilator "ent-6r,16boh,17-trihydroxy-7-oxo-6,7-seco-19,6-kauranolide 6-o-glucoside"'
p1434
aS'bronchodilator "isosakuranetin"'
p1435
aS'bronchodilator "peonidin 3-(6\'\'-p-coumaroyl-glucoside)"'
p1436
aS'bronchodilator "3-methyl-2-oxobutanoate"'
p1437
aS'bronchodilator "dammarenediol ii"'
p1438
aS'bronchodilator "7,9-hexacosanedione"'
p1439
aS'bronchodilator "yuccaol c"'
p1440
aS'bronchodilator "3-methylamyl angelate"'
p1441
aS'bronchodilator "ent-isokaur-15(16)-en-19-oic acid"'
p1442
aS'bronchodilator "3alpha,7alpha,22alpha-trihydroxystigmasten-(5)"'
p1443
aS'bronchodilator "pc(p-18:1(11z)/18:1(9z))"'
p1444
aS'bronchodilator "3-hexen-1-ol"'
p1445
aS'bronchodilator "lupeol"'
p1446
aS'bronchodilator "5-(8,11-pentadecadienyl)-1,3-benzenediol"'
p1447
aS'bronchodilator "avocadene 2-acetate"'
p1448
aS'bronchodilator "amylose"'
p1449
aS'bronchodilator "[10]-gingerdione"'
p1450
aS'bronchodilator "germacrone"'
p1451
aS'bronchodilator "betanin"'
p1452
aS'bronchodilator "potassium citrate"'
p1453
aS'bronchodilator "kaempferol 3-o-beta-robinoside 7-o-alpha-l-rhamnopyranoside"'
p1454
aS'bronchodilator "linalyl acetate"'
p1455
aS'bronchodilator "11,12-dimethoxydihydrokawain"'
p1456
aS'bronchodilator "3-mercaptopyruvate"'
p1457
aS'bronchodilator "torachrysone 8-(6-oxalylglucoside)"'
p1458
aS'bronchodilator "xi-5-isopropyl-2(5h)-furanone"'
p1459
aS'bronchodilator "chrysoeriol 7-(2\'\'-glucuronylglucuronide)"'
p1460
aS'bronchodilator "cis-p-coumaric acid"'
p1461
aS'bronchodilator "6,10-dehydrogingerdione"'
p1462
aS'bronchodilator "dehydrogingerdione"'
p1463
aS'bronchodilator "ent-16b-kauran-16,19-diol"'
p1464
aS'bronchodilator "beta-tocopherol"'
p1465
aS'bronchodilator "asparagusic acid"'
p1466
aS'bronchodilator "maclurin"'
p1467
aS'bronchodilator "xanthorrhizol"'
p1468
aS'bronchodilator "gibberellin methyl ester"'
p1469
aS'bronchodilator "friedelin"'
p1470
aS'bronchodilator "[7]-gingerol"'
p1471
aS'bronchodilator "isoeugenol"'
p1472
aS'bronchodilator "tetrahydro-6-(2-hydroxy-16,19-dimethylhexacosyl)-4-methyl-2h-pyran-2-one"'
p1473
aS'bronchodilator "campesterol"'
p1474
aS'bronchodilator "obacunone"'
p1475
aS'bronchodilator "dihydroxyacetone phosphate"'
p1476
aS'bronchodilator "chlorophyll b"'
p1477
aS'bronchodilator "vitexin"'
p1478
aS'bronchodilator "trans-p-menthane-1,8-diol"'
p1479
aS'bronchodilator "elemicin"'
p1480
aS'bronchodilator "(-)-olivil"'
p1481
aS'bronchodilator "\xce\xb4-tocopherol"'
p1482
aS'bronchodilator "5-hydroxy-7-(4-hydroxy-3-methoxyphenyl)-1-phenyl-3-heptanone"'
p1483
aS'bronchodilator "1-phenylethanol"'
p1484
aS'bronchodilator "isoorientin 7-arabinosyl-glucoside"'
p1485
aS'bronchodilator "phytomenadione"'
p1486
aS'bronchodilator "d-myo-inositol (1,4,5)-trisphosphate"'
p1487
aS'bronchodilator "elaidic acid"'
p1488
aS'bronchodilator "petunidin 3-(6\'\'-p-coumaroyl-glucoside)"'
p1489
aS'bronchodilator "isoorientin 2\'\'-arabinoside"'
p1490
aS'bronchodilator "rotundic acid"'
p1491
aS'bronchodilator "persicarin"'
p1492
aS'bronchodilator "(+)-alpha-bisabolol"'
p1493
aS'bronchodilator "1,4-naphtoquinone"'
p1494
aS'bronchodilator "myricanol"'
p1495
aS'bronchodilator "chrysophanol 1-tetraglucoside"'
p1496
aS'bronchodilator "cystathione"'
p1497
aS'bronchodilator "curcumenol"'
p1498
aS'bronchodilator "5-chloro-6-methoxy-2(3h)-benzoxazolone"'
p1499
aS'bronchodilator "systemin"'
p1500
aS'bronchodilator "pentosane"'
p1501
aS'bronchodilator "scutigeral"'
p1502
aS'bronchodilator "l-arabinose"'
p1503
aS'bronchodilator "bisabola-3,10-dien-2-one"'
p1504
aS'bronchodilator "(-)-valeranone"'
p1505
aS'bronchodilator "vitexin 2\'\'-xyloside"'
p1506
aS'bronchodilator "l-canaline"'
p1507
aS'bronchodilator "8-methoxycirsilineol"'
p1508
aS'bronchodilator "kaempferol 3-(2\'\',3\'\'-diacetyl-4\'\'-p-coumaroylrhamnoside)"'
p1509
aS'bronchodilator "maxepa"'
p1510
aS'bronchodilator "(-)-alpha-bisabolol"'
p1511
aS'bronchodilator "eriodictyol 7-(6-coumaroylglucoside)"'
p1512
aS'bronchodilator "delta-carotene-1,2-epoxide"'
p1513
aS'bronchodilator "carbamoylphosphate"'
p1514
aS'bronchodilator "shikimic acid"'
p1515
aS'bronchodilator "cyanidin 3-o-(6\'\'-acetyl-arabinoside)"'
p1516
aS'bronchodilator "dysprosium"'
p1517
aS'bronchodilator "tomatidine"'
p1518
aS'bronchodilator "isoliquiritin"'
p1519
aS'bronchodilator "2,6-di-tert-butyl-4-methylphenol"'
p1520
aS'bronchodilator "butein"'
p1521
aS'bronchodilator "glycolate"'
p1522
aS'bronchodilator "artocarpin"'
p1523
aS'bronchodilator "molybdopterin"'
p1524
aS'bronchodilator "malvidin 3-(6\'\'-acetyl-galactoside)"'
p1525
aS'bronchodilator "phenylacetaldehyde"'
p1526
aS'bronchodilator "1-propenyl 1-(1-propenylsulfinyl)propyl disulfide"'
p1527
aS'bronchodilator "l-isoleucine"'
p1528
aS'bronchodilator "linoelaidic acid"'
p1529
aS'bronchodilator "benzoxazole"'
p1530
aS'bronchodilator "hydrocyanic acid"'
p1531
aS'bronchodilator "alpha-amyrin-acetate"'
p1532
aS'bronchodilator "theaflavin 3-gallate"'
p1533
aS'bronchodilator "geranyl arabinopyranosyl-glucoside"'
p1534
aS'bronchodilator "2-methylbutyl 3-hydroxy-2-methylidenebutanoate"'
p1535
aS'bronchodilator "(r)-higenamine"'
p1536
aS'bronchodilator "cryptochrome"'
p1537
aS'bronchodilator "perillic acid"'
p1538
aS'bronchodilator "chrysoeriol"'
p1539
aS'bronchodilator "isolappaol a"'
p1540
aS'bronchodilator "l-galactose"'
p1541
aS'bronchodilator "leucocyanidin"'
p1542
aS'bronchodilator "dttp"'
p1543
aS'bronchodilator "ginkgotoxin"'
p1544
aS'bronchodilator "gamma-taraxastane-3,20-diol"'
p1545
aS'bronchodilator "trigonelline"'
p1546
aS'bronchodilator "10-octacosene-1,12-diol"'
p1547
aS'bronchodilator "prolamine"'
p1548
aS'bronchodilator "turmerone"'
p1549
aS'bronchodilator "eriodictyol"'
p1550
aS'bronchodilator "aminoacetone"'
p1551
aS'bronchodilator "anonaine"'
p1552
aS'bronchodilator "2-hexanol"'
p1553
aS'bronchodilator "nicotinic acid adenine dinucleotide"'
p1554
aS'bronchodilator "rbf pm"'
p1555
aS'bronchodilator "spathulenol"'
p1556
aS'bronchodilator "nodakenetin"'
p1557
aS'bronchodilator "5-megastigmen-7-yne-3,9-diol"'
p1558
aS'bronchodilator "p-coumaroylquinic acid"'
p1559
aS'bronchodilator "(24s)-24-methyl-25-dehydrocholesterol"'
p1560
aS'bronchodilator "avocadyne 4-acetate"'
p1561
aS'bronchodilator "4,4\'-dihydroxy-2\',6\'-dimethoxychalcone"'
p1562
aS'bronchodilator "rhenium"'
p1563
aS'bronchodilator "daucosterol"'
p1564
aS'bronchodilator "peonidin 3-alpha-l-galactoside"'
p1565
aS'bronchodilator "isotetrandrine"'
p1566
aS'bronchodilator "licorice glycoside a"'
p1567
aS'bronchodilator "avenanthramide 2"'
p1568
aS'bronchodilator "curdione"'
p1569
aS'bronchodilator "pc(18:1(11z)/18:4(6z,9z,12z,15z))"'
p1570
aS'bronchodilator "3-methylthiophene"'
p1571
aS'bronchodilator "amino adipic acid"'
p1572
aS'bronchodilator "n-propylmethane thiosulfinate"'
p1573
aS'bronchodilator "malvidin 3-glucoside"'
p1574
aS'bronchodilator "avenanthramide l"'
p1575
aS'bronchodilator "avenanthramide a"'
p1576
aS'bronchodilator "tridecyl phloretate"'
p1577
aS'bronchodilator "dl-lactic acid"'
p1578
aS'bronchodilator "tigloidine"'
p1579
aS'bronchodilator "lysophosphatidylethanolamine"'
p1580
aS'bronchodilator "pentanoic acid"'
p1581
aS'bronchodilator "mulberrofuran a"'
p1582
aS'bronchodilator "lacinilene c"'
p1583
aS'bronchodilator "4-phenylpyridine"'
p1584
aS'bronchodilator "isolariciresinol"'
p1585
aS'bronchodilator "2,4-dinitrophenylhydrazone"'
p1586
aS'bronchodilator "taraxasterol"'
p1587
aS'bronchodilator "isorhapontigenin"'
p1588
aS'bronchodilator "methyl acetate"'
p1589
aS'bronchodilator "3-(3,4-dihydroxyphenyl)propanoic acid"'
p1590
aS'bronchodilator "4-methoxybenzyl o-(2-sulfoglucoside)"'
p1591
aS'bronchodilator "d-glyceraldehyde 3-phosphate"'
p1592
aS'bronchodilator "l-tartaric acid"'
p1593
aS'bronchodilator "neogitogenin"'
p1594
aS'bronchodilator "diaminopropane"'
p1595
aS'bronchodilator "petunidin 3-o-(6\'\'-acetyl-galactoside)"'
p1596
aS'bronchodilator "allyl-2-propene thiosulfinate"'
p1597
aS'bronchodilator "medicagenic acid"'
p1598
aS'bronchodilator "11,12-dihydrolactaroviolin"'
p1599
aS'bronchodilator "alpha-chaconine"'
p1600
aS'bronchodilator "3-pentanone"'
p1601
aS'bronchodilator "rhamnetin"'
p1602
aS'bronchodilator "valerenic acid"'
p1603
aS'bronchodilator "3-deoxy-d-arabino-hexono-1,4-lactone"'
p1604
aS'bronchodilator "(e)-resveratrol"'
p1605
aS'bronchodilator "xanthotoxol"'
p1606
aS'bronchodilator "2-phenylethanol acetate"'
p1607
aS'bronchodilator "beta-caryophyllene epoxide ii"'
p1608
aS'bronchodilator "glycyrrhetic acid"'
p1609
aS'bronchodilator "angelicin"'
p1610
aS'bronchodilator "trideca-1-trans-3-trans-11-trien-5,7,9-triyn"'
p1611
aS'bronchodilator "3,5-bisdiphosphoinositol-1d-myo-inositol (2,3,4,6)tetrakisphosphate"'
p1612
aS'bronchodilator "nodakenin glucoside"'
p1613
aS'bronchodilator "dihydrocycloartomunin"'
p1614
aS'bronchodilator "casuarinin"'
p1615
aS'bronchodilator "(s)-2-azetidinecarboxylic acid"'
p1616
aS'bronchodilator "lappaol c"'
p1617
aS'bronchodilator "lappaol f"'
p1618
aS'bronchodilator "lappaol d"'
p1619
aS'bronchodilator "coclaurine"'
p1620
aS'bronchodilator "l-valine"'
p1621
aS'bronchodilator "psoralidin"'
p1622
aS'bronchodilator "3alpha-3-hydroxytirucalla-7,24-dien-21-oic acid"'
p1623
aS'bronchodilator "tricin 7-diglucuronoside"'
p1624
aS'bronchodilator "chrysosplenol"'
p1625
aS'bronchodilator "leonuriside a"'
p1626
aS'bronchodilator "dctp"'
p1627
aS'bronchodilator "irigenin"'
p1628
aS'bronchodilator "myristicin"'
p1629
aS'bronchodilator "naringin glucoside"'
p1630
aS'bronchodilator "allixin"'
p1631
aS'bronchodilator "urs-12-en-28-oic acid"'
p1632
aS'bronchodilator "butyl acetate"'
p1633
aS'bronchodilator "trans-[12]-shogaol"'
p1634
aS'bronchodilator "pc(20:1(11z)/18:4(6z,9z,12z,15z))"'
p1635
aS'bronchodilator "methionine sulfoxide"'
p1636
aS'bronchodilator "beta-conglycinin"'
p1637
aS'bronchodilator "alpha-phellandrene"'
p1638
aS'bronchodilator "4\xce\xb1-formyl-5\xce\xb1-cholesta-8,24-dien-3\xce\xb2-ol"'
p1639
aS'bronchodilator "octacosane"'
p1640
aS'bronchodilator "1h-pyrrole-2-carboxaldehyde"'
p1641
aS'bronchodilator "avocadene 4-acetate"'
p1642
aS'bronchodilator "isoorientin"'
p1643
aS'bronchodilator "biochanin a 7-(6-methylmalonylglucoside)"'
p1644
aS'bronchodilator "chrysoeriol 7-o-(6\'\'-malonyl-apiosyl-glucoside)"'
p1645
aS'bronchodilator "\xce\xb1-d-mannose"'
p1646
aS'bronchodilator "tridecanal"'
p1647
aS'bronchodilator "1-(4-hydroxy-3-methoxyphenyl)-5-(4-hydroxyphenyl)-penta-trans-1-trans-4-dien-3-one"'
p1648
aS'bronchodilator "2-hydroxy-6,7-dimethoxybenzoxazole"'
p1649
aS'bronchodilator "lathosterol"'
p1650
aS'bronchodilator "oleuropein-aglycone"'
p1651
aS'bronchodilator "dehydrogibberellin ga-25"'
p1652
aS'bronchodilator "7-hydroxy-n-hentriacontan-14,16-dione"'
p1653
aS'bronchodilator "nordihydrocapsaicin"'
p1654
aS'bronchodilator "acadesine 5\'-monophosphate"'
p1655
aS'bronchodilator "[6]-gingerdione"'
p1656
aS'bronchodilator "butyl formate"'
p1657
aS'bronchodilator "(-)-piperitol"'
p1658
aS'bronchodilator "panaxydol"'
p1659
aS'bronchodilator "narirutin"'
p1660
aS'bronchodilator "rubisco"'
p1661
aS'bronchodilator "d-myo-inositol (1,2,3,4,5)-pentakisphosphate"'
p1662
aS'bronchodilator "erucic acid"'
p1663
aS'bronchodilator "caffeoylquinic acid"'
p1664
aS'bronchodilator "d-xylulose"'
p1665
aS'bronchodilator "isoorientin 6\'\'-diglucoside"'
p1666
aS'bronchodilator "dimethyl sulfone"'
p1667
aS'bronchodilator "n\xcf\x89-hydroxy-l-arginine"'
p1668
aS'bronchodilator "ficin"'
p1669
aS'bronchodilator "2-hexyl-5-[2-(4-hydroxy-3-methoxyphenyl)ethyl]furan"'
p1670
aS'bronchodilator "wheat gluten"'
p1671
aS'bronchodilator "undecylenic acid"'
p1672
aS'bronchodilator "xanthotoxin"'
p1673
aS'bronchodilator "phytosterol"'
p1674
aS'bronchodilator "3,5,6-trihydroxy-3\',4\',7-trimethoxyflavone"'
p1675
aS'bronchodilator "pc(o-18:0/18:0)"'
p1676
aS'bronchodilator "11,12-dimethylrosmanol"'
p1677
aS'bronchodilator "5-amino-levulinate"'
p1678
aS'bronchodilator "dehydrosoyasaponin i"'
p1679
aS'bronchodilator "bergamottin"'
p1680
aS'bronchodilator "[6]-paradol"'
p1681
aS'bronchodilator "diphenyl ether"'
p1682
aS'bronchodilator "2-amino-3-methylimidazo[4,5-f]quinoline"'
p1683
aS'bronchodilator "polypodine b"'
p1684
aS'bronchodilator "chavicol"'
p1685
aS'bronchodilator "(5z,8z)-1,5,8-heptadecatriene"'
p1686
aS'bronchodilator "4-hydroxyproline"'
p1687
aS'bronchodilator "alloimperatorin"'
p1688
aS'bronchodilator "camellenodiol"'
p1689
aS'bronchodilator "pseudotropine"'
p1690
aS'bronchodilator "pc(20:1(11z)/18:3(6z,9z,12z))"'
p1691
aS'bronchodilator "hexenoic acid"'
p1692
aS'bronchodilator "(s)-reticuline"'
p1693
aS'bronchodilator "6\'-hmg sdg"'
p1694
aS'bronchodilator "cyanidin 3-o-(6\'\'-malonyl-3\'\'-glucosyl-glucoside)"'
p1695
aS'bronchodilator "pimpinellin"'
p1696
aS'bronchodilator "cycloartomunin"'
p1697
aS'bronchodilator "s-allylmercaptocysteine"'
p1698
aS'bronchodilator "geranyl arabinofuranosyl-glucoside"'
p1699
aS'bronchodilator "17-\xce\xb1-hydroxypregnenolone"'
p1700
aS'bronchodilator "ent-kaurene"'
p1701
aS'bronchodilator "methoxyphenylacetic acid"'
p1702
aS'bronchodilator "pc(20:3(8z,11z,14z)/18:3(6z,9z,12z))"'
p1703
aS'bronchodilator "gallic acid 3-glucoside"'
p1704
aS'bronchodilator "beta-phenethyl methyl ether"'
p1705
aS'bronchodilator "farnesiferol a"'
p1706
aS'bronchodilator "afrormosin"'
p1707
aS'bronchodilator "dimethoxycoumarin"'
p1708
aS'bronchodilator "geranylacetone"'
p1709
aS'bronchodilator "melibiose"'
p1710
aS'bronchodilator "s-propyl 1-propenesulfinothioate"'
p1711
aS'bronchodilator "cyanidin 3-[6-(6-sinapylglucosyl)-2-xylosylgalactoside]"'
p1712
aS'bronchodilator "10-gingerdione"'
p1713
aS'bronchodilator "3-methylbutyl 3-hydroxy-2-methylidenebutanoate"'
p1714
aS'bronchodilator "2-acetoxy-3-geranylgeranyl-1,4-dihydroxybenzene"'
p1715
aS'bronchodilator "cis-mulberroside a"'
p1716
aS'bronchodilator "taraxinic acid"'
p1717
aS'bronchodilator "rhamnogalacturonan i"'
p1718
aS'bronchodilator "bornyl acetate"'
p1719
aS'bronchodilator "3-methylpyridine"'
p1720
aS'bronchodilator "ppgpp"'
p1721
aS'bronchodilator "pelargonidin"'
p1722
aS'bronchodilator "pc(18:1(9z)/18:3(6z,9z,12z))"'
p1723
aS'bronchodilator "pc(18:3(9z,12z,15z)/18:3(6z,9z,12z))"'
p1724
aS'bronchodilator "4,6-decadiyn-1-ol isovalerate"'
p1725
aS'bronchodilator "lupulone"'
p1726
aS'bronchodilator "pseudouridine"'
p1727
aS'bronchodilator "isovitexin 2\'\'-arabinoside"'
p1728
aS'bronchodilator "5-hydroxytryptophol"'
p1729
aS'bronchodilator "cinnamic acid acetate"'
p1730
aS'bronchodilator "alpha-linoleic acid"'
p1731
aS'bronchodilator "tridecane"'
p1732
aS'bronchodilator "dimethyl disulfide"'
p1733
aS'bronchodilator "genkwanin 6,8-di-c-hexoside"'
p1734
aS'bronchodilator "multiflorin b"'
p1735
aS'bronchodilator "3-butylidene-1(3h)-isobenzofuranone"'
p1736
aS'bronchodilator "2\'-hydroxyacetophenone"'
p1737
aS'bronchodilator "multiflorin a"'
p1738
aS'bronchodilator "20,24-epoxy-25,26-dihydroxydammaran-3-one"'
p1739
aS'bronchodilator "s-carboxymethyl-l-cysteine"'
p1740
aS'bronchodilator "tetradecanoylcarnitine"'
p1741
aS'bronchodilator "pc(20:0/18:3(9z,12z,15z))"'
p1742
aS'bronchodilator "pc(o-22:0/18:3(6z,9z,12z))"'
p1743
aS'bronchodilator "butyl phenylacetate"'
p1744
aS'bronchodilator "quercetin 3-glucuronide"'
p1745
aS'bronchodilator "soyasaponin ii"'
p1746
aS'bronchodilator "theasinensin a"'
p1747
aS'bronchodilator "kaempferol 3-o-alpha-l-(2,3-di-trans-p-coumaroyl-rhamnopyranoside)"'
p1748
aS'bronchodilator "dtmp"'
p1749
aS'bronchodilator "5,10-methenyltetrahydrofolate"'
p1750
aS'bronchodilator "1-naphthaldehyde"'
p1751
aS'bronchodilator "pristane"'
p1752
aS'bronchodilator "o-quinone"'
p1753
aS'bronchodilator "glyceric acid"'
p1754
aS'bronchodilator "(all-e)-3,5,7-tridecatriene-9,11-diyn-1-ol"'
p1755
aS'bronchodilator "(+)-menthone"'
p1756
aS'bronchodilator "(2r,3r,4r)-2-amino-4-hydroxy-3-methylpentanoic acid"'
p1757
aS'bronchodilator "4-coumarate"'
p1758
aS'bronchodilator "sesamolin"'
p1759
aS'bronchodilator "2-ethoxy-1-methoxy-4-(1-propenyl)benzene"'
p1760
aS'bronchodilator "genistein 7-o-(2-p-coumaroylglucoside)"'
p1761
aS'bronchodilator "dihydrosphingosine"'
p1762
aS'bronchodilator "pyridoxamine"'
p1763
aS'bronchodilator "notoginsenoside a"'
p1764
aS'bronchodilator "d-tartaric acid"'
p1765
aS'bronchodilator "beta-ionone"'
p1766
aS'bronchodilator "3,4-dicaffeoylquinic acid"'
p1767
aS'bronchodilator "allyl-1-propenyl tetrasulfide"'
p1768
aS'bronchodilator "7,9-octacosanedione"'
p1769
aS'bronchodilator "momordin ic"'
p1770
aS'bronchodilator "soyasaponin i"'
p1771
aS'bronchodilator "soyasaponin a"'
p1772
aS'bronchodilator "calcium oxalate"'
p1773
aS'bronchodilator "pristanic acid"'
p1774
aS'bronchodilator "bromelains"'
p1775
aS'bronchodilator "d-glycerate"'
p1776
aS'bronchodilator "formononetin 7-(2-p-hydroxybenzoylglucoside)"'
p1777
aS'bronchodilator "beta-d-galactopyranosyl-(1->3)-beta-d-galactopyranosyl-(1->6)-d-galactose"'
p1778
aS'bronchodilator "7,9-pentacosanedione"'
p1779
aS'bronchodilator "pc(20:0/p-18:1(9z))"'
p1780
aS'bronchodilator "5-(14-heneicosenyl)-1,3-benzenediol"'
p1781
aS'bronchodilator "arjunolic acid"'
p1782
aS'bronchodilator "butylcyclohexane"'
p1783
aS'bronchodilator "2-methylfuran"'
p1784
aS'bronchodilator "artemisia ketone"'
p1785
aS'bronchodilator "ginsenoside rh2"'
p1786
aS'bronchodilator "ginsenoside rh1"'
p1787
aS'bronchodilator "(2e,6e)-piperamide-c7:2"'
p1788
aS'bronchodilator "beta-eudesmol"'
p1789
aS'bronchodilator "beta-d-glucopyranose"'
p1790
aS'bronchodilator "corchorifatty acid d"'
p1791
aS'bronchodilator "corchorifatty acid f"'
p1792
aS'bronchodilator "corchorifatty acid a"'
p1793
aS'bronchodilator "corchorifatty acid c"'
p1794
aS'bronchodilator "(2e,8e)-piperamide-c9:2"'
p1795
aS'bronchodilator "pc(14:0/p-16:0)"'
p1796
aS'bronchodilator "beta-thujaplicin"'
p1797
aS'bronchodilator "abscisic alcohol"'
p1798
aS'bronchodilator "pc(18:3(6z,9z,12z)/20:3(8z,11z,14z))"'
p1799
aS'bronchodilator "(3s,6e)-6-caryophyllen-15-al"'
p1800
aS'bronchodilator "12,14-triacontanedione"'
p1801
aS'bronchodilator "betanidin"'
p1802
aS'bronchodilator "pc(o-22:0/18:3(9z,12z,15z))"'
p1803
aS'bronchodilator "liquiritin 2\'\'-apioside"'
p1804
aS'bronchodilator "aminoimidazole carboxamide ribonucleotide"'
p1805
aS'bronchodilator "3,5-diacetoxy-7-(3,4-dihydroxyphenyl)-1-(4-hydroxy-3-methoxyphenyl)-heptane"'
p1806
aS'bronchodilator "(+)-asarinin"'
p1807
aS'bronchodilator "beta-caryophyllene epoxide i"'
p1808
aS'bronchodilator "1h-indole-3-methanol"'
p1809
aS'bronchodilator "genistin"'
p1810
aS'bronchodilator "jaceosidin"'
p1811
aS'bronchodilator "dioscin"'
p1812
aS'bronchodilator "4-hydroxybenzylamine"'
p1813
aS'bronchodilator "11,13-dotriacontanedione"'
p1814
aS'bronchodilator "chiro-inositol"'
p1815
aS'bronchodilator "isohopeaphenol"'
p1816
aS'bronchodilator "d-myo-inositol (1,3,4,6)-tetrakisphosphate"'
p1817
aS'bronchodilator "notoginsenoside l"'
p1818
aS'bronchodilator "levistolide a"'
p1819
aS'bronchodilator "kaempferol 3-(3\'\',6\'\'-diacetyl-2\'\',4\'\'-di-p-coumaroylrhamnoside)"'
p1820
aS'bronchodilator "(2s,2\'s)-pyrosaccharopine"'
p1821
aS'bronchodilator "hexahydrocurcumin"'
p1822
aS'bronchodilator "d-xylose"'
p1823
aS'bronchodilator "n-acetylanonaine"'
p1824
aS'bronchodilator "beryllium"'
p1825
aS'bronchodilator "norspermidine"'
p1826
aS'bronchodilator "10-dehydrogingerdione"'
p1827
aS'bronchodilator "2-c-methyl-d-erythritol-4-phosphate"'
p1828
aS'bronchodilator "pc(18:3(6z,9z,12z)/18:3(6z,9z,12z))"'
p1829
aS'bronchodilator "galactomannan"'
p1830
aS'bronchodilator "(-)-menthone"'
p1831
aS'bronchodilator "4,4\'-dihydroxy-3,3\'-dimethoxy-9,9\'-epoxylignan"'
p1832
aS'bronchodilator "plastoquinone 8"'
p1833
aS'bronchodilator "(25s)-26-hydroxy-24-methylenecycloartan-3-one"'
p1834
aS'bronchodilator "bassic acid"'
p1835
aS'bronchodilator "1,8-dihydroxy-3,5-dimethoxy-2-prenylxanthone"'
p1836
aS'bronchodilator "arctic acid"'
p1837
aS'bronchodilator "butter acids"'
p1838
aS'bronchodilator "beta-amylase"'
p1839
aS'bronchodilator "sporamin"'
p1840
aS'bronchodilator "4,5-di-o-caffeoylquinic acid"'
p1841
aS'bronchodilator "4\xce\xb1-formyl-4\xce\xb2-methyl-5\xce\xb1-cholesta-8,24-dien-3\xce\xb2-ol"'
p1842
aS'bronchodilator "pc(p-18:1(9z)/18:1(9z))"'
p1843
aS'bronchodilator "methyl helianthenoate f glucoside"'
p1844
aS'bronchodilator "pc(18:3(6z,9z,12z)/p-18:1(11z))"'
p1845
aS'bronchodilator "helveticoside"'
p1846
aS'bronchodilator "tamarixetin"'
p1847
aS'bronchodilator "masticadienonic acid"'
p1848
aS'bronchodilator "fadh"'
p1849
aS'bronchodilator "5-hexyldihydro-4-methyl-2(3h)-furanone"'
p1850
aS'bronchodilator "d-fructose 1,6-bisphosphate"'
p1851
aS'bronchodilator "gingerdiols"'
p1852
aS'bronchodilator "tricin 7-triglucuronoside"'
p1853
aS'bronchodilator "myristoyl-coa"'
p1854
aS'bronchodilator "5-ethyl-4-methyl-2-(1-methylethyl)oxazole"'
p1855
aS'bronchodilator "3-methylcyclohexanol"'
p1856
aS'bronchodilator "methoxypyrazine"'
p1857
aS'bronchodilator "desmosterol"'
p1858
aS'bronchodilator "3h-1,2-dithiole-3-thione"'
p1859
aS'bronchodilator "3,5,5-trimethylbenzyl alcohol"'
p1860
aS'bronchodilator "copalic acid"'
p1861
aS'bronchodilator "coproporphyrinogen iii"'
p1862
aS'bronchodilator "plumbagin"'
p1863
aS'bronchodilator "gamma-fagarine"'
p1864
aS'bronchodilator "pc(20:3(8z,11z,14z)/18:1(11z))"'
p1865
aS'bronchodilator "hericenone f"'
p1866
aS'bronchodilator "7,24-stigmastadien-3beta-ol"'
p1867
aS'bronchodilator "4-methyl-5-(2-phosphonooxyethyl)thiazole"'
p1868
aS'bronchodilator "scutellarein"'
p1869
aS'bronchodilator "hericenone b"'
p1870
aS'bronchodilator "scandium"'
p1871
aS'bronchodilator "xi-p-mentha-1(7),2-dien-4-ol"'
p1872
aS'bronchodilator "ar-turmerone"'
p1873
aS'bronchodilator "santamarin"'
p1874
aS'bronchodilator "(22\xce\xb1)-hydroxy-cholestanol"'
p1875
aS'bronchodilator "d-galacturonic acid"'
p1876
aS'bronchodilator "2,3-hexanedione"'
p1877
aS'bronchodilator "l-threonine"'
p1878
aS'bronchodilator "armillyl orsellinate"'
p1879
aS'bronchodilator "alkaloid a6"'
p1880
aS'bronchodilator "1,3,7-trimethylurate"'
p1881
aS'bronchodilator "pc(20:1(11z)/20:3(8z,11z,14z))"'
p1882
aS'bronchodilator "farnesyl pyrophosphate"'
p1883
aS'bronchodilator "citrinin"'
p1884
aS'bronchodilator "nonanal"'
p1885
aS'bronchodilator "biflorin"'
p1886
aS'bronchodilator "dibutyl phthalate"'
p1887
aS'bronchodilator "cellulase"'
p1888
aS'bronchodilator "isopropyl acetate"'
p1889
aS'bronchodilator "pc(18:3(9z,12z,15z)/p-18:1(9z))"'
p1890
aS'bronchodilator "alpha-amyrin tetratriacontanoate"'
p1891
aS'bronchodilator "n-nitrosothiazolidine-4-carboxylic acid"'
p1892
aS'bronchodilator "ergosterol peroxide"'
p1893
aS'bronchodilator "neochlorogenic acid"'
p1894
aS'bronchodilator "ribose 1-phosphate"'
p1895
aS'bronchodilator "4-hydroxyphenylpyruvate"'
p1896
aS'bronchodilator "pinocembrin"'
p1897
aS'bronchodilator "myricetin 3-(3\'\',4\'\'-diacetylrhamnoside)"'
p1898
aS'bronchodilator "tanabalin"'
p1899
aS'bronchodilator "(3\'\'-apiosyl-6\'\'-malonyl)astragalin"'
p1900
aS'bronchodilator "(-)-bornesitol"'
p1901
aS'bronchodilator "thiosulfinate"'
p1902
aS'bronchodilator "alpha-copaene"'
p1903
aS'bronchodilator "procyanidin b2"'
p1904
aS'bronchodilator "procyanidin b3"'
p1905
aS'bronchodilator "phaseolotoxin"'
p1906
aS'bronchodilator "procyanidin b8"'
p1907
aS'bronchodilator "6-methoxymellein"'
p1908
aS'bronchodilator "2,4-dinitrophenyl-s-glutathione"'
p1909
aS'bronchodilator "but-3-en-2-one"'
p1910
aS'bronchodilator "zedoarondiol"'
p1911
aS'bronchodilator "2-methylpropyl benzoate"'
p1912
aS'bronchodilator "5-hydroxycapsanthin-5,6-epoxide"'
p1913
aS'bronchodilator "xanthoxyletin"'
p1914
aS'bronchodilator "diosmetin"'
p1915
aS'bronchodilator "euscaphic acid"'
p1916
aS'bronchodilator "4alpha-methyl-24-ethyl-cholesta-7,24-dien-3beta-ol"'
p1917
aS'bronchodilator "2-aminoquinoline"'
p1918
aS'bronchodilator "2,6-dimethylocta-2-trans-6-trans-dien-1,8-diol"'
p1919
aS'bronchodilator "3,4-dihydroxyphenylglycolaldehyde"'
p1920
aS'bronchodilator "(22\xce\xb1)-hydroxy-isofucosterol"'
p1921
aS'bronchodilator "galactitol"'
p1922
aS'bronchodilator "pc(20:3(8z,11z,14z)/18:0)"'
p1923
aS'bronchodilator "homogentisate"'
p1924
aS'bronchodilator "9alpha-(3-methyl-2e-pentenoyloxy)-4s-hydroxy-10(14)-oplopen-3-one"'
p1925
aS'bronchodilator "isochorismate"'
p1926
aS'bronchodilator "artemorin"'
p1927
aS'bronchodilator "3,5-dihydroxy-6,7-methylenedioxyflavanone"'
p1928
aS'bronchodilator "glutelin"'
p1929
aS'bronchodilator "isocitric acid"'
p1930
aS'bronchodilator "pc(20:1(11z)/20:1(11z))"'
p1931
aS'bronchodilator "[8]-gingerdione"'
p1932
aS'bronchodilator "1,2,3-benzenetriol"'
p1933
aS'bronchodilator "casuariin"'
p1934
aS'bronchodilator "3-methoxy-4-hydroxyphenylacetic acid"'
p1935
aS'bronchodilator "4\xce\xb1-carboxy-4\xce\xb2-methyl-5\xce\xb1-cholesta-8,24-dien-3\xce\xb2-ol"'
p1936
aS'bronchodilator "procyanidin b5"'
p1937
aS'bronchodilator "patatin"'
p1938
aS'bronchodilator "biochanin c"'
p1939
aS'bronchodilator "kb 2"'
p1940
aS'bronchodilator "pc(18:1(11z)/18:1(11z))"'
p1941
aS'bronchodilator "malvidin 3-glucoside-4-vinylphenol"'
p1942
aS'bronchodilator "pheophytin a"'
p1943
aS'bronchodilator "oryzalexin a"'
p1944
aS'bronchodilator "astragalin 2\'\'-galactoside"'
p1945
aS'bronchodilator "alpha-terpinene"'
p1946
aS'bronchodilator "ergothioneine"'
p1947
aS'bronchodilator "gluconasturtiin"'
p1948
aS'bronchodilator "umbelliferone"'
p1949
aS'bronchodilator "bryonolic acid"'
p1950
aS'bronchodilator "protoheme ix"'
p1951
aS'bronchodilator "4-methyl-2-pentanone"'
p1952
aS'bronchodilator "7,9-docosanedione"'
p1953
aS'bronchodilator "malvidin 3-(6\'\'-caffeoyl-glucoside)"'
p1954
aS'bronchodilator "heptanoic acid"'
p1955
aS'bronchodilator "phthalic acid"'
p1956
aS'bronchodilator "maslinic acid 3-o-b-d-glucoside"'
p1957
aS'bronchodilator "arabinoxylan"'
p1958
aS'bronchodilator "astragalin"'
p1959
aS'bronchodilator "bilobetin"'
p1960
aS'bronchodilator "ethyl oleate"'
p1961
aS'bronchodilator "campesterol 6\'-hexadecanoylglucoside"'
p1962
aS'bronchodilator "hygrine"'
p1963
aS'bronchodilator "atherosperminine"'
p1964
aS'bronchodilator "zerumbone oxide"'
p1965
aS'bronchodilator "farnesylcysteine"'
p1966
aS'bronchodilator "(+)-hardwickiic acid"'
p1967
aS'bronchodilator "artemin"'
p1968
aS'bronchodilator "propanoate"'
p1969
aS'bronchodilator "syringin"'
p1970
aS'bronchodilator "phloretic acid"'
p1971
aS'bronchodilator "pc(18:1(11z)/18:1(9z))"'
p1972
aS'bronchodilator "artecanin"'
p1973
aS'bronchodilator "2-deoxy-d-lyxono-1,4-lactone"'
p1974
aS'bronchodilator "cucurbitacin e"'
p1975
aS'bronchodilator "arctic acid c"'
p1976
aS'bronchodilator "torachrysone 8-beta-gentiobioside"'
p1977
aS'bronchodilator "6,7-dihydro-5-methyl-5h-cyclopenta[b]pyrazine"'
p1978
aS'bronchodilator "3-phosphatidylinositol"'
p1979
aS'bronchodilator "diammonium sulfide"'
p1980
aS'bronchodilator "cinnamyl alcohol"'
p1981
aS'bronchodilator "theaflavin acid"'
p1982
aS'bronchodilator "hex-cis-3-en-1-ol isovalerate"'
p1983
aS'bronchodilator "ginkgolide a"'
p1984
aS'bronchodilator "1,2,4-trihydroxybenzene"'
p1985
aS'bronchodilator "pc(o-16:1(9z)/20:0)"'
p1986
aS'bronchodilator "vicenin"'
p1987
aS'bronchodilator "dioctyl phthalate"'
p1988
aS'bronchodilator "chrysophanol 8-(6-galloylglucoside)"'
p1989
aS'bronchodilator "pc(20:0/18:1(9z))"'
p1990
aS'bronchodilator "dicoumarol"'
p1991
aS'bronchodilator "lignan diglucoside"'
p1992
aS'bronchodilator "(1s,3r,4r)-8,10-dihydroxyfenchone 10-o-b-d-glucoside"'
p1993
aS'bronchodilator "vicenin 2"'
p1994
aS'bronchodilator "azulene"'
p1995
aS'bronchodilator "myrtenal"'
p1996
aS'bronchodilator "pc(18:4(6z,9z,12z,15z)/p-18:1(11z))"'
p1997
aS'bronchodilator "hexadecanal"'
p1998
aS'bronchodilator "di-n-propylamine"'
p1999
aS'bronchodilator "hippuric acid"'
p2000
aS'bronchodilator "2-phenylpyridine"'
p2001
aS'bronchodilator "5-hydroxy-l-tryptophan"'
p2002
aS'bronchodilator "verbenol"'
p2003
aS'bronchodilator "xi-5-acetyltetrahydro-2(3h)-furanone"'
p2004
aS'bronchodilator "dudp"'
p2005
aS'bronchodilator "isogenistein 7-glucoside"'
p2006
aS'bronchodilator "sedoheptulose"'
p2007
aS'bronchodilator "patchoulene"'
p2008
aS'bronchodilator "l-aspartic acid"'
p2009
aS'bronchodilator "punicic acid"'
p2010
aS'bronchodilator "3-ethyl-2-methylhepta-1,3-diene"'
p2011
aS'bronchodilator "myricanol 5-sophoroside"'
p2012
aS'bronchodilator "ethyl acrylate"'
p2013
aS'bronchodilator "isoborneol"'
p2014
aS'bronchodilator "5-methylcytosine"'
p2015
aS'bronchodilator "l-n-(1h-indol-3-ylacetyl)glutamic acid"'
p2016
aS'bronchodilator "mfa"'
p2017
aS'bronchodilator "\xce\xb2-tocopherol"'
p2018
aS'bronchodilator "pc(18:1(9z)/18:3(9z,12z,15z))"'
p2019
aS'bronchodilator "curcumin iii"'
p2020
aS'bronchodilator "neuraminic-acid"'
p2021
aS'bronchodilator "1,3,7,9-tetramethyluric acid"'
p2022
aS'bronchodilator "polyacetylene"'
p2023
aS'bronchodilator "adenosine 3\',5\'-diphosphate"'
p2024
aS'bronchodilator "n-acetyl-serotonin"'
p2025
aS'bronchodilator "3,4-dihydro-2h-pyrrole"'
p2026
aS'bronchodilator "2-methoxybenzoic acid"'
p2027
aS'bronchodilator "garlicin"'
p2028
aS'bronchodilator "poncitrin"'
p2029
aS'bronchodilator "1-dehydro-[10]-gingerdione"'
p2030
aS'bronchodilator "n-carbamoyl-2-amino-2-(4-hydroxyphenyl)acetic acid"'
p2031
aS'bronchodilator "limonin"'
p2032
aS'bronchodilator "nobilin"'
p2033
aS'bronchodilator "n-monomethylethanolamine"'
p2034
aS'bronchodilator "tirucallol"'
p2035
aS'bronchodilator "apiin"'
p2036
aS'bronchodilator "anabsinthin"'
p2037
aS'bronchodilator "2\'\'-methoxy-(s)-oleuropein"'
p2038
aS'bronchodilator "heptadecadienoic acid"'
p2039
aS'bronchodilator "falcarindiol 3-acetate"'
p2040
aS'bronchodilator "uroporphyrin iii"'
p2041
aS'bronchodilator "selenate"'
p2042
aS'bronchodilator "pc(18:1(9z)/18:1(11z))"'
p2043
aS'bronchodilator "macelignan"'
p2044
aS'bronchodilator "lucidone c"'
p2045
aS'bronchodilator "cucurbitacin ii"'
p2046
aS'bronchodilator "5-hydroxy-7,8-dimethoxyflavonol"'
p2047
aS'bronchodilator "dihydrolipoate"'
p2048
aS'bronchodilator "5-(12-nonadecenyl)-1,3-benzenediol"'
p2049
aS'bronchodilator "legumin"'
p2050
aS'bronchodilator "3,6-dimethyl-2,3,4,5,8,9-hexahydrobenzofuran"'
p2051
aS'bronchodilator "4\xce\xb1-hydroxymethyl-4\xce\xb2-methyl-5\xce\xb1-cholesta-8,24-dien-3\xce\xb2-ol"'
p2052
aS'bronchodilator "edulisin ii"'
p2053
aS'bronchodilator "pc(18:3(6z,9z,12z)/18:3(9z,12z,15z))"'
p2054
aS'bronchodilator "silicon oxide"'
p2055
aS'bronchodilator "artocarpesin"'
p2056
aS'bronchodilator "plastochromanol 8"'
p2057
aS'bronchodilator "cyanate"'
p2058
aS'bronchodilator "potassium nitrate (kno3)"'
p2059
aS'bronchodilator "4,6-heptadiyne-1,3-diol"'
p2060
aS'bronchodilator "bentonite"'
p2061
aS'bronchodilator "all-trans-retinal"'
p2062
aS'bronchodilator "3beta-24-methylenelanost-9(11)-en-3-ol"'
p2063
aS'bronchodilator "dimethyl sulfide"'
p2064
aS'bronchodilator "n-acetylhistidine"'
p2065
aS'bronchodilator "myosmine"'
p2066
aS'bronchodilator "selenocysteine"'
p2067
aS'bronchodilator "5-(16-heneicosenyl)-1,3-benzenediol"'
p2068
aS'bronchodilator "7,9-triacontanedione"'
p2069
aS'bronchodilator "azi"'
p2070
aS'bronchodilator "piperenol a triacetate"'
p2071
aS'bronchodilator "n,n-dimethylbenzylamine"'
p2072
aS'bronchodilator "3,5-dihydroxy-4-methoxybenzoic acid"'
p2073
aS'bronchodilator "di-o-punicyl-o-octadeca-8z,11z,13e-trienylglycerol"'
p2074
aS'bronchodilator "cuscohygrine"'
p2075
aS'bronchodilator "chicoric acid"'
p2076
aS'bronchodilator "epicatechin 3-gallate"'
p2077
aS'bronchodilator "anethole"'
p2078
aS'bronchodilator "4-hydroxybenzaldehyde"'
p2079
aS'bronchodilator "d-myo-inositol (3,4,6)-trisphosphate"'
p2080
aS'bronchodilator "rhamnetin 3-(4-rhamnosylrhamnoside)"'
p2081
aS'bronchodilator "pc(18:4(6z,9z,12z,15z)/dm18:0)"'
p2082
aS'bronchodilator "kaempferide"'
p2083
aS'bronchodilator "5-hydroxy-n-hentriacontan-14,16-dione"'
p2084
aS'bronchodilator "7,8-dimethylisoscutellarein"'
p2085
aS'bronchodilator "d-myo-inositol (1,2,3,4) tetrakisphosphate"'
p2086
aS'bronchodilator "undecanal"'
p2087
aS'bronchodilator "arachisprenol 12"'
p2088
aS'bronchodilator "fraxidin"'
p2089
aS'bronchodilator "kuwanon b"'
p2090
aS'bronchodilator "kuwanon d"'
p2091
aS'bronchodilator "kuwanon e"'
p2092
aS'bronchodilator "kuwanon f"'
p2093
aS'bronchodilator "pc(20:0/20:3(8z,11z,14z))"'
p2094
aS'bronchodilator "suberin"'
p2095
aS'bronchodilator "kuwanon q"'
p2096
aS'bronchodilator "(+)-fargesin"'
p2097
aS'bronchodilator "rubrofusarin"'
p2098
aS'bronchodilator "2,4-decadienal"'
p2099
aS'bronchodilator "xanthohumol"'
p2100
aS'bronchodilator "bilobalide a"'
p2101
aS'bronchodilator "umbelliprenin"'
p2102
aS'bronchodilator "\xce\xb1-d-glucose"'
p2103
aS'bronchodilator "1,2,3-trimethoxy-5-methylbenzene"'
p2104
aS'bronchodilator "nordentatin"'
p2105
aS'bronchodilator "nootkatone"'
p2106
aS'bronchodilator "pc(20:3(8z,11z,14z)/p-18:1(9z))"'
p2107
aS'bronchodilator "dgtp"'
p2108
aS'bronchodilator "pc(18:0/p-18:0)"'
p2109
aS'bronchodilator "pelargonidin 5-galactoside"'
p2110
aS'bronchodilator "xi-dihydro-2-methyl-3(2h)-furanone"'
p2111
aS'bronchodilator "pc(20:3(8z,11z,14z)/20:1(11z))"'
p2112
aS'bronchodilator "isolimocitrol 3-glucoside"'
p2113
aS'bronchodilator "atrovirinone"'
p2114
aS'bronchodilator "homoglutathione"'
p2115
aS'bronchodilator "beta-ocimene"'
p2116
aS'bronchodilator "beta-cyanoalanine"'
p2117
aS'bronchodilator "urocanic acid"'
p2118
aS'bronchodilator "1\'-acetoxyeugenol acetate"'
p2119
aS'bronchodilator "sarsasapogenin"'
p2120
aS'bronchodilator "hordein b"'
p2121
aS'bronchodilator "3-hydroxyanthranilic acid"'
p2122
aS'bronchodilator "rutinose"'
p2123
aS'bronchodilator "parthenolide"'
p2124
aS'bronchodilator "tetradecene"'
p2125
aS'bronchodilator "yuccaol b"'
p2126
aS'bronchodilator "methyl 1-(1-propenylsulfinyl)propyl disulfide"'
p2127
aS'bronchodilator "6-hydroxy-n-hentriacontan-14,16-dione"'
p2128
aS'bronchodilator "d-arabinose"'
p2129
aS'bronchodilator "pc(p-18:1(9z)/18:3(6z,9z,12z))"'
p2130
aS'bronchodilator "gamma-sitosterol"'
p2131
aS'bronchodilator "2alpha-hydroxyalantolactone"'
p2132
aS'bronchodilator "monogalactosyl diglkyceide"'
p2133
aS'bronchodilator "morachalcone a"'
p2134
aS'bronchodilator "petunidin 3-o-alpha-l-galactoside"'
p2135
aS'bronchodilator "d-glyceraldehyde"'
p2136
aS'bronchodilator "rhamnazin"'
p2137
aS'bronchodilator "stachyose"'
p2138
aS'bronchodilator "2-(6-hydroxy-2-methoxy-3,4-methylenedioxyphenyl)benzofuran"'
p2139
aS'bronchodilator "pc(18:1(9z)/p-18:1(9z))"'
p2140
aS'bronchodilator "linoleoyl-coa"'
p2141
aS'bronchodilator "8-(3,6-dimethyl-2-heptenyl)-naringenin"'
p2142
aS'bronchodilator "arabinan"'
p2143
aS'bronchodilator "pinosylvin"'
p2144
aS'bronchodilator "malonyl-coa methyl ester"'
p2145
aS'bronchodilator "isosafrole"'
p2146
aS'bronchodilator "(2a,3a)-dihydroxy-12-ursen-24-oic acid"'
p2147
aS'bronchodilator "citicoline"'
p2148
aS'bronchodilator "(s)-byakangelicin"'
p2149
aS'bronchodilator "l-kynurenine"'
p2150
aS'bronchodilator "[12]-gingerdione"'
p2151
aS'bronchodilator "pc(18:3(9z,12z,15z)/18:1(11z))"'
p2152
aS'bronchodilator "2,6-diaminopurine"'
p2153
aS'bronchodilator "calcium lactate"'
p2154
aS'bronchodilator "phytoene"'
p2155
aS'bronchodilator "retinol palmitate"'
p2156
aS'bronchodilator "(9z)-valenciaxanthin"'
p2157
aS'bronchodilator "2-hexanone"'
p2158
aS'bronchodilator "malvidin 3-glucoside-4-vinylguaiacol"'
p2159
aS'bronchodilator "isopentyl mercaptan"'
p2160
aS'bronchodilator "gamma-mangostin"'
p2161
aS'bronchodilator "pc(p-18:1(11z)/18:3(6z,9z,12z))"'
p2162
aS'bronchodilator "cudraflavone a"'
p2163
aS'bronchodilator "apigenin 6-c-glucoside 8-c-riboside"'
p2164
aS'bronchodilator "galangin"'
p2165
aS'bronchodilator "protopanaxadiol"'
p2166
aS'bronchodilator "chrysophanol 1-triglucoside"'
p2167
aS'bronchodilator "25,27-dihydro-4,7-didehydro-7-deoxyphysalin a"'
p2168
aS'bronchodilator "afzelechin"'
p2169
aS'bronchodilator "methyleugenol"'
p2170
aS'bronchodilator "plastoquinone"'
p2171
aS'bronchodilator "dihydrocapsaicin"'
p2172
aS'bronchodilator "11,13-triacontanedione"'
p2173
aS'bronchodilator "5,10-methylenetetrahydrofolate"'
p2174
aS'bronchodilator "isorhamnetin 3-glucuronide"'
p2175
aS'bronchodilator "ferulate"'
p2176
aS'bronchodilator "vitamin k2"'
p2177
aS'bronchodilator "pc(18:1(9z)/18:1(9z))"'
p2178
aS'bronchodilator "pc(18:4(6z,9z,12z,15z)/20:1(11z))"'
p2179
aS'bronchodilator "7-hydroxyterpineol 8-glucoside"'
p2180
aS'bronchodilator "uridine diphosphate glucuronic acid"'
p2181
aS'bronchodilator "4-hydroxy-5-methyl-2-propyl-3(2h)-furanone"'
p2182
aS'bronchodilator "pc(o-16:1(9z)/18:0)"'
p2183
aS'bronchodilator "petunidin 3-(4\'\'\'-p-coumaroyl-rutinoside)"'
p2184
aS'bronchodilator "11-keto-beta-boswellic acid"'
p2185
aS'bronchodilator "physalin j"'
p2186
aS'bronchodilator "(+)-camphene"'
p2187
aS'bronchodilator "(1r*,2s*,3s*,6s*)-2-caranol"'
p2188
aS'bronchodilator "panaxynol"'
p2189
aS'bronchodilator "2-phospho-d-glycerate"'
p2190
aS'bronchodilator "4-methoxybenzoic acid"'
p2191
aS'bronchodilator "alpha-d-galactose"'
p2192
aS'bronchodilator "ginkgetin"'
p2193
aS'bronchodilator "(s)-higenamine"'
p2194
aS'bronchodilator "epigallocatechin 3,3\'-digallate"'
p2195
aS'bronchodilator "dinophysistoxin 1"'
p2196
aS'bronchodilator "3\'-geranyl-2\',3,4,4\'-tetrahydroxychalcone"'
p2197
aS'bronchodilator "isoegomaketone"'
p2198
aS'bronchodilator "myricanol 5-laminaribioside"'
p2199
aS'bronchodilator "pentanal"'
p2200
aS'bronchodilator "abieta-7,13-diene-18-al"'
p2201
aS'bronchodilator "trans-1-(1-propenyl-dithio)-propane"'
p2202
aS'bronchodilator "5-geranyloxy-7-methoxycoumarin"'
p2203
aS'bronchodilator "physalin b"'
p2204
aS'bronchodilator "pc(20:1(11z)/18:3(9z,12z,15z))"'
p2205
aS'bronchodilator "pc(20:3(8z,11z,14z)/18:1(9z))"'
p2206
aS'bronchodilator "3-hydroxy-1,10-bisaboladien-9-one"'
p2207
aS'bronchodilator "xi-5-ethyldihydro-2(3h)-furanone"'
p2208
aS'bronchodilator "camphene"'
p2209
aS'bronchodilator "pelargonidin 3-(2gluglucosylrutinoside)"'
p2210
aS'bronchodilator "prephenate"'
p2211
aS'bronchodilator "5alpha-cholestane"'
p2212
aS'bronchodilator "erythrodiol"'
p2213
aS'bronchodilator "erbium"'
p2214
aS'bronchodilator "4-methylpyridine"'
p2215
aS'bronchodilator "1-rhamnono-1,4-lactone"'
p2216
aS'bronchodilator "uvaol"'
p2217
aS'bronchodilator "(4s,6s)-3,4,5,6-tetrahydro-4-hydroxy-6-methyl-2h-pyran-2-one"'
p2218
aS'bronchodilator "gallic acid 3-o-(6-galloylglucoside)"'
p2219
aS'bronchodilator "gitogenin"'
p2220
aS'bronchodilator "crithmumdiol"'
p2221
aS'bronchodilator "5-heneicosyl-1,3-benzenediol"'
p2222
aS'bronchodilator "5-hydroxy-7,3\',4\'-trimethoxy-8-methylisoflavone 5-neohesperidoside"'
p2223
aS'bronchodilator "cafestol"'
p2224
aS'bronchodilator "d-myo-inositol (3,4)-bisphosphate"'
p2225
aS'bronchodilator "tellurium"'
p2226
aS'bronchodilator "chrysophanol 8-gentiobioside"'
p2227
aS'bronchodilator "masticadienolic acid"'
p2228
aS'bronchodilator "quercetin 4\'-glucoside"'
p2229
aS'bronchodilator "n-propyl-n-propane thiosulfinate"'
p2230
aS'bronchodilator "nerolidol"'
p2231
aS'bronchodilator "octacosanoic acid"'
p2232
aS'bronchodilator "salicyl alcohol"'
p2233
aS'bronchodilator "jujuboside a"'
p2234
aS'bronchodilator "propanolamine"'
p2235
aS'bronchodilator "magnoflorine"'
p2236
aS'bronchodilator "(2-trans-6-trans)-farnesoate"'
p2237
aS'bronchodilator "thiamine hydrochloride"'
p2238
aS'bronchodilator "(s)-piperitone"'
p2239
aS'bronchodilator "(6r*,8s*)-6,8-tetratriacontanediol"'
p2240
aS'bronchodilator "smilagenin 3-[2\'\'-glucosyl-6\'\'-arabinosylglucoside]"'
p2241
aS'bronchodilator "ubiquinone 9"'
p2242
aS'bronchodilator "6-hydroxymelatonin"'
p2243
aS'bronchodilator "maslinic acid"'
p2244
aS'bronchodilator "triacetin"'
p2245
aS'bronchodilator "1-isothiocyanato-2-(methylthio)ethane"'
p2246
aS'bronchodilator "1-hexanol acetate"'
p2247
aS'bronchodilator "l-n-(1h-indol-3-ylacetyl)aspartic acid"'
p2248
aS'bronchodilator "simonin ii"'
p2249
aS'bronchodilator "apigenin 7-digalacturonoside 4\'-glucoside"'
p2250
aS'bronchodilator "oxoglaucine"'
p2251
aS'bronchodilator "20-tetracosene-1,18-diol"'
p2252
aS'bronchodilator "(-)-lariciresinol"'
p2253
aS'bronchodilator "monodehydroascorbate"'
p2254
aS'bronchodilator "phytolaccoside i"'
p2255
aS'bronchodilator "phytolaccoside a"'
p2256
aS'bronchodilator "caffeic acid ester"'
p2257
aS'bronchodilator "theaflavin 3\'-gallate"'
p2258
aS'bronchodilator "epicatechin 3-glucoside"'
p2259
aS'bronchodilator "alpha-cedrene"'
p2260
aS'bronchodilator "cyanidin 3-rutinoside"'
p2261
aS'bronchodilator "medioresinol"'
p2262
aS'bronchodilator "phenylacetate"'
p2263
aS'bronchodilator "diarctigenin"'
p2264
aS'bronchodilator "(+)-erythraline"'
p2265
aS'bronchodilator "acacetin 3,6-di-c-glucoside"'
p2266
aS'bronchodilator "1-deoxynojirimycin"'
p2267
aS'bronchodilator "(-)-matairesinol"'
p2268
aS'bronchodilator "cyclopentanone"'
p2269
aS'bronchodilator "berteroin"'
p2270
aS'bronchodilator "heptanoate"'
p2271
aS'bronchodilator "aminoadipic acid"'
p2272
aS'bronchodilator "neohesperidoside"'
p2273
aS'bronchodilator "isoscopoletin"'
p2274
aS'bronchodilator "12,14-heptacosanedione"'
p2275
aS'bronchodilator "pc(p-18:1(11z)/18:3(9z,12z,15z))"'
p2276
aS'bronchodilator "(3r,6e)-6-caryophyllen-15-al"'
p2277
aS'bronchodilator "sclareol"'
p2278
aS'bronchodilator "d-fructose 6-phosphate"'
p2279
aS'bronchodilator "(s)-carvone"'
p2280
aS'bronchodilator "ethyl hydrogen sulfate"'
p2281
aS'bronchodilator "pisatin"'
p2282
aS'bronchodilator "echinocystic acid"'
p2283
aS'bronchodilator "(4z,7z)-4,7-decadien-1-ol"'
p2284
aS'bronchodilator "n-5-(4-hydroxy-3-methoxyphenyl)-pent-trans-2-dienoyl-piperidine"'
p2285
aS'bronchodilator "isovitexin"'
p2286
aS'bronchodilator "trehalose 6-phosphate"'
p2287
aS'bronchodilator "eriodictyol 7-(6-galloylglucoside)"'
p2288
aS'bronchodilator "manoyl oxide"'
p2289
aS'bronchodilator "pc(18:1(11z)/p-18:1(9z))"'
p2290
aS'bronchodilator "pc(p-18:0/18:0)"'
p2291
aS'bronchodilator "(-)-arctigenin"'
p2292
aS'bronchodilator "l-homoserine"'
p2293
aS'bronchodilator "2-furanmethanol"'
p2294
aS'bronchodilator "1-(3,4-dihydroxyphenyl)-1,2-ethanediol"'
p2295
aS'bronchodilator "helipyrone"'
p2296
aS'bronchodilator "sodium borohydride"'
p2297
aS'bronchodilator "methyl-trans-1-propenyl thiosulfinate"'
p2298
aS'bronchodilator "6,7-dihydro-2-methyl-5h-cyclopenta[b]pyrazine"'
p2299
aS'bronchodilator "(-)-arctiin"'
p2300
aS'bronchodilator "isopentenyl pyrophosphate"'
p2301
aS'bronchodilator "5-diphospho-1d-myo-inositol (1,2,3,4,6)pentakisphosphate"'
p2302
aS'bronchodilator "citromitin"'
p2303
aS'bronchodilator "alpha-eudesmol"'
p2304
aS'bronchodilator "5\'-methylthioadenosine"'
p2305
aS'bronchodilator "protocatechuate"'
p2306
aS'bronchodilator "pc(o-24:0/18:3(6z,9z,12z))"'
p2307
aS'bronchodilator "apigenin 7-o-glucuronide"'
p2308
aS'bronchodilator "perilla ketone"'
p2309
aS'bronchodilator "smilagenin"'
p2310
aS'bronchodilator "momordin"'
p2311
aS'bronchodilator "1-(1-propenylsulfinyl)propyl propyl disulfide"'
p2312
aS'bronchodilator "sarsasapogenin 3-[4\'\'-glucosyl-6\'\'-arabinosylglucoside]"'
p2313
aS'bronchodilator "pangamic acid"'
p2314
aS'bronchodilator "3,4,5-trimethoxyphenyl 2,6-digalloylglucoside"'
p2315
aS'bronchodilator "4\xce\xb1-hydroxymethyl-5\xce\xb1-cholesta-8,24-dien-3\xce\xb2-ol"'
p2316
aS'bronchodilator "kaempferol 3-o-beta-d-diglucopyranoside 7-o-beta-d-glucopyranoside"'
p2317
aS'bronchodilator "neoglucobrassicin"'
p2318
aS'bronchodilator "pc(18:1(9z)/20:0)"'
p2319
aS'bronchodilator "eicosadienoic acid"'
p2320
aS'bronchodilator "pc(18:3(6z,9z,12z)/20:0)"'
p2321
aS'bronchodilator "methyl nicotinate"'
p2322
aS'bronchodilator "caryophyllene ketone"'
p2323
aS'bronchodilator "(+)-2,3-dihydro-9-hydroxy-2[1-(6-sinapinoyl)beta-d-glucosyloxy-1-methylethyl]-7h-furo[3,2-g][1]benzopyran-7-one"'
p2324
aS'bronchodilator "zeaxanthin"'
p2325
aS'bronchodilator "ethyl gallate"'
p2326
aS'bronchodilator "2-propenyl glucosinolate"'
p2327
aS'bronchodilator "1-hydroxy-3,5-dimethoxy-2-prenylxanthone"'
p2328
aS'bronchodilator "mycotoxin t 2"'
p2329
aS'bronchodilator "7,8-dehydro-beta-micropteroxanthin"'
p2330
aS'bronchodilator "(6z,9z,12z)-6,9,12-pentadecatrien-2-one"'
p2331
aS'bronchodilator "violaxanthin"'
p2332
aS'bronchodilator "diethyl tartrate"'
p2333
aS'bronchodilator "25-hydroxycholecalciferol"'
p2334
aS'bronchodilator "orotidine"'
p2335
aS'bronchodilator "lariciresinol"'
p2336
aS'bronchodilator "n,n\'-diacetylchitobiose"'
p2337
aS'bronchodilator "neogrifolin"'
p2338
aS'bronchodilator "tomatine"'
p2339
aS'bronchodilator "saussurea lactone"'
p2340
aS'bronchodilator "1\'-acetoxychavicol"'
p2341
aS'bronchodilator "soyasapogenol b 24-o-b-d-glucoside"'
p2342
aS'bronchodilator "astragalin 2\'\'-xyloside 6\'\'-rhamnoside"'
p2343
aS'bronchodilator "2\',4-dihydroxy-4\',6\'-dimethoxychalcone"'
p2344
aS'bronchodilator "3beta-cycloartane-3,25-diol"'
p2345
aS'bronchodilator "3,4-dihydroxyphenylacetate"'
p2346
aS'bronchodilator "4-aminobutyric acid"'
p2347
aS'bronchodilator "galactinol"'
p2348
aS'bronchodilator "glaucine"'
p2349
aS'bronchodilator "hydroxy-alpha-sanshool"'
p2350
aS'bronchodilator "domoic acid"'
p2351
aS'bronchodilator "eugenin"'
p2352
aS'bronchodilator "prodelphinidin b"'
p2353
aS'bronchodilator "pc(p-18:1(11z)/18:0)"'
p2354
aS'bronchodilator "tropinone"'
p2355
aS'bronchodilator "licocoumarone"'
p2356
aS'bronchodilator "datp"'
p2357
aS'bronchodilator "scoparone"'
p2358
aS'bronchodilator "ficin b"'
p2359
aS'bronchodilator "pc(18:0/p-18:1(11z))"'
p2360
aS'bronchodilator "isodesmosine"'
p2361
aS'bronchodilator "persenone a"'
p2362
aS'bronchodilator "persenone b"'
p2363
aS'bronchodilator "propanal"'
p2364
aS'bronchodilator "isovitexin 6\'\'-rhamnoside"'
p2365
aS'bronchodilator "potassium nitrite (kno2)"'
p2366
aS'bronchodilator "pc(18:3(6z,9z,12z)/18:1(11z))"'
p2367
aS'bronchodilator "(+)-lariciresinol"'
p2368
aS'bronchodilator "xi-dihydro-5-octyl-2(3h)-furanone"'
p2369
aS'bronchodilator "alpha-bergamotene"'
p2370
aS'bronchodilator "pc(18:1(9z)/18:0)"'
p2371
aS'bronchodilator "neferine"'
p2372
a.