(lp0
S'statin "(8e)-piperamide-c9:1"'
p1
aS'statin "2\'-hydroxy-3\',4\',5\',7,8-pentamethoxyflavan"'
p2
aS'statin "dihydromaleimide beta-d-glucoside"'
p3
aS'statin "s-methyl hexanethioate"'
p4
aS'statin "kaempferol 3-rhamno-glucoside"'
p5
aS'statin "kaempferol"'
p6
aS'statin "brassinolide"'
p7
aS'statin "pyridoxine"'
p8
aS'statin "ubiquinone 10"'
p9
aS'statin "3,4-dihydro-2,2,5,7,8-pentamethyl-2h-1-benzopyran-6-ol"'
p10
aS'statin "1-octacosanol"'
p11
aS'statin "diosgenin"'
p12
aS'statin "6-(gamma,gamma-dimethylallyl-amino)-purine"'
p13
aS'statin "alliin"'
p14
aS'statin "l-homocysteine"'
p15
aS'statin "arsenic"'
p16
aS'statin "abscisic alcohol 11-glucoside"'
p17
aS'statin "kynurenine"'
p18
aS'statin "isoquercitrin"'
p19
aS'statin "15beta,19-ent-dihydroxy-7-trachylobanone"'
p20
aS'statin "2\'\',6\'\'-diacetylorientin"'
p21
aS'statin "pyrrolidine"'
p22
aS'statin "cyanidin 3-o-alpha-l-galactoside"'
p23
aS'statin "acrylic acid"'
p24
aS'statin "deoxypyridinoline"'
p25
aS'statin "hex-cis-3-en-1-ol beta-d-glucoside"'
p26
aS'statin "uracil"'
p27
aS'statin "ureidopropionic acid"'
p28
aS'statin "octanoate"'
p29
aS'statin "cerebroside"'
p30
aS'statin "2-decenoic acid"'
p31
aS'statin "cyanidin 3-(malonylxyloside)"'
p32
aS'statin "sulfur"'
p33
aS'statin "n-(2r-hydroxypentacosanoyl)-2s-amino-1,3s,4r-octadecanetriol"'
p34
aS'statin "2h-1-benzopyran-2-one"'
p35
aS'statin "geranylgeranyl-pp"'
p36
aS'statin "prostaglandin e-2"'
p37
aS'statin "benzoic acid"'
p38
aS'statin "catechol"'
p39
aS'statin "monoferulyl succinic acid"'
p40
aS'statin "flavones"'
p41
aS'statin "petunidin"'
p42
aS'statin "procyanidin"'
p43
aS'statin "diethylamine"'
p44
aS'statin "peonidin 3-(6\'\'-p-coumaroyl-glucoside)"'
p45
aS'statin "131-oxo-magnesium-protoporphyrin ix 13-monomethyl ester"'
p46
aS'statin "3-methyl-2-oxobutanoate"'
p47
aS'statin "kaempferol 3-(2\'\'\'-caffeoylsophoroside) 7-cellobioside"'
p48
aS'statin "cyanidin 3-(2-caffeoylglucosylrutinoside)"'
p49
aS'statin "anthracene"'
p50
aS'statin "lupeol"'
p51
aS'statin "all-trans-lycopene"'
p52
aS'statin "lignan"'
p53
aS'statin "amylose"'
p54
aS'statin "s-allylcysteine"'
p55
aS'statin "kaempferol 7-arabinoside"'
p56
a.