(lp0
S'isoniazid "quercetin 3-(6\'\'-caffeoylsophorotrioside)"'
p1
aS'isoniazid "10-hydroxy-8-nor-2-fenchanone glucoside"'
p2
aS'isoniazid "spermidine"'
p3
aS'isoniazid "beta-phenylethanol 6-beta-d-arabinofuranosyl-beta-d-glucopyranoside"'
p4
aS'isoniazid "n,n-dimethylformamide"'
p5
aS'isoniazid "ochratoxin a"'
p6
aS'isoniazid "isoimperatorin"'
p7
aS'isoniazid "mannan"'
p8
aS'isoniazid "methyl-[10]-gingerol"'
p9
aS'isoniazid "5\',5\'\'\'-diadenosine triphosphate"'
p10
aS'isoniazid "methacrylic acid"'
p11
aS'isoniazid "dibenzyl ether"'
p12
aS'isoniazid "creatine"'
p13
aS'isoniazid "4-propan-2-ol-2-yl toluene"'
p14
aS'isoniazid "cotinine"'
p15
aS'isoniazid "benzyl alcohol 6-o-l-arabinofuranosyl-beta-d-glucopyranoside"'
p16
aS'isoniazid "piperine"'
p17
aS'isoniazid "cis-2,5-diethyl-tetrahydrofuran"'
p18
aS'isoniazid "4-hydroxyferuloxyl methane"'
p19
aS'isoniazid "kaempferol 3-(2g-apiosylrobinobioside)"'
p20
aS'isoniazid "4-(3-hydroxy-7-phenyl-6-heptenyl)-1,2-benzenediol"'
p21
aS'isoniazid "benzaldehyde"'
p22
aS'isoniazid "scopoletin"'
p23
aS'isoniazid "eremopetasitenin c3"'
p24
aS'isoniazid "quercetin 3-(sulfatoglucoside)"'
p25
aS'isoniazid "cmp"'
p26
aS'isoniazid "2-hydroxybenzaldehyde"'
p27
aS'isoniazid "4-acetyl-2-prenylphenol glucoside"'
p28
aS'isoniazid "methyl-[8]-gingerol"'
p29
aS'isoniazid "l-asparagine"'
p30
aS'isoniazid "pc(16:0/22:0)"'
p31
aS'isoniazid "toluidine"'
p32
aS'isoniazid "7\',8\'-dihydro-8\'-hydroxycitraniaxanthin"'
p33
aS'isoniazid "1-propanol"'
p34
aS'isoniazid "isopropyl benzoate"'
p35
aS'isoniazid "phytofluene"'
p36
aS'isoniazid "pyrazine"'
p37
aS'isoniazid "cyclo(glycylleucylvalylleucylprolylseryl)"'
p38
aS'isoniazid "(8e)-piperamide-c9:1"'
p39
aS'isoniazid "kaempferol 3-rhamno-glucoside"'
p40
aS'isoniazid "kaempferol"'
p41
aS'isoniazid "ornithine"'
p42
aS'isoniazid "methyl [6]-paradol"'
p43
aS'isoniazid "1,8-epoxy-p-menthan-4-ol glucoside"'
p44
aS'isoniazid "thebaine"'
p45
aS'isoniazid "canthaxanthin"'
p46
aS'isoniazid "6-(gamma,gamma-dimethylallyl-amino)-purine"'
p47
aS'isoniazid "beta-methylthiopropionic acid ethyl ester"'
p48
aS'isoniazid "l-homocysteine"'
p49
aS'isoniazid "lysophosphatidylserine"'
p50
aS'isoniazid "eremopetasitenin a2"'
p51
aS'isoniazid "eremopetasitenin a1"'
p52
aS'isoniazid "cyclo(glycylglycylleucylleucylleucylprolylprolylphenylalanyl)"'
p53
aS'isoniazid "lentinan"'
p54
aS'isoniazid "sesquiterpenes"'
p55
aS'isoniazid "acetamide"'
p56
aS'isoniazid "kynurenine"'
p57
aS'isoniazid "acetic acid hex-cis-3-enyl ester"'
p58
aS'isoniazid "pentylamine"'
p59
aS'isoniazid "aflatoxin b1"'
p60
aS'isoniazid "quercetin 3-(3r-glucosylrutinoside)"'
p61
aS'isoniazid "2\'\',6\'\'-diacetylorientin"'
p62
aS'isoniazid "3\',4\',7-trimethylgossypetin"'
p63
aS'isoniazid "pyrrolidine"'
p64
aS'isoniazid "pyrrole"'
p65
aS'isoniazid "4-hexen-3-one"'
p66
aS'isoniazid "beta-sitosterol"'
p67
aS'isoniazid "acrylic acid"'
p68
aS'isoniazid "carvone"'
p69
aS'isoniazid "inulin"'
p70
aS'isoniazid "elemene"'
p71
aS'isoniazid "7-epizucchini factor a"'
p72
aS'isoniazid "saturated fatty acids"'
p73
aS'isoniazid "isoxanthohumol"'
p74
aS'isoniazid "iridium"'
p75
aS'isoniazid "monoferulyl succinic acid"'
p76
aS'isoniazid "flavones"'
p77
aS'isoniazid "calmodulin"'
p78
aS'isoniazid "quercetin 3-(4-glucosylrhamnoside)"'
p79
aS'isoniazid "phosphatidylcholine"'
p80
aS'isoniazid "diethylamine"'
p81
aS'isoniazid "vitamin d3"'
p82
aS'isoniazid "l-serine"'
p83
aS'isoniazid "kaempferol 3-(2\'\'\'-caffeoylsophoroside) 7-cellobioside"'
p84
aS'isoniazid "erythritol"'
p85
aS'isoniazid "anthracene"'
p86
aS'isoniazid "benzothiazole"'
p87
aS'isoniazid "gladiatoside b3"'
p88
aS'isoniazid "gladiatoside b2"'
p89
aS'isoniazid "quercetin 3-o-rhamnodiglucoside"'
p90
aS'isoniazid "kaempferol 7-arabinoside"'
p91
aS'isoniazid "pyrrolidine carboxylic acid"'
p92
aS'isoniazid "n-acetyl-\xce\xb1-d-glucosamine 1-phosphate"'
p93
aS'isoniazid "7,8-dihydropteroic acid"'
p94
aS'isoniazid "anacardic acid"'
p95
aS'isoniazid "xi-5-isopropyl-2(5h)-furanone"'
p96
aS'isoniazid "10-hydroxymyristic acid methyl ester"'
p97
aS'isoniazid "cytarabine"'
p98
aS'isoniazid "carotenoids"'
p99
aS'isoniazid "\xce\xb2-alanine"'
p100
aS'isoniazid "[7]-gingerol"'
p101
aS'isoniazid "ethanolamine"'
p102
aS'isoniazid "carbamate"'
p103
aS'isoniazid "hexane"'
p104
aS'isoniazid "pavetannin d1"'
p105
aS'isoniazid "methyl 7-epi-12-hydroxyjasmonate glucoside"'
p106
aS'isoniazid "tocopherols"'
p107
aS'isoniazid "cerium"'
p108
aS'isoniazid "chlorophyll a"'
p109
aS'isoniazid "trans-p-menthane-1,8-diol"'
p110
aS'isoniazid "cesium"'
p111
aS'isoniazid "alpha,alpha-p-trimethylbenzyl alcohol ether"'
p112
aS'isoniazid "esterase"'
p113
aS'isoniazid "indole-3-acetamide"'
p114
aS'isoniazid "fad"'
p115
aS'isoniazid "sativoside r1"'
p116
aS'isoniazid "3-methoxybenzaldehyde"'
p117
aS'isoniazid "3alpha,15-dihydroxymarasmene"'
p118
aS'isoniazid "3-methoxy-4,5-methylenedioxycinnamaldehyde"'
p119
aS'isoniazid "cyclo(alanylalanylglycylleucylprolyltryptophylleucylisoleucyl)"'
p120
aS'isoniazid "l-arabinose"'
p121
aS'isoniazid "eriodictyol 7-(6-coumaroylglucoside)"'
p122
aS'isoniazid "hydroquinone"'
p123
aS'isoniazid "quercetin 3-feruloyl-triglucoside"'
p124
aS'isoniazid "glycolate"'
p125
aS'isoniazid "l-isoleucine"'
p126
aS'isoniazid "cadaverine"'
p127
aS'isoniazid "benzoxazole"'
p128
aS'isoniazid "l-glutamine"'
p129
aS'isoniazid "hebevinoside xiii"'
p130
aS'isoniazid "alkanes"'
p131
aS'isoniazid "geranyl arabinopyranosyl-glucoside"'
p132
aS'isoniazid "rotenone"'
p133
aS'isoniazid "phosphoribosyl formamidocarboxamide"'
p134
aS'isoniazid "melatonin"'
p135
aS'isoniazid "dttp"'
p136
aS'isoniazid "malonyl coa"'
p137
aS'isoniazid "eriodictyol"'
p138
aS'isoniazid "nicotinic acid adenine dinucleotide"'
p139
aS'isoniazid "spermine"'
p140
aS'isoniazid "quercetin 7-glucosylrhamnoside"'
p141
aS'isoniazid "(24s)-24-methyl-25-dehydrocholesterol"'
p142
aS'isoniazid "4,4\'-dihydroxy-2\',6\'-dimethoxychalcone"'
p143
aS'isoniazid "rhenium"'
p144
aS'isoniazid "ellagic acid"'
p145
aS'isoniazid "licorice glycoside a"'
p146
aS'isoniazid "5-octyl-cyclopenta-1,3-dione"'
p147
aS'isoniazid "amino adipic acid"'
p148
aS'isoniazid "nb-trans-feruloylserotonin glucoside"'
p149
aS'isoniazid "3,5-dimethylquercetin glucoside"'
p150
aS'isoniazid "l-cysteine"'
p151
aS'isoniazid "molybdate"'
p152
aS'isoniazid "glyoxylic acid"'
p153
aS'isoniazid "galacturonic acid"'
p154
aS'isoniazid "(3s)-3-hydroxycyclocitral"'
p155
aS'isoniazid "2,4-dinitrophenylhydrazone"'
p156
aS'isoniazid "chymopapain"'
p157
aS'isoniazid "7\',8\'-dihydro-8\'-hydroxyreticulataxanthin"'
p158
aS'isoniazid "quercetin 3-(6\'\'-sinapoylsophorotrioside)"'
p159
aS'isoniazid "kaempferol 3-(3r-glucosylrutinoside)"'
p160
aS'isoniazid "substance p"'
p161
aS'isoniazid "4-hydroxy-3,5,5-trimethylcyclohexan-1-on-2-ene"'
p162
aS'isoniazid "kaempferol 3-rhamnofuranoside"'
p163
aS'isoniazid "malonyl-coa"'
p164
aS'isoniazid "2\'\',6\'\'-o-diacetyloninin"'
p165
aS'isoniazid "arabinose"'
p166
aS'isoniazid "l-alanine"'
p167
aS'isoniazid "catechols"'
p168
aS'isoniazid "lycopene"'
p169
aS'isoniazid "orotic acid"'
p170
aS'isoniazid "ribonuclease"'
p171
aS'isoniazid "glucosamine"'
p172
aS'isoniazid "hesperidin 7-o-alpha-l-rhamno-glucoside"'
p173
aS'isoniazid "l-valine"'
p174
aS'isoniazid "benzoate"'
p175
aS'isoniazid "cyclohexanone"'
p176
aS'isoniazid "p-aminobenzaldehyde"'
p177
aS'isoniazid "papain"'
p178
aS'isoniazid "pinene"'
p179
aS'isoniazid "trans-2-decadienic acid ethyl ester"'
p180
aS'isoniazid "quercetin rhamnoside-xyloside"'
p181
aS'isoniazid "[6]-gingerdione"'
p182
aS'isoniazid "deoxyuridine"'
p183
aS'isoniazid "deoxycytidine"'
p184
aS'isoniazid "quercetin 3-(6\'\'\'\'-p-coumarylsophorotrioside)"'
p185
aS'isoniazid "lipoamide"'
p186
aS'isoniazid "wheat gluten"'
p187
aS'isoniazid "kaempferol 3-(6-acetylgalactoside)"'
p188
aS'isoniazid "bergamottin"'
p189
aS'isoniazid "[6]-paradol"'
p190
aS'isoniazid "quercetin 3-(6\'\'\'-rhamnosylgentiobioside)"'
p191
aS'isoniazid "sodium nitrite"'
p192
aS'isoniazid "diphenyl ether"'
p193
aS'isoniazid "2-amino-3-methylimidazo[4,5-f]quinoline"'
p194
aS'isoniazid "triacylglycerol"'
p195
aS'isoniazid "geranyl arabinofuranosyl-glucoside"'
p196
aS'isoniazid "dimethoxycoumarin"'
p197
aS'isoniazid "trans-2-decadienic acid methyl ester"'
p198
aS'isoniazid "allicin"'
p199
aS'isoniazid "epicatechin 3-(3-methylgallate)"'
p200
aS'isoniazid "pantothenic acid"'
p201
aS'isoniazid "quercetin"'
p202
aS'isoniazid "trehalose"'
p203
aS'isoniazid "kaempferol 3-feruloyltriglucoside"'
p204
aS'isoniazid "h2o"'
p205
aS'isoniazid "ppgpp"'
p206
aS'isoniazid "quercetin 3-o-glucosyl-rhamnosyl-galactoside"'
p207
aS'isoniazid "2-oxoglutarate"'
p208
aS'isoniazid "s-methyl-5-thio-\xce\xb1-d-ribose 1-phosphate"'
p209
aS'isoniazid "carbon disulfide"'
p210
aS'isoniazid "oxaloacetate"'
p211
aS'isoniazid "dtmp"'
p212
aS'isoniazid "phytic acid"'
p213
aS'isoniazid "1-naphthaldehyde"'
p214
aS'isoniazid "carotene"'
p215
aS'isoniazid "2\'-deoxyguanosine"'
p216
aS'isoniazid "pyridoxamine"'
p217
aS'isoniazid "2\',3,5-trihydroxy-5\',7-dimethoxyflavanone"'
p218
aS'isoniazid "4-hydroxy-2,6-dimethyl-7-octen-3-one"'
p219
aS'isoniazid "(x)-1-nonen-3-yl acetate"'
p220
aS'isoniazid "cinnamic acid"'
p221
aS'isoniazid "cinnamaldehyde"'
p222
aS'isoniazid "4-methoxybenzaldehyde"'
p223
aS'isoniazid "5-oxoproline"'
p224
aS'isoniazid "kaempferol 7-(6\'\'-p-coumaroylglucoside)"'
p225
aS'isoniazid "thymoquinone"'
p226
aS'isoniazid "trans-1,8-terpin"'
p227
aS'isoniazid "d-xylose"'
p228
aS'isoniazid "3b,18b-3-methoxy-11-oxo-12-oleanen-30-oic acid"'
p229
aS'isoniazid "beryllium"'
p230
aS'isoniazid "urate"'
p231
aS'isoniazid "(25s)-26-hydroxy-24-methylenecycloartan-3-one"'
p232
aS'isoniazid "quercetin 3-gluco-xyloside"'
p233
aS'isoniazid "kaempferol 3-o-beta-d-xylofuranoside"'
p234
aS'isoniazid "hg2+"'
p235
aS'isoniazid "prostaglandin e2"'
p236
aS'isoniazid "(s)-1\',2\'-epoxy-1\',2\'-dihydro-b,y-carotene"'
p237
aS'isoniazid "cyclic-amp"'
p238
aS'isoniazid "phenoxyacetic acid"'
p239
aS'isoniazid "lactyltrimethylammonium betaine"'
p240
aS'isoniazid "plumbagin"'
p241
aS'isoniazid "6alpha,7alpha-17-tetrahydroxy"'
p242
aS'isoniazid "scandium"'
p243
aS'isoniazid "d-galacturonic acid"'
p244
aS'isoniazid "l-canavanine"'
p245
aS'isoniazid "kaempferol 3-o-xylosyl-rutinoside"'
p246
aS'isoniazid "l-threonine"'
p247
aS'isoniazid "lysozyme"'
p248
aS'isoniazid "\xce\xb1-tocopherol"'
p249
aS'isoniazid "oleate"'
p250
aS'isoniazid "epicatechin 3-(4-methylgallate)"'
p251
aS'isoniazid "concanavalin a"'
p252
aS'isoniazid "quercetin 3-(2gal-apiosylrobinobioside)"'
p253
aS'isoniazid "maltose"'
p254
aS'isoniazid "cis-2,8-menthadien-2-ol"'
p255
aS'isoniazid "benzyl alcohol"'
p256
aS'isoniazid "kaempferol 3-(2\'\'\'-sinapoylsophoroside) 7-cellobioside"'
p257
aS'isoniazid "propylene glycol"'
p258
aS'isoniazid "quercetin 3-(2g-glucosylgentiobioside)"'
p259
aS'isoniazid "kaempferol 3-(2g-p-coumaroylrutinoside)"'
p260
aS'isoniazid "2,6-dimethylocta-2-trans-6-trans-dien-1,8-diol"'
p261
aS'isoniazid "choline"'
p262
aS'isoniazid "4-o-alpha-d-galactopyranosylcalystegine b2"'
p263
aS'isoniazid "kaempferol 3-(2\\"'
p264
aS'isoniazid "hebevinoside viii"'
p265
aS'isoniazid "4-vinyl-4-deethyl chlorophyll a"'
p266
aS'isoniazid "diaminopimelic acid"'
p267
aS'isoniazid "acrolein"'
p268
aS'isoniazid "melilotussaponin o1"'
p269
aS'isoniazid "cis-cinnamic acid"'
p270
aS'isoniazid "ergothioneine"'
p271
aS'isoniazid "umbelliferone"'
p272
aS'isoniazid "quercetin 3-(feruloylsophorotrioside)"'
p273
aS'isoniazid "xantofyl palmitate"'
p274
aS'isoniazid "phthalic acid"'
p275
aS'isoniazid "l-tyrosine"'
p276
aS'isoniazid "fmn"'
p277
aS'isoniazid "3,3\',4\',7-tetramethylgossypetin"'
p278
aS'isoniazid "l-aspartate"'
p279
aS'isoniazid "propanoate"'
p280
aS'isoniazid "3\'\',4\'\'-diacetylcosmosiin"'
p281
aS'isoniazid "arachidonic acid"'
p282
aS'isoniazid "kaempferol 3-o-alpha-l-galactoside"'
p283
aS'isoniazid "formic acid"'
p284
aS'isoniazid "dextrin"'
p285
aS'isoniazid "menadione"'
p286
aS'isoniazid "dicoumarol"'
p287
aS'isoniazid "l-proline"'
p288
aS'isoniazid "cu2+"'
p289
aS'isoniazid "beta-carotene"'
p290
aS'isoniazid "hippuric acid"'
p291
aS'isoniazid "indole-3-acetic acid cellulosiglucan"'
p292
aS'isoniazid "ethyl acrylate"'
p293
aS'isoniazid "barium"'
p294
aS'isoniazid "polyacetylene"'
p295
aS'isoniazid "oxygenase"'
p296
aS'isoniazid "nicotine"'
p297
aS'isoniazid "n-carbamoyl-2-amino-2-(4-hydroxyphenyl)acetic acid"'
p298
aS'isoniazid "graecunin h-4"'
p299
aS'isoniazid "acetylsalicylic acid"'
p300
aS'isoniazid "ethyl acetoacetate"'
p301
aS'isoniazid "2,4-dihydroxychalcone"'
p302
aS'isoniazid "quercetin 3-o-caffeyl-glucoside"'
p303
aS'isoniazid "5-hydroxy-7,8-dimethoxyflavonol"'
p304
aS'isoniazid "dimethyl peroxide"'
p305
aS'isoniazid "agavasaponin c\'"'
p306
aS'isoniazid "quercetin 3-(6\'\'\'\'-ferulylsophorotrioside)"'
p307
aS'isoniazid "alkaloid"'
p308
aS'isoniazid "bentonite"'
p309
aS'isoniazid "(+)-alpha-pinene"'
p310
aS'isoniazid "betaine"'
p311
aS'isoniazid "azi"'
p312
aS'isoniazid "thymine"'
p313
aS'isoniazid "glyoxal"'
p314
aS'isoniazid "r-propyl 1-propenesulfinothioate"'
p315
aS'isoniazid "4-hydroxybenzaldehyde"'
p316
aS'isoniazid "(6e)-piperamide-c7:1"'
p317
aS'isoniazid "1,4-dihydroxy-2-naphthoate"'
p318
aS'isoniazid "toluene"'
p319
aS'isoniazid "cadmium"'
p320
aS'isoniazid "sphingosine"'
p321
aS'isoniazid "fe2+"'
p322
aS'isoniazid "3-methoxy-4,5-methylenedioxybenzoic acid"'
p323
aS'isoniazid "3beta,6beta-dihydroxynortropane"'
p324
aS'isoniazid "cyclo(aspartylleucylthreonylvalyltyrosylphenylalanylglycyl)"'
p325
aS'isoniazid "ethyl acetate"'
p326
aS'isoniazid "7-(4-hydroxyphenyl)-1-phenyl-4-hepten-3-one"'
p327
aS'isoniazid "cis-4-decadienic acid methyl ester"'
p328
aS'isoniazid "9-hydroxy-7-megastigmen-3-one glucoside"'
p329
aS'isoniazid "beta-cyanoalanine"'
p330
aS'isoniazid "succinic acid"'
p331
aS'isoniazid "anthranilic acid"'
p332
aS'isoniazid "3-hydroxyanthranilic acid"'
p333
aS'isoniazid "2-amino-3,4-dihydroxypentanedioic acid"'
p334
aS'isoniazid "d-ribulose"'
p335
aS'isoniazid "gamma-sitosterol"'
p336
aS'isoniazid "2-(2-carboxy-4-methylthiazol-5-yl)ethyl phosphate"'
p337
aS'isoniazid "formamide"'
p338
aS'isoniazid "8-(3,6-dimethyl-2-heptenyl)-naringenin"'
p339
aS'isoniazid "arabinan"'
p340
aS'isoniazid "isosafrole"'
p341
aS'isoniazid "(2a,3a)-dihydroxy-12-ursen-24-oic acid"'
p342
aS'isoniazid "l-kynurenine"'
p343
aS'isoniazid "phytoene"'
p344
aS'isoniazid "oleanolic acid"'
p345
aS'isoniazid "diacetyl"'
p346
aS'isoniazid "2\'\',6\'\'-diacetylisoorientin"'
p347
aS'isoniazid "chrysarone methyl ether"'
p348
aS'isoniazid "kaempferol 3-(2g-glucosylgentiobioside)"'
p349
aS'isoniazid "beta-glucuronidase"'
p350
aS'isoniazid "methyleugenol"'
p351
aS'isoniazid "l-glutamic acid"'
p352
aS'isoniazid "n1-acetylspermine"'
p353
aS'isoniazid "vitamin k2"'
p354
aS'isoniazid "glycyrrhizin"'
p355
aS'isoniazid "3,3\',4\',7,8-pentamethylgossypetin"'
p356
aS'isoniazid "galactosamine"'
p357
aS'isoniazid "methoxyl"'
p358
aS'isoniazid "n-acetylserotonin"'
p359
aS'isoniazid "mg2+"'
p360
aS'isoniazid "(-)-trans-2,5-diethyltetrahydrofuran"'
p361
aS'isoniazid "5-geranyloxy-7-methoxycoumarin"'
p362
aS'isoniazid "ctp"'
p363
aS'isoniazid "eicosapentaenoic acid"'
p364
aS'isoniazid "3-hydroxy-1,10-bisaboladien-9-one"'
p365
aS'isoniazid "leukotriene b4"'
p366
aS'isoniazid "erbium"'
p367
aS'isoniazid "kaempferol 3-coumaroyl-triglucoside"'
p368
aS'isoniazid "maleic acid"'
p369
aS'isoniazid "pyridoxamine 5\'-phosphate"'
p370
aS'isoniazid "5-hydroxy-7,3\',4\'-trimethoxy-8-methylisoflavone 5-neohesperidoside"'
p371
aS'isoniazid "tellurium"'
p372
aS'isoniazid "kaempferol 3-o-rhamnosyl-rhamnosyl-glucoside"'
p373
aS'isoniazid "stearate"'
p374
aS'isoniazid "hydroxamic acid"'
p375
aS'isoniazid "thiamine hydrochloride"'
p376
aS'isoniazid "palmitoyl-coa"'
p377
aS'isoniazid "4-propan-1-al-2-yl toluene"'
p378
aS'isoniazid "anthocyanins"'
p379
aS'isoniazid "1-deoxy-l-glycero-tetrulose 4-phosphate"'
p380
aS'isoniazid "harmaline"'
p381
aS'isoniazid "aminoadipic acid"'
p382
aS'isoniazid "curcumin 4\'-o-\xce\xb2-d-gentiobiosyl 4\'\'-o-\xce\xb2-d-glucoside"'
p383
aS'isoniazid "isoscopoletin"'
p384
aS'isoniazid "vanadium"'
p385
aS'isoniazid "palladium"'
p386
aS'isoniazid "l-arginine"'
p387
aS'isoniazid "ethyl hydrogen sulfate"'
p388
aS'isoniazid "eremopetasitenin b2"'
p389
aS'isoniazid "eugenol"'
p390
aS'isoniazid "acetaldehyde"'
p391
aS'isoniazid "arabinogalactan"'
p392
aS'isoniazid "trehalose 6-phosphate"'
p393
aS'isoniazid "eriodictyol 7-(6-galloylglucoside)"'
p394
aS'isoniazid "quercetin 3-o-xylosyl-rutinoside"'
p395
aS'isoniazid "6-hydroxy-2-bornanone glucoside"'
p396
aS'isoniazid "carbanilide"'
p397
aS'isoniazid "sodium borohydride"'
p398
aS'isoniazid "2-butylisovaleric acid methyl ester"'
p399
aS'isoniazid "antimony"'
p400
aS'isoniazid "5alpha-stigmastan-3,6-dione"'
p401
aS'isoniazid "5\'-methylthioadenosine"'
p402
aS'isoniazid "quercetin 3-(2-caffeoylglucuronoside)"'
p403
aS'isoniazid "1,4-benzoquinone"'
p404
aS'isoniazid "epicatechin"'
p405
aS'isoniazid "proline"'
p406
aS'isoniazid "scordinine b-2"'
p407
aS'isoniazid "scordinine b-1"'
p408
aS'isoniazid "pangamic acid"'
p409
aS'isoniazid "harman"'
p410
aS'isoniazid "estriol"'
p411
aS'isoniazid "17\xce\xb2-estradiol"'
p412
aS'isoniazid "6alpha,7alpha,12alpha-trihydroxykaurenoic acid"'
p413
aS'isoniazid "arecoline"'
p414
aS'isoniazid "2,3-dihydroxybenzoic acid"'
p415
aS'isoniazid "1-hydroxy-3,5-dimethoxy-2-prenylxanthone"'
p416
aS'isoniazid "quinolinic acid"'
p417
aS'isoniazid "25-hydroxycholecalciferol"'
p418
aS'isoniazid "phytofluene a"'
p419
aS'isoniazid "alpha-lipoic acid"'
p420
aS'isoniazid "caffeic acid"'
p421
aS'isoniazid "sulfite"'
p422
aS'isoniazid "2\',4-dihydroxy-4\',6\'-dimethoxychalcone"'
p423
aS'isoniazid "4-aminobutyric acid"'
p424
aS'isoniazid "3,3\',5-trihydroxy-4\',7-dimethoxyflavanone"'
p425
aS'isoniazid "domoic acid"'
p426
aS'isoniazid "kaempferol 7-(3g-glucosylgentiobioside)"'
p427
aS'isoniazid "kaempferol 3-(2\'\'-rhamnosylrutinoside)"'
p428
aS'isoniazid "2\'\',3\'\'-diacetylcosmosiin"'
p429
aS'isoniazid "campest-4-en-3,6-dione"'
p430
aS'isoniazid "trans-2-trans-4-decadienic acid methyl ester"'
p431
aS'isoniazid "scoparone"'
p432
aS'isoniazid "7\',9\'-cis-lycopene"'
p433
aS'isoniazid "selenite"'
p434
aS'isoniazid "dihydroxyferuloyl-sinapoyl spermidine"'
p435
aS'isoniazid "imp"'
p436
aS'isoniazid "3beta-ergosta-5,23-dien-3-ol"'
p437
aS'isoniazid "l-citrulline"'
p438
aS'isoniazid "3\',4\',5,7,8-pentamethoxyflavanone"'
p439
aS'isoniazid "l-dopa"'
p440
aS'isoniazid "quercetin 3-o-alpha-d-rhamnosyl-o-beta-l-galactoside"'
p441
aS'isoniazid "kaempferol 3-(2\'\'\'-feruloylsophoroside) 7-cellobioside"'
p442
aS'isoniazid "morin"'
p443
aS'isoniazid "ergosterol"'
p444
aS'isoniazid "(24s)-24-ethylbrassinone"'
p445
aS'isoniazid "d-glucuronic acid"'
p446
aS'isoniazid "phosphorylcholine"'
p447
aS'isoniazid "cyclohexane"'
p448
aS'isoniazid "linoleate"'
p449
aS'isoniazid "pavetannin b2"'
p450
aS'isoniazid "nicotinate"'
p451
aS'isoniazid "quercetin 3-(6\'\'\'\'-sinapylsophorotrioside)"'
p452
aS'isoniazid "tetracosanoic acid"'
p453
aS'isoniazid "dehydroepiandrosterone"'
p454
aS'isoniazid "europium"'
p455
aS'isoniazid "physalin i"'
p456
aS'isoniazid "physalin m"'
p457
aS'isoniazid "methylparaben"'
p458
aS'isoniazid "phosphatidylglycerol"'
p459
aS'isoniazid "selenium"'
p460
aS'isoniazid "avenestergenin a2"'
p461
aS'isoniazid "avenestergenin a1"'
p462
aS'isoniazid "i2"'
p463
aS'isoniazid "octanal"'
p464
aS'isoniazid "kaempferol 7-rhamnofuranoside"'
p465
aS'isoniazid "scordinine b-3"'
p466
aS'isoniazid "(-)-beta-elemene"'
p467
aS'isoniazid "avenestergenin b2"'
p468
aS'isoniazid "benzofuran"'
p469
aS'isoniazid "osmium"'
p470
aS'isoniazid "methyl helianthenoate a glucoside"'
p471
aS'isoniazid "adp-ribose"'
p472
aS'isoniazid "1-butanol"'
p473
aS'isoniazid "sitosterol"'
p474
aS'isoniazid "3,4-dihydroxyphenylacetic acid"'
p475
aS'isoniazid "quercetin 3-o-beta-d-2-glucosyl-rutinoside"'
p476
aS'isoniazid "quercetin 3-o-alpha-l-galactoside"'
p477
aS'isoniazid "mangalkanyl glucoside"'
p478
aS'isoniazid "glycolaldehyde"'
p479
aS'isoniazid "myricyl cerotate"'
p480
aS'isoniazid "ergocalciferol"'
p481
aS'isoniazid "gamma-spinasterol glucoside"'
p482
aS'isoniazid "inosine"'
p483
aS'isoniazid "[7]-paradol"'
p484
aS'isoniazid "2-acetylpyridine"'
p485
aS'isoniazid "ent-16a-hydro-6a,7a,17-trihydroxy-19-kauranoic acid"'
p486
aS'isoniazid "citric acid"'
p487
aS'isoniazid "xylene"'
p488
aS'isoniazid "(s)-limonene"'
p489
aS'isoniazid "xylulose 5-phosphate"'
p490
aS'isoniazid "diphosphate"'
p491
aS'isoniazid "l-glutamate"'
p492
aS'isoniazid "glucosyl passiflorate"'
p493
aS'isoniazid "hydantoin"'
p494
aS'isoniazid "gamma-butyrolactone"'
p495
aS'isoniazid "codeine"'
p496
aS'isoniazid "carbonic acid"'
p497
aS'isoniazid "n-acetylglucosamine"'
p498
aS'isoniazid "acetoacetate"'
p499
aS'isoniazid "apiosylglucosyl 4-hydroxybenzoate"'
p500
aS'isoniazid "ursolic acid"'
p501
aS'isoniazid "2\'\',3\'\'-di-o-p-coumaroylafzelin"'
p502
aS'isoniazid "phosphoenolpyruvate"'
p503
aS'isoniazid "gtp"'
p504
aS'isoniazid "glyoxylate"'
p505
aS'isoniazid "eremopetasitenin d1"'
p506
aS'isoniazid "eremopetasitenin d2"'
p507
aS'isoniazid "guanosine triphosphate"'
p508
aS'isoniazid "3-(4-hydroxyphenyl)-3-hydroxy-propionyl-coa"'
p509
aS'isoniazid "secologanin"'
p510
aS'isoniazid "n-acetylhistamine"'
p511
aS'isoniazid "amentoflavone"'
p512
aS'isoniazid "kaempferol 3-o-rhamnosyl-rutinoside"'
p513
aS'isoniazid "2-trans-dodecenoyl-coa"'
p514
aS'isoniazid "2\',4\',5,7,8-pentahydroxyisoflavone"'
p515
aS'isoniazid "quercetin 3-o-acetyl-rhamnoside"'
p516
aS'isoniazid "kaempferol 3-gluco-rhamnoside"'
p517
aS'isoniazid "phenethyl 6-galloylglucoside"'
p518
aS'isoniazid "kaempferol 7-o-beta-d-glucoside-o-alpha-l-rhamnosyl"'
p519
aS'isoniazid "resveratrol"'
p520
aS'isoniazid "tetrahydrofolate"'
p521
aS'isoniazid "papaverine"'
p522
aS'isoniazid "quercetin 3-(2\'\'-acetylrutinoside)"'
p523
aS'isoniazid "methylamine"'
p524
aS'isoniazid "3\',4\',5\'-trimethoxytricetin"'
p525
aS'isoniazid "l-histidine"'
p526
aS'isoniazid "n-methylphenethylamine"'
p527
aS'isoniazid "alpha-tocopherol"'
p528
aS'isoniazid "unsaturated fatty acids"'
p529
aS'isoniazid "gamma-glutamyl-cysteine"'
p530
aS'isoniazid "dutp"'
p531
aS'isoniazid "methyl-1,5-alpha-stigmast-7-en-3beta-ol"'
p532
aS'isoniazid "kaempferol 3-p-coumaroylsophorotrioside"'
p533
aS'isoniazid "2-oxobutanoate"'
p534
aS'isoniazid "(+)-valine"'
p535
aS'isoniazid "saponins"'
p536
aS'isoniazid "violet alcohol"'
p537
aS'isoniazid "naphthalene"'
p538
aS'isoniazid "s-adenosyl-l-methionine"'
p539
aS'isoniazid "ajmaline"'
p540
aS'isoniazid "tryptamine"'
p541
aS'isoniazid "(-)-beta-pinene"'
p542
aS'isoniazid "genipin"'
p543
aS'isoniazid "naringenin rutinoside-4-beta-d-glucoside"'
p544
aS'isoniazid "beta-pinene"'
p545
aS'isoniazid "gladiatoside a2"'
p546
aS'isoniazid "gladiatoside a1"'
p547
aS'isoniazid "quercetin 3-beta-laminaribioside"'
p548
aS'isoniazid "gdp"'
p549
aS'isoniazid "amoxycillin"'
p550
aS'isoniazid "6-methyl 2-galloylgalactarate"'
p551
aS'isoniazid "2\'\',4\'\'-diacetylafzelin"'
p552
aS'isoniazid "demethoxycurcumin"'
p553
aS'isoniazid "6alpha,7alpha,13-trihydroxykaurenoic acid"'
p554
aS'isoniazid "bicarbonate"'
p555
aS'isoniazid "polyethylene glycol"'
p556
aS'isoniazid "b-chlorogenin 3-[2\'\',4\'\'-dirhamnosylglucoside]"'
p557
aS'isoniazid "unknown 370"'
p558
aS'isoniazid "2-angeloyl-9-(3-methyl-2e-pentenoyl)-2b,9a-dihydroxy-4z,10(14)-oplopadien-3-one"'
p559
aS'isoniazid "phenol"'
p560
aS'isoniazid "s-(5\'-adenosyl)-l-homocysteine"'
p561
aS'isoniazid "butanoic acid"'
p562
aS'isoniazid "(s)-[10]-gingerol"'
p563
aS'isoniazid "kaempferol 3-alpha-d-arabinopyranoside"'
p564
aS'isoniazid "2-methylphenol"'
p565
aS'isoniazid "thorium"'
p566
aS'isoniazid "1,2-humulene epoxide"'
p567
aS'isoniazid "trans-2-trans-4-decadienic acid ethyl ester"'
p568
aS'isoniazid "3,4-epoxy-p-menth-1(7)-ene"'
p569
aS'isoniazid "n-(4-hydroxyphenyl)ethoxycarbothioamide"'
p570
aS'isoniazid "kaempferol 3-feruloylapioside"'
p571
aS'isoniazid "l-leucine"'
p572
aS'isoniazid "cis-4-decadienic acid ethyl ester"'
p573
aS'isoniazid "hydroxypyruvate"'
p574
aS'isoniazid "l-methionine"'
p575
aS'isoniazid "2,3-dihydro-2,3-dihydroxy-9-phenyl-1h-phenalen-1-one"'
p576
aS'isoniazid "kaempferol 3-o-acetyl-glucoside"'
p577
aS'isoniazid "n-propanol"'
p578
aS'isoniazid "oxalates"'
p579
aS'isoniazid "4-hydroxy-2-nonenal"'
p580
aS'isoniazid "quercetin 3-o-xylosyl-glucuronide"'
p581
aS'isoniazid "methylglyoxal"'
p582
aS'isoniazid "boron"'
p583
aS'isoniazid "sterols"'
p584
aS'isoniazid "maltodextrin"'
p585
aS'isoniazid "n-acetyl-l-cysteine"'
p586
aS'isoniazid "sedanoic anhydride"'
p587
aS'isoniazid "n1,n5,n10-tris-trans-p-coumaroylspermine"'
p588
aS'isoniazid "acetol"'
p589
aS'isoniazid "palmitate"'
p590
aS'isoniazid "hexosamine"'
p591
aS'isoniazid "chromium"'
p592
aS'isoniazid "arsenite"'
p593
a.