(lp0
S'antacids "kaempferol 3-o-alpha-l-rhamnoside-beta-d-glucosyl"'
p1
aS'antacids "quercetin 3-o-rhamnosyl-galactoside"'
p2
aS'antacids "phosphocholine"'
p3
aS'antacids "beta-glucan"'
p4
aS'antacids "decanoate"'
p5
aS'antacids "disulfides"'
p6
aS'antacids "trans-1,10-heptadecadiene-5,7-diyn-3-ol"'
p7
aS'antacids "isothiocyanates"'
p8
aS'antacids "rubidium"'
p9
aS'antacids "auxin b"'
p10
aS'antacids "limonene"'
p11
aS'antacids "thial-1-propene-1-thiol s-oxide"'
p12
aS'antacids "p-coumaric acid"'
p13
aS'antacids "cinchonine"'
p14
aS'antacids "liquiritin"'
p15
aS'antacids "2,3-pentanedione"'
p16
aS'antacids "chlorogenic acid"'
p17
aS'antacids "ascaridole"'
p18
aS'antacids "dipentene o-diphenollactone"'
p19
a.