(lp0
S'ACE inhibitor "psoralen"'
p1
aS'ACE inhibitor "kaempferol 3-o-alpha-l-rhamnoside-beta-d-glucosyl"'
p2
aS'ACE inhibitor "l-lactic acid"'
p3
aS'ACE inhibitor "ethanamine"'
p4
aS'ACE inhibitor "propionylcarnitine"'
p5
aS'ACE inhibitor "phosphocholine"'
p6
aS'ACE inhibitor "prostaglandin f-1-alpha"'
p7
aS'ACE inhibitor "beta-glucan"'
p8
aS'ACE inhibitor "decanoate"'
p9
a.