(lp0
S'ACE inhibitor "common bean"'
p1
aS'ACE inhibitor "lard"'
p2
aS'ACE inhibitor "gin"'
p3
aS'ACE inhibitor "sweet basil"'
p4
aS'ACE inhibitor "cichlidae (tilapia)"'
p5
aS'ACE inhibitor "miso"'
p6
aS'ACE inhibitor "apricot"'
p7
aS'ACE inhibitor "haddock"'
p8
aS'ACE inhibitor "poppy"'
p9
aS'ACE inhibitor "sorghum"'
p10
aS'ACE inhibitor "kale"'
p11
aS'ACE inhibitor "lovage"'
p12
aS'ACE inhibitor "lemon balm"'
p13
aS'ACE inhibitor "red algae"'
p14
aS'ACE inhibitor "soy milk"'
p15
aS'ACE inhibitor "mung bean"'
p16
aS'ACE inhibitor "rainbow trout"'
p17
aS'ACE inhibitor "other fish product"'
p18
aS'ACE inhibitor "pistachio"'
p19
aS'ACE inhibitor "lotus"'
p20
aS'ACE inhibitor "liquor"'
p21
aS'ACE inhibitor "almond"'
p22
aS'ACE inhibitor "ginger"'
p23
aS'ACE inhibitor "lettuce"'
p24
aS'ACE inhibitor "spinach"'
p25
aS'ACE inhibitor "lima bean"'
p26
aS'ACE inhibitor "amaranth"'
p27
aS'ACE inhibitor "quince"'
p28
aS'ACE inhibitor "papaya"'
p29
aS'ACE inhibitor "canada blueberry"'
p30
aS'ACE inhibitor "wheat bread"'
p31
aS'ACE inhibitor "other bread"'
p32
aS'ACE inhibitor "tofu"'
p33
aS'ACE inhibitor "oat"'
p34
aS'ACE inhibitor "common ling"'
p35
aS'ACE inhibitor "banana"'
p36
aS'ACE inhibitor "mushrooms"'
p37
aS'ACE inhibitor "mustard"'
p38
aS'ACE inhibitor "snail"'
p39
aS'ACE inhibitor "wild rice"'
p40
aS'ACE inhibitor "acorn"'
p41
aS'ACE inhibitor "persimmon"'
p42
aS'ACE inhibitor "cake"'
p43
aS'ACE inhibitor "apple"'
p44
aS'ACE inhibitor "ginseng"'
p45
aS'ACE inhibitor "deer"'
p46
aS'ACE inhibitor "chewing gum"'
p47
aS'ACE inhibitor "elk"'
p48
aS'ACE inhibitor "pate"'
p49
aS'ACE inhibitor "soy bean"'
p50
aS'ACE inhibitor "pasta"'
p51
aS'ACE inhibitor "hamburger"'
p52
aS'ACE inhibitor "turmeric"'
p53
aS'ACE inhibitor "coconut"'
p54
aS'ACE inhibitor "canola"'
p55
aS'ACE inhibitor "squid"'
p56
aS'ACE inhibitor "quail"'
p57
aS'ACE inhibitor "chanterelle"'
p58
aS'ACE inhibitor "tartary buckwheat"'
p59
aS'ACE inhibitor "blue whiting"'
p60
aS'ACE inhibitor "skipjack tuna"'
p61
aS'ACE inhibitor "adzuki bean"'
p62
aS'ACE inhibitor "gadiformes (cod, hake)"'
p63
aS'ACE inhibitor "peppermint"'
p64
aS'ACE inhibitor "wakame"'
p65
aS'ACE inhibitor "mango"'
p66
aS'ACE inhibitor "liquorice"'
p67
aS'ACE inhibitor "yam"'
p68
aS'ACE inhibitor "vinegar"'
p69
aS'ACE inhibitor "milk and milk products"'
p70
aS'ACE inhibitor "eggplant"'
p71
aS'ACE inhibitor "radish"'
p72
aS'ACE inhibitor "chickpea"'
p73
aS'ACE inhibitor "cucurbita (gourd)"'
p74
aS'ACE inhibitor "lime"'
p75
aS'ACE inhibitor "lentils"'
p76
aS'ACE inhibitor "shiitake"'
p77
aS'ACE inhibitor "crab"'
p78
aS'ACE inhibitor "alcoholic beverages"'
p79
aS'ACE inhibitor "pineappple sage"'
p80
aS'ACE inhibitor "spirit"'
p81
aS'ACE inhibitor "blue mussel"'
p82
aS'ACE inhibitor "soy sauce"'
p83
aS'ACE inhibitor "sesame"'
p84
aS'ACE inhibitor "strawberry"'
p85
aS'ACE inhibitor "malus (crab apple)"'
p86
aS'ACE inhibitor "rosemary"'
p87
aS'ACE inhibitor "teff"'
p88
aS'ACE inhibitor "dripping"'
p89
aS'ACE inhibitor "atlantic cod"'
p90
aS'ACE inhibitor "sunflower"'
p91
aS'ACE inhibitor "alaska pollock"'
p92
aS'ACE inhibitor "butterfat"'
p93
aS'ACE inhibitor "focaccia"'
p94
aS'ACE inhibitor "rum"'
p95
aS'ACE inhibitor "pectin"'
p96
aS'ACE inhibitor "jellyfish"'
p97
aS'ACE inhibitor "bilberry"'
p98
aS'ACE inhibitor "cowpea"'
p99
aS'ACE inhibitor "beaver"'
p100
aS'ACE inhibitor "margarine"'
p101
aS'ACE inhibitor "opossum"'
p102
aS'ACE inhibitor "other meat product"'
p103
aS'ACE inhibitor "syrup"'
p104
aS'ACE inhibitor "cucumber"'
p105
aS'ACE inhibitor "anguilliformes (eel)"'
p106
aS'ACE inhibitor "cuttlefish"'
p107
aS'ACE inhibitor "berry wine"'
p108
aS'ACE inhibitor "butter"'
p109
aS'ACE inhibitor "rubus (blackberry, raspberry)"'
p110
aS'ACE inhibitor "columbidae (dove, pigeon)"'
p111
aS'ACE inhibitor "evening primrose"'
p112
aS'ACE inhibitor "sake"'
p113
aS'ACE inhibitor "fenugreek"'
p114
aS'ACE inhibitor "squirrel"'
p115
aS'ACE inhibitor "black raspberry"'
p116
aS'ACE inhibitor "nance"'
p117
aS'ACE inhibitor "cumin"'
p118
aS'ACE inhibitor "soup"'
p119
aS'ACE inhibitor "agave"'
p120
aS'ACE inhibitor "bamboo shoots"'
p121
aS'ACE inhibitor "other sandwich"'
p122
aS'ACE inhibitor "milk (human)"'
p123
aS'ACE inhibitor "millet"'
p124
aS'ACE inhibitor "nuts"'
p125
aS'ACE inhibitor "chestnut"'
p126
aS'ACE inhibitor "chocolate"'
p127
aS'ACE inhibitor "winged bean"'
p128
aS'ACE inhibitor "pacific cod"'
p129
aS'ACE inhibitor "salad"'
p130
aS'ACE inhibitor "potato"'
p131
aS'ACE inhibitor "oyster mushroom"'
p132
aS'ACE inhibitor "vodka"'
p133
aS'ACE inhibitor "cocoa and cocoa products"'
p134
aS'ACE inhibitor "sweet potato"'
p135
aS'ACE inhibitor "pheasant"'
p136
aS'ACE inhibitor "pie"'
p137
aS'ACE inhibitor "honey"'
p138
aS'ACE inhibitor "kefir"'
p139
aS'ACE inhibitor "blue crab"'
p140
aS'ACE inhibitor "peanut"'
p141
aS'ACE inhibitor "walnut"'
p142
aS'ACE inhibitor "grapefruit"'
p143
aS'ACE inhibitor "catfish"'
p144
aS'ACE inhibitor "coffee"'
p145
aS'ACE inhibitor "citrus"'
p146
aS'ACE inhibitor "sea cucumber"'
p147
aS'ACE inhibitor "atlantic salmon"'
p148
aS'ACE inhibitor "sturgeon"'
p149
aS'ACE inhibitor "rape"'
p150
aS'ACE inhibitor "angelica"'
p151
aS'ACE inhibitor "grape"'
p152
aS'ACE inhibitor "natto"'
p153
aS'ACE inhibitor "barley"'
p154
aS'ACE inhibitor "sauce"'
p155
aS'ACE inhibitor "crustaceans"'
p156
aS'ACE inhibitor "lemon"'
p157
aS'ACE inhibitor "ketchup"'
p158
aS'ACE inhibitor "cereals and cereal products"'
p159
aS'ACE inhibitor "mollusks"'
p160
aS'ACE inhibitor "asparagus"'
p161
aS'ACE inhibitor "horseradish"'
p162
aS'ACE inhibitor "safflower"'
p163
aS'ACE inhibitor "sourdough"'
p164
aS'ACE inhibitor "coffee and coffee products"'
p165
aS'ACE inhibitor "spiny dogfish"'
p166
aS'ACE inhibitor "other candy"'
p167
aS'ACE inhibitor "thistle"'
p168
aS'ACE inhibitor "cream"'
p169
aS'ACE inhibitor "wax gourd"'
p170
aS'ACE inhibitor "rye"'
p171
aS'ACE inhibitor "condensed milk"'
p172
aS'ACE inhibitor "kelp"'
p173
aS'ACE inhibitor "spirulina"'
p174
aS'ACE inhibitor "other vegetable product"'
p175
aS'ACE inhibitor "flaxseed"'
p176
aS'ACE inhibitor "shark"'
p177
aS'ACE inhibitor "pot marjoram"'
p178
aS'ACE inhibitor "scyphozoa"'
p179
aS'ACE inhibitor "morus"'
p180
aS'ACE inhibitor "cucurbita maxima"'
p181
aS'ACE inhibitor "vaccinium deliciosum"'
p182
aS'ACE inhibitor "bivalvia"'
p183
aS'ACE inhibitor "lupinus albus"'
p184
aS'ACE inhibitor "citrus maxima"'
p185
aS'ACE inhibitor "rubus"'
p186
aS'ACE inhibitor "vaccinium macrocarpon"'
p187
aS'ACE inhibitor "cantharellus cibarius"'
p188
aS'ACE inhibitor "nelumbo"'
p189
aS'ACE inhibitor "cynara scolymus"'
p190
aS'ACE inhibitor "olea europaea"'
p191
aS'ACE inhibitor "asparagus officinalis"'
p192
aS'ACE inhibitor "opuntia"'
p193
aS'ACE inhibitor "bubalus bubalis"'
p194
aS'ACE inhibitor "apium graveolens"'
p195
aS'ACE inhibitor "cyprinus carpio"'
p196
aS'ACE inhibitor "lactuca sativa"'
p197
aS'ACE inhibitor "manihot esculenta"'
p198
aS'ACE inhibitor "columbidae"'
p199
aS'ACE inhibitor "allium"'
p200
aS'ACE inhibitor "gossypium"'
p201
aS'ACE inhibitor "vigna unguiculata"'
p202
aS'ACE inhibitor "rubus occidentalis"'
p203
aS'ACE inhibitor "perciformes"'
p204
aS'ACE inhibitor "physalis"'
p205
aS'ACE inhibitor "columba"'
p206
aS'ACE inhibitor "carica papaya"'
p207
aS'ACE inhibitor "benincasa hispida"'
p208
aS'ACE inhibitor "fragaria x ananassa"'
p209
aS'ACE inhibitor "spinacia oleracea"'
p210
aS'ACE inhibitor "vitis"'
p211
aS'ACE inhibitor "ipomoea batatas"'
p212
aS'ACE inhibitor "hordeum vulgare"'
p213
aS'ACE inhibitor "arachis hypogaea"'
p214
aS'ACE inhibitor "allium sativum"'
p215
aS'ACE inhibitor "oncorhynchus mykiss"'
p216
aS'ACE inhibitor "hibiscus sabdariffa"'
p217
aS'ACE inhibitor "zea mays"'
p218
aS'ACE inhibitor "crassostrea gigas"'
p219
aS'ACE inhibitor "gadiformes"'
p220
aS'ACE inhibitor "gadus"'
p221
aS'ACE inhibitor "solanum melongena"'
p222
aS'ACE inhibitor "vaccinium myrtillus"'
p223
aS'ACE inhibitor "sciuridae"'
p224
aS'ACE inhibitor "cinnamomum"'
p225
aS'ACE inhibitor "agaricus bisporus"'
p226
aS'ACE inhibitor "cucurbita"'
p227
aS'ACE inhibitor "hyssopus officinalis"'
p228
aS'ACE inhibitor "lentinus edodes"'
p229
aS'ACE inhibitor "salvia elegans"'
p230
aS'ACE inhibitor "ocimum basilicum"'
p231
aS'ACE inhibitor "mangifera indica"'
p232
aS'ACE inhibitor "thunnus"'
p233
aS'ACE inhibitor "glycine max"'
p234
aS'ACE inhibitor "vicia faba"'
p235
aS'ACE inhibitor "fagopyrum esculentum"'
p236
aS'ACE inhibitor "capra aegagrus hircus"'
p237
aS'ACE inhibitor "curcuma longa"'
p238
aS'ACE inhibitor "melanogrammus aeglefinus"'
p239
aS'ACE inhibitor "undaria pinnatifida"'
p240
aS'ACE inhibitor "solanum tuberosum"'
p241
aS'ACE inhibitor "oncorhynchus"'
p242
aS'ACE inhibitor "pinus"'
p243
aS'ACE inhibitor "quercus"'
p244
aS'ACE inhibitor "allium cepa"'
p245
aS'ACE inhibitor "brassica rapa"'
p246
aS'ACE inhibitor "brachyura"'
p247
aS'ACE inhibitor "gallus gallus"'
p248
aS'ACE inhibitor "ostreidae"'
p249
aS'ACE inhibitor "artocarpus altilis"'
p250
aS'ACE inhibitor "avena sativa"'
p251
aS'ACE inhibitor "momordica charantia"'
p252
aS'ACE inhibitor "arctium lappa"'
p253
aS'ACE inhibitor "amaranthus"'
p254
aS'ACE inhibitor "oryctolagus"'
p255
aS'ACE inhibitor "anguilla"'
p256
aS'ACE inhibitor "rhodophyta"'
p257
aS'ACE inhibitor "linum usitatissimum"'
p258
aS'ACE inhibitor "hibiscus sabbariffa"'
p259
aS'ACE inhibitor "agave"'
p260
aS'ACE inhibitor "diospyros"'
p261
aS'ACE inhibitor "solanum quitoense"'
p262
aS'ACE inhibitor "salmo salar"'
p263
aS'ACE inhibitor "malus"'
p264
aS'ACE inhibitor "flammulina velutipes"'
p265
aS'ACE inhibitor "micromesistius poutassou"'
p266
aS'ACE inhibitor "gastropoda"'
p267
aS'ACE inhibitor "phaseolus lunatus"'
p268
aS'ACE inhibitor "cydonia oblonga"'
p269
aS'ACE inhibitor "salmonidae"'
p270
aS'ACE inhibitor "zingiber officinale"'
p271
aS'ACE inhibitor "zizania"'
p272
aS'ACE inhibitor "prunus"'
p273
aS'ACE inhibitor "myrica"'
p274
aS'ACE inhibitor "pisum sativum"'
p275
aS'ACE inhibitor "panax"'
p276
aS'ACE inhibitor "prunus dulcis"'
p277
aS'ACE inhibitor "spirulina"'
p278
aS'ACE inhibitor "coffea"'
p279
aS'ACE inhibitor "helianthus annuus"'
p280
aS'ACE inhibitor "gadus macrocephalus"'
p281
aS'ACE inhibitor "diospyros kaki"'
p282
aS'ACE inhibitor "mytilus edulis"'
p283
aS'ACE inhibitor "theragra chalcogramma"'
p284
aS'ACE inhibitor "phaseolus vulgaris"'
p285
aS'ACE inhibitor "triticum"'
p286
aS'ACE inhibitor "callinectes sapidus"'
p287
aS'ACE inhibitor "cynara cardunculus"'
p288
aS'ACE inhibitor "gadus morhua"'
p289
aS'ACE inhibitor "lupinus"'
p290
aS'ACE inhibitor "camellia sinensis"'
p291
aS'ACE inhibitor "bos taurus"'
p292
aS'ACE inhibitor "psophocarpus tetragonolobus"'
p293
aS'ACE inhibitor "juglans"'
p294
aS'ACE inhibitor "dioscorea"'
p295
aS'ACE inhibitor "eugenia"'
p296
aS'ACE inhibitor "vaccinium"'
p297
aS'ACE inhibitor "angelica keiskei"'
p298
aS'ACE inhibitor "anas platyrhynchos"'
p299
aS'ACE inhibitor "carthamus tinctorius"'
p300
aS'ACE inhibitor "taraxacum officinale"'
p301
aS'ACE inhibitor "squalus acanthias"'
p302
aS'ACE inhibitor "scomber scombrus"'
p303
aS'ACE inhibitor "scyphozoa"'
p304
aS'ACE inhibitor "morus"'
p305
aS'ACE inhibitor "bivalvia"'
p306
aS'ACE inhibitor "l. albus"'
p307
aS'ACE inhibitor "rubus"'
p308
aS'ACE inhibitor "c. cibarius"'
p309
aS'ACE inhibitor "v. locusta"'
p310
aS'ACE inhibitor "nelumbo"'
p311
aS'ACE inhibitor "lupinus"'
p312
aS'ACE inhibitor "c. sinensis"'
p313
aS'ACE inhibitor "opuntia"'
p314
aS'ACE inhibitor "eugenia"'
p315
aS'ACE inhibitor "columbidae"'
p316
aS'ACE inhibitor "r. \xc3\x97"'
p317
aS'ACE inhibitor "allium"'
p318
aS'ACE inhibitor "malus"'
p319
aS'ACE inhibitor "gossypium"'
p320
aS'ACE inhibitor "thunnus"'
p321
aS'ACE inhibitor "v. unguiculata"'
p322
aS'ACE inhibitor "perciformes"'
p323
aS'ACE inhibitor "physalis"'
p324
aS'ACE inhibitor "columba"'
p325
aS'ACE inhibitor "f. x"'
p326
aS'ACE inhibitor "vitis"'
p327
aS'ACE inhibitor "a. sativum"'
p328
aS'ACE inhibitor "h. sabdariffa"'
p329
aS'ACE inhibitor "gadiformes"'
p330
aS'ACE inhibitor "gadus"'
p331
aS'ACE inhibitor "sciuridae"'
p332
aS'ACE inhibitor "cinnamomum"'
p333
aS'ACE inhibitor "cucurbita"'
p334
aS'ACE inhibitor "a. sativum"'
p335
aS'ACE inhibitor "l. edodes"'
p336
aS'ACE inhibitor "m. indica"'
p337
aS'ACE inhibitor "v. unguiculata"'
p338
aS'ACE inhibitor "vaccinium"'
p339
aS'ACE inhibitor "oncorhynchus"'
p340
aS'ACE inhibitor "a. chinensis"'
p341
aS'ACE inhibitor "pinus"'
p342
aS'ACE inhibitor "quercus"'
p343
aS'ACE inhibitor "brachyura"'
p344
aS'ACE inhibitor "ostreidae"'
p345
aS'ACE inhibitor "a. altilis"'
p346
aS'ACE inhibitor "m. charantia"'
p347
aS'ACE inhibitor "amaranthus"'
p348
aS'ACE inhibitor "oryctolagus"'
p349
aS'ACE inhibitor "anguilla"'
p350
aS'ACE inhibitor "rhodophyta"'
p351
aS'ACE inhibitor "agave"'
p352
aS'ACE inhibitor "diospyros"'
p353
aS'ACE inhibitor "m. x"'
p354
aS'ACE inhibitor "f. velutipes"'
p355
aS'ACE inhibitor "gastropoda"'
p356
aS'ACE inhibitor "p. lunatus"'
p357
aS'ACE inhibitor "salmonidae"'
p358
aS'ACE inhibitor "c. x"'
p359
aS'ACE inhibitor "z. officinale"'
p360
aS'ACE inhibitor "zizania"'
p361
aS'ACE inhibitor "prunus"'
p362
aS'ACE inhibitor "myrica"'
p363
aS'ACE inhibitor "panax"'
p364
aS'ACE inhibitor "coffea"'
p365
aS'ACE inhibitor "g. macrocephalus"'
p366
aS'ACE inhibitor "p. vulgaris"'
p367
aS'ACE inhibitor "triticum"'
p368
aS'ACE inhibitor "m. x"'
p369
aS'ACE inhibitor "c. sinensis"'
p370
aS'ACE inhibitor "v. unguiculata"'
p371
aS'ACE inhibitor "p. melanocarpa"'
p372
aS'ACE inhibitor "juglans"'
p373
aS'ACE inhibitor "dioscorea"'
p374
aS'ACE inhibitor "v. unguiculata"'
p375
aS'ACE inhibitor "spirulina"'
p376
aS'ACE inhibitor "isorhamnetin 3-(2g-apiosylrutinoside)"'
p377
aS'ACE inhibitor "sp1"'
p378
aS'ACE inhibitor "ellagic acid acetyl-arabinoside"'
p379
aS'ACE inhibitor "3,5,6-trihydroxy-5-(hydroxymethyl)-2-methoxy-2-cyclohexen-1-one"'
p380
aS'ACE inhibitor "carlinoside"'
p381
aS'ACE inhibitor "prostaglandin e-1"'
p382
aS'ACE inhibitor "nicotianamine"'
p383
aS'ACE inhibitor "kaempferol 3-feruloyl-triglucoside"'
p384
aS'ACE inhibitor "ginsenoside m7cd"'
p385
aS'ACE inhibitor "ficin d"'
p386
aS'ACE inhibitor "estrone"'
p387
aS'ACE inhibitor "d-ribose"'
p388
aS'ACE inhibitor "rhoifolin"'
p389
aS'ACE inhibitor "luteolin 7-(6\'\'-apiosylglucoside)"'
p390
aS'ACE inhibitor "isorhamnetin 3-o-b-d-glucofuranoside 4\'-o-a-l-rhamnopyranoside"'
p391
aS'ACE inhibitor "xi-dihydro-5-propyl-2(3h)-furanone"'
p392
aS'ACE inhibitor "(23r)-acetoxytomatine"'
p393
aS'ACE inhibitor "2-(1-methylethyl)-4-propylthiazole"'
p394
aS'ACE inhibitor "isorhamnetin 3-vicianoside"'
p395
aS'ACE inhibitor "ampicillin"'
p396
aS'ACE inhibitor "delphinidin 3-(4\'\'-p-coumaroylgalloylglucoside)"'
p397
aS'ACE inhibitor "luteolin 3\'-(4\'\'-acetylglucuronide)"'
p398
aS'ACE inhibitor "lignans"'
p399
aS'ACE inhibitor "flavan-3-ol"'
p400
aS'ACE inhibitor "cyanidin 3-(4-acetylglucoside)"'
p401
aS'ACE inhibitor "vanillin"'
p402
aS'ACE inhibitor "d-mannose"'
p403
aS'ACE inhibitor "epigallocatechin 3-gallate"'
p404
aS'ACE inhibitor "cyanidin 3-glucogalactoside"'
p405
aS'ACE inhibitor "n-methoxyspirobrassinol methyl ether"'
p406
aS'ACE inhibitor "(r)-apiumetin glucoside"'
p407
aS'ACE inhibitor "benzyl ethyl ether"'
p408
aS'ACE inhibitor "uridine diphosphate"'
p409
aS'ACE inhibitor "protoporphyrin"'
p410
aS'ACE inhibitor "isoflavones"'
p411
aS'ACE inhibitor "ruthenium"'
p412
aS'ACE inhibitor "(-)-menthol"'
p413
aS'ACE inhibitor "aloe emodin w-acetate"'
p414
aS'ACE inhibitor "lysolecithin"'
p415
aS'ACE inhibitor "malvin"'
p416
aS'ACE inhibitor "4-methylsulfoxidebuten-(3)-yl cyanide"'
p417
aS'ACE inhibitor "l-ascorbic acid"'
p418
aS'ACE inhibitor "kaempferol 3-sophoroside-rhamnoside"'
p419
aS'ACE inhibitor "ubiquinol-10"'
p420
aS'ACE inhibitor "imperatorin"'
p421
aS'ACE inhibitor "cyanidin 3-(p-coumaroylferuloylglucoside)"'
p422
aS'ACE inhibitor "proanthocyanidins"'
p423
aS'ACE inhibitor "cytosine"'
p424
aS'ACE inhibitor "alpha-carotene"'
p425
aS'ACE inhibitor "ethyl methyl amine"'
p426
aS'ACE inhibitor "vanillic acid"'
p427
aS'ACE inhibitor "gamma-dihydrositosterol ferulic acid ester"'
p428
aS'ACE inhibitor "cyanidin 3-(arabinosylgalactoside)"'
p429
aS'ACE inhibitor "l-tryptophan"'
p430
aS'ACE inhibitor "humulene-1,2-oxide"'
p431
aS'ACE inhibitor "cardiolipin"'
p432
aS'ACE inhibitor "4-hydroxy-3-prenylbenzoic acid glucoside"'
p433
aS'ACE inhibitor "porphobilinogen"'
p434
aS'ACE inhibitor "malvidin 3-alpha-l-galactoside"'
p435
aS'ACE inhibitor "2-methylpropanoic acid"'
p436
aS'ACE inhibitor "2,10-bisaboladiene-1,4-diol"'
p437
aS'ACE inhibitor "chinese tannin"'
p438
aS'ACE inhibitor "kaempferol 3-(2g-rhamnosylgentiobioside)"'
p439
aS'ACE inhibitor "ginsenoside m6-bc"'
p440
aS'ACE inhibitor "4alpha,5alpha-epoxy-11-eudesmen-3a-ol"'
p441
aS'ACE inhibitor "(2e)-piperamide-c5:1"'
p442
aS'ACE inhibitor "trimethylamine"'
p443
aS'ACE inhibitor "hex-trans-2-enyl hexanoate"'
p444
aS'ACE inhibitor "2-methyl-1,5-dinitro-3-nitrosobenzene"'
p445
aS'ACE inhibitor "cis-limonene-1,2-oxide"'
p446
aS'ACE inhibitor "5\',8-dihydroxy-3\',4\',7-trimethoxyflavan"'
p447
aS'ACE inhibitor "epigallocatechin 3,4\'-digallate"'
p448
aS'ACE inhibitor "polyamines"'
p449
aS'ACE inhibitor "1,4-naphthoquinone"'
p450
aS'ACE inhibitor "4-(hydroxymethyl)-2-pyrrolidinecarboxylic acid"'
p451
aS'ACE inhibitor "delphinidin 3-glucosylglucoside"'
p452
aS'ACE inhibitor "5-aminolevulinic acid"'
p453
aS'ACE inhibitor "5-\xce\xb2-pregnan-3,20 dione"'
p454
aS'ACE inhibitor "epigallocatechin 3-(3-methylgallate)"'
p455
aS'ACE inhibitor "1-chloro-2,4-dinitrobenzene"'
p456
aS'ACE inhibitor "notoginsenoside r1"'
p457
a.