(lp0
(lp1
V11790173
p2
aa(lp3
V23185345
p4
aV21185932
p5
aV20564493
p6
aV20038104
p7
aV19665890
p8
aV18622053
p9
aV17452418
p10
aV17072829
p11
aV16390204
p12
aV15577228
p13
aV3430165
p14
aa(lp15
V23043960
p16
aa(lp17
V15492138
p18
aa(lp19
V12693736
p20
aV10075143
p21
aV8605951
p22
aV8476087
p23
aa(lp24
V10363692
p25
aV3324720
p26
aa(lp27
V12176110
p28
aV6997332
p29
aa(lp30
V15998113
p31
aa(lp32
V26335603
p33
aV22115394
p34
aV16099548
p35
aa.