(lp0
(lp1
V12390193
p2
aV10995520
p3
aV9490170
p4
aV7922622
p5
aV8004471
p6
aV1337711
p7
aV2565163
p8
aa(lp9
V21441909
p10
aV8481440
p11
aa(lp12
V17137529
p13
aa(lp14
V18385293
p15
aa(lp16
V22593939
p17
aV22007891
p18
aa(lp19
V15933900
p20
aa(lp21
V22927822
p22
aV19328509
p23
aV8104624
p24
aV8488942
p25
aV4393354
p26
aa(lp27
V10568444
p28
aV10492901
p29
aa(lp30
V12719432
p31
aV9068926
p32
aa(lp33
V12913798
p34
aa(lp35
V494825
p36
aa(lp37
V15001400
p38
aV11015239
p39
aa(lp40
V22292789
p41
aV21919844
p42
aV18385293
p43
aV16127805
p44
aV9818800
p45
aa(lp46
V11692866
p47
aa(lp48
V16621845
p49
aV1796214
p50
aa(lp51
V23291634
p52
aV23064285
p53
aV15676159
p54
aa(lp55
V21627477
p56
aV15558934
p57
aV12948016
p58
aV10213526
p59
aV9723634
p60
aV8113985
p61
aV1296767
p62
aV1571143
p63
aV2619961
p64
aV3361431
p65
aa(lp66
V1665475
p67
aa(lp68
V12176148
p69
aa(lp70
V1796214
p71
aa(lp72
V14980796
p73
aV10568444
p74
aa(lp75
V28112707
p76
aV22745995
p77
aV12512363
p78
aV8324162
p79
aV1903627
p80
aa(lp81
V25981193
p82
aV25975097
p83
aV21969519
p84
aV21525170
p85
aV19116370
p86
aV12498566
p87
aV11808341
p88
aV11561088
p89
aV11408557
p90
aa(lp91
V23585907
p92
aV16142812
p93
aV10935530
p94
aV6509386
p95
aV6743198
p96
aV6177927
p97
aV7062747
p98
aV5921834
p99
aa(lp100
V22376241
p101
aV2005659
p102
aa(lp103
V23249949
p104
aV8235410
p105
aV1721225
p106
aV1710060
p107
aV6827853
p108
aV7064768
p109
aV14229758
p110
aa(lp111
V25193633
p112
aV19093366
p113
aV17137529
p114
aV16780201
p115
aV2026182
p116
aa(lp117
V22126645
p118
aa(lp119
V24969939
p120
aV22013710
p121
aV16221754
p122
aV15916450
p123
aV15072439
p124
aV10548035
p125
aV8816218
p126
aV6370540
p127
aa(lp128
V16461671
p129
aV15604450
p130
aV12176148
p131
aV11823753
p132
aV10471024
p133
aV8366166
p134
aa(lp135
V8161017
p136
aV2054862
p137
aa(lp138
V16461671
p139
aa(lp140
V19642014
p141
aa(lp142
V16461671
p143
aa(lp144
V28112707
p145
aa(lp146
V7436203
p147
aV7229494
p148
aa(lp149
V22181075
p150
aV18385293
p151
aa(lp152
V26446742
p153
aV22824321
p154
aV22450207
p155
aV24248762
p156
aa(lp157
V20150061
p158
aV20150060
p159
aV7770000
p160
aa(lp161
V9634595
p162
aV9454909
p163
aV8609375
p164
aa(lp165
V21769303
p166
aV17561274
p167
aV15676159
p168
aV10967357
p169
aV1708475
p170
aV3038494
p171
aV6290861
p172
aV506966
p173
aV14264289
p174
aV14133950
p175
aa(lp176
V12636154
p177
aa(lp178
V12636154
p179
aa(lp180
V26446742
p181
aV18803087
p182
aV15676159
p183
aV12807314
p184
aV3086679
p185
aa(lp186
V15676159
p187
aV10675182
p188
aa(lp189
V8234183
p190
aV6405441
p191
aa(lp192
V28112707
p193
aa(lp194
V28628838
p195
aa(lp196
V28112707
p197
aV9818800
p198
aV9280706
p199
aa(lp200
V17712967
p201
aV16175970
p202
aV15819441
p203
aa(lp204
V1796214
p205
aa(lp206
V12807314
p207
aV12636154
p208
aV6598939
p209
aa(lp210
V8458682
p211
aa(lp212
V12176148
p213
aV10471024
p214
aa(lp215
V26446742
p216
aV23697605
p217
aV22824321
p218
aa(lp219
V20628344
p220
aV10422992
p221
aV141934
p222
aa(lp223
V27757229
p224
aV26434503
p225
aV25283255
p226
aV18331390
p227
aV10632305
p228
aV10618567
p229
aa(lp230
V24365615
p231
aa(lp232
V26555986
p233
aV20658680
p234
aa(lp235
V11823753
p236
aa(lp237
V22593939
p238
aa(lp239
V23697605
p240
aV17624498
p241
aV12135911
p242
aV10777692
p243
aV1571143
p244
aa(lp245
V3948399
p246
aa(lp247
V15645238
p248
aV15556388
p249
aV9669789
p250
aV3612546
p251
aV6319087
p252
aa(lp253
V3056649
p254
aV7309906
p255
aV7012189
p256
aV506966
p257
aV712596
p258
aV972657
p259
aa(lp260
V22329570
p261
aa(lp262
V6290861
p263
aV506966
p264
aa(lp265
V22145807
p266
aV18272598
p267
aa(lp268
V17712967
p269
aa(lp270
V24704105
p271
aV20358691
p272
aV17198663
p273
aV11468950
p274
aV10675182
p275
aV3295011
p276
aV343583
p277
aa(lp278
V14599685
p279
aV11849688
p280
aV1796214
p281
aa(lp282
V16461671
p283
aa(lp284
V10029408
p285
aa(lp286
V10940580
p287
aV9454909
p288
aV4095197
p289
aV114186
p290
aV13132950
p291
aa(lp292
V9818800
p293
aa(lp294
V3046347
p295
aa(lp296
V15676159
p297
aa(lp298
V20301438
p299
aV19401984
p300
aV8509946
p301
aa(lp302
V6290861
p303
aV506966
p304
aa(lp305
V17605006
p306
aV10568444
p307
aa(lp308
V9694280
p309
aV9630715
p310
aa(lp311
V21686394
p312
aV9740315
p313
aV9688359
p314
aV9485564
p315
aa(lp316
V448961
p317
aV618918
p318
aV4739606
p319
aa(lp320
V26134275
p321
aV19105722
p322
aV18416932
p323
aV10389216
p324
aV8617706
p325
aa(lp326
V8472371
p327
aV1314718
p328
aV3225775
p329
aV3318658
p330
aV3709626
p331
aV6145573
p332
aV6370540
p333
aV7075628
p334
aV762640
p335
aV687540
p336
aV660341
p337
aV895815
p338
aa(lp339
V8102147
p340
aa(lp341
V26109136
p342
aV25984674
p343
aV10968167
p344
aV10341405
p345
aV8677107
p346
aV1151953
p347
aV4531896
p348
aV5576805
p349
aa(lp350
V12913798
p351
aa(lp352
V28711269
p353
aV21785972
p354
aV21686394
p355
aV17984341
p356
aV17386727
p357
aV2437304
p358
aa(lp359
V20025575
p360
aV19889884
p361
aV18331390
p362
aV17967933
p363
aV17393304
p364
aa(lp365
V3295011
p366
aa(lp367
V18483172
p368
aa(lp369
V16461671
p370
aa(lp371
V25981260
p372
aV19491701
p373
aV16461671
p374
aV12176148
p375
aV10471024
p376
aV9626955
p377
aV7769026
p378
aV7732766
p379
aV8366166
p380
aV1430068
p381
aa(lp382
V18331390
p383
aa(lp384
V9145499
p385
aV6513201
p386
aa(lp387
V22007891
p388
aV17386727
p389
aV6038344
p390
aa(lp391
V22126645
p392
aV18524449
p393
aV7520835
p394
aa(lp395
V25064106
p396
aa(lp397
V25276629
p398
aV19176440
p399
aV12860328
p400
aV412176
p401
aa(lp402
V3176115
p403
aa(lp404
V28644688
p405
aa(lp406
V27793783
p407
aV25880053
p408
aV25014657
p409
aV18803087
p410
aV17676865
p411
aV17566147
p412
aV12636154
p413
aV11823753
p414
aa(lp415
V21247417
p416
aa(lp417
V8161017
p418
aV4854447
p419
aa(lp420
V17624498
p421
aa(lp422
V24036516
p423
aV10675182
p424
aa(lp425
V15217301
p426
aV1130830
p427
aa(lp428
V18570158
p429
aa(lp430
V18510583
p431
aV10763156
p432
aV4124995
p433
aa(lp434
V17561274
p435
aa(lp436
V24269187
p437
aV20147025
p438
aV19642014
p439
aa(lp440
V12636154
p441
aV2789929
p442
aV3122885
p443
aa(lp444
V12034156
p445
aV10716473
p446
aa(lp447
V26417265
p448
aV22257149
p449
aV22139684
p450
aV16221754
p451
aV15916450
p452
aV15072439
p453
aV12807314
p454
aa(lp455
V15676159
p456
aa(lp457
V8939363
p458
aa(lp459
V9818800
p460
aa(lp461
V24530447
p462
aa(lp463
V15766924
p464
aa(lp465
V15037647
p466
aa(lp467
V23067030
p468
aa(lp469
V23341448
p470
aV18650317
p471
aV16914433
p472
aa(lp473
V24530447
p474
aa(lp475
V14984039
p476
aa(lp477
V17624498
p478
aa(lp479
V27863978
p480
aV9606912
p481
aa(lp482
V17624498
p483
aa(lp484
V10940580
p485
aV9454909
p486
aV4095197
p487
aV114186
p488
aV13132950
p489
aa(lp490
V22292789
p491
aV21919844
p492
aV19719333
p493
aV19401984
p494
aV15916450
p495
aV11772128
p496
aV10675182
p497
aa(lp498
V17605006
p499
aa(lp500
V23291634
p501
aV23064285
p502
aa(lp503
V9872665
p504
aa(lp505
V16621845
p506
aa(lp507
V24365615
p508
aV20496075
p509
aV16875042
p510
aV15082036
p511
aV15082035
p512
aa(lp513
V19642014
p514
aa(lp515
V14599685
p516
aV11849688
p517
aa(lp518
V22126645
p519
aV9413743
p520
aa(lp521
V12636154
p522
aa(lp523
V22292789
p524
aV21919844
p525
aV19719333
p526
aV15916450
p527
aV11772128
p528
aV10675182
p529
aa(lp530
V10568444
p531
aV10492901
p532
aa(lp533
V15933900
p534
aa(lp535
V15766924
p536
aV11849678
p537
aa(lp538
V22593939
p539
aa(lp540
V14159543
p541
aa(lp542
V16260302
p543
aa(lp544
V19642014
p545
aa(lp546
V8939363
p547
aa(lp548
V22126645
p549
aV9413743
p550
aa(lp551
V15037647
p552
aa(lp553
V28112707
p554
aV19491701
p555
aa(lp556
V23064285
p557
aV22181075
p558
aa(lp559
V8339317
p560
aV7693064
p561
aa(lp562
V25981260
p563
aV12176148
p564
aV10471024
p565
aV9626955
p566
aV7769026
p567
aV7732766
p568
aV8366166
p569
aV1430068
p570
aa(lp571
V17605006
p572
aV14980796
p573
aV10568444
p574
aV10492901
p575
aa(lp576
V17332634
p577
aa(lp578
V22126645
p579
aa(lp580
V16461671
p581
aa(lp582
V9549894
p583
aV8575620
p584
aa(lp585
V15933900
p586
aV15766924
p587
aV11849678
p588
aV10063622
p589
aV10030035
p590
aa(lp591
V23064285
p592
aa(lp593
V27741192
p594
aV22114527
p595
aV18279695
p596
aV11728490
p597
aV11239659
p598
aV8423969
p599
aa(lp600
V24365615
p601
aa(lp602
V15916450
p603
aa(lp604
V9415207
p605
aV8618948
p606
aa(lp607
V20557448
p608
aa(lp609
V22126645
p610
aa(lp611
V11823753
p612
aa(lp613
V22593939
p614
aa(lp615
V22292789
p616
aV21919844
p617
aa(lp618
V8339317
p619
aV7693064
p620
aa(lp621
V11958933
p622
aa(lp623
V15037647
p624
aa(lp625
V19401984
p626
aV7508428
p627
aa(lp628
V17561274
p629
aV10424463
p630
aV9413743
p631
aV8939363
p632
aV506966
p633
aa(lp634
V23697605
p635
aa(lp636
V24798650
p637
aV20014428
p638
aV15505099
p639
aV9872665
p640
aa(lp641
V7866870
p642
aa(lp643
V22765949
p644
aa(lp645
V15050519
p646
aa(lp647
V19642014
p648
aa(lp649
V26744253
p650
aV21561886
p651
aV16303871
p652
aV15896246
p653
aV10918072
p654
aV4074103
p655
aa(lp656
V24036516
p657
aa(lp658
V23341448
p659
aV18650317
p660
aV16914433
p661
aa(lp662
V24530447
p663
aa(lp664
V14984039
p665
aa(lp666
V17624498
p667
aa(lp668
V27863978
p669
aV9606912
p670
aa(lp671
V17624498
p672
aa(lp673
V10940580
p674
aV9454909
p675
aV4095197
p676
aV114186
p677
aV13132950
p678
aa(lp679
V22292789
p680
aV21919844
p681
aV19719333
p682
aV19401984
p683
aV15916450
p684
aV11772128
p685
aV10675182
p686
aa(lp687
V11823753
p688
aa(lp689
V24365615
p690
aV20496075
p691
aV16875042
p692
aV15082036
p693
aV15082035
p694
aa(lp695
V19642014
p696
aa(lp697
V15916450
p698
aa(lp699
V6173530
p700
aa(lp701
V11849678
p702
aa(lp703
V15916450
p704
aa(lp705
V16260302
p706
aa(lp707
V8939363
p708
aa(lp709
V15037647
p710
aa(lp711
V18439772
p712
aa(lp713
V8339317
p714
aV7693064
p715
aa(lp716
V17605006
p717
aV14980796
p718
aV10568444
p719
aV10492901
p720
aa(lp721
V16461671
p722
aa(lp723
V15933900
p724
aV15766924
p725
aV11849678
p726
aV10063622
p727
aV10030035
p728
aa(lp729
V27741192
p730
aV22114527
p731
aV18279695
p732
aV11728490
p733
aV11239659
p734
aV8423969
p735
aa(lp736
V22126645
p737
aa(lp738
V22593939
p739
aa(lp740
V11958933
p741
aa(lp742
V17561274
p743
aV10424463
p744
aV9413743
p745
aV8939363
p746
aV506966
p747
aa(lp748
V26744253
p749
aV21561886
p750
aV16303871
p751
aV15896246
p752
aV10918072
p753
aV4074103
p754
aa(lp755
V19617418
p756
aV16507383
p757
aV15843278
p758
aV1434328
p759
aV2459551
p760
aa(lp761
V12067980
p762
aV11073119
p763
aa(lp764
V24036516
p765
aa(lp766
V20347037
p767
aa(lp768
V26294890
p769
aa(lp770
V24662727
p771
aV21302291
p772
aV7632770
p773
aa(lp774
V20955791
p775
aV19414624
p776
aV16388406
p777
aV11602523
p778
aa(lp779
V24272685
p780
aa(lp781
V15638994
p782
aa(lp783
V15638994
p784
aV10973807
p785
aa(lp786
V16442130
p787
aV15072439
p788
aa(lp789
V28711269
p790
aV22733832
p791
aV9607132
p792
aV9286951
p793
aV8374978
p794
aV1494878
p795
aa(lp796
V17827715
p797
aV16004818
p798
aV11673753
p799
aV8222341
p800
aV1559308
p801
aV1686913
p802
aV3358884
p803
aV5129315
p804
aV5147478
p805
aV4230510
p806
aa(lp807
V15645238
p808
aa(lp809
V9543231
p810
aa(lp811
V25043947
p812
aV24922060
p813
aV23921228
p814
aV23731657
p815
aV17566147
p816
aV2544967
p817
aV2425380
p818
aV3004480
p819
aV3013381
p820
aa(lp821
V94411
p822
aa(lp823
V9807018
p824
aV3060295
p825
aa(lp826
V18197554
p827
aa(lp828
V21316177
p829
aV19833118
p830
aV18317988
p831
aV11864459
p832
aV7220589
p833
aa(lp834
V10701323
p835
aV577437
p836
aa(lp837
V17220245
p838
aV15170365
p839
aa(lp840
V8686886
p841
aa(lp842
V24242937
p843
aV24036516
p844
aV17220245
p845
aa(lp846
V24360197
p847
aV22266779
p848
aV21303967
p849
aV18565173
p850
aV12169761
p851
aV11245619
p852
aV9248848
p853
aV2464499
p854
aV2424774
p855
aV544629
p856
aa(lp857
V21035975
p858
aV20445169
p859
aV19336997
p860
aV16874850
p861
aV9133611
p862
aV8951614
p863
aV1716534
p864
aa(lp865
V14568334
p866
aa(lp867
V26426900
p868
aV21507821
p869
aV20600878
p870
aa(lp871
V24380838
p872
aV9415207
p873
aa.