(lp0
(lp1
V12089990
p2
aV9134133
p3
aV3619090
p4
aV553488
p5
aa(lp6
V23022084
p7
aV21085788
p8
aV17684750
p9
aa(lp10
V21649454
p11
aa(lp12
V486758
p13
aa(lp14
V23633302
p15
aa(lp16
V27325291
p17
aV24909119
p18
aV22033427
p19
aV21795578
p20
aV18577468
p21
aV18410381
p22
aV16051380
p23
aV15228955
p24
aV12959545
p25
aV12819274
p26
aa(lp27
V27825549
p28
aV26870843
p29
aV25618702
p30
aV24631610
p31
aV17117649
p32
aV16308778
p33
aa(lp34
V24030453
p35
aV20092872
p36
aV16308778
p37
aV7749275
p38
aa(lp39
V23790828
p40
aa(lp41
V27988643
p42
aV27669216
p43
aV26868565
p44
aV20650336
p45
aV17435299
p46
aV12210124
p47
aV11290451
p48
aV8747426
p49
aV1497356
p50
aV202553
p51
aa(lp52
V25503327
p53
aa(lp54
V26552530
p55
aa(lp56
V22790119
p57
aV21160522
p58
aV19787544
p59
aa(lp60
V27741269
p61
aa(lp62
V27863882
p63
aV26186724
p64
aV23860577
p65
aV18400997
p66
aV18350880
p67
aV16428824
p68
aa(lp69
V964883
p70
aV5235222
p71
aa(lp72
V24037763
p73
aa(lp74
V1873986
p75
aV3996704
p76
aV6141886
p77
aV42187
p78
aV486758
p79
aa(lp80
V12394224
p81
aa(lp82
V17029312
p83
aV16401127
p84
aV12394224
p85
aa(lp86
V15364435
p87
aV12559792
p88
aV12507846
p89
aV2665654
p90
aa(lp91
V5627679
p92
aa(lp93
V10235193
p94
aa(lp95
V9084635
p96
aV1118730
p97
aa(lp98
V25163895
p99
aa(lp100
V24037763
p101
aa(lp102
V1497356
p103
aa(lp104
V25065800
p105
aa(lp106
V22790119
p107
aV21160522
p108
aV19787544
p109
aa(lp110
V24945791
p111
aa(lp112
V26461459
p113
aa(lp114
V27677152
p115
aV19939669
p116
aV2884709
p117
aa(lp118
V16411954
p119
aa(lp120
V17012880
p121
aa(lp122
V4020559
p123
aa(lp124
V1896092
p125
aa(lp126
V21137574
p127
aV3341249
p128
aa(lp129
V28464026
p130
aV28068585
p131
aV27039212
p132
aV26552428
p133
aV25242027
p134
aV21721259
p135
aV11601298
p136
aV3946112
p137
aV7156442
p138
aa(lp139
V25047240
p140
aa(lp141
V23621524
p142
aV20403418
p143
aV17488068
p144
aV17374735
p145
aV16296840
p146
aV11401178
p147
aV9241835
p148
aV2847540
p149
aV5461980
p150
aV5387575
p151
aV5948880
p152
aa(lp153
V23311987
p154
aV22926146
p155
aa(lp156
V18094107
p157
aa(lp158
V2170884
p159
aV6662873
p160
aV843557
p161
aa(lp162
V27770929
p163
aV16215841
p164
aV8099348
p165
aV2837754
p166
aa(lp167
V20817258
p168
aa(lp169
V23052588
p170
aV12495426
p171
aa(lp172
V28295108
p173
aV20044571
p174
aV15207604
p175
aa(lp176
V27455680
p177
aa(lp178
V26453245
p179
aa(lp180
V27039212
p181
aV25242027
p182
aa(lp183
V24845065
p184
aV19228025
p185
aa(lp186
V23824675
p187
aV23475567
p188
aV15585441
p189
aa(lp190
V17963960
p191
aV11076874
p192
aV9665102
p193
aV2368697
p194
aa(lp195
V23945405
p196
aV16177199
p197
aa(lp198
V25903174
p199
aV23673486
p200
aV17951052
p201
aV14605278
p202
aV11393764
p203
aV10857004
p204
aV9377102
p205
aV6972566
p206
aa(lp207
V1100939
p208
aV4405403
p209
aa(lp210
V25310996
p211
aV15691943
p212
aV7565913
p213
aV7296884
p214
aa(lp215
V19918881
p216
aV2237719
p217
aV2682004
p218
aV6269102
p219
aa(lp220
V6174383
p221
aa(lp222
V25907947
p223
aV22950493
p224
aV2753281
p225
aV3563454
p226
aV3863229
p227
aV6755652
p228
aV6941407
p229
aV6784737
p230
aa(lp231
V21976442
p232
aV18988242
p233
aa(lp234
V27053227
p235
aa(lp236
V11601708
p237
aa(lp238
V18363737
p239
aa(lp240
V23311987
p241
aV22926146
p242
aa(lp243
V17931645
p244
aa(lp245
V12495426
p246
aa(lp247
V23012931
p248
aV17762217
p249
aa(lp250
V27464022
p251
aV24141114
p252
aV23523543
p253
aV21316734
p254
aV9860822
p255
aa(lp256
V25310996
p257
aV15691943
p258
aV7565913
p259
aV7296884
p260
aa(lp261
V20817258
p262
aV9433776
p263
aa(lp264
V15207604
p265
aa(lp266
V28231537
p267
aa(lp268
V24197786
p269
aV8106649
p270
aV5665981
p271
aa(lp272
V16211855
p273
aa(lp274
V28068585
p275
aV11601298
p276
aV3946112
p277
aa(lp278
V21787678
p279
aV3629603
p280
aa(lp281
V25929974
p282
aV7303750
p283
aV4144160
p284
aV4196601
p285
aa(lp286
V28464026
p287
aV28068585
p288
aV21721259
p289
aa(lp290
V20408585
p291
aa(lp292
V24686805
p293
aV22895810
p294
aV11711264
p295
aa(lp296
V22926146
p297
aa(lp298
V18094107
p299
aa(lp300
V22350296
p301
aV21177000
p302
aV2155889
p303
aa(lp304
V16211855
p305
aV2222551
p306
aa(lp307
V16909941
p308
aa(lp309
V27100529
p310
aV22628021
p311
aV17703662
p312
aV17441148
p313
aa(lp314
V23621524
p315
aV22940297
p316
aV17488068
p317
aV5461980
p318
aV5387575
p319
aV5948880
p320
aa(lp321
V27085318
p322
aV15581000
p323
aa(lp324
V23295505
p325
aa(lp326
V28464026
p327
aV28068585
p328
aV27039212
p329
aV26552428
p330
aV25242027
p331
aV21721259
p332
aV11601298
p333
aa(lp334
V16256327
p335
aV15725301
p336
aV8717010
p337
aa(lp338
V4902203
p339
aa(lp340
V15913178
p341
aa.