(lp0
(lp1
V24383939
p2
aa(lp3
V25112306
p4
aV7944078
p5
aV1672990
p6
aa(lp7
V10902065
p8
aa(lp9
V25318916
p10
aV23378176
p11
aV21456505
p12
aV21384745
p13
aV19348381
p14
aV10940116
p15
aV9146716
p16
aV8846617
p17
aV8747696
p18
aV1472073
p19
aa(lp20
V23353843
p21
aV22360448
p22
aa(lp23
V27545637
p24
aV25851318
p25
aV25774581
p26
aV23514286
p27
aV20421126
p28
aV15842040
p29
aV15457308
p30
aV12876614
p31
aV10391426
p32
aV9627529
p33
aa(lp34
V27022381
p35
aa(lp36
V27688985
p37
aa(lp38
V15523313
p39
aV11113724
p40
aV8245325
p41
aV8491007
p42
aa(lp43
V1151963
p44
aa(lp45
V26466613
p46
aa(lp47
V22876743
p48
aa(lp49
V25029715
p50
aV24830804
p51
aV24251359
p52
aV23514286
p53
aV16729670
p54
aa(lp55
V6578721
p56
aa(lp57
V26507574
p58
aV25639072
p59
aV22272634
p60
aV20617421
p61
aa(lp62
V10902065
p63
aa(lp64
V17534672
p65
aV9519169
p66
aV5576445
p67
aV4171062
p68
aa(lp69
V26941093
p70
aa(lp71
V16628990
p72
aV15508534
p73
aV12452752
p74
aa(lp75
V25959534
p76
aV20346414
p77
aa(lp78
V8873347
p79
aV1948821
p80
aa(lp81
V26245185
p82
aV20617421
p83
aV14742793
p84
aV14570069
p85
aV9068926
p86
aa(lp87
V26507574
p88
aa(lp89
V28552449
p90
aV25573076
p91
aa(lp92
V24383939
p93
aV22876743
p94
aV18313506
p95
aV16741856
p96
aV6486994
p97
aa(lp98
V22486645
p99
aa(lp100
V25029715
p101
aV24383939
p102
aV10963462
p103
aV3541503
p104
aa(lp105
V24383939
p106
aa(lp107
V3203054
p108
aa(lp109
V24383939
p110
aa(lp111
V21558883
p112
aV15676159
p113
aa(lp114
V12004929
p115
aV1763520
p116
aV3764083
p117
aV7343964
p118
aV701785
p119
aV632570
p120
aV4548430
p121
aV6017839
p122
aV5996677
p123
aa(lp124
V8873347
p125
aV1948821
p126
aa(lp127
V19277402
p128
aV16479960
p129
aa(lp130
V24066371
p131
aa(lp132
V27215119
p133
aV24895454
p134
aV16265940
p135
aa(lp136
V26137942
p137
aa(lp138
V24398467
p139
aV24383939
p140
aV7358081
p141
aV5751635
p142
aa(lp143
V1438593
p144
aa(lp145
V27428755
p146
aa(lp147
V28566528
p148
aV26922378
p149
aV25639072
p150
aV22545279
p151
aV22834058
p152
aV19349858
p153
aV16729670
p154
aV15825811
p155
aV10568341
p156
aV7699352
p157
aa(lp158
V26245684
p159
aV24904179
p160
aV2480149
p161
aV4005875
p162
aV113906
p163
aa(lp164
V18392278
p165
aa(lp166
V15916450
p167
aV12452752
p168
aV7699352
p169
aV2572622
p170
aV6370540
p171
aV6393685
p172
aa(lp173
V10963462
p174
aa(lp175
V27882892
p176
aV27428755
p177
aV26985088
p178
aV17919554
p179
aV17651305
p180
aa(lp181
V27212967
p182
aV23615883
p183
aV10231745
p184
aV1189231
p185
aa(lp186
V16143572
p187
aV14616014
p188
aV12924792
p189
aV10892592
p190
aV9686881
p191
aa(lp192
V25478864
p193
aa(lp194
V24735708
p195
aV23146043
p196
aV430246
p197
aa(lp198
V23696101
p199
aV22416444
p200
aV20731114
p201
aV21780625
p202
aV19827655
p203
aV18763596
p204
aV16875063
p205
aV12469999
p206
aa(lp207
V15017321
p208
aV10963462
p209
aV7766737
p210
aV8412467
p211
aV3541503
p212
aV6486994
p213
aV6843604
p214
aa(lp215
V20617421
p216
aV10902065
p217
aa(lp218
V25839871
p219
aV10902065
p220
aa(lp221
V27403212
p222
aV923955
p223
aa(lp224
V24740331
p225
aV19931897
p226
aV18983163
p227
aV15676159
p228
aV14757504
p229
aV7240736
p230
aV621382
p231
aV264500
p232
aV14174963
p233
aa(lp234
V16539878
p235
aa(lp236
V25112306
p237
aV22486645
p238
aV21042484
p239
aa(lp240
V25112306
p241
aa(lp242
V25112306
p243
aV23539170
p244
aV15676159
p245
aV12014354
p246
aa(lp247
V22566187
p248
aa(lp249
V15794726
p250
aV15676159
p251
aV10675182
p252
aa(lp253
V28523460
p254
aV25644580
p255
aV9347822
p256
aa(lp257
V14968686
p258
aa(lp259
V23633319
p260
aV10902065
p261
aV9818800
p262
aa(lp263
V26283902
p264
aV25905290
p265
aa(lp266
V27428755
p267
aa(lp268
V28656493
p269
aV26671408
p270
aV17111199
p271
aV1587057
p272
aa(lp273
V24383939
p274
aa(lp275
V21042484
p276
aa(lp277
V26372257
p278
aa(lp279
V14652640
p280
aV6771772
p281
aa(lp282
V28781876
p283
aV27071942
p284
aV27092254
p285
aV27489634
p286
aV19687493
p287
aa(lp288
V25112306
p289
aV22530414
p290
aV20029019
p291
aV19637955
p292
aa(lp293
V25220335
p294
aV24899908
p295
aV23041648
p296
aa(lp297
V24209787
p298
aV12730559
p299
aa(lp300
V25953603
p301
aa(lp302
V10920504
p303
aa(lp304
V12845882
p305
aa(lp306
V26912919
p307
aV24934549
p308
aa(lp309
V16458764
p310
aa(lp311
V27547797
p312
aV24165501
p313
aV21878380
p314
aa(lp315
V10934666
p316
aa(lp317
V9743238
p318
aa(lp319
V20821618
p320
aV1189231
p321
aa(lp322
V23615893
p323
aV23615883
p324
aa(lp325
V16729670
p326
aa(lp327
V20040699
p328
aa(lp329
V27071942
p330
aV22572202
p331
aV21870978
p332
aV9698028
p333
aV7990537
p334
aV578833
p335
aa(lp336
V632570
p337
aa(lp338
V26914668
p339
aV15136222
p340
aa(lp341
V24704105
p342
aV10675182
p343
aV1346954
p344
aa(lp345
V27071942
p346
aa(lp347
V6116580
p348
aa(lp349
V23633319
p350
aV19783511
p351
aV9818800
p352
aa(lp353
V24707182
p354
aV27957046
p355
aV11722341
p356
aa(lp357
V8094986
p358
aa(lp359
V25905290
p360
aV21558883
p361
aV15676159
p362
aV11310527
p363
aV10902065
p364
aV6578721
p365
aa(lp366
V23251773
p367
aa(lp368
V6578724
p369
aV7462592
p370
aV5646285
p371
aa(lp372
V20301470
p373
aV25392903
p374
aV20301327
p375
aV20301542
p376
aV19717844
p377
aa(lp378
V28042854
p379
aa(lp380
V12825970
p381
aV10963462
p382
aa(lp383
V1242749
p384
aa(lp385
V11393835
p386
aV8742240
p387
aV1472073
p388
aV2995451
p389
aV2410342
p390
aa(lp391
V11302479
p392
aV8266311
p393
aV8250655
p394
aV3203054
p395
aV4078705
p396
aV6370540
p397
aV6393685
p398
aV927470
p399
aV871666
p400
aa(lp401
V19826750
p402
aa(lp403
V24985353
p404
aV14647095
p405
aa(lp406
V24966255
p407
aa(lp408
V24081927
p409
aV20875232
p410
aV17166611
p411
aV11831865
p412
aV9778762
p413
aV9449565
p414
aa(lp415
V25839871
p416
aV24264881
p417
aV21879412
p418
aV14730467
p419
aV12038943
p420
aV10920504
p421
aV10902065
p422
aa(lp423
V27392967
p424
aV26644327
p425
aV26148369
p426
aa(lp427
V25288566
p428
aV19717844
p429
aV11091796
p430
aV9390105
p431
aV6717046
p432
aa(lp433
V10568341
p434
aa(lp435
V27428755
p436
aV24383939
p437
aV22472458
p438
aV10610014
p439
aa(lp440
V28768576
p441
aa(lp442
V24383939
p443
aa(lp444
V17515584
p445
aa(lp446
V28515748
p447
aV24934549
p448
aV22754401
p449
aV21873815
p450
aV3881108
p451
aa(lp452
V27878205
p453
aV27392967
p454
aV25530902
p455
aV25432001
p456
aV17898941
p457
aV14601011
p458
aa(lp459
V25172718
p460
aV23073199
p461
aV23052284
p462
aV21852006
p463
aa(lp464
V22702966
p465
aV21042484
p466
aV17651305
p467
aV17468864
p468
aV16513449
p469
aV15682573
p470
aV11475198
p471
aV10423213
p472
aV9706183
p473
aa(lp474
V8873347
p475
aV1948821
p476
aa(lp477
V24489112
p478
aV12712418
p479
aV11186330
p480
aV2778653
p481
aa(lp482
V27538699
p483
aV25815614
p484
aV25636978
p485
aV22702966
p486
aV14647095
p487
aV14576030
p488
aV11675844
p489
aa(lp490
V25116897
p491
aV25097196
p492
aV24176442
p493
aV22520540
p494
aV22319105
p495
aV21324428
p496
aV20961244
p497
aV20628787
p498
aV18471451
p499
aV18353757
p500
aV18215609
p501
aa(lp502
V6486994
p503
aa(lp504
V27571947
p505
aa(lp506
V24383939
p507
aa(lp508
V25233607
p509
aV10902065
p510
aV10675182
p511
aV8853310
p512
aV7588995
p513
aa(lp514
V24966255
p515
aV16413247
p516
aa(lp517
V25555949
p518
aa(lp519
V27688985
p520
aV26346860
p521
aV25552810
p522
aV17190098
p523
aV15825811
p524
aV8777808
p525
aV2360879
p526
aa(lp527
V20546057
p528
aV19717844
p529
aV15671977
p530
aV63772
p531
aV4838909
p532
aV13263151
p533
aa(lp534
V16729670
p535
aa(lp536
V22231999
p537
aV21364039
p538
aV18997138
p539
aa(lp540
V26941093
p541
aV20204461
p542
aa(lp543
V2692877
p544
aV3046778
p545
aa(lp546
V28783419
p547
aa(lp548
V28250272
p549
aV24670388
p550
aV26417265
p551
aV22257149
p552
aV22139684
p553
aV19934397
p554
aV15916450
p555
aa(lp556
V26679334
p557
aV25665116
p558
aV24332521
p559
aV23957141
p560
aV20144498
p561
aV19663955
p562
aV16925162
p563
aV15578136
p564
aV14663804
p565
aV11507845
p566
aa(lp567
V15676159
p568
aa(lp569
V27216294
p570
aV21150620
p571
aV17052529
p572
aV12114237
p573
aV1063212
p574
aa(lp575
V9818800
p576
aa(lp577
V16729670
p578
aa(lp579
V12516040
p580
aV12452752
p581
aa(lp582
V23067030
p583
aV16010646
p584
aa(lp585
V19117967
p586
aa(lp587
V28042854
p588
aa(lp589
V10231745
p590
aa(lp591
V6116580
p592
aa(lp593
V25233607
p594
aV22292789
p595
aV21919844
p596
aV21455854
p597
aV19719333
p598
aV17918162
p599
aV15916450
p600
aV11834913
p601
aV11772128
p602
aV10953464
p603
aV10675182
p604
aa(lp605
V19826750
p606
aV10231745
p607
aa(lp608
V10231745
p609
aa(lp610
V24966255
p611
aV20098971
p612
aV19117967
p613
aV16413247
p614
aa(lp615
V22486645
p616
aa(lp617
V25233607
p618
aV22292789
p619
aV21919844
p620
aV19719333
p621
aV17918162
p622
aV15916450
p623
aV11834913
p624
aV11772128
p625
aV10675182
p626
aa(lp627
V8873347
p628
aa(lp629
V15155782
p630
aV11732334
p631
aV1382600
p632
aa(lp633
V19117967
p634
aa(lp635
V26179481
p636
aa(lp637
V10231745
p638
aV6578724
p639
aV7462592
p640
aV5646285
p641
aa(lp642
V11328905
p643
aa(lp644
V19757094
p645
aa(lp646
V8873347
p647
aa(lp648
V10953464
p649
aa(lp650
V22864323
p651
aa(lp652
V8078495
p653
aV2271712
p654
aa(lp655
V15916450
p656
aa(lp657
V6578721
p658
aa(lp659
V25640094
p660
aa(lp661
V8873347
p662
aa(lp663
V28042854
p664
aa(lp665
V26179481
p666
aa(lp667
V8873347
p668
aa(lp669
V25233607
p670
aV22292789
p671
aV21919844
p672
aa(lp673
V25640094
p674
aa(lp675
V1000085
p676
aa(lp677
V10902065
p678
aa(lp679
V10920504
p680
aa(lp681
V18983163
p682
aa(lp683
V28232327
p684
aV27544300
p685
aV26280206
p686
aV22583010
p687
aV10378566
p688
aa(lp689
V26507574
p690
aa(lp691
V25233607
p692
aa(lp693
V25546464
p694
aa(lp695
V25640094
p696
aa(lp697
V28042854
p698
aa(lp699
V25546464
p700
aa(lp701
V19757094
p702
aa(lp703
V6116580
p704
aa(lp705
V25233607
p706
aV22292789
p707
aV21919844
p708
aV21455854
p709
aV19719333
p710
aV17918162
p711
aV15916450
p712
aV11834913
p713
aV11772128
p714
aV10953464
p715
aV10675182
p716
aa(lp717
V25905290
p718
aV16432273
p719
aa(lp720
V10231745
p721
aa(lp722
V18500239
p723
aV18267072
p724
aV9798971
p725
aV2501168
p726
aa(lp727
V24966255
p728
aV20098971
p729
aV19117967
p730
aV16413247
p731
aa(lp732
V15916450
p733
aa(lp734
V26513897
p735
aa(lp736
V10231745
p737
aV6578724
p738
aV7462592
p739
aV5646285
p740
aa(lp741
V15916450
p742
aa(lp743
V8873347
p744
aa(lp745
V8078495
p746
aV2271712
p747
aa(lp748
V26507574
p749
aa(lp750
V25905290
p751
aa(lp752
V28042854
p753
aa(lp754
V26179481
p755
aa(lp756
V8873347
p757
aa(lp758
V25640094
p759
aa(lp760
V1000085
p761
aa(lp762
V10902065
p763
aa(lp764
V18983163
p765
aa(lp766
V25733806
p767
aa(lp768
V17958743
p769
aa(lp770
V25746367
p771
aV22566187
p772
aV8987162
p773
aV5313006
p774
aV5696331
p775
aV5727054
p776
aV5303994
p777
aV5607759
p778
aV5584289
p779
aa(lp780
V21496065
p781
aV12572529
p782
aV11491389
p783
aa(lp784
V23023353
p785
aV9929511
p786
aa(lp787
V11757988
p788
aV11347155
p789
aV9825949
p790
aV9650671
p791
aV1877538
p792
aV2340197
p793
aV3246036
p794
aV966139
p795
aV4961503
p796
aa(lp797
V11336843
p798
aV9430764
p799
aV7795388
p800
aV7909237
p801
aV8216380
p802
aV1400761
p803
aa(lp804
V20849569
p805
aa(lp806
V28588690
p807
aV27591379
p808
aV27050329
p809
aV19074529
p810
aV16442130
p811
aa(lp812
V28725042
p813
aV14596440
p814
aa(lp815
V27694061
p816
aV24755061
p817
aV23578345
p818
aV21575551
p819
aV20429334
p820
aV19177736
p821
aV11482149
p822
aa(lp823
V17496208
p824
aV1352220
p825
aa(lp826
V26288861
p827
aV17190098
p828
aV14703338
p829
aV11673753
p830
aV3131969
p831
aa(lp832
V16792090
p833
aV1344831
p834
aV3109487
p835
aV6416116
p836
aV6304144
p837
aV6808875
p838
aV6808874
p839
aV6808873
p840
aa(lp841
V19074529
p842
aa(lp843
V17126351
p844
aa(lp845
V22434333
p846
aa(lp847
V28604139
p848
aV15555467
p849
aV12090882
p850
aa(lp851
V27470545
p852
aa(lp853
V28575123
p854
aa(lp855
V9594936
p856
aV2040125
p857
aV2260347
p858
aa(lp859
V26657732
p860
aV24291722
p861
aV21830136
p862
aV20846657
p863
aV20806236
p864
aV16894782
p865
aV16412450
p866
aV3981543
p867
aV6147027
p868
aV420913
p869
aa(lp870
V24566276
p871
aV20106404
p872
aV15530127
p873
aV5047291
p874
aa(lp875
V23094794
p876
aV18640471
p877
aa(lp878
V26223945
p879
aV26041408
p880
aV21453274
p881
aV20479100
p882
aV19788348
p883
aV18503403
p884
aV15585441
p885
aV12793839
p886
aa.