(lp0
(lp1
V25488418
p2
aV15699225
p3
aa(lp4
V26350090
p5
aV25520222
p6
aV24601696
p7
aV20017462
p8
aV19205554
p9
aV18225475
p10
aV11968219
p11
aV9471924
p12
aV8925307
p13
aV7882060
p14
aa(lp15
V23353843
p16
aV22360448
p17
aV20402316
p18
aV15899115
p19
aV14515795
p20
aV8318553
p21
aa(lp22
V27468140
p23
aV26285662
p24
aV25516195
p25
aV24873015
p26
aV23489530
p27
aV22789885
p28
aV12401768
p29
aa(lp30
V25261034
p31
aa(lp32
V23572664
p33
aa(lp34
V26384042
p35
aV25887500
p36
aV23298376
p37
aV21851890
p38
aV20412449
p39
aa(lp40
V27189968
p41
aa(lp42
V21908473
p43
aV17153847
p44
aV3175875
p45
aa(lp46
V28129483
p47
aV25474533
p48
aV23436914
p49
aV22031171
p50
aa(lp51
V19382594
p52
aa(lp53
V22555812
p54
aV20600806
p55
aV18280795
p56
aa(lp57
V21111420
p58
aV20699674
p59
aV19450295
p60
aV12944100
p61
aa(lp62
V18156218
p63
aa(lp64
V24671671
p65
aV17900498
p66
aa(lp67
V25670361
p68
aV23588308
p69
aV21663949
p70
aV21125037
p71
aV16573367
p72
aa(lp73
V25388083
p74
aV20730603
p75
aV20576411
p76
aV11148203
p77
aa(lp78
V10739911
p79
aV9245257
p80
aa(lp81
V25690031
p82
aa(lp83
V26726312
p84
aV19919177
p85
aa(lp86
V22077166
p87
aV15676159
p88
aa(lp89
V24245566
p90
aa(lp91
V27737722
p92
aV20691321
p93
aV20402316
p94
aV15905263
p95
aa(lp96
V26742201
p97
aV23214272
p98
aV21820833
p99
aV22679237
p100
aV10819755
p101
aV9920183
p102
aV8067753
p103
aV8312435
p104
aV8243264
p105
aa(lp106
V21679231
p107
aa(lp108
V24894549
p109
aV12738086
p110
aa(lp111
V19429512
p112
aV17655704
p113
aV16737980
p114
aV16543339
p115
aV15824409
p116
aV12399758
p117
aV11978140
p118
aV8889434
p119
aa(lp120
V25275561
p121
aa(lp122
V24467544
p123
aV18004805
p124
aa(lp125
V20691321
p126
aa(lp127
V27189968
p128
aV27027406
p129
aV26204671
p130
aV20187243
p131
aV1377861
p132
aV2005418
p133
aa(lp134
V28304224
p135
aa(lp136
V28296588
p137
aV27109319
p138
aV26320126
p139
aV26181260
p140
aV25908114
p141
aV23436914
p142
aV23246023
p143
aV22939094
p144
aV19889221
p145
aV17605638
p146
aa(lp147
V25774635
p148
aV21821946
p149
aV15676159
p150
aa(lp151
V28449839
p152
aa(lp153
V20587587
p154
aa(lp155
V27994459
p156
aV23250670
p157
aV22788770
p158
aV18094941
p159
aV16257870
p160
aV6610562
p161
aa(lp162
V25591028
p163
aa(lp164
V22348456
p165
aa(lp166
V25218922
p167
aV23960024
p168
aV23273532
p169
aV14506545
p170
aV12469999
p171
aV12029990
p172
aV11770708
p173
aV11347113
p174
aa(lp175
V23674260
p176
aa(lp177
V20691321
p178
aa(lp179
V28251728
p180
aa(lp181
V28363723
p182
aV26603760
p183
aV16306923
p184
aV8570427
p185
aa(lp186
V22355964
p187
aV22204172
p188
aV12639741
p189
aa(lp190
V25272016
p191
aV22606520
p192
aV17974097
p193
aV16379420
p194
aV16308507
p195
aV6158036
p196
aa(lp197
V26779019
p198
aa(lp199
V25879228
p200
aa(lp201
V25272016
p202
aa(lp203
V23539170
p204
aV22570368
p205
aV19262209
p206
aV15676159
p207
aa(lp208
V21540247
p209
aa(lp210
V22039482
p211
aV18637891
p212
aV15676159
p213
aa(lp214
V23517916
p215
aa(lp216
V25676000
p217
aV23303659
p218
aV17011901
p219
aa(lp220
V23819585
p221
aa(lp222
V16729486
p223
aa(lp224
V19371472
p225
aa(lp226
V23214272
p227
aa(lp228
V18214920
p229
aV7595594
p230
aa(lp231
V25923145
p232
aV24012665
p233
aV22186322
p234
aV18159133
p235
aV14585184
p236
aa(lp237
V15699225
p238
aV15073652
p239
aa(lp240
V21067805
p241
aV19325138
p242
aV18650507
p243
aV16310551
p244
aV16219312
p245
aV15632890
p246
aV8379960
p247
aa(lp248
V23250670
p249
aV6553442
p250
aV6917646
p251
aa(lp252
V26167000
p253
aa(lp254
V26799539
p255
aV19939218
p256
aa(lp257
V27707817
p258
aa(lp259
V26877235
p260
aa(lp261
V20449528
p262
aV20433126
p263
aV10874995
p264
aa(lp265
V19371472
p266
aa(lp267
V28654972
p268
aa(lp269
V28347564
p270
aV28317482
p271
aV26478732
p272
aV25837204
p273
aV25720525
p274
aV25680504
p275
aV24401239
p276
aV24364088
p277
aV23141585
p278
aV16923466
p279
aV16862703
p280
aa(lp281
V26686966
p282
aV17206841
p283
aa(lp284
V26189285
p285
aV25874302
p286
aV15485608
p287
aa(lp288
V19885950
p289
aa(lp290
V9245257
p291
aa(lp292
V15231000
p293
aa(lp294
V22531006
p295
aa(lp296
V28296588
p297
aV26320126
p298
aa(lp299
V24831577
p300
aV16082328
p301
aa(lp302
V28470563
p303
aV25263371
p304
aa(lp305
V21963059
p306
aa(lp307
V26562446
p308
aa(lp309
V27131642
p310
aV25929253
p311
aa(lp312
V20449528
p313
aV20402316
p314
aV19721907
p315
aV16295046
p316
aV2740767
p317
aa(lp318
V27328902
p319
aa(lp320
V27109319
p321
aa(lp322
V24777691
p323
aa(lp324
V28064048
p325
aV26686133
p326
aV20449528
p327
aV19735187
p328
aa(lp329
V16941598
p330
aa(lp331
V25172712
p332
aa(lp333
V26562446
p334
aV26212988
p335
aV16222778
p336
aV15231000
p337
aV3733719
p338
aa(lp339
V25843920
p340
aV24879949
p341
aV23889670
p342
aV21339392
p343
aV17475196
p344
aV16788130
p345
aV12912693
p346
aV10150840
p347
aa(lp348
V19782050
p349
aV17213467
p350
aV17204833
p351
aV15339975
p352
aV15339974
p353
aV15292678
p354
aa(lp355
V23288209
p356
aa(lp357
V16499938
p358
aa(lp359
V27027406
p360
aV26039521
p361
aV22186322
p362
aV21613455
p363
aV20402316
p364
aa(lp365
V23123463
p366
aa(lp367
V8318553
p368
aa(lp369
V25283036
p370
aV10874995
p371
aV1762049
p372
aa(lp373
V25149829
p374
aV15676159
p375
aa(lp376
V26686966
p377
aa(lp378
V9162756
p379
aV96290
p380
aa(lp381
V28002550
p382
aa(lp383
V28637586
p384
aV27549016
p385
aV23754710
p386
aV15655272
p387
aV24944371
p388
aV11718706
p389
aa(lp390
V26204671
p391
aV23968910
p392
aa(lp393
V27141033
p394
aV20717674
p395
aV23572664
p396
aV20450382
p397
aa(lp398
V24859779
p399
aa(lp400
V23118499
p401
aa(lp402
V23816039
p403
aV21061097
p404
aV20975018
p405
aV19528562
p406
aV19185075
p407
aV18613992
p408
aV15539964
p409
aa(lp410
V24970377
p411
aV23553151
p412
aV22250063
p413
aV17846968
p414
aa(lp415
V20524718
p416
aV18804815
p417
aa(lp418
V16568313
p419
aV10972877
p420
aa(lp421
V28410522
p422
aV25746617
p423
aV24266373
p424
aV21831304
p425
aV7607302
p426
aV7614366
p427
aa(lp428
V21963059
p429
aa(lp430
V24502771
p431
aV22397963
p432
aV20592321
p433
aV19403719
p434
aV19063635
p435
aV18193377
p436
aV17711090
p437
aa(lp438
V16568313
p439
aa(lp440
V26686966
p441
aa(lp442
V19063635
p443
aa(lp444
V22939094
p445
aV20532825
p446
aV19177531
p447
aV16601870
p448
aV15164951
p449
aV12746442
p450
aV10849014
p451
aV9784232
p452
aV9439591
p453
aV9392428
p454
aa(lp455
V21485304
p456
aa(lp457
V24229342
p458
aV22050652
p459
aV20074848
p460
aV19627212
p461
aV17273546
p462
aa(lp463
V24677768
p464
aV22850448
p465
aV11427208
p466
aV7840808
p467
aV1824771
p468
aV6579963
p469
aa(lp470
V19382594
p471
aa(lp472
V27188186
p473
aV20403998
p474
aa(lp475
V23438960
p476
aa(lp477
V27143594
p478
aV24859779
p479
aV22648627
p480
aa(lp481
V18838736
p482
aa(lp483
V27328902
p484
aV25837204
p485
aV25618184
p486
aV17887933
p487
aV15699225
p488
aV3733719
p489
aa(lp490
V25991597
p491
aV25268516
p492
aV21914547
p493
aV20031817
p494
aV15031243
p495
aV1976174
p496
aa(lp497
V27040132
p498
aV27039945
p499
aa(lp500
V27328902
p501
aV27089602
p502
aV25340768
p503
aa(lp504
V23250670
p505
aV21998019
p506
aV19782210
p507
aV19635387
p508
aV17170046
p509
aV16332513
p510
aV15137687
p511
aV8926304
p512
aV3414776
p513
aa(lp514
V25692332
p515
aV25608422
p516
aV24148373
p517
aV23860021
p518
aV23265521
p519
aV21798395
p520
aV20597312
p521
aV16686894
p522
aV14696880
p523
aV12793012
p524
aa(lp525
V27338339
p526
aa(lp527
V25765827
p528
aV25577665
p529
aa(lp530
V26572385
p531
aV15676159
p532
aa(lp533
V26505148
p534
aV25587692
p535
aV25408147
p536
aV25012240
p537
aV23017356
p538
aV21132308
p539
aV20402316
p540
aV19374035
p541
aV19060628
p542
aa(lp543
V19175365
p544
aa(lp545
V27417759
p546
aV12269393
p547
aa(lp548
V21111420
p549
aa(lp550
V28531469
p551
aV24941469
p552
aV23285256
p553
aV16915858
p554
aV16607740
p555
aV15231000
p556
aV11576603
p557
aa(lp558
V18191910
p559
aa(lp560
V25870124
p561
aV25837204
p562
aa(lp563
V26697097
p564
aV25609924
p565
aa(lp566
V24851484
p567
aV22684634
p568
aa(lp569
V16110091
p570
aV7896878
p571
aa(lp572
V23123463
p573
aa(lp574
V24851484
p575
aa(lp576
V27882320
p577
aV27071286
p578
aV23815518
p579
aV23266743
p580
aV22527287
p581
aV9732368
p582
aa(lp583
V17380035
p584
aa(lp585
V21660137
p586
aV16412477
p587
aV15073652
p588
aa(lp589
V16568313
p590
aa(lp591
V8318553
p592
aa(lp593
V26280341
p594
aV25837204
p595
aV23848231
p596
aV19523964
p597
aV19371472
p598
aa(lp599
V23844078
p600
aa(lp601
V19397976
p602
aa(lp603
V8010162
p604
aa(lp605
V22077166
p606
aa(lp607
V19149415
p608
aa(lp609
V10739911
p610
aV9245257
p611
aa(lp612
V22648627
p613
aV18191910
p614
aa(lp615
V16568313
p616
aa(lp617
V3733719
p618
aa(lp619
V26280341
p620
aV25837204
p621
aV23848231
p622
aV19523964
p623
aa(lp624
V24467544
p625
aa(lp626
V22555812
p627
aV20600806
p628
aV18280795
p629
aa(lp630
V25618184
p631
aV21710210
p632
aa(lp633
V15640893
p634
aV15073652
p635
aa(lp636
V14738672
p637
aV12395892
p638
aV8417484
p639
aV1521718
p640
aV1942621
p641
aV1867522
p642
aa(lp643
V27608856
p644
aV25923145
p645
aV22186322
p646
aa(lp647
V25948514
p648
aV25746616
p649
aV23408460
p650
aa(lp651
V25880551
p652
aa(lp653
V26310992
p654
aV22243700
p655
aa(lp656
V27942500
p657
aa(lp658
V16729486
p659
aa(lp660
V27897416
p661
aV25786031
p662
aa(lp663
V16568313
p664
aV10972877
p665
aa(lp666
V22555812
p667
aV20600806
p668
aV18280795
p669
aa(lp670
V24607418
p671
aa(lp672
V12355149
p673
aa(lp674
V18249514
p675
aV12738086
p676
aa(lp677
V16413806
p678
aa(lp679
V25690031
p680
aa(lp681
V16379420
p682
aV16265914
p683
aa(lp684
V20809476
p685
aV6562889
p686
aa(lp687
V16915858
p688
aa(lp689
V27324061
p690
aV22185846
p691
aa(lp692
V18589766
p693
aa(lp694
V27608856
p695
aa(lp696
V25746617
p697
aV24894549
p698
aV24607418
p699
aV24266373
p700
aV22506575
p701
aV21831304
p702
aV16610224
p703
aV12622228
p704
aV7607302
p705
aV7614366
p706
aa(lp707
V28296588
p708
aV26320126
p709
aa(lp710
V25934516
p711
aa(lp712
V24267247
p713
aV20730603
p714
aV20576411
p715
aV17076241
p716
aa(lp717
V27608856
p718
aV25670361
p719
aV22703874
p720
aV16522904
p721
aV14624410
p722
aa(lp723
V21472649
p724
aa(lp725
V25774635
p726
aV21821946
p727
aV20499414
p728
aV19748258
p729
aV15706857
p730
aV12601683
p731
aV1879038
p732
aa(lp733
V27417759
p734
aV12269393
p735
aa(lp736
V23220613
p737
aa(lp738
V25304981
p739
aa(lp740
V26650838
p741
aV21485304
p742
aV12525094
p743
aV6921995
p744
aa(lp745
V23711681
p746
aV23152990
p747
aV22911825
p748
aV21617139
p749
aV20203299
p750
aV19343539
p751
aV19149415
p752
aV18622245
p753
aV17275828
p754
aV16159822
p755
aa(lp756
V21908473
p757
aV11606315
p758
aa(lp759
V26018873
p760
aV23698259
p761
aa(lp762
V23107730
p763
aV22100563
p764
aV21800902
p765
aV17655247
p766
aV17636932
p767
aV16568313
p768
aa(lp769
V22355964
p770
aV22204172
p771
aV12639741
p772
aa(lp773
V24851484
p774
aa(lp775
V21384377
p776
aa(lp777
V25488418
p778
aa(lp779
V21485304
p780
aa(lp781
V25870124
p782
aV25837204
p783
aa(lp784
V26697097
p785
aV25609924
p786
aa(lp787
V16110091
p788
aV7896878
p789
aa(lp790
V23123463
p791
aa(lp792
V22355964
p793
aV22204172
p794
aV12639741
p795
aa(lp796
V25746617
p797
aV24266373
p798
aV21831304
p799
aV8270199
p800
aa(lp801
V8318553
p802
aa(lp803
V26280341
p804
aV25837204
p805
aV23848231
p806
aV19523964
p807
aV19371472
p808
aa(lp809
V26882658
p810
aV22394605
p811
aV20015810
p812
aa(lp813
V28296588
p814
aV26320126
p815
aa(lp816
V23844078
p817
aa(lp818
V8010162
p819
aa(lp820
V22077166
p821
aa(lp822
V22648627
p823
aV18191910
p824
aa(lp825
V22185846
p826
aa(lp827
V24963809
p828
aa(lp829
V14738672
p830
aV12395892
p831
aV8417484
p832
aV1521718
p833
aV1942621
p834
aV1867522
p835
aa(lp836
V27608856
p837
aV25923145
p838
aV22186322
p839
aa(lp840
V24851484
p841
aa(lp842
V25948514
p843
aV25746616
p844
aV23408460
p845
aa(lp846
V22555812
p847
aV20600806
p848
aV18280795
p849
aa(lp850
V24607418
p851
aa(lp852
V12355149
p853
aa(lp854
V12738086
p855
aa(lp856
V25690031
p857
aa(lp858
V16379420
p859
aV16265914
p860
aa(lp861
V20809476
p862
aV6562889
p863
aa(lp864
V16633091
p865
aa(lp866
V18589766
p867
aa(lp868
V26642651
p869
aV15337704
p870
aa(lp871
V25889756
p872
aV25739534
p873
aV24211780
p874
aV23337345
p875
aa(lp876
V27608856
p877
aV25670361
p878
aV22703874
p879
aV16522904
p880
aV14624410
p881
aa(lp882
V21069435
p883
aa(lp884
V21472649
p885
aa(lp886
V25774635
p887
aV21821946
p888
aV20499414
p889
aV19748258
p890
aV15706857
p891
aV12601683
p892
aV1879038
p893
aa(lp894
V23220613
p895
aa(lp896
V26650838
p897
aV21485304
p898
aV12525094
p899
aV6921995
p900
aa(lp901
V26642651
p902
aV15337704
p903
aa(lp904
V23517916
p905
aV17320090
p906
aa(lp907
V23107730
p908
aV22100563
p909
aV21800902
p910
aV17655247
p911
aV17636932
p912
aV16568313
p913
aa(lp914
V27417759
p915
aV12269393
p916
aa(lp917
V11254905
p918
aa(lp919
V3566778
p920
aa(lp921
V28347564
p922
aV26674354
p923
aa(lp924
V15508788
p925
aa(lp926
V24728182
p927
aV24346850
p928
aV22120734
p929
aV16388406
p930
aV10215754
p931
aa(lp932
V20543520
p933
aV18846701
p934
aV9412774
p935
aV8864962
p936
aV7566029
p937
aV7859805
p938
aa(lp939
V25282172
p940
aV9598972
p941
aa(lp942
V16226916
p943
aV6567470
p944
aa(lp945
V26357462
p946
aV22721781
p947
aV22394605
p948
aV17452418
p949
aa(lp950
V28403188
p951
aV27447836
p952
aa(lp953
V23285256
p954
aV17005918
p955
aV9132162
p956
aV7923480
p957
aV8446010
p958
aa(lp959
V23442722
p960
aa(lp961
V9179993
p962
aV8198571
p963
aV8245728
p964
aV2060067
p965
aa(lp966
V24947972
p967
aV22587610
p968
aV18685836
p969
aV2748598
p970
aa(lp971
V23908348
p972
aa(lp973
V15666212
p974
aa(lp975
V6630519
p976
aa(lp977
V27497529
p978
aV16915858
p979
aV15231000
p980
aa(lp981
V23553151
p982
aV22250063
p983
aV11359999
p984
aa(lp985
V26957227
p986
aV22703874
p987
aV22684634
p988
aV16857844
p989
aa(lp990
V24195348
p991
aa(lp992
V26773838
p993
aV26039521
p994
aV23614844
p995
aV22652724
p996
aV22122302
p997
aV20429691
p998
aV20008210
p999
aa(lp1000
V28534346
p1001
aV27052517
p1002
aV26460146
p1003
aV26357462
p1004
aV25362614
p1005
aV22716294
p1006
aV22253518
p1007
aV21357570
p1008
aa(lp1009
V20560881
p1010
aa(lp1011
V27775703
p1012
aV1922006
p1013
aV2154659
p1014
aa(lp1015
V26957227
p1016
aV22703874
p1017
aV22684634
p1018
aV16857844
p1019
aa(lp1020
V16857844
p1021
aa(lp1022
V16857844
p1023
aa(lp1024
V16857844
p1025
aa(lp1026
V27801816
p1027
aV1875344
p1028
aa(lp1029
V26467069
p1030
aV23580084
p1031
aV18752389
p1032
aV17470524
p1033
aV15895716
p1034
aV12893526
p1035
aV11950779
p1036
aa(lp1037
V23845549
p1038
aV23185246
p1039
aV15840939
p1040
aV12568744
p1041
aa(lp1042
V23070903
p1043
aV21069965
p1044
aV10334994
p1045
aV3423140
p1046
aa(lp1047
V25422158
p1048
aV6863299
p1049
aa(lp1050
V11592822
p1051
aa(lp1052
V22278741
p1053
aV11166775
p1054
aa(lp1055
V28424622
p1056
aV17293561
p1057
aV3934181
p1058
aa(lp1059
V23305447
p1060
aV15229351
p1061
aV12671036
p1062
aV8149498
p1063
aV7061423
p1064
aa(lp1065
V15549704
p1066
aV11209069
p1067
aV10518656
p1068
aV7341749
p1069
aa(lp1070
V25282172
p1071
aV18509236
p1072
aV15129726
p1073
aa(lp1074
V18260836
p1075
aa(lp1076
V26254184
p1077
aV24613879
p1078
aa(lp1079
V25919278
p1080
aV24045228
p1081
aV6462147
p1082
aa(lp1083
V25386880
p1084
aa(lp1085
V18504415
p1086
aa(lp1087
V10374838
p1088
aa(lp1089
V26357462
p1090
aV22721781
p1091
aV22394605
p1092
aV17452418
p1093
aa(lp1094
V28251728
p1095
aV26525112
p1096
aa(lp1097
V9514003
p1098
aa(lp1099
V18398496
p1100
aV17914161
p1101
aV15942122
p1102
aV11829698
p1103
aa(lp1104
V26957227
p1105
aV22703874
p1106
aV22684634
p1107
aV16857844
p1108
aa(lp1109
V28353656
p1110
aa(lp1111
V27613388
p1112
aV11359999
p1113
aa(lp1114
V15549704
p1115
aV11209069
p1116
aV10518656
p1117
aV7341749
p1118
aa(lp1119
V20678906
p1120
aV12911045
p1121
aa(lp1122
V17064686
p1123
aV12499643
p1124
aV11716837
p1125
aa(lp1126
V26212988
p1127
aa(lp1128
V12226513
p1129
aa(lp1130
V26957227
p1131
aV22703874
p1132
aV22684634
p1133
aV16857844
p1134
aa(lp1135
V20492822
p1136
aa(lp1137
V25509561
p1138
aV23287371
p1139
aV2100180
p1140
aa(lp1141
V10896289
p1142
aV7691603
p1143
aV2480857
p1144
aV2580710
p1145
aa(lp1146
V16857844
p1147
aa(lp1148
V23250670
p1149
aV11335104
p1150
aV10813553
p1151
aa(lp1152
V28242356
p1153
aa(lp1154
V16398595
p1155
aV11359999
p1156
aa(lp1157
V26357462
p1158
aV22721781
p1159
aa(lp1160
V21123766
p1161
aV20587623
p1162
aV19125197
p1163
aV10086991
p1164
aa(lp1165
V28318833
p1166
aV26829615
p1167
aV25846503
p1168
aV22562782
p1169
aV16515553
p1170
aV15131777
p1171
aV3666299
p1172
aa(lp1173
V28434257
p1174
aV28285599
p1175
aV27189968
p1176
aV24223845
p1177
aV21422137
p1178
aa(lp1179
V21163644
p1180
aV17990330
p1181
aa(lp1182
V25712521
p1183
aV21289285
p1184
aV21206971
p1185
aV18412317
p1186
aV18368405
p1187
aV18084615
p1188
aV17005918
p1189
aV12355149
p1190
aV6933445
p1191
aa(lp1192
V18004805
p1193
aV17455469
p1194
aV7595594
p1195
aV2049809
p1196
aV1971574
p1197
aa(lp1198
V28534346
p1199
aV27806972
p1200
aV27052517
p1201
aV26460146
p1202
aV26357462
p1203
aV25362614
p1204
aV23609161
p1205
aV22716294
p1206
aV22253518
p1207
aV21357570
p1208
aV20833993
p1209
aa(lp1210
V26497173
p1211
aV25432084
p1212
aV22012179
p1213
aV18260005
p1214
aV17086094
p1215
aV16884693
p1216
aV16185767
p1217
aV15821443
p1218
aa(lp1219
V17175307
p1220
aa(lp1221
V2480857
p1222
aa.