(lp0
(lp1
V11536853
p2
aV4557975
p3
aa(lp4
V28069089
p5
aa(lp6
V27907043
p7
aV24015970
p8
aV16474881
p9
aV15963369
p10
aV12878126
p11
aV11871566
p12
aV11539784
p13
aV9995
p14
aa(lp15
V20648359
p16
aa(lp17
V8472979
p18
aV1641505
p19
aV1541409
p20
aV2595273
p21
aa(lp22
V28295108
p23
aV26143232
p24
aV21649454
p25
aa(lp26
V10422349
p27
aV9533062
p28
aV6174725
p29
aa(lp30
V21609013
p31
aV14717192
p32
aV11506019
p33
aa(lp34
V22840873
p35
aa(lp36
V23684782
p37
aV23623858
p38
aV21092814
p39
aV17332322
p40
aV16288302
p41
aV11695615
p42
aV10440429
p43
aV8206486
p44
aV2139454
p45
aV6768658
p46
aa(lp47
V16909941
p48
aa(lp49
V24933798
p50
aV6391667
p51
aa(lp52
V23311987
p53
aV22926146
p54
aa(lp55
V17434301
p56
aa(lp57
V26527264
p58
aV4369123
p59
aa(lp60
V26910018
p61
aV26453784
p62
aV26453245
p63
aV16317555
p64
aa(lp65
V22705175
p66
aa(lp67
V27684576
p68
aV6686236
p69
aa(lp70
V23907218
p71
aV22421918
p72
aV4137245
p73
aa(lp74
V23311987
p75
aV22926146
p76
aa(lp77
V16619191
p78
aV8909827
p79
aa(lp80
V25689541
p81
aV25224757
p82
aV10632657
p83
aV8739211
p84
aa(lp85
V22054420
p86
aV16428824
p87
aV11198264
p88
aV6265650
p89
aV5491908
p90
aa(lp91
V17963960
p92
aa(lp93
V27471154
p94
aV22608436
p95
aa(lp96
V25903174
p97
aV23673486
p98
aV17951052
p99
aV14605278
p100
aV11393764
p101
aV10857004
p102
aV9377102
p103
aV6972566
p104
aa(lp105
V18383826
p106
aa(lp107
V23523543
p108
aV20851471
p109
aV15829414
p110
aV12421549
p111
aV28593572
p112
aV7955122
p113
aV2788112
p114
aV6155808
p115
aV1096900
p116
aa(lp117
V24783978
p118
aV7752807
p119
aa(lp120
V22381074
p121
aV16509350
p122
aV8781742
p123
aV7752807
p124
aV2914978
p125
aV3609644
p126
aa(lp127
V18161631
p128
aa(lp129
V8415858
p130
aV981301
p131
aV5881027
p132
aa(lp133
V3319347
p134
aa(lp135
V22054420
p136
aV11286326
p137
aa(lp138
V18007458
p139
aV16761567
p140
aV11321542
p141
aV2510252
p142
aV6423238
p143
aa(lp144
V25063580
p145
aV21860666
p146
aV21550319
p147
aV19616099
p148
aV19478855
p149
aV18501616
p150
aV17498963
p151
aV16682231
p152
aV12486808
p153
aV13549499
p154
aa(lp155
V23311987
p156
aV22926146
p157
aa(lp158
V25260740
p159
aa(lp160
V11522584
p161
aV11512981
p162
aV1602906
p163
aV2909235
p164
aV7164833
p165
aV1080159
p166
aV239026
p167
aV126430
p168
aV5049612
p169
aV4670119
p170
aa(lp171
V6828417
p172
aa(lp173
V23108710
p174
aa(lp175
V2788112
p176
aa(lp177
V19104870
p178
aa(lp179
V25511229
p180
aV24477337
p181
aV23260248
p182
aV19438585
p183
aV17258843
p184
aV15708806
p185
aa(lp186
V4323967
p187
aa(lp188
V19476372
p189
aa(lp190
V27349787
p191
aV21630642
p192
aV16939237
p193
aV16474881
p194
aV16215756
p195
aV14982178
p196
aV12868533
p197
aV10641277
p198
aV10469190
p199
aa(lp200
V23246939
p201
aV23033909
p202
aV17935711
p203
aV12070029
p204
aV9468021
p205
aV8868281
p206
aV8044783
p207
aV8206486
p208
aa(lp209
V8679452
p210
aV5933916
p211
aV13345193
p212
aa(lp213
V17488068
p214
aV16296840
p215
aa(lp216
V24871399
p217
aV24455963
p218
aV16111695
p219
aa(lp220
V2788112
p221
aa(lp222
V5512052
p223
aa(lp224
V22614027
p225
aV19263103
p226
aa(lp227
V26742539
p228
aV24475175
p229
aV12927694
p230
aa(lp231
V28039819
p232
aV26894236
p233
aV26838919
p234
aV26353484
p235
aV25491852
p236
aV24643454
p237
aV20880701
p238
aV19727489
p239
aV18657478
p240
aV18545942
p241
aV16142962
p242
aa(lp243
V27604
p244
aa(lp245
V12495426
p246
aa(lp247
V5066384
p248
aV20343693
p249
aV20998460
p250
aa(lp251
V23108710
p252
aa(lp253
V25793599
p254
aa(lp255
V6547574
p256
aV6694070
p257
aV900479
p258
aa(lp259
V25903174
p260
aV23673486
p261
aV17951052
p262
aV14605278
p263
aV11393764
p264
aV10857004
p265
aV9377102
p266
aV6972566
p267
aa(lp268
V26974542
p269
aa(lp270
V10580370
p271
aV2598753
p272
aV3903785
p273
aa(lp274
V20408585
p275
aa(lp276
V3629603
p277
aa(lp278
V10415
p279
aV14056680
p280
aa(lp281
V12495426
p282
aa(lp283
V28068585
p284
aV11601298
p285
aV3946112
p286
aa(lp287
V23831490
p288
aa(lp289
V28231537
p290
aV24577928
p291
aV23627100
p292
aV16397741
p293
aV15847990
p294
aa(lp295
V7202068
p296
aa(lp297
V23311987
p298
aV22926146
p299
aa(lp300
V25915150
p301
aV21190796
p302
aV20166656
p303
aV19286318
p304
aV16920348
p305
aV16442718
p306
aV12868521
p307
aV11349046
p308
aa(lp309
V10415
p310
aV14056680
p311
aa(lp312
V25248645
p313
aV20652403
p314
aV15757454
p315
aa(lp316
V7595153
p317
aV7854145
p318
aV2209573
p319
aa(lp320
V25597451
p321
aV25076538
p322
aV24038987
p323
aV21308600
p324
aV18681476
p325
aV9743672
p326
aa(lp327
V3319347
p328
aa(lp329
V27040233
p330
aa(lp331
V26899395
p332
aa(lp333
V9435101
p334
aV1940193
p335
aV3537988
p336
aV6329384
p337
aV6108279
p338
aa(lp339
V10415
p340
aV14056680
p341
aa(lp342
V9083619
p343
aa(lp344
V26824243
p345
aV24967541
p346
aV23097070
p347
aV21608493
p348
aV17137677
p349
aV1757000
p350
aV5170693
p351
aV5418361
p352
aV5782282
p353
aa(lp354
V25093983
p355
aa(lp356
V10415
p357
aV14056680
p358
aa(lp359
V28068585
p360
aV11601298
p361
aV3946112
p362
aa(lp363
V22192597
p364
aV20552100
p365
aV16797949
p366
aV11695131
p367
aV8207545
p368
aV8171047
p369
aV8402322
p370
aV8377724
p371
aV6423238
p372
aa(lp373
V17372704
p374
aV11757600
p375
aV4963785
p376
aa(lp377
V25768934
p378
aV23632755
p379
aV17845813
p380
aV11036093
p381
aV13066901
p382
aa(lp383
V2801678
p384
aa(lp385
V17822437
p386
aa(lp387
V26656911
p388
aV26561037
p389
aV26090385
p390
aV23728384
p391
aV23724085
p392
aV20210370
p393
aV19824919
p394
aV18390722
p395
aV12603616
p396
aV9684690
p397
aV606410
p398
aa(lp399
V12495426
p400
aa(lp401
V27770929
p402
aV24351149
p403
aV21496936
p404
aV19352070
p405
aV17313042
p406
aV15288145
p407
aV15140513
p408
aV14529892
p409
aV14522457
p410
aa(lp411
V27053227
p412
aV20722412
p413
aa(lp414
V20817258
p415
aa(lp416
V25299958
p417
aV19075821
p418
aV11917287
p419
aV10796613
p420
aV8835608
p421
aV1621808
p422
aV1790087
p423
aV6151657
p424
aV7231338
p425
aV6106882
p426
aV352140
p427
aV5302464
p428
aa(lp429
V12421549
p430
aV2788112
p431
aa(lp432
V23147741
p433
aa(lp434
V20583811
p435
aa(lp436
V26721383
p437
aV22955679
p438
aa(lp439
V23147741
p440
aa(lp441
V18674856
p442
aa(lp443
V15380433
p444
aa(lp445
V24508091
p446
aa(lp447
V19603767
p448
aV18078070
p449
aV16969824
p450
aV16537174
p451
aV15278161
p452
aV12678122
p453
aa(lp454
V27471154
p455
aV22608436
p456
aa(lp457
V24548067
p458
aV20403418
p459
aV15829414
p460
aV12720429
p461
aV28593572
p462
aV2349762
p463
aV6278977
p464
aV1257596
p465
aV5602025
p466
aV14249254
p467
aa(lp468
V19048190
p469
aV9512367
p470
aa(lp471
V27539190
p472
aa(lp473
V26297235
p474
aV18329036
p475
aV17462813
p476
aV10462232
p477
aV710815
p478
aa(lp479
V25754394
p480
aV20868357
p481
aV14571950
p482
aV7475935
p483
aV3250937
p484
aV3600963
p485
aV3018055
p486
aa.