(lp0
(lp1
V21977987
p2
aV18946231
p3
aV10858488
p4
aV1992138
p5
aa(lp6
V7595594
p7
aa(lp8
V23575939
p9
aV18070667
p10
aV17973930
p11
aa(lp12
V17625941
p13
aV17277201
p14
aa(lp15
V26357462
p16
aV22721781
p17
aV22394605
p18
aV17452418
p19
aa(lp20
V26357462
p21
aV22721781
p22
aV22394605
p23
aV17452418
p24
aa(lp25
V14871314
p26
aV14655015
p27
aa(lp28
V18786751
p29
aV17592099
p30
aV16887228
p31
aV16155443
p32
aV10682190
p33
aV10522293
p34
aV1910254
p35
aV7411248
p36
aa(lp37
V18037572
p38
aV15942122
p39
aV15531275
p40
aV8386351
p41
aV7254297
p42
aa(lp43
V7688189
p44
aa(lp45
V19763655
p46
aV16338198
p47
aa(lp48
V26525112
p49
aV21800902
p50
aV17555873
p51
aV12763362
p52
aV10464145
p53
aV7903346
p54
aV2715729
p55
aV6886611
p56
aa(lp57
V26167086
p58
aV23290865
p59
aV21212096
p60
aV21162750
p61
aV21047146
p62
aV20440076
p63
aV17410287
p64
aV16467371
p65
aV12848617
p66
aV11914511
p67
aa(lp68
V1781801
p69
aa(lp70
V24024900
p71
aV23897788
p72
aa(lp73
V25218292
p74
aV25058445
p75
aV20946910
p76
aV19107477
p77
aV16278312
p78
aV15855892
p79
aV12515903
p80
aV12152989
p81
aa(lp82
V25919278
p83
aa(lp84
V27454090
p85
aV27278758
p86
aV26043025
p87
aV25534866
p88
aV9865922
p89
aa(lp90
V18032389
p91
aa(lp92
V12617470
p93
aV718720
p94
aV925033
p95
aa(lp96
V1286134
p97
aV2909732
p98
aa(lp99
V27594770
p100
aV21076490
p101
aV19360315
p102
aV18441463
p103
aV17657162
p104
aV17064686
p105
aV15897778
p106
aV11223427
p107
aV10353467
p108
aa(lp109
V26957227
p110
aV22703874
p111
aV22684634
p112
aV16857844
p113
aa(lp114
V25492199
p115
aa(lp116
V21958521
p117
aV19881236
p118
aV19360315
p119
aV19023160
p120
aV18997459
p121
aV17132207
p122
aV15730048
p123
aV12384812
p124
aV11685655
p125
aV11549708
p126
aa(lp127
V23575939
p128
aV18070667
p129
aV17973930
p130
aa(lp131
V23461471
p132
aV23525426
p133
aV22461488
p134
aV22158245
p135
aV7614686
p136
aV6232113
p137
aa(lp138
V20113715
p139
aa(lp140
V19051066
p141
aV16226916
p142
aV7907161
p143
aV8434028
p144
aV6567470
p145
aV6579963
p146
aa(lp147
V9681444
p148
aV9387870
p149
aa(lp150
V2757608
p151
aa(lp152
V26957227
p153
aV22703874
p154
aV22684634
p155
aV16857844
p156
aa(lp157
V26439386
p158
aV22648087
p159
aV22278741
p160
aV10073977
p161
aV10037258
p162
aV8218098
p163
aV2278880
p164
aV2380183
p165
aV2622704
p166
aV6201428
p167
aa(lp168
V28506378
p169
aV21291831
p170
aV19033449
p171
aV16317111
p172
aV12489926
p173
aa(lp174
V6644746
p175
aa(lp176
V20578043
p177
aV14609738
p178
aV7752843
p179
aV8226825
p180
aa(lp181
V25724093
p182
aV23276663
p183
aV19318593
p184
aV19217901
p185
aV19076990
p186
aV17875376
p187
aV17583757
p188
aV16865092
p189
aV14709361
p190
aV12832849
p191
aV11888511
p192
aa(lp193
V27818195
p194
aV27166429
p195
aV26940997
p196
aV23631744
p197
aV20884875
p198
aV10751037
p199
aV9120761
p200
aV8690416
p201
aV8717165
p202
aV7677755
p203
aa(lp204
V27806972
p205
aV20492177
p206
aV2174335
p207
aa(lp208
V23819585
p209
aV22808006
p210
aV14624139
p211
aV7595594
p212
aV932941
p213
aV176160
p214
aa(lp215
V28207072
p216
aV22158245
p217
aV21549539
p218
aa(lp219
V22684634
p220
aa(lp221
V11359999
p222
aa(lp223
V11817313
p224
aa(lp225
V16857844
p226
aa(lp227
V24708217
p228
aV19672105
p229
aV19226281
p230
aV9221828
p231
aV1527481
p232
aa(lp233
V25193403
p234
aa(lp235
V26357462
p236
aV22721781
p237
aa(lp238
V26957227
p239
aV22703874
p240
aV22684634
p241
aV16857844
p242
aa(lp243
V25341428
p244
aV23160684
p245
aV7727042
p246
aa(lp247
V27109319
p248
aa(lp249
V23887896
p250
aa(lp251
V27497529
p252
aV16915858
p253
aV15231000
p254
aV11576603
p255
aa(lp256
V17259314
p257
aa(lp258
V27278758
p259
aV15475033
p260
aa(lp261
V26357462
p262
aV22721781
p263
aV22394605
p264
aV17452418
p265
aa.