(lp0
(lp1
V27404904
p2
aV26586633
p3
aV24835954
p4
aV24676400
p5
aV23093419
p6
aV23520850
p7
aa(lp8
V17688173
p9
aV487912
p10
aa(lp11
V20092872
p12
aa(lp13
V17435299
p14
aV15892758
p15
aV15109145
p16
aV4074951
p17
aa(lp18
V18202900
p19
aV16924962
p20
aV16515824
p21
aa(lp22
V25849392
p23
aa(lp24
V18202900
p25
aa(lp26
V15793823
p27
aa(lp28
V10427772
p29
aa(lp30
V27325291
p31
aV24909119
p32
aV22033427
p33
aV21795578
p34
aV18577468
p35
aV18410381
p36
aV16051380
p37
aV15228955
p38
aV12959545
p39
aV12819274
p40
aa(lp41
V21550319
p42
aV19478855
p43
aV13549499
p44
aa(lp45
V25065800
p46
aa(lp47
V21860666
p48
aV18501616
p49
aV17498963
p50
aV12486808
p51
aa(lp52
V22919834
p53
aa(lp54
V964883
p55
aa(lp56
V21855332
p57
aa(lp58
V25503327
p59
aa(lp60
V14927857
p61
aa(lp62
V16979272
p63
aa(lp64
V26589869
p65
aa(lp66
V814774
p67
aV4626827
p68
aa(lp69
V23633302
p70
aa(lp71
V28501770
p72
aV28213721
p73
aV26513318
p74
aV25826946
p75
aV18054161
p76
aV5818438
p77
aa(lp78
V12089990
p79
aV9134133
p80
aV3619090
p81
aV553488
p82
aa(lp83
V23022084
p84
aV21085788
p85
aV17684750
p86
aa(lp87
V15892758
p88
aV15109145
p89
aa(lp90
V16924962
p91
aV3946840
p92
aV5912899
p93
aa(lp94
V1019309
p95
aa(lp96
V14645389
p97
aa(lp98
V20139575
p99
aa(lp100
V486758
p101
aa(lp102
V25503327
p103
aV3946840
p104
aa(lp105
V7964234
p106
aa(lp107
V26452507
p108
aV2378105
p109
aV14887593
p110
aa(lp111
V27325291
p112
aV24909119
p113
aV22033427
p114
aV21795578
p115
aV18577468
p116
aV18410381
p117
aV16051380
p118
aV15228955
p119
aV12959545
p120
aV12819274
p121
aa(lp122
V27825549
p123
aV26870843
p124
aV25618702
p125
aV24631610
p126
aV17117649
p127
aV16308778
p128
aa(lp129
V24030453
p130
aV20092872
p131
aV16308778
p132
aV7749275
p133
aa(lp134
V23790828
p135
aa(lp136
V27988643
p137
aV27669216
p138
aV26868565
p139
aV20650336
p140
aV17435299
p141
aV12210124
p142
aV11290451
p143
aV8747426
p144
aV1497356
p145
aV202553
p146
aa(lp147
V27863882
p148
aV26186724
p149
aV23860577
p150
aV18400997
p151
aV18350880
p152
aV16428824
p153
aa(lp154
V15263013
p155
aV3764096
p156
aa(lp157
V11790001
p158
aa(lp159
V25503327
p160
aa(lp161
V26552530
p162
aV22900947
p163
aa(lp164
V21497441
p165
aV11790001
p166
aa(lp167
V16193171
p168
aV14653317
p169
aa(lp170
V21649454
p171
aa(lp172
V24018198
p173
aV10641277
p174
aa(lp175
V25144853
p176
aa(lp177
V23454466
p178
aa(lp179
V964883
p180
aV5235222
p181
aa(lp182
V24037763
p183
aa(lp184
V1873986
p185
aV3996704
p186
aV6141886
p187
aV42187
p188
aV486758
p189
aa(lp190
V21401390
p191
aa(lp192
V15364435
p193
aV12559792
p194
aV12507846
p195
aV2665654
p196
aa(lp197
V27677152
p198
aV19939669
p199
aV2884709
p200
aa(lp201
V5627679
p202
aa(lp203
V10235193
p204
aa(lp205
V9084635
p206
aV1118730
p207
aa(lp208
V27020613
p209
aV26876022
p210
aV25163895
p211
aV24590164
p212
aV23896564
p213
aV20820629
p214
aV19460175
p215
aV19117468
p216
aV5363267
p217
aV13708397
p218
aa(lp219
V24685456
p220
aV24037763
p221
aV12810317
p222
aV12720372
p223
aa(lp224
V11290451
p225
aV8747426
p226
aV1497356
p227
aa(lp228
V25065800
p229
aa(lp230
V26115271
p231
aV24646151
p232
aV23422306
p233
aV23312864
p234
aV20116232
p235
aa(lp236
V16924962
p237
aV16411954
p238
aV14936297
p239
aV14905624
p240
aa(lp241
V20855147
p242
aV18567736
p243
aV16787025
p244
aV9498349
p245
aV8270521
p246
aV2993390
p247
aV6302060
p248
aV5022481
p249
aa(lp250
V16844190
p251
aa(lp252
V25503327
p253
aa(lp254
V26461459
p255
aa(lp256
V1000602
p257
aa(lp258
V15276269
p259
aV11504218
p260
aV9813837
p261
aV8627918
p262
aa(lp263
V5728046
p264
aa(lp265
V28501770
p266
aV26612564
p267
aV25652732
p268
aV27145592
p269
aV23070937
p270
aV19304384
p271
aV17336055
p272
aV16411954
p273
aV11790001
p274
aV10819206
p275
aV5912899
p276
aa(lp277
V25822306
p278
aV21905402
p279
aa(lp280
V16983487
p281
aa(lp282
V27461067
p283
aa(lp284
V16411954
p285
aa(lp286
V27287102
p287
aa(lp288
V16924962
p289
aV16411954
p290
aV14936297
p291
aV14905624
p292
aa(lp293
V24945791
p294
aa(lp295
V25648647
p296
aV25465849
p297
aa(lp298
V11243369
p299
aa(lp300
V24018198
p301
aa(lp302
V27461067
p303
aa(lp304
V25681477
p305
aV24602270
p306
aV5501388
p307
aa(lp308
V25158503
p309
aa(lp310
V23790828
p311
aV8549661
p312
aV1735463
p313
aV999156
p314
aa(lp315
V27145592
p316
aa(lp317
V25144853
p318
aa(lp319
V5544283
p320
aa(lp321
V19478855
p322
aa(lp323
V27040242
p324
aV24125869
p325
aV22483929
p326
aV17999055
p327
aV12762654
p328
aV11980181
p329
aa(lp330
V27741269
p331
aa(lp332
V22761890
p333
aa(lp334
V27363150
p335
aV25383956
p336
aV21571430
p337
aV21247084
p338
aV9498349
p339
aa(lp340
V17688173
p341
aV487912
p342
aa(lp343
V17435299
p344
aV15892758
p345
aV15109145
p346
aV4074951
p347
aa(lp348
V23790828
p349
aa(lp350
V27325291
p351
aa(lp352
V25065800
p353
aa(lp354
V21855332
p355
aa(lp356
V14927857
p357
aa(lp358
V814774
p359
aV4626827
p360
aa.