(lp0
(lp1
V28358309
p2
aV20955360
p3
aV12628513
p4
aa(lp5
V20822177
p6
aV14530516
p7
aV11676200
p8
aV11308324
p9
aa(lp10
V21831328
p11
aV21790190
p12
aV21555977
p13
aV20498877
p14
aV18698012
p15
aV8247936
p16
aV6724430
p17
aV15421346
p18
aa(lp19
V15930771
p20
aV15809164
p21
aV15780639
p22
aV9667738
p23
aa(lp24
V24057015
p25
aa(lp26
V22618373
p27
aa(lp28
V22138973
p29
aV18931133
p30
aV16880931
p31
aV11487515
p32
aa(lp33
V28230758
p34
aa(lp35
V26111478
p36
aa(lp37
V27516180
p38
aa(lp39
V24057015
p40
aa(lp41
V27287369
p42
aV26460562
p43
aV26420344
p44
aV24094552
p45
aV23576355
p46
aV22960210
p47
aV21528638
p48
aV20398743
p49
aV15693640
p50
aV12116822
p51
aV1835291
p52
aa(lp53
V23731018
p54
aV23146774
p55
aV22178178
p56
aV15721614
p57
aV12871827
p58
aV11906973
p59
aV11829656
p60
aa(lp61
V27591413
p62
aV26463105
p63
aV20686231
p64
aa(lp65
V8250644
p66
aa(lp67
V25458285
p68
aV11110783
p69
aa(lp70
V9000886
p71
aa(lp72
V16047780
p73
aa(lp74
V25088135
p75
aa(lp76
V18384188
p77
aa(lp78
V24685589
p79
aV20796195
p80
aV10751555
p81
aa(lp82
V12505539
p83
aa(lp84
V24952311
p85
aV22197662
p86
aV18348534
p87
aV12505539
p88
aa(lp89
V22197662
p90
aa(lp91
V22197662
p92
aa(lp93
V24952311
p94
aV22197662
p95
aa(lp96
V22197662
p97
aV12505539
p98
aa(lp99
V12505539
p100
aa(lp101
V12505539
p102
aa(lp103
V22197662
p104
aa(lp105
V24685504
p106
aa(lp107
V26385725
p108
aV19000749
p109
aV17442510
p110
aV16445708
p111
aV12094296
p112
aa(lp113
V26474585
p114
aa(lp115
V27933893
p116
aa(lp117
V24057015
p118
aa(lp119
V24057015
p120
aa(lp121
V25026715
p122
aV24685589
p123
aV18825536
p124
aV10714491
p125
aa(lp126
V24057015
p127
aa(lp128
V26383017
p129
aa(lp130
V14752064
p131
aa(lp132
V17184749
p133
aa(lp134
V20
p135
aa(lp136
V27702579
p137
aV26910757
p138
aV26232608
p139
aV24879348
p140
aV24599390
p141
aV22210901
p142
aV18081029
p143
aV11481433
p144
aV10618438
p145
aa(lp146
V24611620
p147
aV20856967
p148
aV9875846
p149
aV9531510
p150
aa(lp151
V26692099
p152
aV24422962
p153
aV14966369
p154
aa(lp155
V28441357
p156
aV24685502
p157
aV23747321
p158
aV22648378
p159
aV22382409
p160
aa(lp161
V18958424
p162
aa(lp163
V26412430
p164
aV24915829
p165
aV24503502
p166
aV24328676
p167
aV21261296
p168
aV17225453
p169
aV17202693
p170
aa(lp171
V23744425
p172
aV16924586
p173
aa(lp174
V23727892
p175
aV12093527
p176
aa(lp177
V19056479
p178
aV18424012
p179
aV17994576
p180
aa(lp181
V25369132
p182
aa(lp183
V25369132
p184
aV11345693
p185
aa(lp186
V26253495
p187
aV19178773
p188
aV12058328
p189
aa(lp190
V25300345
p191
aa(lp192
V25451593
p193
aV24316124
p194
aV23790887
p195
aV19291859
p196
aa(lp197
V24758928
p198
aV20304105
p199
aV12386146
p200
aV10737225
p201
aV10373757
p202
aa(lp203
V10580174
p204
aa(lp205
V25317918
p206
aa(lp207
V22342441
p208
aV11254905
p209
aV10428374
p210
aV9770008
p211
aV9453467
p212
aV9346331
p213
aV9105698
p214
aV7682131
p215
aV1527785
p216
aa(lp217
V12
p218
aa(lp219
V17337632
p220
aV16276975
p221
aV9527505
p222
aV1359573
p223
aa(lp224
V23689820
p225
aV12325039
p226
aa(lp227
V18218969
p228
aV6157262
p229
aa(lp230
V19557671
p231
aV15493837
p232
aa(lp233
V25801582
p234
aa(lp235
V21397503
p236
aa(lp237
V19629961
p238
aV11206796
p239
aV8529922
p240
aa(lp241
V15488334
p242
aV6502490
p243
aa(lp244
V22370785
p245
aa(lp246
V11
p247
aa(lp248
V1593486
p249
aV2913282
p250
aV3478728
p251
aa(lp252
V7590074
p253
aa(lp254
V8660513
p255
aa(lp256
V22921203
p257
aV19857486
p258
aV19700629
p259
aV19673246
p260
aV16545970
p261
aa(lp262
V24057015
p263
aa(lp264
V19807153
p265
aa(lp266
V24606222
p267
aa(lp268
V25460589
p269
aa(lp270
V28232982
p271
aV26864460
p272
aV23079793
p273
aV22809749
p274
aV21839593
p275
aV21261296
p276
aa(lp277
V21353507
p278
aa(lp279
V22393824
p280
aV12527325
p281
aa(lp282
V23826104
p283
aV3158211
p284
aV14045492
p285
aa(lp286
V24148906
p287
aV20627899
p288
aV15937723
p289
aa(lp290
V24057015
p291
aa(lp292
V10594925
p293
aV9482258
p294
aa(lp295
V20950600
p296
aa(lp297
V24662082
p298
aV22101210
p299
aa(lp300
V24057015
p301
aa(lp302
V2929365
p303
aV2929364
p304
aV3099762
p305
aV6196591
p306
aa(lp307
V22370785
p308
aV19031369
p309
aa(lp310
V26083119
p311
aV22771369
p312
aa(lp313
V1885616
p314
aV2561114
p315
aV819002
p316
aa(lp317
V27774796
p318
aa(lp319
V26035062
p320
aV16737683
p321
aa(lp322
V16158333
p323
aV2833416
p324
aV6501743
p325
aa(lp326
V12924938
p327
aV11225116
p328
aa(lp329
V8403896
p330
aa(lp331
V11425591
p332
aV10714491
p333
aa(lp334
V27079867
p335
aV26808720
p336
aV25762161
p337
aV25446467
p338
aV23669460
p339
aV22054260
p340
aV21544884
p341
aV21294204
p342
aV16343551
p343
aV12760864
p344
aa(lp345
V25595650
p346
aV21930351
p347
aV18215183
p348
aV15059779
p349
aV12881223
p350
aV12459681
p351
aV12392496
p352
aV11356598
p353
aV10836720
p354
aa(lp355
V24057015
p356
aa(lp357
V23046467
p358
aV20540163
p359
aV11131161
p360
aa(lp361
V23263808
p362
aa(lp363
V11
p364
aa(lp365
V24857914
p366
aa(lp367
V20606307
p368
aa(lp369
V28232982
p370
aV16596639
p371
aa(lp372
V15298759
p373
aa(lp374
V21619922
p375
aV18958424
p376
aa(lp377
V447667
p378
aV276640
p379
aV4391734
p380
aa(lp381
V25435499
p382
aV24601675
p383
aV23693120
p384
aV22487852
p385
aV22374081
p386
aV21108118
p387
aV18806960
p388
aV18408869
p389
aV15713047
p390
aV10644001
p391
aa(lp392
V28579553
p393
aa(lp394
V17855475
p395
aV9673939
p396
aV8872350
p397
aa(lp398
V26375184
p399
aV25864816
p400
aV25466253
p401
aV24726369
p402
aV22898471
p403
aa(lp404
V22189441
p405
aV19562334
p406
aa(lp407
V3365279
p408
aa(lp409
V22489648
p410
aV22370785
p411
aa(lp412
V24057015
p413
aa(lp414
V26460562
p415
aV23576355
p416
aa(lp417
V11425591
p418
aV10714491
p419
aa(lp420
V22189441
p421
aV19562334
p422
aa(lp423
V26083236
p424
aV15939211
p425
aV2420369
p426
aV2992652
p427
aV6219645
p428
aa(lp429
V25300345
p430
aV17132814
p431
aa(lp432
V24697904
p433
aV22745072
p434
aV22402243
p435
aV21112754
p436
aa(lp437
V25523460
p438
aa(lp439
V24916321
p440
aV19435338
p441
aa(lp442
V21635274
p443
aa(lp444
V12676541
p445
aa(lp446
V24547933
p447
aV24502504
p448
aV19629961
p449
aV11206796
p450
aV8529922
p451
aV1352821
p452
aV7252796
p453
aa(lp454
V3981423
p455
aa(lp456
V24057015
p457
aa(lp458
V12444646
p459
aV8343213
p460
aa(lp461
V12717004
p462
aV9501092
p463
aV1321953
p464
aa(lp465
V11958479
p466
aa(lp467
V16880762
p468
aV10644043
p469
aV10079014
p470
aa(lp471
V19070537
p472
aV15223068
p473
aa(lp474
V12213604
p475
aa(lp476
V24057015
p477
aa(lp478
V23669460
p479
aa(lp480
V24920234
p481
aV23254377
p482
aV22688907
p483
aV20738215
p484
aV18677595
p485
aV16169960
p486
aV15859331
p487
aV15245964
p488
aV12738982
p489
aV12632064
p490
aV7476346
p491
aa(lp492
V24057015
p493
aa(lp494
V18239309
p495
aa(lp496
V28008757
p497
aV23291324
p498
aV18281171
p499
aa(lp500
V8943260
p501
aV2861855
p502
aV173287
p503
aa(lp504
V17826984
p505
aa(lp506
V21040769
p507
aV18328446
p508
aV16564156
p509
aa(lp510
V16814863
p511
aV16233954
p512
aV2162818
p513
aa(lp514
V7972306
p515
aa(lp516
V25447160
p517
aV10193199
p518
aa(lp519
V23454444
p520
aa(lp521
V17561373
p522
aa(lp523
V26045775
p524
aa(lp525
V24440742
p526
aa(lp527
V26045775
p528
aV24440742
p529
aa(lp530
V24440742
p531
aa(lp532
V27730746
p533
aV25793974
p534
aV15258160
p535
aV9312115
p536
aV9149241
p537
aa(lp538
V27784308
p539
aa(lp540
V24857914
p541
aV65357
p542
aa(lp543
V17826984
p544
aV17446019
p545
aV16475343
p546
aa(lp547
V14514441
p548
aa(lp549
V11566551
p550
aa(lp551
V26301513
p552
aa(lp553
V18493962
p554
aV12094289
p555
aa(lp556
V24941253
p557
aV15833387
p558
aV15604043
p559
aV12677533
p560
aa(lp561
V26197519
p562
aV25924535
p563
aV23052184
p564
aV19778086
p565
aV18825536
p566
aV17080260
p567
aV16997339
p568
aV16228289
p569
aa(lp570
V12926869
p571
aV11829656
p572
aa(lp573
V19031369
p574
aa(lp575
V17611931
p576
aa(lp577
V11767075
p578
aa(lp579
V24996142
p580
aa(lp581
V28218684
p582
aV26126961
p583
aV22766206
p584
aa(lp585
V2452749
p586
aV3027733
p587
aa(lp588
V23333629
p589
aV21372422
p590
aV18926710
p591
aa(lp592
V23624606
p593
aV20843529
p594
aV18449498
p595
aV18448292
p596
aV11811897
p597
aa(lp598
V27591413
p599
aV26306655
p600
aa(lp601
V3157792
p602
aa(lp603
V956922
p604
aa(lp605
V27614821
p606
aV25996100
p607
aa(lp608
V3158211
p609
aa(lp610
V26877844
p611
aV25756352
p612
aV24905307
p613
aV23958204
p614
aV23179288
p615
aV20804826
p616
aV18771905
p617
aV17034662
p618
aa(lp619
V26412430
p620
aa(lp621
V15084084
p622
aV11232847
p623
aV7879874
p624
aa(lp625
V18950608
p626
aa(lp627
V14699496
p628
aV11557570
p629
aV9679170
p630
aV9486273
p631
aV9374669
p632
aV8948463
p633
aV7526593
p634
aV8381612
p635
aV1694407
p636
aa(lp637
V17679551
p638
aa(lp639
V25518304
p640
aV7277932
p641
aV700514
p642
aV350735
p643
aV20395
p644
aa(lp645
V4436781
p646
aV6031633
p647
aa(lp648
V20193786
p649
aV20093072
p650
aV13680096
p651
aV9368791
p652
aV2402479
p653
aV7250358
p654
aV5497618
p655
aa(lp656
V20702803
p657
aa(lp658
V22155394
p659
aV21292318
p660
aV17883894
p661
aV8836620
p662
aV2707884
p663
aa(lp664
V25256513
p665
aa(lp666
V24422962
p667
aV20503475
p668
aV14966369
p669
aV7575743
p670
aa(lp671
V12
p672
aa(lp673
V10462538
p674
aa(lp675
V22019572
p676
aV21235591
p677
aV10549420
p678
aa(lp679
V14664509
p680
aa(lp681
V22381005
p682
aa(lp683
V11755113
p684
aa(lp685
V26197519
p686
aV25924535
p687
aV23052184
p688
aV19778086
p689
aV18825536
p690
aV17080260
p691
aV16997339
p692
aV16228289
p693
aa(lp694
V26171782
p695
aa(lp696
V16547169
p697
aV12586216
p698
aa(lp699
V27997616
p700
aa(lp701
V22672343
p702
aV19056507
p703
aV15102935
p704
aV8826976
p705
aV7546774
p706
aa(lp707
V23039043
p708
aa(lp709
V17329397
p710
aV3134009
p711
aV3911949
p712
aV6140003
p713
aV6128343
p714
aa(lp715
V24748513
p716
aa(lp717
V24611620
p718
aV23669460
p719
aV20230506
p720
aV16847623
p721
aV15506196
p722
aV7759595
p723
aa(lp724
V2295142
p725
aV3880866
p726
aV6309173
p727
aV6779878
p728
aa(lp729
V21336650
p730
aV19298333
p731
aV5437111
p732
aa(lp733
V24571453
p734
aV23387174
p735
aV20371232
p736
aa(lp737
V28017961
p738
aV23387174
p739
aV17276889
p740
aa(lp741
V27784308
p742
aa(lp743
V23167109
p744
aa(lp745
V16047780
p746
aa(lp747
V24057015
p748
aa(lp749
V23178655
p750
aV21827495
p751
aV16924586
p752
aV10987997
p753
aV7969515
p754
aa(lp755
V11303059
p756
aV8719422
p757
aV6040158
p758
aa(lp759
V8298797
p760
aV1361235
p761
aV1659504
p762
aa(lp763
V25037681
p764
aa(lp765
V12105964
p766
aa(lp767
V20354348
p768
aa(lp769
V7578935
p770
aa(lp771
V27121241
p772
aV27059485
p773
aV24939805
p774
aV23826187
p775
aV18787790
p776
aV17941891
p777
aa(lp778
V14508200
p779
aV9294836
p780
aV9299402
p781
aV9245913
p782
aV8982498
p783
aV7530201
p784
aa(lp785
V26546867
p786
aa(lp787
V25026734
p788
aV20934418
p789
aV20487629
p790
aV20302920
p791
aV20074458
p792
aV19026735
p793
aV18394317
p794
aV18336737
p795
aa(lp796
V19274511
p797
aV17513449
p798
aa(lp799
V28579553
p800
aa(lp801
V19569096
p802
aV19526284
p803
aV15507404
p804
aV2818094
p805
aV3243899
p806
aV3711203
p807
aV6130999
p808
aV1148024
p809
aa(lp810
V24057015
p811
aa(lp812
V24057015
p813
aa(lp814
V24758928
p815
aa(lp816
V25026734
p817
aV20934418
p818
aV20487629
p819
aV20302920
p820
aV20074458
p821
aV19026735
p822
aV18394317
p823
aV18336737
p824
aa(lp825
V7
p826
aa(lp827
V23241939
p828
aV22222313
p829
aV19485829
p830
aV18853597
p831
aV10754443
p832
aV9007429
p833
aV8233315
p834
aV1955161
p835
aV1993802
p836
aV2297839
p837
aV2787767
p838
aa(lp839
V24057015
p840
aa(lp841
V25449602
p842
aV23938252
p843
aV15279908
p844
aV12120815
p845
aa(lp846
V24057015
p847
aa(lp848
V18431478
p849
aV10861114
p850
aV10678622
p851
aV2667111
p852
aV3129390
p853
aV3620286
p854
aV2943654
p855
aV4053732
p856
aV6147220
p857
aa(lp858
V23837974
p859
aa(lp860
V21725805
p861
aa(lp862
V26635911
p863
aa(lp864
V22738966
p865
aV21737923
p866
aa(lp867
V27224660
p868
aV26915982
p869
aV23638985
p870
aa(lp871
V24455777
p872
aV23467002
p873
aV22864746
p874
aV22300288
p875
aV17982883
p876
aV17276889
p877
aV12785733
p878
aV3708218
p879
aa(lp880
V27782100
p881
aV17494865
p882
aV7510130
p883
aa(lp884
V26915982
p885
aV12081140
p886
aa(lp887
V18031763
p888
aa(lp889
V28558784
p890
aV28065188
p891
aV25435499
p892
aV21535545
p893
aV21346065
p894
aV16934226
p895
aV15316927
p896
aV15240993
p897
aV12017334
p898
aa(lp899
V11121585
p900
aa(lp901
V3981423
p902
aa(lp903
V26412430
p904
aV24915829
p905
aV24503502
p906
aV24328676
p907
aV21261296
p908
aV17225453
p909
aV17202693
p910
aa(lp911
V28105253
p912
aV26424013
p913
aV24641413
p914
aV21993909
p915
aV21121245
p916
aV20018257
p917
aV18838107
p918
aV18481332
p919
aV18449507
p920
aV9120760
p921
aa(lp922
V21397503
p923
aV17582751
p924
aa(lp925
V17571307
p926
aV16002718
p927
aV15680267
p928
aV10844125
p929
aV10602328
p930
aa(lp931
V25643072
p932
aV22020096
p933
aV21767810
p934
aV14615292
p935
aV11709394
p936
aa(lp937
V26257293
p938
aV22213341
p939
aV14642385
p940
aV6766067
p941
aa(lp942
V26715683
p943
aV26073153
p944
aV15365689
p945
aV10359741
p946
aV7585069
p947
aV2327262
p948
aa(lp949
V25920227
p950
aV12384175
p951
aV11903917
p952
aV11893599
p953
aV11440558
p954
aV11152112
p955
aV10694229
p956
aV10600662
p957
aV8102928
p958
aV1349606
p959
aV1719824
p960
aa(lp961
V26658818
p962
aV18652917
p963
aa(lp964
V28216901
p965
aV25026734
p966
aV23541436
p967
aV22705771
p968
aV21337254
p969
aV12058328
p970
aa(lp971
V19559007
p972
aa(lp973
V12717004
p974
aV9501092
p975
aV1321953
p976
aa(lp977
g826
aa(lp978
V25088135
p979
aa(lp980
V23164765
p981
aV16317111
p982
aV10959543
p983
aV8982498
p984
aV7498303
p985
aa(lp986
V25348868
p987
aV23807809
p988
aV19135555
p989
aV15161201
p990
aa(lp991
V12605596
p992
aa(lp993
V23807809
p994
aa(lp995
V21839074
p996
aa(lp997
V26609223
p998
aV25811848
p999
aV25631463
p1000
aV22465818
p1001
aV22370785
p1002
aV19031369
p1003
aV18812031
p1004
aV16157513
p1005
aV14572883
p1006
aa(lp1007
V24132147
p1008
aa(lp1009
V24057015
p1010
aa(lp1011
V24632039
p1012
aV6250586
p1013
aa(lp1014
V3621037
p1015
aa(lp1016
V26171782
p1017
aa(lp1018
V23464732
p1019
aa(lp1020
V24057015
p1021
aa(lp1022
V15644591
p1023
aV6157262
p1024
aa(lp1025
V26441061
p1026
aa(lp1027
V26171689
p1028
aV25818185
p1029
aV25471017
p1030
aa(lp1031
V4137429
p1032
aV5822253
p1033
aV4972469
p1034
aV4381055
p1035
aV5961126
p1036
aV14249029
p1037
aa(lp1038
V27451156
p1039
aa(lp1040
V24057015
p1041
aa(lp1042
V19178773
p1043
aV18838835
p1044
aa(lp1045
V12
p1046
aa(lp1047
V17666802
p1048
aa(lp1049
V22906971
p1050
aV21555977
p1051
aa(lp1052
V2535870
p1053
aa(lp1054
V23790887
p1055
aa(lp1056
V24934680
p1057
aa(lp1058
V24057015
p1059
aa(lp1060
V22524192
p1061
aa(lp1062
V25026733
p1063
aV22712758
p1064
aV22045066
p1065
aV17826984
p1066
aa(lp1067
V1558197
p1068
aV3024650
p1069
aa(lp1070
V27483221
p1071
aV24444441
p1072
aV18544347
p1073
aV18392571
p1074
aa(lp1075
V11063620
p1076
aV10794703
p1077
aa(lp1078
V23214479
p1079
aV16047780
p1080
aa(lp1081
V25801844
p1082
aV24082036
p1083
aV22411529
p1084
aV19715690
p1085
aV12944505
p1086
aV12359622
p1087
aV11485574
p1088
aV10924916
p1089
aV9191261
p1090
aV8769879
p1091
aa(lp1092
V18723353
p1093
aa(lp1094
V24057015
p1095
aa(lp1096
V24675182
p1097
aV5714581
p1098
aa(lp1099
V17478051
p1100
aV14500768
p1101
aV11522605
p1102
aV8177492
p1103
aV8387623
p1104
aV2841027
p1105
aV2447232
p1106
aV2821057
p1107
aV2422955
p1108
aa(lp1109
V24057015
p1110
aa(lp1111
V15019190
p1112
aa(lp1113
V17637182
p1114
aV10449184
p1115
aa(lp1116
V27452308
p1117
aV11311576
p1118
aV11264227
p1119
aV7473892
p1120
aV7697203
p1121
aV8496916
p1122
aV1696431
p1123
aV5066357
p1124
aa(lp1125
V27514442
p1126
aV26256187
p1127
aa(lp1128
V24727203
p1129
aa(lp1130
V28579553
p1131
aV26970604
p1132
aV21622115
p1133
aV16142632
p1134
aV15809164
p1135
aV12538000
p1136
aV11301852
p1137
aV10834299
p1138
aV8988596
p1139
aa(lp1140
V11870750
p1141
aV6892242
p1142
aV7261329
p1143
aV181043
p1144
aV1193233
p1145
aV1142069
p1146
aa(lp1147
V27719933
p1148
aV20558255
p1149
aV18274639
p1150
aV11829656
p1151
aa(lp1152
V25625351
p1153
aa(lp1154
V15550168
p1155
aa(lp1156
V15817484
p1157
aa(lp1158
V22370785
p1159
aV19031369
p1160
aV10728417
p1161
aa(lp1162
V20192236
p1163
aa(lp1164
V28441357
p1165
aV10862830
p1166
aa(lp1167
V19083455
p1168
aV19053380
p1169
aV7549099
p1170
aV1368513
p1171
aa(lp1172
V12419687
p1173
aa(lp1174
V27912907
p1175
aV27447684
p1176
aV26383017
p1177
aV25592708
p1178
aV25300343
p1179
aV24128147
p1180
aV23624606
p1181
aV22079762
p1182
aV20600612
p1183
aV11458445
p1184
aa(lp1185
V18493962
p1186
aa(lp1187
V12631078
p1188
aV1785204
p1189
aV6818973
p1190
aV13973338
p1191
aa(lp1192
V26197519
p1193
aV25924535
p1194
aV23052184
p1195
aV19778086
p1196
aV18825536
p1197
aV17080260
p1198
aV16997339
p1199
aV16228289
p1200
aa(lp1201
V2307256
p1202
aa(lp1203
V25218514
p1204
aa(lp1205
V16643064
p1206
aa(lp1207
V24422962
p1208
aV14966369
p1209
aa(lp1210
V23464732
p1211
aV21156786
p1212
aV20088501
p1213
aV18676677
p1214
aa(lp1215
V25941931
p1216
aV25327481
p1217
aV25138121
p1218
aV24893214
p1219
aV23883311
p1220
aV22421463
p1221
aV16930884
p1222
aV9404861
p1223
aV7890459
p1224
aV1844926
p1225
aa(lp1226
V27919659
p1227
aV19434470
p1228
aV18676061
p1229
aa(lp1230
V10733094
p1231
aV9586125
p1232
aa(lp1233
V18702946
p1234
aa(lp1235
V22819553
p1236
aV20416364
p1237
aa(lp1238
V22078955
p1239
aa(lp1240
V23649257
p1241
aa(lp1242
V18493962
p1243
aa(lp1244
V11065271
p1245
aV1456575
p1246
aa(lp1247
V17507208
p1248
aa(lp1249
V23454444
p1250
aV22083995
p1251
aa(lp1252
V24142543
p1253
aV2897218
p1254
aa(lp1255
V27585463
p1256
aV26342163
p1257
aV24321516
p1258
aV21455022
p1259
aV17095132
p1260
aV12742826
p1261
aV12446171
p1262
aV12419693
p1263
aV10652243
p1264
aa(lp1265
V23870867
p1266
aV18523923
p1267
aa(lp1268
V8450418
p1269
aa(lp1270
V22370785
p1271
aa(lp1272
V18295200
p1273
aV17681441
p1274
aa(lp1275
V27089309
p1276
aV24490634
p1277
aV23981939
p1278
aV17379285
p1279
aa.