(lp0
(lp1
V18385293
p2
aa(lp3
V23576614
p4
aa(lp5
V2333271
p6
aa(lp7
V21139332
p8
aa(lp9
V27652191
p10
aV22634047
p11
aV20926619
p12
aV16507512
p13
aV15645238
p14
aV15608134
p15
aa(lp16
V24619917
p17
aV16882691
p18
aV8781308
p19
aV3689343
p20
aa(lp21
V16442130
p22
aV15072439
p23
aa(lp24
V26593909
p25
aa(lp26
V11956513
p27
aV6961970
p28
aV6897028
p29
aV7285486
p30
aa(lp31
V14568334
p32
aa(lp33
V14552640
p34
aa(lp35
V21139332
p36
aV2415113
p37
aa(lp38
V25185984
p39
aV15468717
p40
aa(lp41
V24036516
p42
aV22271159
p43
aV9524927
p44
aV577437
p45
aa(lp46
V26521978
p47
aV20347037
p48
aV16780192
p49
aV10548035
p50
aV10082745
p51
aV9603790
p52
aV3652401
p53
aV761377
p54
aV4396194
p55
aa(lp56
V11326028
p57
aV10496299
p58
aV9812177
p59
aV9212399
p60
aV9149388
p61
aV3124978
p62
aa(lp63
V2544967
p64
aa(lp65
V22593939
p66
aa(lp67
V24362330
p68
aa(lp69
V15638994
p70
aa(lp71
V22869929
p72
aa(lp73
V15804825
p74
aa(lp75
V23396419
p76
aV21507821
p77
aV20600878
p78
aV18197554
p79
aV16507512
p80
aa(lp81
V24915111
p82
aa(lp83
V16621845
p84
aV11210401
p85
aV7123299
p86
aV7297421
p87
aV7229494
p88
aV966139
p89
aa(lp90
V18385293
p91
aa(lp92
V24798650
p93
aV16809803
p94
aV12701389
p95
aV9314611
p96
aV2572043
p97
aa(lp98
V11836583
p99
aa(lp100
V17872924
p101
aV12388640
p102
aV8887770
p103
aV3194349
p104
aV3406
p105
aa(lp106
V23396419
p107
aV21507821
p108
aV20600878
p109
aV18197554
p110
aV16507512
p111
aa(lp112
V27412519
p113
aV26021851
p114
aV25463196
p115
aV25203723
p116
aV22016969
p117
aV17385805
p118
aa(lp119
V24028619
p120
aa(lp121
V17373769
p122
aa(lp123
V16442130
p124
aV15072439
p125
aa(lp126
V11217075
p127
aa(lp128
V11980386
p129
aV2043933
p130
aa(lp131
V18511069
p132
aV17462668
p133
aV7479692
p134
aV2437192
p135
aV4516166
p136
aa(lp137
V7445660
p138
aa(lp139
V12939524
p140
aa(lp141
V9749965
p142
aa(lp143
V18192808
p144
aV14976858
p145
aV12187639
p146
aV12117855
p147
aV11754591
p148
aV10882359
p149
aa(lp150
V18385293
p151
aV15890377
p152
aa(lp153
V7042897
p154
aV947591
p155
aa(lp156
V26134275
p157
aV25126975
p158
aV25042915
p159
aV24887182
p160
aV22846896
p161
aV19370549
p162
aV19170528
p163
aV17971810
p164
aV11210401
p165
aV8641241
p166
aV544629
p167
aa(lp168
V26134275
p169
aV25126975
p170
aV25042915
p171
aV24887182
p172
aV22846896
p173
aV19370549
p174
aV19170528
p175
aV17971810
p176
aV11210401
p177
aV8641241
p178
aV544629
p179
aa(lp180
V2986513
p181
aV6393556
p182
aV578463
p183
aV966139
p184
aV1151767
p185
aV4431325
p186
aV4408485
p187
aV4468225
p188
aV5171476
p189
aa(lp190
V22991932
p191
aV21717600
p192
aa(lp193
V17676865
p194
aa(lp195
V146396
p196
aa(lp197
V27652191
p198
aV22634047
p199
aV20926619
p200
aV16507512
p201
aV15645238
p202
aV15608134
p203
aa(lp204
V27717999
p205
aV20670141
p206
aV18653325
p207
aV9298202
p208
aV1820923
p209
aV6774880
p210
aV4408485
p211
aV4407358
p212
aa(lp213
V11123367
p214
aa(lp215
V24436229
p216
aV23221528
p217
aV22190694
p218
aV21053991
p219
aV19719333
p220
aV17592002
p221
aV17190845
p222
aV12428432
p223
aa(lp224
V27547796
p225
aV24798650
p226
aV17051595
p227
aV10918954
p228
aV10360233
p229
aV1517305
p230
aV3179468
p231
aV3510090
p232
aV6533899
p233
aV6861348
p234
aV146396
p235
aV5704255
p236
aa(lp237
V16904803
p238
aV16419049
p239
aV15890377
p240
aa(lp241
V18385293
p242
aV15890377
p243
aa(lp244
V27652191
p245
aV22634047
p246
aV20926619
p247
aV16507512
p248
aV15645238
p249
aV15608134
p250
aa(lp251
V24373398
p252
aV24044638
p253
aV24002095
p254
aV15706999
p255
aV15268801
p256
aV14969833
p257
aV8388774
p258
aV1600986
p259
aV2173546
p260
aV2327624
p261
aa(lp262
V1791847
p263
aa(lp264
V2446724
p265
aa(lp266
V27652191
p267
aV22634047
p268
aV20926619
p269
aV16507512
p270
aV15645238
p271
aV15608134
p272
aa(lp273
V9929566
p274
aa(lp275
V28270768
p276
aV24839994
p277
aV16507512
p278
aV3728980
p279
aa(lp280
V18302035
p281
aa(lp282
V18650317
p283
aV17063398
p284
aV16914433
p285
aV12923172
p286
aV10973807
p287
aa(lp288
V27637455
p289
aV22181075
p290
aV18439772
p291
aV18385293
p292
aV15072439
p293
aa(lp294
V27683186
p295
aV25940551
p296
aV6328980
p297
aV6194632
p298
aa(lp299
V11602523
p300
aa(lp301
V15638994
p302
aa(lp303
V1881150
p304
aa(lp305
V24362330
p306
aV3689343
p307
aV3029099
p308
aa(lp309
V16442130
p310
aV15072439
p311
aa(lp312
V26021851
p313
aV17385805
p314
aV16307859
p315
aa(lp316
V3156594
p317
aa(lp318
V2035239
p319
aa(lp320
V16904803
p321
aa(lp322
V20301438
p323
aV17063398
p324
aV16985091
p325
aV27722966
p326
aV15963007
p327
aV12163901
p328
aV9532368
p329
aV7648578
p330
aV1284982
p331
aV6818777
p332
aa(lp333
V24036516
p334
aV17063398
p335
aV16770713
p336
aV16419049
p337
aV16169700
p338
aV15890377
p339
aV14662257
p340
aa(lp341
V16904803
p342
aa(lp343
V2544967
p344
aV2425380
p345
aV3004480
p346
aV3013381
p347
aa(lp348
V20222053
p349
aa(lp350
V15038319
p351
aV11230321
p352
aV6149301
p353
aV4260123
p354
aa(lp355
V28270768
p356
aV24839994
p357
aV16507512
p358
aV3728980
p359
aa(lp360
V16442130
p361
aV15072439
p362
aa(lp363
V24044638
p364
aV12403641
p365
aV10821337
p366
aV7881707
p367
aV1903627
p368
aV2701893
p369
aa(lp370
V25290152
p371
aa(lp372
V15890377
p373
aa(lp374
V688600
p375
aa(lp376
V22181075
p377
aV21162698
p378
aV10201845
p379
aV4848130
p380
aa(lp381
V10503952
p382
aa(lp383
V21605667
p384
aV17553914
p385
aV15365089
p386
aV9380009
p387
aV2460351
p388
aV1142709
p389
aa(lp390
V11489665
p391
aV7824935
p392
aV1664520
p393
aV619105
p394
aV205226
p395
aV4820360
p396
aV4811264
p397
aa(lp398
V22806762
p399
aV11865578
p400
aV11257536
p401
aV8897844
p402
aV2437304
p403
aV630057
p404
aa(lp405
V14766022
p406
aV12646011
p407
aV10503952
p408
aV3675687
p409
aV3608800
p410
aV2986513
p411
aV6419896
p412
aV7438092
p413
aV4906545
p414
aV5305371
p415
aa(lp416
V8686886
p417
aa(lp418
V21921059
p419
aV11676625
p420
aV9038753
p421
aV7698882
p422
aV1847709
p423
aV2370311
p424
aV2544633
p425
aa(lp426
V25463196
p427
aV24054568
p428
aV10774625
p429
aV9042727
p430
aV1364351
p431
aV3225296
p432
aV2826960
p433
aV6277341
p434
aV175079
p435
aa(lp436
V12764
p437
aa(lp438
V22266779
p439
aa(lp440
V25544010
p441
aV21776271
p442
aV19729261
p443
aV10500489
p444
aV3012087
p445
aa(lp446
V24360197
p447
aV22266779
p448
aV21303967
p449
aV18565173
p450
aV12169761
p451
aV11245619
p452
aV9248848
p453
aV2464499
p454
aV2424774
p455
aV544629
p456
aa(lp457
V16251079
p458
aV9742293
p459
aV8391788
p460
aa(lp461
V27793783
p462
aV24756103
p463
aV16282437
p464
aV15269814
p465
aV9029759
p466
aV8787723
p467
aV8202502
p468
aV3621555
p469
aV3091291
p470
aV6854029
p471
aV6854028
p472
aV7237784
p473
aa(lp474
V23021809
p475
aV22180368
p476
aV20197486
p477
aV19944395
p478
aV16711027
p479
aV16251079
p480
aV15680209
p481
aV10973807
p482
aV7636023
p483
aV7825124
p484
aV1454220
p485
aa(lp486
V10987996
p487
aa(lp488
V9719733
p489
aa(lp490
V28633895
p491
aV23075289
p492
aV21699088
p493
aV2175607
p494
aV6987673
p495
aa(lp496
V28633895
p497
aV21589798
p498
aV16221533
p499
aV14568334
p500
aV12950465
p501
aV12078997
p502
aV11217075
p503
aV7696857
p504
aa(lp505
V15933900
p506
aV15766924
p507
aV11849678
p508
aa(lp509
V16770713
p510
aa(lp511
V20388710
p512
aV14981028
p513
aV12691002
p514
aV12441388
p515
aV8621507
p516
aV7520835
p517
aV1626650
p518
aV1778535
p519
aV2606635
p520
aV3365499
p521
aV3729400
p522
aV25324
p523
aa(lp524
V16442130
p525
aV15072439
p526
aa(lp527
V20675399
p528
aV12903480
p529
aV9527559
p530
aV9512916
p531
aV5046008
p532
aa(lp533
V24746147
p534
aa(lp535
V27793783
p536
aV25802484
p537
aV16781832
p538
aa(lp539
V12903480
p540
aV225652
p541
aV4694123
p542
aV5477259
p543
aa(lp544
V25483945
p545
aV23726729
p546
aV22845468
p547
aV19230595
p548
aV11160643
p549
aV8919037
p550
aV8454346
p551
aV3612546
p552
aV3772737
p553
aa(lp554
V21628095
p555
aV17263325
p556
aV10760338
p557
aV1317122
p558
aV1317120
p559
aV3820409
p560
aV1130289
p561
aV4279602
p562
aa(lp563
V9872670
p564
aV9864820
p565
aV7601486
p566
aa(lp567
V23396419
p568
aV21507821
p569
aV20600878
p570
aV18197554
p571
aV16507512
p572
aa(lp573
V23470127
p574
aV16262692
p575
aV16175571
p576
aV15733030
p577
aV12036392
p578
aV3675687
p579
aV538738
p580
aV966139
p581
aa(lp582
V9851552
p583
aV2157677
p584
aV6320623
p585
aV6709459
p586
aa(lp587
V12135911
p588
aa(lp589
V24636273
p590
aV9929566
p591
aa(lp592
V27793783
p593
aV16781832
p594
aV15804825
p595
aV11981753
p596
aV9749965
p597
aV2981857
p598
aV5807381
p599
aa(lp600
V9765850
p601
aa(lp602
V8793611
p603
aV8793602
p604
aV7981922
p605
aa(lp606
V8747801
p607
aV6525075
p608
aV4546987
p609
aa(lp610
V16188496
p611
aV9635530
p612
aV1564230
p613
aV3138054
p614
aV3817368
p615
aV2932264
p616
aV1138552
p617
aV5129315
p618
aa.