(lp0
S'24251357 | silibinin | The present study was to investigate the effects of giving N-acetylcysteine (NAC) alone and in combination with either glycyrrhizin (GL), silibinin (SIB) or spironolactone (SL) on the plasma pharmacokinetic (PK) profiles, hepatic exposure, biliary excretion and urinary excretion of acetaminophen (APAP) and its major metabolite, acetaminophen glucuronide (AG).'
p1
aS'8640239 | silibinin | The specific hepatoprotective action of silibinin against the toxicity of ethanol, phenylhydrazine and acetaminophen is also discussed.'
p2
aS'8640239 | silibinin | It is suggested that the biochemical effects observed for the flavonoid in experimental models may settle the basis for understanding the pharmacological action of silymarin and silibinin.'
p3
aS'22285229 | mfa | Synergistic action of the MF and CLEA-Lac during operation achieved eliminations from aqueous solution of around 99%, nearly 100% and up to 85% for ACT, MFA and CBZ, respectively.'
p4
aS'24793595 | cinnamon | By means of NMR and LC/MS we found 863mg acetaminophen, 262mg sulfamethoxazole, 42mg indomethacin and less than 1% trimethoprim in a sachet of 2.617g powder content, in addition to some cinnamon bark and phosphate.'
p5
aS'28359199 | cymbopogon citratus | To investigate the hepatoprotective effect of Cymbopogon citratus or lemongrass essential oil (LGO), it was used in an animal model of acute liver injury induced by acetaminophen (APAP).'
p6
aS'22011590 | tallow | We evaluated the effect of dietary corn oil (CO), olive oil (OO), and beef tallow (BT) on fatty acid composition of liver microsomal membrane and acute acetaminophen hepatotoxicity.'
p7
aS'25660481 | inosine | Canine hepatocytes were harvested and cell viability of clove-leaf oil (CLO), eugenol (EUG), lemongrass oil (LGO), guanosine monophosphate (GMP), inosine monophosphate (IMP), sorbose, ginger-root extract (GRE), cinnamon-bark oil (CBO), cinnamaldehyde (CINA), thymol oil (TO), thymol (THYM), and citric acid were assessed with positive controls: acetaminophen (APAP), aflatoxin B1 and xylitol.'
p8
aS'11031781 | allium | S-Allylmercaptocysteine (SAMC), one of the water-soluble organosulfur compounds in ethanol extracts of garlic (Allium sativum L.), has been shown to protect mice against acetaminophen (APAP)-induced liver injury.'
p9
aS'15916450 | allium | Allium sativum (garlic) decreased the area under the plasma concentration-time curve (AUC) and maximum plasma concentration of saquinavir, but not ritonavir and paracetamol (acetaminophen), in volunteers.'
p10
aS'11534764 | tyramine | Using p-nitrophenyl sulfate (PNS) as a donor substrate, alpha-naphthol was found to be the best acceptor substrate, followed by phenol, resorcinol, p-acetaminophen, tyramine and tyrosine.'
p11
aS'6939511 | tyramine | There was a significant correlation between the formation of MHPG sulfate by individual platelet preparations and the formation of sulfated product with each of the following substrates: tyramine (r = 0.92, n = 21); dopamine (r = 0.82, n = 16); 5-hydroxytryptamine (r = 0.94, n = 20); acetaminophen (r = 0.77, n = 17); and alphamethyldopa (r = 0.77, n = 17) (p less than 0.001 for each).'
p12
aS'10600454 | tyramine | For PNS, alpha-naphthol is the best acceptor substrate, followed by phenol, resorcinol, p-acetaminophen, tyramine, and tyrosine.'
p13
aS'11379783 | tyramine | Using p-nitrophenyl sulfate (PNS) as a donor substrate, phenol is the best acceptor substrate, followed by alpha-naphthol, resorcinol, tyramine, acetaminophen, and tyrosine.'
p14
aS'15049342 | hydroxylamine | Cytotoxicity was assessed 24 hr after a 3 hr exposure to iodoacetamide, tert-butylhydrogenperoxide, menadione, or sulfamethoxazole hydroxylamine, or after a 2 hr exposure to N-acetyl-p-benzoquinoneimine, the reactive metabolite of acetaminophen.'
p15
aS'2983185 | hydroxylamine | The results indicate that for both p-hydroxyaniline and acetaminophen, a recently proposed peroxidase-like mechanism leading directly to p-benzoquinoneimines via radical intermediates is thermodynamically favored over N-hydroxylamine formation by H abstraction or addition rearrangement.'
p16
aS'23454338 | d-mannose | Excess saccharides including D-galactose, D-fructose, D-cellbiose, L-arabinose and D-sucrose, D-maltose, D-mannose and D-xylose as well as common interfering substances (acetaminophen, ascorbic acid and uric acid) did not affect the detection of D-glucose (0.1mM).'
p17
aS'25119859 | procyanidin | In the present study, we investigated the role of almond (Prunus amygdalus) skin procyanidins (ASP) in regulating the protein expression of phase II detoxifying and antioxidant enzymes in HepG2 cells and acetaminophen (APAP)-treated hepatotoxic mice.'
p18
aS'24458977 | fennel | Together with previous findings, the presented in vitro data for CYP2E1 inhibition suggest that fennel and raspberry leaf have a significant potential of inhibiting all the major metabolic pathways for acetaminophen oxidation and NAPQI formation.'
p19
aS'21984979 | pulses | Here, we present electrochemical O-dealkylation of phenacetin to acetaminophen by square-wave potential pulses consisting of consecutive sub-second oxidation and reduction steps.'
p20
aS'28006746 | anethole | The aim of this study is to investigate the effect of trans anethole on some inflammatory parameters that are involved in hepatotoxicity induced by high doses of acetaminophen.'
p21
aS'7476370 | anethole | Anethol dithiolthione (ADT), usually prescribed as a choleretic drug, when given orally 1 hour prior to acetaminophen (AAP) (450 mg/kg intraperitoneally) in Swiss female mice, exhibited an hepatoprotective potency at doses as low as 10 mg/kg relative to serum aminotransferase activities and hepatic glutathione related enzyme system (glutathione reductase, peroxidase, transferase).'
p22
aS'1134883 | d-glucaric acid | Tweleve healthy 2- to 3-day-old full-term infants with plasma bilirubin concentrations of 1.0 to 11.6 mg/100 ml and D-glucaric acid excretion rates of 0.131 to 0.345 mg/kg/day received a single oral dose of acetaminophen, 12 mg/kg.'
p23
aS'1134883 | d-glucaric acid | Urine was collected serially for 48 hours and analyzed for acetaminophen, acetaminophen glucuronide, acetaminophen sulfate, and D-glucaric acid.'
p24
aS'26404304 | methylglyoxal | This feature article focuses on the recent design and use of carbon nanomaterials, primarily single-walled carbon nanotubes (SWCNTs), reduced graphene oxide (rGO), SWCNTs-rGO, Au nanoparticle-rGO nanocomposites, and buckypaper as sensing materials for the electrochemical detection of some representative biological and pharmaceutical compounds such as methylglyoxal, acetaminophen, valacyclovir, -nicotinamide adenine dinucleotide hydrate (NADH), and glucose.'
p25
aS'16797510 | liquorice | In addition, protective effects of GSH, liquorice extract and glycyrrhizic acid against acetaminophen hepatotoxicity were clearly observed in gel entrapped hepatocytes but not in hepatocyte monolayer at an incubation time of 48 h. Overall, gel entrapped hepatocytes showed higher sensitivities to acetaminophen-induced hepatotoxicity than hepatocyte monolayer by a mechanism that higher CYP 2E1 activities of gel entrapped hepatocytes could induce more severe acetaminophen toxicity.'
p26
aS'14757501 | alpha-lactose | The studied formulation was: acetaminophen 15%, alpha-lactose monohydrate 30%, cornstarch 45%, polyvinylpyrrolidone K30 5% and orange flavour 5% (w/w).'
p27
aS'28031152 | sunflower | C57BL/6 male mice were divided into the following groups: control (C); sunflower oil (CO); acetaminophen 500mg/kg (APAP); acetaminophen 500mg/kg+lycopene 10mg/kg (APAP+L10), and acetaminophen 500mg/kg+lycopene 100mg/kg (APAP+L100).'
p28
aS'23878731 | l-serine | Compounds including L-phenylalanine, L-serine, L-valine, urea, 4-acetaminophen, gallic acid and L-ascorbic acid were analyzed using both sources.'
p29
aS'25037050 | tocopherols | Conversely, cancer association was inverse with acetaminophen metabolites (OR <0.1), tocopherols (OR = 0.3), sitostanol (OR = 0.2), 3-dehydrocarnitine (OR = 0.4), pterin (OR = 0.3), conjugated-linoleate-18-2N7 (OR = 0.2), N-2-furoyl-glycine (OR = 0.3) and p-aminobenzoate (PABA, OR = 0.2).'
p30
aS'2138998 | guanine | In order to cast light on carcinogen-specific molecular mechanisms underlying experimental hepatocarcinogenesis in rats, in vivo mutagenicity and mutation spectra of known genotoxic rat hepatocarcinogens N-nitrosopyrrolidine (NPYR), and 2-amino-3-methylimidazo[4,5-f]quinoline (IQ), as well as the nongenotoxic hepatocarcinogen di(2-ethylhexyl)phthalate (DEHP) and the noncarcinogen acetaminophen (AAP), were investigated in guanine phosphoribosyltransferase (gpt) delta transgenic rats, a recently developed animal model for genotoxicity analysis.'
p31
aS'19522529 | guanine | Different kinds of important inorganic and organic electroactive compounds (i.e., probe molecule (potassium ferricyanide), free bases of DNA (guanine (G), adenine (A), thymine (T), and cytosine (C)), oxidase/dehydrogenase-related molecules (hydrogen peroxide (H2O2)/beta-nicotinamide adenine dinucleotide (NADH)), neurotransmitters (dopamine (DA)), and other biological molecules (ascorbic acid (AA), uric acid (UA), and acetaminophen (APAP)) were employed to study their electrochemical responses at the CR-GO/GC electrode, which shows more favorable electron transfer kinetics than graphite modified glassy carbon (graphite/GC) and glassy carbon (GC) electrodes.'
p32
aS'12814970 | genistein | The interaction studies showed that genistein inhibited formation of acetaminophen from phenacetin with an IC50 value of 16 microM.'
p33
aS"23333575 | genistein | The purpose of this study was to investigate genistein's influence on the relationship between the activation of uridine diphosphate glucuronosyltransferase (UGTs) and the protection against acetaminophen-induced liver toxicity."
p34
aS'27781231 | genistein | The results of the MTT, AST, ALT, LDH, GSH and GSSG assays showed that genistein evidently protected the cells from acetaminophen-induced injury in a dose-dependent manner.'
p35
aS'27781231 | genistein | The control cells were treated with 10 mM acetaminophen without genistein to compare with the effects of the combination of acetaminophen and genistein on the expression of UGT1A1, 1A6 and 1A9, Nrf2 and Keap1 mRNAs, as well as the expression of Nrf2 and Keap1 proteins, which were tested by western blotting.'
p36
aS'27781231 | genistein | Accordingly, the residual acetaminophen content was obviously reduced and acetaminophen glucuronidation increased after 24 hours of treatment with genistein in a dose-dependent manner.'
p37
aS'28240227 | genistein | In this report, selected non-steroidal anti-inflammatory drugs (NSAIDs), indomethacin and nimesulide, and analgesics acetaminophen, alone, as well as in combination with isoflavone genistein as potential glycosaminoglycan (GAG) metabolism modulators were considered for the treatment of mucopolysaccharidoses (MPSs) with neurological symptoms due to the effective blood-brain barrier (BBB) penetration properties of these compounds.'
p38
aS'28240227 | genistein | We found that indomethacin and nimesulide, but not acetaminophen, inhibited GAG synthesis in fibroblasts significantly, while the most pronounced impairment of glycosaminoglycan production was observed after exposure to the mixture of nimesulide and genistein.'
p39
aS'28430162 | ginseng | The present study aimed to evaluate the potential hepatoprotective effects of black ginseng (BG) on APAP-induced mice liver injuries and the underlying mechanisms of action were further investigated for the first time.'
p40
aS'25495794 | ginseng | This work aimed at evaluating the effect of fermented ginseng (FG) and fermented red ginseng (FRG) against rat liver injury caused by paracetamol (acetaminophen (APAP)).'
p41
aS'15916450 | ginseng | Previously, we found that Korean red ginseng suppressed acetaminophen (APAP)-induced hepatotoxicity via alteration of its metabolic profile involving GSTA2 induction and that ginsenoside Rg3 was a major component of this gene induction.'
p42
aS'10445408 | grapefruit | However, interaction between acetaminophen (also known as paracetamol in many parts of the world) and grapefruit juice has never been reported.'
p43
aS'10445408 | grapefruit | The interaction of grapefruit juice with acetaminophen was examined in an in vivo mouse model.'
p44
aS'10445408 | grapefruit | BALB/c mice were fed 200 microL of white grapefruit juice or pink grapefruit juice by oral gavage (three mice in each group) followed by oral delivery of 10, 50, or 100 mg/kg acetaminophen 1 hour later.'
p45
aS'10445408 | grapefruit | White grapefruit juice increased concentrations of acetaminophen in mice both 1 hour and 2 hours after feeding compared to controls.'
p46
aS'10445408 | grapefruit | In contrast, pink grapefruit juice increased acetaminophen concentrations 2 hours after feeding compared to controls.'
p47
aS'10445408 | grapefruit | Because acetaminophen is almost completely absorbed these effects seems to be related to increased elimination half-life of acetaminophen because of interaction with grapefruit juice.'
p48
aS'9829623 | allium sativum | S-Allylmercaptocysteine (SAMC), one of the water-soluble organosulfur compounds in ethanol extracts of garlic (Allium sativum L.), has been shown to protect mice against acetaminophen (APAP)-induced liver injury.'
p49
aS'15916450 | allium sativum | Allium sativum (garlic) decreased the area under the plasma concentration-time curve (AUC) and maximum plasma concentration of saquinavir, but not ritonavir and paracetamol (acetaminophen), in volunteers.'
p50
aS'9795255 | phloretin | Intestinal glucuronidation and absorption of p-nitrophenol (p-NP), acetaminophen (APAP) and 1-naphthol (alpha-NA) in the presence of phloridzin (inhibitor of Na+/glucose cotransporter) and phloretin (aglycone of phloridzin) were studied.'
p51
aS'20657455 | gallic acid | Compounds including L-phenylalanine, L-serine, L-valine, urea, 4-acetaminophen, gallic acid and L-ascorbic acid were analyzed using both sources.'
p52
aS'19093450 | amoxycillin | In the present study, the possible drug interactions of andrographolide with co-administering drugs such as acetaminophen, amoxycillin, aspirin, chlorpheniramine and norfloxacin to treat various infectious and inflammatory diseases that may be induced during absorption process were examined using artificial lipophilic membrane and everted rat intestine.'
p53
aS'25663923 | amoxycillin | The patient was treated with morphine sulfate, metoclopramide, midazolam, diazepam, acetaminophen, ketamine, hyoscine butylbromide, propofol, dexamethasone and amoxycillin, and received parenteral nutrition.'
p54
aS'25660481 | cinnamaldehyde | Canine hepatocytes were harvested and cell viability of clove-leaf oil (CLO), eugenol (EUG), lemongrass oil (LGO), guanosine monophosphate (GMP), inosine monophosphate (IMP), sorbose, ginger-root extract (GRE), cinnamon-bark oil (CBO), cinnamaldehyde (CINA), thymol oil (TO), thymol (THYM), and citric acid were assessed with positive controls: acetaminophen (APAP), aflatoxin B1 and xylitol.'
p55
aS'2138998 | leukotriene b4 | We have studied discrete events in the process of signal transduction: NSAIDs but not a related analgesic drug (acetaminophen), inhibited aggregation in response to the chemoattractants f-Met-Leu-Phe (FMLP), leukotriene B4, and C5a.'
p56
aS'6307367 | leukotriene b4 | Leukotriene B4, glutathione disulfide, and the glutathione-S-conjugate of acetaminophen did not interfere with the transport of leukotriene C into hepatocytes.'
p57
aS'19969075 | arjunolic acid | Arjunolic acid also prevented acetaminophen-induced hepatic glutathione depletion and APAP metabolite formation although arjunolic acid itself did not affect hepatic glutathione levels.'
p58
aS'19969075 | arjunolic acid | The results suggest that this preventive action of arjunolic acid is due to the metabolic inhibition of specific forms of cytochrome P450 that activate acetaminophen to N-acetyl-p-benzoquinone imine.'
p59
aS'19969075 | arjunolic acid | In addition, administration of arjunolic acid 4 h after acetaminophen intoxication reduced acetaminophen-induced JNK and downstream Bcl-2 and Bcl-xL phosphorylation, thus protecting against mitochondrial permeabilization, loss of mitochondrial membrane potential, and cytochrome c release.'
p60
aS'19969075 | arjunolic acid | In conclusion, the data suggest that arjunolic acid affords protection against acetaminophen-induced hepatotoxicity through inhibition of P450-mediated APAP bioactivation and inhibition of JNK-mediated activation of mitochondrial permeabilization.'
p61
aS'25689681 | benzofuran | In addition to the expected activation of PPAR by fibrate drugs, di(2-ethylhexyl) phthalate, and perfluorinated compounds, PPAR was activated by benzofuran, galactosamine, and TCDD and suppressed by hepatotoxins acetaminophen, lipopolysaccharide, silicon dioxide nanoparticles, and trovafloxacin.'
p62
aS'8712683 | lipoamide | In common, both these proteins have a bis (cysteinyl) sequence motif cys-X-X-cys (for lipoamide dehydrogenase it is cys-X-X-X-X-cys) which is also an integral part of several other proteins such as thioredoxin, protein disulfide isomerase, endoplasmic reticulum protein (ERp72), selenoprotein W, 56kDa acetaminophen binding protein and formate dehydrogenase.'
p63
aS'2069597 | barium | Lambs suckled a test solution consisting of acetaminophen and barium sulfate and 1 week later were tube fed the same test solution.'
p64
aS'22560975 | crustaceans | Chronic toxicity of acetaminophen and lincomycin were evaluated using freshwater organisms including two crustaceans (Daphnia magna and Moina macrocopa) and a fish (Oryzias latipes).'
p65
aS'8125211 | uvaol | Uvaol significantly decreased CCl4- and Cd-induced hepatotoxicity, but had no effect on acetaminophen toxicity.'
p66
aS'890209 | unsaturated fatty acids | Acute injury to the liver frequently is due to the action of cytochrome P450, which breaks down drugs into electrophiles or free radicals; these reactive metabolites can covalently bind to protein and unsaturated fatty acids or induce lipid peroxidation, respectively.'
p67
aS'24788533 | caprolactam | Physical mixtures (PMs) and extruded formulations of PMOL with either polyvinyl caprolactam graft copolymer (Soluplus) or vinylpyrrolidone-vinyl acetate copolymer (Kollidon) in the solid state were characterized by using differential scanning calorimetry, hot-stage microscopy, and scanning electron microscopy.'
p68
aS'24280655 | cajanus cajan | The present work aims to evaluate the protective and ameliorative effects of two plant-derived proteins obtained from the seeds of Cajanus cajan and Caesalpinia gilliesii(Leguminosae) against the toxic effects of acetaminophen in kidney after chronic dose through determination of certain biochemical markers including total urea, creatinine, and kidney marker enzyme, that is, glyceraldehyde-3-phosphate dehydrogenase (GAPDH).'
p69
aS'24414985 | cajanus cajan | This study aims to evaluate two proteins derived from the seeds of the plants Cajanus cajan (Leguminosae) and Caesalpinia gilliesii (Leguminosae) for their abilities to ameliorate the toxic effects of chronic doses of acetoaminphen (APAP) through the determination of certain biochemical parameters including liver marker enzymes: alanine aminotransferase, aspartate aminotransferase, alkaline phosphatase, and total bilirubin.'
p70
aS'24816177 | oncorhynchus | The present study aimed to assess the toxic effects of acetaminophen (APAP) in Oncorhynchus mykiss following acute and chronic exposures in realistic levels.'
p71
aS'11351354 | punicalagin | In this study, the antihepatotoxic activity of punicalagin and punicalin on acetaminophen-induced toxicity in the rat liver was evaluated.'
p72
aS'11351354 | punicalagin | After evaluating the changes of several biochemical functions in serum, the levels of aspartate aminotransferase (AST) and alanine aminotransferase (ALT) were increased by acetaminophen administration and reduced by punicalagin and punicalin.'
p73
aS'12893300 | l-proline | A kinetic study of acetaminophen oxidation by tyrosinase in the presence of a physiological nucleophilic agent such as the amino acid L-proline is performed in the present paper.'
p74
aS'15062871 | tungsten | The progression of liver injury produced by the compounds causing oxidative stress without initiating the generation of free radicals such as bromobenzene (BB), or acetaminophen (AAP), could not be inhibited by tungsten.'
p75
aS'15754502 | vigna angularis | We examined the hepatoprotective effect of water-extract from adzuki bean (Vigna angularis) hulls on acetaminophen (AAP)-induced damage in rat liver.'
p76
aS'11791733 | ajoene | Ajoene, a garlic-derived sulfur-containing compound, exhibited a hepatoprotective effect against acetaminophen-induced liver injury in mice.'
p77
aS'11791733 | ajoene | The pretreatment by ajoene also suppressed the decrease in hepatic protein thiol content resulting from acetaminophen administration.'
p78
aS'3544930 | acetol | As direct evidence that P-450ALC catalyzes numerous metabolic reactions, the purified rabbit enzyme has been used in a reconstituted system to demonstrate various metabolic transformations, including the oxidation of various alcohols, acetone, acetol, p-nitrophenol, and aniline, the dealkylation of substituted nitrosamines, the reductive dechlorination of carbon tetrachloride, carbon tetrachloride-induced lipid peroxidation, and acetaminophen activation to form the glutathione conjugate.'
p79
aS'3825173 | haem | In the case of cytochrome P-450b, the acetylamino group of paracetamol most closely approached the haem iron ion.'
p80
aS'2219115 | (-)-borneol | The in vitro activity of UGTs was evaluated using different substrates such as estradiol (UGT1A1), acetaminophen (UGT1A6/7), morphine (UGT2B1), testosterone (UGT2B1/3/6), androsterone (UGT2B2), and (-)-borneol (UGT2B12).'
p81
aS'8878354 | phenylacetate | Chemical biopsy of glucuronic acid by acetaminophen also permits the study of glycogen synthesis whereas chemical biopsies of liver glutamine by phenylacetate and of cytosolic acetyl-CoA by sulfamethoxazole give important information concerning, respectively, Krebs cycle activity and glconeogenesis and on lipogenesis and cholesterol synthesis.'
p82
aS'7989593 | phenylacetate | To determine the effect of insulin-dependent diabetes mellitus (IDDM) on rates and pathways of hepatic glycogen synthesis, as well as flux through hepatic pyruvate dehydrogenase, we used 13C-nuclear magnetic resonance spectroscopy to monitor the peak intensity of the C1 resonance of the glucosyl units of hepatic glycogen, in combination with acetaminophen to sample the hepatic UDP-glucose pool and phenylacetate to sample the hepatic glutamine pool, during a hyperglycemic-hyperinsulinemic clamp using [1-13C]-glucose.'
p83
aS'9815005 | phenylacetate | Anaplerotic, pyruvate recycling, and gluconeogenic fluxes were measured by 13C isotopomer analysis of plasma glucose, urinary phenylacetylglutamine, and urinary glucuronide in normal, 24-h-fasted individuals after ingestion of [U-13C]propionate, phenylacetate, and acetaminophen.'
p84
aS'1865562 | phenylacetate | Thus, glucuronide formation has been used to sample hepatic uridine diphosphate glucose (UDP-glucose) and study glycogen metabolism and the pentose pathway, phenylacetate to sample hepatic alpha-ketoglutarate and estimate relative flux through the Krebs cycle, and acetylation to sample hepatic acetyl CoA.'
p85
aS'3356406 | polyamines | Polyamines and acetylpolyamines were analyzed in the liver, spleen, lung, kidney, serum and urine by high-performance liquid chromatography on a column of cation-exchange resin after administering various cytotoxic substances to male mice.'
p86
aS'3356406 | polyamines | All of the compounds tested more or less affected the tissue levels of polyamines, including putrescine, spermidine, spermine and acetylpolyamines (N1-acetylspermidine and N1-acetylspermine).'
p87
aS'16359826 | polyamines | In vitro, transglycation occurs readily with amino acids, polyamines, thiols and thiolamines.'
p88
aS'22433041 | asparagus | In this study, the effect of Asparagus falcatus extract on acetaminophen-induced liver injury was investigated in vivo.'
p89
aS'20354348 | nobiletin | Nobiletin, the most important compound in the n-hexane-soluble fraction, also had suppressive effects on liver injuries induced by carbon tetrachloride, acetaminophen and GalN/lipopolysaccharide (LPS) in addition to liver injury induced GalN.'
p90
aS'11330834 | proanthocyanidins | Specifically, some of our earlier studies have shown that IH636 grape seed proanthocyanidin extract (GSPE, commercially known as ActiVin) provides excellent concentration- and dose-dependent protection against toxicities induced by diverse agents, such as acetaminophen, hydrogen peroxide, 12-O-tetradecanoylphorbol-13-acetate (TPA), smokeless-tobacco extract, idarubicin and 4-hydroxyperoxycyclophosphamide in both in vitro and in vivo models.'
p91
aS'11334361 | proanthocyanidins | This study assessed the ability of IH636 grape seed proanthocyanidin extract (GSPE) to prevent acetaminophen (AAP)-induced nephrotoxicity, amiodarone (AMI)-induced lung toxicity, and doxorubicin (DOX)-induced cardiotoxicity in mice.'
p92
aS'26175014 | selenite | Of the chemicals examined, 13-cis-retinoic acid, ethanol, ibuprofen, lead acetate, salicylic acid, and selenate inhibited the migration of cNCCs at their embryotoxic concentrations; no effects were observed for acetaminophen, caffeine, indium, phenytoin, selenite, tributyltin, and valproic acid.'
p93
aS'2901147 | selenite | Pretreatment of male, Sprague-Dawley rats with sodium selenite (12.5 mumol Se/kg, ip) 24 hr prior to acetaminophen administration produced a significant protection against the hepatotoxic effects of acetaminophen as assessed by a decrease in the plasma appearance of alanine aminotransferase and aspartate aminotransferase activities following acetaminophen.'
p94
aS'9687086 | kaurenoic acid | It was found that such fractions as well as kaurenoic acid and luteolin exhibit marked antinociceptive action in mice using acetic acid-induced writhing.'
p95
aS'8619244 | molybdate | However, we recently reported that molybdate decreases the sulfation of acetaminophen in rat liver.'
p96
aS'8033252 | molybdate | Administration of molybdate, which is an alternative substrate for intestinal and renal sulfate transport as well as for ATP-sulfurylase, depleted both sulfate and PAPS in liver and markedly inhibited sulfation of acetaminophen.'
p97
aS'7932164 | molybdate | The effect of molybdate on the pharmacokinetics of acetaminophen (AA, 150 mg/kg i.v.)'
p98
aS'15486947 | 2-amino-3-methylimidazo[4,5-f]quinoline | In order to cast light on carcinogen-specific molecular mechanisms underlying experimental hepatocarcinogenesis in rats, in vivo mutagenicity and mutation spectra of known genotoxic rat hepatocarcinogens N-nitrosopyrrolidine (NPYR), and 2-amino-3-methylimidazo[4,5-f]quinoline (IQ), as well as the nongenotoxic hepatocarcinogen di(2-ethylhexyl)phthalate (DEHP) and the noncarcinogen acetaminophen (AAP), were investigated in guanine phosphoribosyltransferase (gpt) delta transgenic rats, a recently developed animal model for genotoxicity analysis.'
p99
aS'23723564 | safrole | The genotoxic carcinogens 2-acetylaminofluorene (2-AAF), 2-amino-3-methylimidazo [4,5-f] quinolone (IQ) and safrole (SF), the non-genotoxic carcinogens piperonyl butoxide (PBO) and phenytoin (PHE), the non-carcinogen acetaminophen (APAP) and the genotoxic non-hepatocarcinogen aristolochic acid (AA) were tested to validate the GPG46 model.'
p100
aS"14738926 | 4'-hydroxyacetophenone | A high-performance liquid chromatography (HPLC) method has been developed and validated for the simultaneous determination of n-propionyl-p-aminophenol, 3-chloro-4-hydroxyacetanilide, 4'-hydroxyacetophenone, 4-hydroxyacetophenone oxime, 4-acetoxyacetanilide and 4'-chloroacetanilide, the main impurities in acetaminophen drug substance."
p101
aS'25519295 | acetoacetate | The interferences assessed included acetoacetate, acetaminophen, ascorbic acid, galactose, maltose, uric acid, and sodium.'
p102
aS'28112939 | methylparaben | Molecular dynamics simulations were employed to both estimate the solubility of nonelectrolyte solids, such as acetanilide, acetaminophen, phenacetin, methylparaben, and lidocaine, in supercritical carbon dioxide and understand the underlying molecular-level driving forces.'
p103
aS'28300022 | methylparaben | The method provided a precise estimation of PPCPs in field samples, and acetaminophen, atenolol, metformin, sulfamethoxazole, carbamazepine, methylparaben, and triclosan were detected in concentrations ranging from 0.10 to 1.40 and 0.10 to 3.4 ng/mL in surface water and sewage water, respectively.'
p104
aS'26175014 | selenate | Of the chemicals examined, 13-cis-retinoic acid, ethanol, ibuprofen, lead acetate, salicylic acid, and selenate inhibited the migration of cNCCs at their embryotoxic concentrations; no effects were observed for acetaminophen, caffeine, indium, phenytoin, selenite, tributyltin, and valproic acid.'
p105
aS'19609937 | l-glutamate | We assessed the sensitivity of HUCB-NSCs at different developmental stages to a panel of neurotoxic (sodium tellurite, methylmercury chloride, cadmium chloride, chlorpyrifos, and L-glutamate) and non-neurotoxic (acetaminophen, theophylline, and D-glutamate) compounds.'
p106
aS'22781444 | moringa oleifera | The present study was to investigate the therapeutic effects of the hydroethanolic extract of Moringa oleifera (MO) leaves and flowers against hepatotoxicity induced by acetaminophen (APAP) in rats.'
p107
aS'28066249 | 4-hydroxyphenylacetic acid | For evaluation of the expression of CYP2E1 in different herbal treatment samples, the mice were treated by oral gavage for 3 days with alcohol (50% 15 mL/kg), acetaminophen (APAP, 300 mg/kg), Cornus officinalis extract (100 mg/kg), Alhagi-honey extract (100 mg/kg), Apocynum venetum extract (100 mg/kg), hyperoside (50 mg/kg), isoquercetin (50 mg/kg), 4-hydroxyphenylacetic acid (50 mg/kg), 3-hydroxyphenylacetic acid (50 mg/kg), and 3,4-hydroxyphenylacetic acid (50 mg/kg).'
p108
aS'26857812 | maltodextrin | The inclusion of the thickener, comprised of xanthan gum and maltodextrin, had a considerable impact on dissolution; acetaminophen release from modified medications reached 12-50% in 30min, which did not reflect the pharmacopeia specification for immediate release preparations.'
p109
aS'17964129 | maltodextrin | Powder mixtures containing acetaminophen, mannitol, erythritol, maltodextrin, crospovidone, colloidal silicon dioxide and polyoxyethylene 20 sorbitan monooleate were prepared via co-spray drying.'
p110
aS'18363140 | maltodextrin | Four-component mixtures containing acetaminophen, mannitol, erythritol, and maltodextrin were produced by cospray drying.'
p111
aS'17576058 | maltodextrin | Powder mixtures containing acetaminophen, mannitol, erythritol and different maltodextrin types were prepared via co-spray drying and physically mixed with crospovidone (6% w/w, Kollidon CL) in order to evaluate the influence of maltodextrin grade (amylose/amylopectin ratio) on powder hygroscopicity, flowability, density and compactability.'
p112
aS'17317123 | maltodextrin | Erythritol, lactose, maltodextrin, and mannitol were efficient in co-spray drying with acetaminophen.'
p113
aS'9121721 | gentisic acid | There were no reductions of the amyloid beta protein activations by acetylsalicylic acid (ASA), gentisic acid, sulindac sulfone and acetaminophen.'
p114
aS'1334228 | gentisic acid | Mechanisms of proton transport were investigated in planar phospholipid bilayer membranes exposed to aspirin (acetylsalicylic acid), acetaminophen (4-acetamidophenol), benzoic acid and three aspirin metabolites (salicylic acid, gentisic acid and salicyluric acid).'
p115
aS'4061463 | gentisic acid | The in vitro effects of ascorbic acid, acetaminophen, salicylic acid, and gentisic acid on home blood-glucose-measurement systems were studied.'
p116
aS'21644253 | gentisic acid | A simple and sensitive method has been developed for the simultaneous determination of polar nonsteroidal pharmaceuticals and metabolites, including acetaminophen, p-aminophenol and several aspirin metabolites (salicylic acid, gentisic acid, salicyluric acid and 2,3-dihydroxybenzoic acid), by capillary liquid chromatography with amperometric detection.'
p117
aS'27058600 | a. cepa | The objective of this study was to evaluate the action of Hymenaea stigonocarpa bark hydroalcoholic extract against a mutagenic compound using A. cepa meristematic root cells as a test system.'
p118
aS'27058600 | a. cepa | Furthermore, the three ST concentrations significantly reduced the number of cell aberrations when compared to the number of aberrant cells obtained for the PC, demonstrating antimutagenic action on the A. cepa test system cells.'
p119
aS'17132218 | rubus | This study investigated the mutagenic, anti-mutagenic and cytotoxic effects of acetone extract of raspberry, Rubus idaeus L. (v. Ottawa) Rosaceae, and the isolated and characterized ellagitannin and anthocyanin fractions thereof, suitable for food applications.'
p120
aS'25119859 | almond | In the present study, we investigated the role of almond (Prunus amygdalus) skin procyanidins (ASP) in regulating the protein expression of phase II detoxifying and antioxidant enzymes in HepG2 cells and acetaminophen (APAP)-treated hepatotoxic mice.'
p121
aS'24251357 | glycyrrhizin | The present study was to investigate the effects of giving N-acetylcysteine (NAC) alone and in combination with either glycyrrhizin (GL), silibinin (SIB) or spironolactone (SL) on the plasma pharmacokinetic (PK) profiles, hepatic exposure, biliary excretion and urinary excretion of acetaminophen (APAP) and its major metabolite, acetaminophen glucuronide (AG).'
p122
aS'22821628 | glycyrrhizin | Meanwhile, serum high-mobility group box 1 (HMGB1), a damage-associated molecule released from necrotic hepatocytes, increased after acetaminophen challenge, and the HMGB1 inhibitor glycyrrhizin markedly reduced the production of IL-23 and IL-17A and the recruitment of hepatic neutrophils.'
p123
aS'25032255 | glycyrrhizin | The present study aimed to give a short report on a possible mechanism of glycyrrhizin to acetaminophen-induced liver toxicity.'
p124
aS'25032255 | glycyrrhizin | Seven-day intraperitoneal administration of glycyrrhizin (400 mg/kg/day) to 2- to 3-month-old male C57BL/6N mice (mean weight 27 g) significantly prevents acetaminophen-induced liver damage, as indicated by the activity of alanine transaminase and aspartate aminotransferase.'
p125
aS'25032255 | glycyrrhizin | The treatment of glycyrrhizin significantly reversed the increased levels of long-chain acylcarnitines induced by acetaminophen administration.'
p126
aS'25032255 | glycyrrhizin | In conclusion, this metabolomic study indicates a significant glycyrrhizin protection effect against acetaminophen-induced liver damage through reversing fatty acid metabolism.'
p127
aS'16216454 | isorhamnetin | In this study, the effect of the flavonoids quercetin-3-methyl-ether (isorhamnetin) (1), quercetin-3,7-dimethyl-ether (2) and kaempferol-3,7-dimethyl-ether (3) isolated from Cistus laurifolius L. (cistaceae) leaves was assessed on lipid peroxidation (liver and plasma), cellular glutathione (GSH) level and plasma AST (aspartate aminotransferase), ALT (alanine aminotransferase) enzyme activities in acetaminophen-induced liver damage in mice.'
p128
aS'17045319 | isorhamnetin | This occurred as a result of CYP3A induction by ginkgolide A because triacetyloleandomycin (TAO), a specific inhibitor of CYP3A catalytic activity, completely blocked the effect of ginkgolide A. Ginkgolide B, ginkgolide C, ginkgolide J, quercetin, kaempferol, isorhamnetin, and isorhamnetin-3-O-rutinoside did not alter the extent of LDH leakage by acetaminophen.'
p129
aS'25447604 | thymoquinone | We aimed to investigate efficacy of intraperitoneally administered Thymoquinone (TQ) in acetaminophen (APAP) induced renal toxicity.'
p130
aS'17045319 | ginkgo biloba | The present cell culture study investigated the effect of Ginkgo biloba extract pretreatment on acetaminophen toxicity and assessed the role of ginkgolide A and cytochrome P450 3A (CYP3A) in hepatocytes isolated from adult male Long-Evans rats provided ad libitum with a standard diet.'
p131
aS'10809284 | phytomenadione | To investigate the effects of the association of inhaled nitric oxide (iNO) and oxidant drugs (acetaminophen, phytomenadione, and EMLA cream) on methemoglobinemia during the neonatal period.'
p132
aS'10190184 | corylus avellana | Our study investigated the effects of Corylus avellana extract on acetaminophen and carbon tetrachloride intoxicated liver of young rats.'
p133
aS'27207064 | yttrium | An electrochemical sensor was prepared by modifying a glassy carbon electrode (GCE) with a composite of yttrium (III) oxide nanoparticles (Y2O3NPs) and carbon nanotubes (CNTs) for the determination of acetaminophen (ACT).'
p134
aS'15319808 | yttrium | This issue focuses on the following selection of drugs: 166Ho-DOTMP 5A8; A-179578, abetimus sodium, adefovir dipivoxil, AGI-1067, AIDSVAX gp120 B/B, AK-602, alefacept alemtuzumab, aliskiren fumarate, ALVAC vCP1433, ALVAC vCP1452, anecortave acetate, arzoxifene hydrochloride, atazanavir sulfate, atlizumab, avasimibe; Binodenoson, BMS-488043; Choriogonadotropin alfa, ciclesonide, COL-1621, CVT-3146, CVT-E002, Cypher; Daptomycin, darbepoetin alfa, darunavir, D-D4FC, deferasirox, desloratadine, desmoteplase, duloxetine hydrochloride, DX-9065a; E-5564, efalizumab, emfilermin, emivirine, emtricitabine, enfuvirtide, estradiol acetate, ezetimibe; Frovatriptan; Gallium maltolate, gefitinib; HIV-1 Immunogen, human insulin; Iguratimod, IL-4/IL-13 Trap, imatinib mesylate, inhaled insulin, insulin glargine, irofulven, ISS-1018, ivabradine hydrochloride; Lutropin alfa; Melatonin; Nesiritide; O6-Benzylguanine, omapatrilat, oritavancin, ospemifene; Parecoxib sodium, peginterferon alfa-2a, pexelizumab, pimecrolimus, pirfenidone, pramlintide acetate, prasterone sulfate PT-141; Rasburicase, razaxaban hydrochloride, recombinant malaria vaccine, rhBMP-2/ACS, roflumilast, rosiglitazone maleate/metformin hydrochloride, rotavirus vaccine; SCH-D, sitaxsentan sodium, solifenacin succinate; Targinine hydrochloride, taxus, TER-199, tramadol hydrochloride/acetaminophen; Valdecoxib, valganciclovir hydrochloride, vatalanib succinate, VEG Trap(R1R2); Ximelagatran; Yttrium Y90 Epratuzumab.'
p135
aS'15319815 | yttrium | This issue focuses on the following selection of drugs: 101M; Adalimumab, adefovir dipivoxil, adenosine triphosphate, albumin interferon alfa, alefacept, alemtuzumab, aminolevulinic acid hexyl ester, autologous renal tumor vaccine, azimilide hydrochloride; Bortezomib, bosentan, BR-1; C340, cantuzumab mertansine, caspofungin acetate, CGP-36742, CHAMPION everolimus-eluting coronary stent, cypher; Dalbavancin, darbepoetin alfa, desloratadine, duloxetine hydrochloride, dutasteride; Efalizumab, emtricitabine, enfuvirtide, erlosamide, ertapenem sodium, everolimus, ezetimibe; Flesinoxan hydrochloride, fosamprenavir calcium, FR-901228, frovatriptan; Gadofosveset sodium, gadomer-17, galiximab, gamma-hydroxybutyrate sodium, gefitinib; HuOKT3gamma1(Ala234-Ala235); IDN-6556, imatinib mesylate, iodine (I131) tositumomab, iseganan hydrochloride, ixabepilone; Keratinocyte growth factor; LB-80380, levocetirizine, liposomal doxorubicin, LMB-9, lopinavir, lopinavir/ritonavir, lumiracoxib, lurtotecan; Mecasermin, midostaurin, morphine hydrochloride; Natalizumab, nelfinavir, nesiritide, niacin/lovastatin; Olcegepant, omalizumab, oregovomab; Parecoxib sodium, PEG-filgrastim, peginterferon alfa-2a, peginterferon alfa-2b, peginterferon alfa-2b/ ribavirin, perospirone hydrochloride, pexelizumab, pimecrolimus, prinomastat; Resiquimod, rhIGFBP-3, rhIGF-I/rhIGFBP-3, ritanserin, ro-31-7453, rosuvastatin calcium; SCIO-469, SDZ-SID-791, SU-11248, suberanilohydroxamic acid; Tadalafil, taxus, telithromycin, tenofovir disoproxil fumarate, TER-286, tezosentan disodium, TH-9507, tipifarnib, tipranavir, tolvaptan, tramadol hydrochloride/acetaminophen, travoprost, treprostinil sodium, tucaresol; Valganciclovir hydrochloride, val-mCyd, vardenafil hydrochloride hydrate, vinflunine, voriconazole; Ximelagatran, XTL-002; Yttrium 90 (90Y) ibritumomab tiuxetan.'
p136
aS'25770447 | cholestanol | In this study, 13 wastewater chemicals (chloride, boron, orthosphophate, detergents as methylene blue active substances, cholesterol, cholestanol, coprostanol, diethylhexyl phthalate, caffeine, acetaminophen, ibuprofen, sucralose and saccharin) were investigated in order to evaluate tracers for human faecal and sewage contamination in tropical urban catchments.'
p137
aS'19446955 | wheat | In order to assess ecological risk of pharmaceutical compounds entering into agricultural ecosystems, toxic effects of paracetamol with therapeutic action on wheat (Triticum aestivum L.) were investigated as an example, using early growing and developmental indexes of wheat, including seed germination, shoot height and root length, peroxidase, superoxide dismutase, chlorophyll, and soluble protein in the seedlings.'
p138
aS'17484515 | valerenic acid | Valerenic acid also demonstrated significant inhibitory effects on the glucuronidation of acetaminophen, oestradiol, and morphine with both microsomes and expressed UGTs.'
p139
aS'21305852 | syringic acid | The protective effect of the phenolic compound syringic acid, one of the major benzoic acid derivatives from edible plants and fruits, was evaluated against acetaminophen (APAP)-induced hepatotoxicity in rats.'
p140
aS'14629735 | ice cream | The effect of added food mixture (as if food was present in the stomach of an intoxicated patient) or 4 different types of ice cream (added as a flavouring and lubricating agent) on the adsorption of paracetamol (acetaminophen) to 2 formulations of activated charcoal was determined in vitro and compared with results from previous investigations showing a maximum adsorption capacity to the two activated charcoal-water slurries at about 0.62-0.72 g paracetamol/g activated charcoal.'
p141
aS'28194962 | carbamate | A targeted reversed-phase gradient UPLC-MS/MS assay has been developed for the quantification /monitoring of 66 amino acids and amino-containing compounds in human plasma and serum using precolumn derivatization with 6-aminoquinolyl-N-hydroxysuccinimidyl carbamate (AccQTag Ultra).'
p142
aS'15724487 | carbamate | The selected substances included methanol, barbital drugs, benzodiazepines, tricyclic or tetracyclic antidepressants, methamphetamine, acetaminophen, salicylic acid, bromovalerylurea, organophosphorus pesticides, carbamate pesticides, paraquat, glufosinate, cyanides, arsenic, and theophylline.'
p143
aS'10444831 | carbamate | The procedures were successfully applied to the determination of phenolic drugs (epinephrine, acetaminophen, and gualacol) in pharmaceuticals and carbamates (bendiocarb, benfuracarb, carbaryl, carbofuran, methiocarb, promecarb, and propoxur) in pesticide products and water samples.'
p144
aS'8125211 | ursolic acid | In conclusion, among the 10 triterpenoid compounds examined, alpha-hederin, ursolic acid, and oleanolic acid appear to be the most effective in protecting against CCl4-, acetaminophen-, and Cd-induced liver injury.'
p145
aS'26067340 | hippuric acid | Four model samples, acetaminophen, metronidazole, quinine, and hippuric acid, dissolved in three kinds of common buffers were used in the SPR-DART-MS experiments for performance evaluation of the interface and the optimization of DART conditions.'
p146
aS'6269779 | hippuric acid | Hippuric acid is separated and quantitated on a reversed-phase column under conditions similar to those used for assay of theophylline and acetaminophen.'
p147
aS'15983950 | hippuric acid | Methanol, ethylene glycol, acetone, ethanol, d -lactate, and hippuric acid screens were negative.'
p148
aS'18472313 | trigonelline | ferulic acid), trigonelline, S-adenosyl-L-methionine, and energy-related metabolites indicated that oxidative stress was caused by acute and chronic acetaminophen administration.'
p149
aS'24325902 | domoic acid | Spontaneous firing rate in primary cortical cultures was increased by bicuculline (BIC), lindane (LND), RDX and picrotoxin (PTX); not changed by nicotine (NIC), acetaminophen (ACE), and glyphosate (GLY); and decreased by muscimol (MUS), verapamil (VER), fipronil (FIP), fluoxetine (FLU), chlorpyrifos oxon (CPO), domoic acid (DA), deltamethrin (DELT) and dimethyl phthalate (DMP).'
p150
aS'27492221 | domoic acid | Rat (0-24 h old) primary cortical cells were plated in 48 well-MEA plates and exposed to 6 compounds: acetaminophen, bisindolylmaleimide-1 (Bis-1), domoic acid, mevastatin, sodium orthovanadate, and loperamide for a period of 12 days.'
p151
aS'24148773 | 3,5-di-o-caffeoylquinic acid | The ethyl acetate (EA) fraction of G. koraiensis and its major compound, 3,5-di-O-caffeoylquinic acid (DCQA), exerted protective effects in the t-BHP-induced liver cytotoxicity model.'
p152
aS'20020764 | l-leucine | The initial performance of the microplasma device has been evaluated by ionizing samples containing dimethyl sulfoxide (DMSO), dimethylformamide (DMF), methyl salicylate, caffeine, l-leucine, l-histidine, loratadine, ibuprofen, acetaminophen, acetylsalicylic acid, and cocaine in various forms.'
p153
aS'17045319 | ginkgolide c | The present cell culture study investigated the effect of Ginkgo biloba extract pretreatment on acetaminophen toxicity and assessed the role of ginkgolide A and cytochrome P450 3A (CYP3A) in hepatocytes isolated from adult male Long-Evans rats provided ad libitum with a standard diet.'
p154
aS'17045319 | ginkgolide c | At the level present in a modulating concentration (50 mug/ml) of the extract, ginkgolide A (0.55 mug/ml), which increased CYP3A23 mRNA levels and CYP3A-mediated enzyme activity, accounted for part but not all of the potentiating effect of the extract on acetaminophen toxicity.'
p155
aS'17045319 | ginkgolide c | This occurred as a result of CYP3A induction by ginkgolide A because triacetyloleandomycin (TAO), a specific inhibitor of CYP3A catalytic activity, completely blocked the effect of ginkgolide A. Ginkgolide B, ginkgolide C, ginkgolide J, quercetin, kaempferol, isorhamnetin, and isorhamnetin-3-O-rutinoside did not alter the extent of LDH leakage by acetaminophen.'
p156
aS'17045319 | ginkgolide c | In summary, G. biloba pretreatment potentiated acetaminophen toxicity in cultured rat hepatocytes and ginkgolide A contributed to this novel effect of the extract by inducing CYP3A.'
p157
aS'8742516 | nicotinic acid | While the PARP-activity remained essentially unchanged, the acetaminophen-induced release of both GOT and GPT from injured liver cells could be inhibited by 90-99%, when mice were injected additionally with the selective PARP-inhibitors nicotinic acid amide, benzamide, caffeine, theophyline, and thymidine, respectively.'
p158
aS'8742498 | nicotinic acid | Recently, we demonstrated the hepatoprotective effects of nicotinic acid amide, a selective inhibitor of poly(ADP-ribose) polymerase (PARP; EC 2.4.2.30) on mice suffering from acetaminophen (AAP)-hepatitis, suggesting that the AAP-induced liver injury involves a step which depends on adenoribosylation.'
p159
aS'18462991 | nicotinic acid | Four aromatic medicines (acetaminophen; niacinamide; p-aminophenol; nicotinic acid) containing nitrogen were investigated by FT-NIR (Fourier transform near-infrared) spectroscopy and generalized two-dimensional (2D) correlation spectroscopy.'
p160
aS'19634356 | nicotinic acid | A steel surface was soiled with solutions of acetaminophen, nicotinic acid, diclofenac, and benzamidine and wiped with each swabbing material.'
p161
aS'3171878 | nicotinic acid | trimetoquinol, TA-594, acetaminophen, naproxen and nicotinic acid, were synthesized and administered orally to rats cannulated in the thoracic duct.'
p162
aS'6083701 | beta-phenethyl alcohol | Acetaminophen-induced hepatotoxicity was not accentuated by beta-phenethyl alcohol or ethanol pretreatment.'
p163
aS'2356011 | s-carboxymethyl-l-cysteine | Patients with AD, compared with controls, have reduced sulfoxidation of the probe drug S-carboxymethyl-L-cysteine; they also form less of the sulfate conjugate of acetaminophen.'
p164
aS'27668721 | barley | The present work aimed to assess the ecotoxicological relevance of acetaminophen (AC) and nickel oxide nanomaterial (nano-NiO) to barley plants.'
p165
aS'18022931 | yogurt | The acetaminophen group received 200 mg/kg/day of acetaminophen suspended in yogurt via oral gavage for 120 days.'
p166
aS'12834962 | pantothenic acid | The drugs evaluated were analgesics (acetaminophen, aspirin, codeine, methadone, morphine and pethidine), antibiotics (amoxicillin, ampicillin, gentamicin, neomycin, penicillin G and vancomycin), antipsychotics (chlorpromazine, fluphenazine, prochlorperazine, promazine and thioridazine) and water-soluble vitamins (ascorbic acid, niacinamide, pantothenic acid and pyridoxine).'
p167
aS'21239480 | sesamol | We investigated the anti-hepatotoxic effects of sesamol and N-acetylcysteine on acetaminophen-induced hepatotoxicity in mice.'
p168
aS'21239480 | sesamol | Equimolar doses (1 mmol/kg) of sesamol and N-acetylcysteine significantly inhibited acetaminophen (300 mg/kg)-increased serum aspartate transaminase and alanine transaminase levels 6 h post-administration.'
p169
aS"21239480 | sesamol | Moreover, the combination of sesamol and N-acetylcysteine antagonistically inhibited sesamol's protection against acetaminophen-induced liver injury."
p170
aS'21239480 | sesamol | We conclude that the protective effect of sesamol against acetaminophen-induced liver damage is comparable to that of N-acetylcysteine by maintaining glutathione levels and inhibiting lipid peroxidation in mice.'
p171
aS'27427136 | pomegranate | To observe the ameliorating effect by methanolic extract of pomegranate peel in acetaminophen-induced hepatotoxicity.'
p172
aS'23414233 | d-mannitol | Spherical agglomerates of lactose were shown to enhance the nucleation rate of acetaminophen (AAP) by a factor of 11 compared to single crystal lactose; however, no such enhancement was observed for D-mannitol.'
p173
aS'10999435 | arctium lappa | Rats were divided into 4 groups: normal control group, Arctium lappa extract group, acetaminophen-injected group, and acetaminophen treated with Arctium lappa extract group.'
p174
aS'25350500 | arctium lappa | To investigate the ameliorative effects of Arctium lappa root extract on acetaminophen-induced hepatotoxicity.'
p175
aS'27069723 | c. papaya | This study investigated the hepatomodulatory effects of aqueous extracts of C. papaya leaf (CPL) and unripe fruit (CPF) at doses of 100 and 300 mg/kg on carbon tetrachloride (CCl4) and acetaminophen (ACM)-induced liver toxicities in rats.'
p176
aS'20734624 | linum usitatissimum | Phytoremediation of selected pharmaceuticals (diclofenac, ibuprofen, and acetaminophen) using Armoracia rusticana and Linum usitatissimum cell cultures and by hydroponically cultivated Lupinus albus, Hordeum vulgaris, and Phragmites australis plants in laboratory conditions is described.'
p177
aS'19446955 | triticum aestivum | In order to assess ecological risk of pharmaceutical compounds entering into agricultural ecosystems, toxic effects of paracetamol with therapeutic action on wheat (Triticum aestivum L.) were investigated as an example, using early growing and developmental indexes of wheat, including seed germination, shoot height and root length, peroxidase, superoxide dismutase, chlorophyll, and soluble protein in the seedlings.'
p178
aS"20052997 | mn2+ | The data generated in the current work provide the basic information on the effect of bivalent cations, namely, Ca2+, Zn2+ and Mn2+, on the HPMMs' solubility and, consequently, on the performances (disintegration and drug dissolution) of acetaminophen gastroresistant tablets when exposed to fluid containing such salts."
p179
aS'8216352 | lignan | The preventive effect of gomisin A, a lignan component of shizandra fruits, on acetaminophen-induced hepatotoxicity in rats was examined by histological and biochemical analysis.'
p180
aS'11724372 | lignan | A methanolic extract and two fractions (n-hexane and ethyl acetate) from Virola oleifera leaves and some compounds (one lignan and two flavonoids) were investigated to verify the analgesic activity by using the writhing test in mice.'
p181
aS'8987111 | lignan | Gomisin A (Go), a lignan component of shizandra fruits, protects the liver from injury by acetaminophen (AAP).'
p182
aS'6291543 | carbon disulfide | Diethyldithiocarbamate (DTC) and carbon disulfide (CS2), at nearly equimolar oral dose levels, protected mice against liver damage induced by carbon tetrachloride, chloroform, bromotrichloromethane, thioacetamide, bromobenzene, furosemide, acetaminophen, dimethylnitrosamine and trichloroethylene, as evidenced by the suppression of elevations in plasma GPT activity and liver calcium content, and of histopathological alterations.'
p183
aS'9120830 | oxalate | A thermodynamic analysis of the energy transformations occurring within pharmaceutical tablets during the unloading phase of compaction was performed on Avicel, calcium phosphate, acetaminophen, and calcium oxalate.'
p184
aS'25862331 | oxalate | Among these, control group treated with 12mM acetaminophen produced significantly elevated levels (50-80%) of lactate dehydrogenase (LDH), catalase (CAT), glutamate oxalate transaminase (GOT), glutamate pyruvate transaminase (GPT), and malondialdehyde (MDA), and significantly decreased the levels (60-75%) of superoxide dismutase (SOD) and glutathione peroxidase (GSH-Px).'
p185
aS'18389098 | oxalate | This issue focuses on the following selection of drugs: 101M, 3F8; Abatacept, ABT-263, Adalimumab, AG-7352, Agatolimod sodium, Alfimeprase, Aliskiren fumarate, Alvimopan hydrate, Aminolevulinic acid hexyl ester, Ammonium tetrathiomolybdate, Anakinra, Aripiprazole, AS-1404, AT-9283, Atomoxetine hydrochloride, AVE-1642, AVE-9633, Axitinib, AZD-0530; Becocalcidiol, Belotecan hydrochloride, Bevacizumab, BG-9928, BIBF-1120, BMS-275183, Bortezomib, Bosentan; Catumaxomab, Cetuximab, CHR-2797, Ciclesonide, Clevidipine, Cypher, Cytarabine/daunorubicin; Darifenacin hydrobromide, Darunavir, Denosumab, Desvenlafaxine succinate, Disufenton sodium, Duloxetine hydrochloride, Dutasteride; Eculizumab, Efalizumab, Eicosapentaenoic acid/docosahexaenoic acid, Eplerenone, Epratuzumab, Erlotinib hydrochloride, Escitalopram oxalate, Ethynylcytidine, Etravirine, Everolimus, Ezetimibe; Fulvestrant; Garenoxacin mesilate, Gefitinib, Gestodene; HI-164, Hydralazine hydrochloride/isosorbide dinitrate; Icatibant acetate, ICX-RHY, Idraparinux sodium, Indacaterol, Ispronicline, Ivabradine hydrochloride, Ixabepilone; KB-2115, KW-2449; L-791515, Lapatinib ditosylate, LGD-4665, Licofelone, Liposomal doxorubicin, Lisdexamfetamine mesilate, Lumiracoxib; Methoxy polyethylene glycol-epoetin-beta, Miglustat, Mipomersen sodium, Mitumprotimut-T, MK-0822A, MK-0974; Nelarabine; Obatoclax mesylate, Olmesartan medoxomil, Olmesartan medoxomil/hydrochlorothiazide; Paliperidone, Palonosetron hydrochloride, Panitumumab, Pegfilgrastim, Peginterferon alfa-2a, Pemetrexed disodium, Perospirone hydrochloride, Pertuzumab, Pimecrolimus, Pitrakinra, Pixantrone maleate, Posaconazole, Pregabalin; Quercetin; RALGA, Raltegravir potassium, Ranelic acid distrontium salt, rhHistone 1.3, Rimonabant, Rivaroxaban, Rosuvastatin calcium, RTS,S/SBAS2; Satraplatin, SNDX-275, Sodium butyrate, Solifenacin succinate, Sorafenib, SU-14813, Sunitinib malate; Tadalafil, Tafenoquine succinate, Tamatinib fosdium, Taxus, Telbivudine, Telmisartan/hydrochlorothiazide, Temsirolimus, Tiotropium bromide, Tipranavir, Tocilizumab, Trabectedin, Tramadol hydrochloride/acetaminophen; Ulipristal acetate, Uracil, Ursodeoxycholyltaurine; Valdecoxib, Vardenafil hydrochloride hydrate, Varenicline tartrate, Vildagliptin, Vinflunine, Vitespen, Vorinostat; ZK-EPO, Zoledronic acid monohydrate.'
p186
aS'15357915 | 17alpha-ethynylestradiol | The most potent inhibition was observed for the reaction between 17alpha-ethynylestradiol and UGT1A1 (K(i) = 10.5 microM), and the weakest interaction was detected for acetaminophen and UGT1A9 (IC(50) > 1 mM).'
p187
aS'12557248 | hibiscus sabdariffa | This work therefore seeks to induce liver damage in mice using single dose (25 0mg/kg) of acetaminophen and to evaluate the possible protective effects of administration (100mg/kg) of some medicinal plants (Kigelia africana, Calotropis procera, Hibiscus sabdariffa and Alchornea cordifolia) on PCM-induced liver damage in mice.'
p188
aS'25119859 | prunus | In the present study, we investigated the role of almond (Prunus amygdalus) skin procyanidins (ASP) in regulating the protein expression of phase II detoxifying and antioxidant enzymes in HepG2 cells and acetaminophen (APAP)-treated hepatotoxic mice.'
p189
aS'15763370 | beta-amyrin | In the search of hepatoprotective agents from natural sources, alpha- and beta-amyrin, a triterpene mixture isolated from the trunk wood resin of folk medicinal plant, Protium heptaphyllum was tested against acetaminophen-induced liver injury in mice.'
p190
aS'23766864 | ginsenoside rg3 | Previously, we found that Korean red ginseng suppressed acetaminophen (APAP)-induced hepatotoxicity via alteration of its metabolic profile involving GSTA2 induction and that ginsenoside Rg3 was a major component of this gene induction.'
p191
aS'26179383 | steller sea lion | From the results of measurements of uridine diphosphate-glucuronosyltransferase (UGT) activity using liver microsomes, the Steller sea lion, Northern fur seal, and Caspian seal showed UGT activity toward 1-hydroxypyrene and acetaminophen as low as in cats, which was significantly lower than in rat and dog.'
p192
aS'17045319 | kaempferol | This occurred as a result of CYP3A induction by ginkgolide A because triacetyloleandomycin (TAO), a specific inhibitor of CYP3A catalytic activity, completely blocked the effect of ginkgolide A. Ginkgolide B, ginkgolide C, ginkgolide J, quercetin, kaempferol, isorhamnetin, and isorhamnetin-3-O-rutinoside did not alter the extent of LDH leakage by acetaminophen.'
p193
aS'17305373 | naphthalene | Altogether, 33 unique new protein targets for bromobenzene metabolites were identified and compared to those known for acetaminophen, naphthalene, butylated hydroxytoluene, benzene, thiobenzamide, and halothane via a target protein database available at http://tpdb.medchem.ku.edu:8080/protein_database/.'
p194
aS'19269644 | naphthalene | The model compounds tested for SFC separation are acetaminophen, metoprolol, fenoprofen, ibuprofen, naphthalene, and testosterone.'
p195
aS'2299686 | naphthalene | Cataracts were induced by administration of either acetaminophen or naphthalene to the pretreated mice.'
p196
aS'2299686 | naphthalene | CySSME was coadministered with either acetaminophen or naphthalene to other groups of mice.'
p197
aS'8603877 | naphthalene | To assess the efficacy of 2-mercaptoethanol/L-cysteine mixed disulfide (CySSME) as an L-cysteine prodrug suitable for glutathione biosynthesis in rat lenses in vitro, as an agent for the prevention of acetaminophen- and naphthalene-induced murine cataract in genetically-susceptible mice, and as an agent for maintenance of near-normal glutathione levels in lenses and livers of mice subjected to acetaminophen and naphthalene at cataractogenic doses.'
p198
aS'20020764 | methyl salicylate | The initial performance of the microplasma device has been evaluated by ionizing samples containing dimethyl sulfoxide (DMSO), dimethylformamide (DMF), methyl salicylate, caffeine, l-leucine, l-histidine, loratadine, ibuprofen, acetaminophen, acetylsalicylic acid, and cocaine in various forms.'
p199
aS'24551872 | methyl salicylate | Active ingredients from soft and liquid formulations, such as Icy Hot cream (methyl salicylate) and Nyquil cold medicine (acetaminophen, dextromethorphan, doxylamine) were also detected.'
p200
aS'9630389 | vinegar | The aim of the study was to evaluate the possible influence of acetic acid (administered as vinegar) on the postprandial glucose and insulin responses, and the potential involvement of a modified gastric emptying rate was studied by use of paracetamol as a marker.'
p201
aS'2364459 | phosphatidylcholine | Intravenous administration of soybean phosphatidylcholine liposomes containing different amounts of tocopherol acetate leads to a dose and time dependent increase of mouse liver tocopherol content, which was not observed when the preparation was given orally.'
p202
aS'2364459 | phosphatidylcholine | When benzo[a]pyrene pretreated mice intoxicated with 400 mg/kg AAP were pretreated 2 h before with 1 g/kg phosphatidylcholine liposomes containing 4 mg/kg vitamin E acetate, these animals were protected against liver damage.'
p203
aS'9501466 | phosphatidylcholine | The release of acetaminophen (AAP) from tablets containing phospholipids was examined using hydrogenated soybean phospholipid (HSL) and its main components, phosphatidylcholine (PC), phosphatidylethanolamine (PE) and phosphatidylinositol (PI), although the PI was not well purified (PI rich).'
p204
aS"2571471 | hydroxamic acid | The hydroxamic acid of 3'-hydroxyacetanilide (AMAP) was synthesized to test the hypothesis that different reactive metabolites of AMAP and acetaminophen account for similarities in covalent binding of the two positional isomers to hepatic proteins, but for differences in their ability to cause hepatotoxicity."
p205
aS'19459732 | anthocyanins | The present study was undertaken to examine the protective effects of an anthocyanin fraction (AF) obtained from purple-fleshed sweet potato on acetaminophen (paraceptamol [APAP])-induced hepatotoxicity in mice and to determine the mechanism involved.'
p206
aS'17132218 | anthocyanins | This study investigated the mutagenic, anti-mutagenic and cytotoxic effects of acetone extract of raspberry, Rubus idaeus L. (v. Ottawa) Rosaceae, and the isolated and characterized ellagitannin and anthocyanin fractions thereof, suitable for food applications.'
p207
aS'25394398 | atlantic salmon | Atlantic salmon (Salmo salar) were exposed to Acetaminophen: 54.77  34.67; Atenolol: 11.08  7.98, and Carbamazepine: 7.85  0.13 gL(-1) for 5 days.'
p208
aS'9406902 | cichorium intybus | The hepatoprotective activity of aqueous-methanolic extract of Cichorium intybus seeds was investigated against acetaminophen and CCl(4)-induced hepatic damage.'
p209
aS'15319808 | gallium | This issue focuses on the following selection of drugs: 166Ho-DOTMP 5A8; A-179578, abetimus sodium, adefovir dipivoxil, AGI-1067, AIDSVAX gp120 B/B, AK-602, alefacept alemtuzumab, aliskiren fumarate, ALVAC vCP1433, ALVAC vCP1452, anecortave acetate, arzoxifene hydrochloride, atazanavir sulfate, atlizumab, avasimibe; Binodenoson, BMS-488043; Choriogonadotropin alfa, ciclesonide, COL-1621, CVT-3146, CVT-E002, Cypher; Daptomycin, darbepoetin alfa, darunavir, D-D4FC, deferasirox, desloratadine, desmoteplase, duloxetine hydrochloride, DX-9065a; E-5564, efalizumab, emfilermin, emivirine, emtricitabine, enfuvirtide, estradiol acetate, ezetimibe; Frovatriptan; Gallium maltolate, gefitinib; HIV-1 Immunogen, human insulin; Iguratimod, IL-4/IL-13 Trap, imatinib mesylate, inhaled insulin, insulin glargine, irofulven, ISS-1018, ivabradine hydrochloride; Lutropin alfa; Melatonin; Nesiritide; O6-Benzylguanine, omapatrilat, oritavancin, ospemifene; Parecoxib sodium, peginterferon alfa-2a, pexelizumab, pimecrolimus, pirfenidone, pramlintide acetate, prasterone sulfate PT-141; Rasburicase, razaxaban hydrochloride, recombinant malaria vaccine, rhBMP-2/ACS, roflumilast, rosiglitazone maleate/metformin hydrochloride, rotavirus vaccine; SCH-D, sitaxsentan sodium, solifenacin succinate; Targinine hydrochloride, taxus, TER-199, tramadol hydrochloride/acetaminophen; Valdecoxib, valganciclovir hydrochloride, vatalanib succinate, VEG Trap(R1R2); Ximelagatran; Yttrium Y90 Epratuzumab.'
p210
aS'19523510 | citrinin | Nephrotoxic compounds (5-fluorouracil, gentamicin, cisplatin, acetaminophen, para-aminophenol, potassium dichromate, ibuprofen, doxorubicin, cyclosporine, citrinin, puromycin) were used to determine the potential of this method to detect proximal tubule toxicity of compounds.'
p211
aS'11728749 | hydrogen sulfide | Male Swiss mice were treated with sodium hydrogen sulfide, a H(2)S donor, 30 min after acetaminophen administration.'
p212
aS'23692300 | hydrogen sulfide | The sensor exhibited excellent analytical performance in phosphate buffered saline, including a NO sensitivity of 1.4 pA nM(-1), a limit of detection (LOD) of 840 pM, and selectivity over nitrite, ascorbic acid, acetaminophen, uric acid, hydrogen sulfide, ammonium, ammonia, and both protonated and deprotonated peroxynitrite (selectivity coefficients of -5.3, -4.2, -4.0, -5.0, -6.0, -5.8, -3.8, -1.5, and -4.0, respectively).'
p213
aS'25801321 | shrimp | It was likely that the inhibitory effects of acetaminophen on shrimp neurological enzymes were more severe than on the planarian.'
p214
aS'17132218 | rubus idaeus | This study investigated the mutagenic, anti-mutagenic and cytotoxic effects of acetone extract of raspberry, Rubus idaeus L. (v. Ottawa) Rosaceae, and the isolated and characterized ellagitannin and anthocyanin fractions thereof, suitable for food applications.'
p215
aS'10774834 | ribonuclease | In addition, mRNA expression of MIP-2 and KC were upregulated in livers of acetaminophen-treated animals as determined by ribonuclease protection assay.'
p216
aS'11896290 | ribonuclease | Ribonuclease protection assays compared the effects of acetaminophen and E2 on expression of selected genes (c-myc, c-fos, cyclin D1, bcl-2, bax, gadd45, mcl-1, p53, p21(CIP1/WAF1), and bcl-xL) in E2-responsive breast cancer (MCF-7) and endometrial adenocarcinoma (Ishikawa) cells as well as in E2-nonresponsive (MDA-MB-231) breast cancer cells.'
p217
aS'28234915 | formononetin | To examine the effects of formononetin (FMN) on Acetaminophen (APAP)-induced liver injury in vitro and in vivo.'
p218
aS'8125211 | hederagenin | Glycyrrhizin, alpha-GA, and beta-GA decreased acetaminophen-induced liver injury, whereas hederagenin, HAG, and HA did not protect against any of the hepatotoxicants.'
p219
aS'8878354 | acetyl-coa | Chemical biopsy of glucuronic acid by acetaminophen also permits the study of glycogen synthesis whereas chemical biopsies of liver glutamine by phenylacetate and of cytosolic acetyl-CoA by sulfamethoxazole give important information concerning, respectively, Krebs cycle activity and glconeogenesis and on lipogenesis and cholesterol synthesis.'
p220
aS'2863101 | acetyl-coa | Similarly, in vivo acetylation of isoniazid was diminished (23%) in conjunction with hepatic N-acetyltransferase activity, though hepatic acetyl-CoA content was elevated after model trauma.'
p221
aS'2058663 | acetyl-coa | Xenobiotic probes were used to sample hepatic cytosolic acetyl-CoA [acetylated sulfamethoxazole (SMX)] and UDP-glucose (glucuronidated acetaminophen) in vivo during [U-14C]glucose infusions.'
p222
aS'21515333 | rhein | This study investigated the possible protective effects and mechanism of rhein on Acetaminophen (APAP)-induced hepatotoxicity and nephrotoxicity in rats.'
p223
aS'19238284 | 3,4-dihydroxyphenylacetic acid | The electrode array device was characterized using a mixture of biologically relevant analytes and xenobiotics: norepinephrine, 4-aminophenol, acetaminophen, uric acid, and 3,4-dihydroxyphenylacetic acid.'
p224
aS'1690270 | 3,4-dihydroxyphenylacetic acid | When microdialysis probes were tested in a stirred in vitro solution, large and statistically significant differences among the three membranes in extraction of acid metabolites (3,4-dihydroxyphenylacetic acid, 5-hydroxyindoleacetic acid, and homovanillic acid) and acetaminophen were found.'
p225
aS'17637489 | z. officinale | Further the hepatic antioxidant status was enhanced in the Z. officinale plus acetaminophen treated group than the control group.'
p226
aS'17637489 | z. officinale | The results of the present study concluded that the hepatoprotective effect of aqueous ethanol extract of Z. officinale against acetaminophen-induced acute toxicity is mediated either by preventing the decline of hepatic antioxidant status or due to its direct radical scavenging capacity.'
p227
aS'21783952 | hemin | The therapeutic potential of hemin, the heme oxygenase-1 inducer, was investigated against renal damage induced by acute acetaminophen overdose in rats.'
p228
aS'21783952 | hemin | Hemin was given as a single s.c. injection (40mol/kg), 1h following acetaminophen administration.'
p229
aS'21783952 | hemin | Hemin treatment restored blood urea nitrogen and serum creatinine levels that were elevated by acetaminophen.'
p230
aS'21783952 | hemin | Hemin also compensated deficits in the antioxidant defense mechanisms (reduced glutathione, and catalase and superoxide dismutase activities), and suppressed lipid peroxidation in renal tissue resulted from acetaminophen administration.'
p231
aS'21783952 | hemin | Hemin attenuated the acetaminophen-induced elevations in renal tumor necrosis factor- and nitric oxide levels, and caspase-3 activity.'
p232
aS'21783952 | hemin | Additionally, hemin ameliorated acetaminophen-induced renal damage observed by light microscopic examination.'
p233
aS'21783952 | hemin | It was concluded that hemin represents a potential therapeutic option to protect renal tissue from the detrimental effects of acute acetaminophen overdose.'
p234
aS'12051994 | hemin | Pretreatment of rats with hemin was found to prevent acetaminophen-induced hepatotoxicity, as measured histologically and biochemically by decreased serum transaminase levels.'
p235
aS'27382354 | bupropion | Acetaminophen, ibuprofen, nabumetone, and bupropion inhibited TRESK, but had no effect on TREK-2.'
p236
aS'24798647 | bupropion | We present a case of physostigmine continuous infusion for the treatment of antimuscarinic symptoms in a polydrug overdose due to the ingestion of diphenhydramine along with bupropion, citalopram, acetaminophen, and naproxen.'
p237
aS'22652317 | d-sorbitol | Seven compounds expected to have no effect on neuronal function were tested as "negatives" (glyphosate, acetaminophen, salicylic acid, paraquat, saccharin, d-sorbitol and amoxicillin).'
p238
aS'17284318 | d-serine | Here, we characterize the effect on pain behavior of lacosamide, a member of a family of functionalized amino acids that are analogues of endogenous amino acids and D-serine, in the monosodium iodoacetate rat model for osteoarthritis in comparison to diclofenac and morphine.'
p239
aS'9120830 | calcium oxalate | A thermodynamic analysis of the energy transformations occurring within pharmaceutical tablets during the unloading phase of compaction was performed on Avicel, calcium phosphate, acetaminophen, and calcium oxalate.'
p240
aS'10385456 | apple | In an open-label clinical study, a single dose of acetaminophen was administered to 20 infants with approximately one fluid ounce of infant formula or apple juice by pediatric nurses using the Rx medibottle (The Medicine Bottle Company).'
p241
aS'12811710 | apple | Thirteen participants received 2000 mg acetaminophen and the remaining 33 received 3000 mg. After 3 hours, half of the participants (22 of 46) received 75 g of SAC (Requa, Greenwich, CT) orally as a slurry in 8 oz of apple juice.'
p242
aS'23016277 | luteolin | The objective of this study was to investigate corresponding anti-oxidative and anti-inflammatory activities of luteolin, using acetaminophen-treated mice as a model system.'
p243
aS'23016277 | luteolin | Luteolin administration significantly decreased acetaminophen-induced serum alanine aminotransferase (ALT), aspartate aminotransferase (AST), tumor necrosis factor alpha (TNF-), interleukin 6 (IL-6), malondialdehyde (MDA) levels, as well as glutathione (GSH) depletion and decrease of superoxide dismutase (SOD).'
p244
aS'23016277 | luteolin | Moreover, luteolin down-regulated acetaminophen-induced nitrotyrosine (NT) formation and endoplasmic reticulum (ER) stress.'
p245
aS'23016277 | luteolin | These results suggest the presence of anti-oxidative, anti-inflammatory and anti-ER stress properties of luteolin in response to acetaminophen-induced liver injury in mice.'
p246
aS'1185577 | vanillin | The determination of acetaminophen is based on the ability of its hydrolytic product, p-aminophenol, to produce an intensive yellow color with vanillin.'
p247
aS'26165293 | l-ascorbate | The oxidation current owing to electrochemical interferents such as L-ascorbate and acetaminophen was 1/8 times of the current observed on the unprotected electrode.'
p248
aS'6148834 | l-ascorbate | Studies were made on the effects of butylated hydroxyanisole (BHA), butylated hydroxytoluene (BHT), sodium L-ascorbate (SA), ethoxyquin (EQ) and acetaminophen (AAF) on the induction of neoplastic lesions in the liver, kidney or urinary bladder of rats initiated by N-ethyl-N-hydroxyethylnitrosamine (EHEN), diethylnitrosamine (DEN) or N-butyl-N-(4-hydroxybutyl)nitrosamine (BBN).'
p249
aS'23533782 | tofu | The antioxidant and hepatoprotective properties of tofu using acetaminophen to induce liver damage in albino rats were evaluated.'
p250
aS'23533782 | tofu | Rats fed with various tofus and acetaminophen had their serum ALP, ALT, AST, and LDH activities; total cholesterol; and bilirubin levels significantly (P < 0.05) reduced, and total protein and albumin concentrations increased when compared with basal diet and acetaminophen administered group.'
p251
aS'27604786 | coconut | We evaluated abundance, habitat type, and snake size (i.e., age) within two study sites on Guam, a secondary limestone forest (upland) and an abandoned coconut plantation (coastal), to determine how experimentally dosing snakes with acetaminophen is likely to influence carrion availability.'
p252
aS'18518665 | morin | Efficacy of morin was evaluated against oxidative stress-mediated damage to primary hepatocytes by tert-butyl hydroperoxide (tBHP) and acetaminophen.'
p253
aS'17892525 | morin | The study supports the inhibitory action of morin against PHLPP2-regulated Nrf2-suppression and hence indentifies Nrf2-potentiating property of morin that may be exploited in developing novel therapeutic strategy to address AILI.'
p254
aS'19543536 | morin | Morin, a bioflavonoid given as co- and pre-treatment with acetaminophen significantly prevented the toxicity induced damage by constitutively stabilizing Nrf2 nuclear retention.'
p255
aS'19543536 | morin | Morin, as a potent Nrf2 inducer accorded protection against acetaminophen induced renal damages by its molecular intervention with Akt-1/Gsk3/Fyn kinase pathway via PHLPP2 de-activation.'
p256
aS'24466725 | sodium nitrite | The employed method of determination was based on the acetaminophen reaction with sodium nitrite, which yields yellow colour of solution in the presence of sodium hydrate.'
p257
aS'25562760 | sodium nitrite | The specific combination of xerogels formed from specific silane precursors, including propyl-trimethoxysilane, isobutyl-trimethoxysilane, octyl-trimethoxysilane, and hydroxymethyl-triethoxysilane, exhibit impressive dynamic and linear ranges of detection (e.g., 24-28 mM glucose) and low response times, as well as significant discrimination against common interferent species such as acetaminophen, ascorbic acid, sodium nitrite, oxalic acid, and uric acid as determined by selectivity coefficients.'
p258
aS'15761113 | 5-hydroxytryptophol | Initial studies using different substrates (serotonin, 5-hydroxytryptophol, 4-nitrophenol, acetaminophen, and valproic acid) showed similar results with 2-fold higher glucuronidation by UGT1A6(*)2 (S7A/T181A/R184S) compared with UGT1A6(*)1 (reference), and intermediate activities for other variants.'
p259
aS'16809136 | pyrrole | In order to prepare a biosensor for the determination of uric acid, electropolymerization of pyrrole on Pt surface was carried out with an electrochemical cell containing pyrrole, ferrocene (as a electron mediator) and tetrabutylammonium tetrafluoroborat in acetonitrile by cyclic voltammetry between 0.0 and 1.0 V (vs. Ag/AgCl) at a scan rate of 50 mV/s upon Pt electrode.'
p260
aS'17045319 | g. biloba | G. biloba extract (25 or 50 mug/ml once every 24 h for 72 h) potentiated LDH leakage by acetaminophen (10 mM for 24 h; added at 48 h after initiation of extract pretreatment).'
p261
aS'17045319 | g. biloba | In summary, G. biloba pretreatment potentiated acetaminophen toxicity in cultured rat hepatocytes and ginkgolide A contributed to this novel effect of the extract by inducing CYP3A.'
p262
aS'15886002 | l-dopa | A physiological level of neurotransmitters and their derivatives including dopamine, l-dopa, adrenaline, noradrenaline and homovanillic acid as well as ascorbic acid, uric acid and acetaminophen do not affect the determination of DOPAC.'
p263
aS'26261286 | l-dopa | More specifically, the altered pharmacology and toxicology of salicylazosulfapridine, digoxin, l-dopa, acetaminophen, caffeic acid, phosphatidyl choline, carnitine, sorivudine, irinotecan, nonsteroidal anti-inflammatory drugs, heterocyclic amines, melamine, nitrazepam, and lovastatin will be reviewed.'
p264
aS'25862331 | cyprinus carpio | The present study aims to evaluate the hepatoprotective and antioxidant effects of gold nanoparticles (GNaP) biosynthesized through the mediation of Azolla microphylla and A. microphylla extract on acetaminophen-induced hepatocyte damage in common carp fish (Cyprinus carpio L.).'
p265
aS'25240479 | l-tyrosine | A novel Au-nanoparticles/poly-(2-amino-2-hydroxymethyl-propane-1,3-diol) film modified glassy carbon electrode (AuNPs/poly(trisamine)/GCE) was constructed for the simultaneous determination of norepinephrine (NE), acetaminophen (AC) and L-tyrosine (Tyr) by differential pulse voltammetry.'
p266
aS'10826917 | l-tyrosine | Other MPO systems inactivating LADH were (a) MPO/H2O2/chlorpromazine; (b) MPO/H2O2/monophenolic systems, including L-tyrosine, serotonin and acetaminophen and (c) MPO/H2O2/di- and polyphenolic systems, including norepinephrine, catechol, nordihydroguaiaretic acid, caffeic acid, quercetin and catechin.'
p267
aS'12042114 | tamarind | This study examines the sustained release behaviour of both water-soluble (acetaminophen, caffeine, theophylline and salicylic acid) and water insoluble (indomethacin) drugs from tamarind seed polysaccharide isolated from tamarind kernel powder.'
p268
aS'28569237 | benzophenone | The most frequently detected compounds in the WRRF influent included acetaminophen, nonylphenol, caffeine, benzophenone, N,N-diethyl-m-toluamide (DEET), bisphenol A (BPA), and triclosan.'
p269
aS'27502523 | benzophenone | The target list of analytes including ciprofloxacin, acetaminophen, caffeine benzophenone and irgasan were separated by a simple HPLC method.'
p270
aS'21677837 | benzophenone | To examine the effects of 2,4-dihydroxybenzophenone (BP-1), a benzophenone derivative used as an ultraviolet light absorbent, on acetaminophen (APAP)-induced hepatotoxicity in C57BL/6J mice.'
p271
aS'11755151 | s-allylmercaptocysteine | We had demonstrated earlier that treatment with S-allylmercaptocysteine before acetaminophen administration protects mice against acetaminophen-induced hepatotoxicity.'
p272
aS'11755151 | s-allylmercaptocysteine | In this study, we examined the therapeutic effect of S-allylmercaptocysteine treatment after acetaminophen administration.'
p273
aS'11755151 | s-allylmercaptocysteine | These data indicate that S-allylmercaptocysteine is useful as an antidote for acetaminophen overdose.'
p274
aS'11755151 | s-allylmercaptocysteine | S-allylmercaptocysteine significantly suppressed hepatic cytochrome P450 2E1 (CYP2E1) activity and induction of inducible 70-kDa heat shock protein, a marker of acetaminophen arylation of protein.'
p275
aS'11755151 | s-allylmercaptocysteine | These results suggest that S-allylmercaptocysteine exerts its protective effect by inhibition of CYP2E1 activity, which leads to the suppression of acetaminophen arylation of hepatic protein.'
p276
aS'9829623 | s-allylmercaptocysteine | S-Allylmercaptocysteine (SAMC), one of the water-soluble organosulfur compounds in ethanol extracts of garlic (Allium sativum L.), has been shown to protect mice against acetaminophen (APAP)-induced liver injury.'
p277
aS'23960834 | alpha-lipoic acid | The aims of this present study were to investigate the protective effect of alpha-lipoic acid (ALA) on oxidative stress & uremia on male albino rats induced by acetaminophen.'
p278
aS"20052997 | zn2+ | The data generated in the current work provide the basic information on the effect of bivalent cations, namely, Ca2+, Zn2+ and Mn2+, on the HPMMs' solubility and, consequently, on the performances (disintegration and drug dissolution) of acetaminophen gastroresistant tablets when exposed to fluid containing such salts."
p279
aS'6477646 | rotenone | Results of these studies revealed a HSP response that was significantly stronger than other well-characterized hepatotoxicants including acetaminophen, diquat and rotenone.'
p280
aS'9185043 | rotenone | Comparisons of transcriptomic changes caused by FLU with those caused by a panel of known cytotoxicants [acetaminophen, tetrafluoroethylcysteine, diquat, and rotenone (ROT)] indicated that FLU results in a temporal gene expression pattern similar to ROT, a known inhibitor of complex I of the electron transport chain.'
p281
aS'23471703 | imp | The methods were established using testosterone (TST), imipramine (IMP), acetaminophen (APAP) and salbutamol (SBM), which have markedly different values of partition coefficient, P. Method I, using an octadecylized silica (ODS) column (ACQUITY UPLC BEH C18) with a steep gradient, was suitable for analyzing TST and its metabolites, and IMP and its metabolites.'
p282
aS'11323167 | styrene | The use of biomarkers and the possible problems with using surrogate endpoints are illustrated with data on aniline, cadmium, carbon monoxide, erythrosine, paracetamol (acetaminophen) and styrene.'
p283
aS'17979661 | styrene | In particular, cytochrome P450 2E1 (CYP2E1) is implicated in the oxidative bioactivation of a variety of small hydrophobic chemicals including a number of epoxide-forming drugs and environmentally important toxicants including urethane, acrylamide, acrylonitrile, benzene, vinyl chloride, styrene, 1-bromopropane, trichloroethylene, dichloroethylene, acetaminophen, and butadiene.'
p284
aS'26225832 | styrene | Herein, we demonstrated that in vitro CYP2E1 metabolic activation of acetaminophen and styrene mixtures could not be explained through the Michaelis-Menten mechanism or any models relying on that premise.'
p285
aS'26225832 | styrene | As a baseline for mixture studies with styrene, steady-state analysis of acetaminophen oxidation revealed a biphasic kinetic profile that was best described by negative cooperativity (Hill coefficient=0.72).'
p286
aS'26225832 | styrene | Likewise, acetaminophen acted through a mixed-type inhibition mechanism to impact styrene epoxidation.'
p287
aS'26225832 | styrene | In this case, acetaminophen competed with styrene for CYP2E1 (Ki=830M and Ksi=180M for catalytic and effector sites, respectively) and resulted in cooperative impacts on binding and catalysis.'
p288
aS'26225832 | styrene | Based on modeling of in vivo clearance, cooperative interactions between acetaminophen and styrene resulted in profoundly increased styrene activation at low styrene exposure levels and therapeutic acetaminophen levels.'
p289
aS'26225832 | styrene | Current Michaelis-Menten based toxicological models for mixtures such as styrene and acetaminophen would fail to detect this concentration-dependent relationship.'
p290
aS'3711214 | styrene | The high separation efficiency of an ion-pairing system using tetrabutyl ammonium chloride allows also the simultaneous determination of acetaminophen and its three major metabolites with those of styrene in rat urine.'
p291
aS'3711214 | styrene | Preliminary works indicate that the method would also be applicable for analysis of these metabolites in human urine and would therefore be useful in monitoring styrene exposure to workers especially when they take acetaminophen.'
p292
aS'17913598 | 1-chloro-2,4-dinitrobenzene | Modified albumin samples consisted of synthetically alkylated HSA by the reactive metabolite of acetaminophen, N-acetyl-p-benzoquinoneimine (NAPQI), and using the alkylating agent 1-chloro-2,4-dinitrobenzene (CDNB) as reference.'
p293
aS'15204697 | 1-chloro-2,4-dinitrobenzene | 1: The metabolism by HepG2 cell from two sources (M1, M2) of 12 substrates is reported: ethoxyresorufin, ethoxycoumarin, testosterone, tolbutamide, chlorzoxazone, dextromethorphan, phenacetin, midazolam, acetaminophen, hydroxycoumarin, p-nitrophenol and 1-chloro-2,4-dinitrobenzene (CDNB), and a pharmaceutical compound, EMD68843.'
p294
aS'22118906 | glycolaldehyde | Up to 30% on the total carbon concentration was removed during Fenton treatment which was accompanied by the oxidation of EfOM molecules and formation of oxidation products such as oxalic, formic and acetic acids and, less prominently, formaldehyde, acetaldehyde, propionaldehyde and glycolaldehyde.'
p295
aS'20196639 | hypericin | Of ten different PKC inhibitors screened for their effects on acetaminophen glucuronidation by human LS180 colon cells, only rottlerin (PKC delta selective inhibitor; IC(50) = 9.0 +/- 1.2 microM) and the non-selective PKC inhibitors (calphostin-C, curcumin and hypericin) decreased glucuronidation by more than 50%.'
p296
aS'25862331 | common carp | The present study aims to evaluate the hepatoprotective and antioxidant effects of gold nanoparticles (GNaP) biosynthesized through the mediation of Azolla microphylla and A. microphylla extract on acetaminophen-induced hepatocyte damage in common carp fish (Cyprinus carpio L.).'
p297
aS'28340956 | maleic acid | Co-crystal former exchange reactions were performed using acetaminophen (AC) co-crystals of oxalic acid (OX), maleic acid (MA), and theophylline (TH).'
p298
aS'23002620 | maleic acid | The main intermediates of APAP were p-benzoquinone, benzoic acid, acetic acid, maleic acid, oxalic acid, formic acid etc, and the final products were carbon dioxide and water.'
p299
aS'2511429 | eugenol | ), eugenol (75 mg/kg/day) and acetaminophen (6000 p.p.m.).'
p300
aS'17533171 | eugenol | We found Tsc-22 downregulation in livers from B6C3F1 mice following treatment for 2 weeks with carcinogenic doses of the antianxiety drug oxazepam (2500 ppm) or the peroxisome proliferator Wyeth-14,643 (500 ppm) but not with two other carcinogens such as o-nitrotoluene or methyleugenol or three noncarcinogens including p-nitrotoluene, eugenol, or acetaminophen.'
p301
aS'25660481 | eugenol | Canine hepatocytes were harvested and cell viability of clove-leaf oil (CLO), eugenol (EUG), lemongrass oil (LGO), guanosine monophosphate (GMP), inosine monophosphate (IMP), sorbose, ginger-root extract (GRE), cinnamon-bark oil (CBO), cinnamaldehyde (CINA), thymol oil (TO), thymol (THYM), and citric acid were assessed with positive controls: acetaminophen (APAP), aflatoxin B1 and xylitol.'
p302
aS'10190184 | corylus | Our study investigated the effects of Corylus avellana extract on acetaminophen and carbon tetrachloride intoxicated liver of young rats.'
p303
aS'22114686 | baicalein | Subsequent screening demonstrated that 6 of these 30 drugs increase lifespan in C. elegans: caffeine, ciclopirox olamine, tannic acid, acetaminophen, bacitracin, and baicalein.'
p304
aS'17404096 | integrin | The mechanism whereby fibrin(ogen) drives liver repair after acetaminophen overdose requires engagement of leukocyte M2 integrin and subsequent induction of matrix metalloproteinase 12.'
p305
aS'19800773 | emodin | Protective effect of emodin (1,3,8-trihydroxy-6-methyl anthraquinone), an active compound of Ventilago madraspatana Gaertn., was evaluated against acetaminophen-induced biochemical and histological alterations in rats.'
p306
aS'19800773 | emodin | Treatment of emodin (20, 30 and 40 mg/kg, po) significantly lessened the toxicity by protecting acetaminophen-induced alterations in various blood and tissue biochemical variables after 24h of its administration.'
p307
aS'19800773 | emodin | Emodin at doses of 30 and 40 mg/kg effectively reversed toxic events induced by acetaminophen as same as silymarin (50mg/kg, po).'
p308
aS'19800773 | emodin | Thus, the study concluded that emodin at a dose of 30 mg/kg (po) possesses optimum hepatoprotective ability against acetaminophen-induced toxicity.'
p309
aS'26672195 | emodin | In this study, pattern recognition analysis of the ultra high performance liquid chromatography-mass spectrometry (UPLC-MS) of hepatocytes HL7702 was performed to develop differential metabolites related to hepatotoxicity induced by hepatotoxicants, including carbon tetrachloride (CCl4), acetaminophen (APAP), emodin, aristolochic acid (AA) and triptolide.'
p310
aS'26322627 | 2,4-decadienal | In the present study, we first demonstrated that oral administration of 2,4-decadienal (50-100 mg/kg) reduced gastric emptying rate in rats, assessed by both the acetaminophen absorption test and the phenol red recovery method.'
p311
aS'21075197 | menthofuran | Acetaminophen, 1-chloro 2,4-dinitrobenzene, clozapine, diclofenac, imipramine, menthofuran, propranolol, pulegone and ticlopidine all formed D-peptide adducts, which were analogous to the GSH adducts previously described in the literature.'
p312
aS'25064485 | 1,4-benzoquinone | Acetaminophen, ciprofloxacin, clarithromycin, clofibrate, ibuprofen, omeprazole, triclosan, parabens and 1,4-benzoquinone showed some type of risk for the aquatic environments and/or for the activated sludge of WWTPs.'
p313
aS'16468397 | 1,4-benzoquinone | Two of the products were unequivocally identified as the toxic compounds 1,4-benzoquinone and N-acetyl-p-benzoquinone imine (NAPQI), which is the toxicant associated with lethality in acetaminophen overdoses.'
p314
aS'16468397 | 1,4-benzoquinone | With a hypochlorite dose of 57 micromol/L (4 ppm as Cl2), 88% of the acetaminophen (10 micromol/L initial) was transformed in 1 h. The two quinoidal oxidation products 1,4-benzoquinone and NAPQI accounted for 25% and 1.5% of the initial acetaminophen concentration, respectively, at a 1 h reaction time.'
p315
aS'28064122 | 1,4-benzoquinone | The aromatic compounds 2-hydroxy-4-(N-acetyl) aminophenol, 1,4-benzoquinone, benzaldehyde and benzoic acid were identified as toxic sub-products during the first stage of the electrochemical treatment, whereas aliphatic short-chain carboxylic acids (oxalic, maleic, oxamic, formic, acetic and fumaric acids) and inorganic ions (ammonium and nitrate) were well identified as non-toxic terminal sub-products.'
p316
aS'10378447 | 1,4-benzoquinone | The major metabolites of acetaminophen, benzoquinone imine and 1,4-benzoquinone, induced Ca2+ release in isolated rat liver microsomes.'
p317
aS'25972200 | 1,4-benzoquinone | Modification of proteins in mouse liver cytosol by 5-hydroxy-1,4-NQ, 5,8-dihydroxy-1,4-NQ, 1,4-benzoquinone (1,4-BQ), tert-butyl-1,4-BQ, and N-acetyl-p-benzoquinoneimine, an electrophilic metabolite of acetaminophen, was detected using ELISA, but not non-electrophilic quinones or hydroquinone.'
p318
aS'19522529 | thymine | Different kinds of important inorganic and organic electroactive compounds (i.e., probe molecule (potassium ferricyanide), free bases of DNA (guanine (G), adenine (A), thymine (T), and cytosine (C)), oxidase/dehydrogenase-related molecules (hydrogen peroxide (H2O2)/beta-nicotinamide adenine dinucleotide (NADH)), neurotransmitters (dopamine (DA)), and other biological molecules (ascorbic acid (AA), uric acid (UA), and acetaminophen (APAP)) were employed to study their electrochemical responses at the CR-GO/GC electrode, which shows more favorable electron transfer kinetics than graphite modified glassy carbon (graphite/GC) and glassy carbon (GC) electrodes.'
p319
aS'28344490 | cocoa butter | The study was conducted with suppositories with acetaminophen (AAP) a typical antipyretic analgesic, as model drug on lipophilic (cocoa butter) and hydrophilic base (polyethylene glycol 1500+400).'
p320
aS'18549250 | 4-ethylphenol | To evaluate the effectiveness and reliability of the approach, GSH adducts of carbamazepine, diclofenac, 4-ethylphenol, acetaminophen, p-cresol, and omeprazole were analyzed, which were formed in human liver microsome incubations fortified with a mixture of nonlabeled GSH and stable isotope-labeled GSH at a 1:0.8 ratio.'
p321
aS'18720456 | 4-ethylphenol | The effectiveness and reliability of this approach was evaluated using a number of model compounds in human liver microsomal incubations, including acetaminophen, amodiaquine, carbamazepine, 4-ethylphenol, imipramine and ticlopidine.'
p322
aS'17918967 | 4-ethylphenol | Glutathione (GSH)-trapped reactive metabolites of acetaminophen, diclofenac, carbamazepine, clozapine, p-cresol, 4-ethylphenol, and 3-methylindole in human liver microsomes (HLM) were analyzed by HPLC coupled with Orbitrap or Fourier transform ion cyclotron resonance mass spectrometry.'
p323
aS'20734624 | lupinus | Phytoremediation of selected pharmaceuticals (diclofenac, ibuprofen, and acetaminophen) using Armoracia rusticana and Linum usitatissimum cell cultures and by hydroponically cultivated Lupinus albus, Hordeum vulgaris, and Phragmites australis plants in laboratory conditions is described.'
p324
aS'20734624 | lupinus | In the hydroponic arrangement, the best results were achieved for Lupinus, where acetaminophen was totally removed from media during two or four days in concentrations of 0.1 or 0.2 mM, respectively.'
p325
aS'19700751 | d-glucose | We show that oral administration of D-glucose, but not of either D-fructose or sucrose, prevents LPS-induced liver injury, as well as liver injury and death induced by an overdose of acetaminophen.'
p326
aS'23454338 | d-glucose | Excess saccharides including D-galactose, D-fructose, D-cellbiose, L-arabinose and D-sucrose, D-maltose, D-mannose and D-xylose as well as common interfering substances (acetaminophen, ascorbic acid and uric acid) did not affect the detection of D-glucose (0.1mM).'
p327
aS'23411599 | methyleugenol | To clarify the regulatory molecular mechanisms behind cell cycle aberrations related to the early stages of hepatocarcinogenesis, we performed gene expression analysis using microarrays and real-time reverse transcription polymerase chain reaction followed by immunohistochemical analysis in the livers of rats treated with the cytomegaly inducing hepatocarcinogens thioacetamide (TAA), fenbendazole, and methyleugenol, the cytomegaly non-inducing hepatocarcinogen piperonyl butoxide (PBO), or the non-carcinogenic hepatotoxicants acetaminophen and -naphthyl isothiocyanate, for 28 days.'
p328
aS'20004213 | methyleugenol | We have developed an ensemble of support vector machine classification models based on male F344 rat liver gene expression following 2, 14 or 90 days of exposure to a collection of hepatocarcinogens (aflatoxin B1, 1-amino-2,4-dibromoanthraquinone, N-nitrosodimethylamine, methyleugenol) and non-hepatocarcinogens (acetaminophen, ascorbic acid, tryptophan).'
p329
aS'17533171 | methyleugenol | We found Tsc-22 downregulation in livers from B6C3F1 mice following treatment for 2 weeks with carcinogenic doses of the antianxiety drug oxazepam (2500 ppm) or the peroxisome proliferator Wyeth-14,643 (500 ppm) but not with two other carcinogens such as o-nitrotoluene or methyleugenol or three noncarcinogens including p-nitrotoluene, eugenol, or acetaminophen.'
p330
aS"2597201 | acrolein | L-menthol effectively diminished pain behavior elicited by chemical stimuli (capsaicin, acrolein, acetic acid), noxious heat, and inflammation (complete Freund's adjuvant)."
p331
aS'19227830 | acrolein | In this study, we found that a highly toxic unsaturated aldehyde acrolein, a byproduct of oxidative stress, has a major role in acetaminophen-induced liver injury.'
p332
aS'19227830 | acrolein | These results suggest that acrolein may be more strongly correlated with acetaminophen-induced liver injury than ROS, and that acrolein produced by acetaminophen-induced oxidative stress can spread from dying cells at the primary injury site, causing damage to the adjacent cells and aggravating liver injury.'
p333
aS'27594275 | acrolein | Our previous study suggested that the highly toxic ,-unsaturated aldehyde acrolein, a byproduct of oxidative stress, plays a major role in acetaminophen-induced liver injury.'
p334
aS'27594275 | acrolein | Our results showed that cysteamine and N-benzylhydroxylamine effectively prevented the cell toxicity of acrolein in vitro and acetaminophen-induced liver injury in vivo, which suggested that acrolein is involved in the liver damage, and these two drugs can be potential therapeutic options for this condition.'
p335
aS'24816177 | oncorhynchus mykiss | The present study aimed to assess the toxic effects of acetaminophen (APAP) in Oncorhynchus mykiss following acute and chronic exposures in realistic levels.'
p336
aS'2435723 | cyclic gmp | Hepatic slices from acetaminophen-pretreated mice showed marked depletion of sulfhydryls and decreased cyclic GMP formation in response to these enzyme activators.'
p337
aS'3356406 | spermidine | All of the compounds tested more or less affected the tissue levels of polyamines, including putrescine, spermidine, spermine and acetylpolyamines (N1-acetylspermidine and N1-acetylspermine).'
p338
aS'3356406 | spermidine | When the acetylpolyamine levels rose, the levels of spermidine and spermine declined, and then putrescine levels were elevated.'
p339
aS'22229548 | myoglobin | Hydropic degeneration, tubular necrosis, presence of immunoperoxidase and myoglobin, tubulus epithelial cell degeneration, and presence of PAS-dyed material in tubular lumen was more prominently decreased in the acetaminophen group than the mannitol group.'
p340
aS'19821601 | myoglobin | These were also investigated both in rats which received either .OH scavenger, dimethylthiourea (DMTU: 500 mg/kg before glycerol injection and 125 mg/kg 8 h after glycerol injection, n = 7), or myoglobin redox cycling inhibitor, acetaminophen (ApAP: 100 mg/kg 2 h before glycerol injection and 100 mg/kg each 4 h, and 22 h after glycerol injection, n = 7).'
p341
aS'20133658 | myoglobin | Two of these inhibited the oxygenation of arachidonic acid by PGHS-1 and myoglobin and also were shown to be more metabolically stable and exhibited less direct cytotoxicity than acetaminophen.'
p342
aS'19700751 | d-fructose | We show that oral administration of D-glucose, but not of either D-fructose or sucrose, prevents LPS-induced liver injury, as well as liver injury and death induced by an overdose of acetaminophen.'
p343
aS'23454338 | d-fructose | Excess saccharides including D-galactose, D-fructose, D-cellbiose, L-arabinose and D-sucrose, D-maltose, D-mannose and D-xylose as well as common interfering substances (acetaminophen, ascorbic acid and uric acid) did not affect the detection of D-glucose (0.1mM).'
p344
aS'19459732 | potato | The present study was undertaken to examine the protective effects of an anthocyanin fraction (AF) obtained from purple-fleshed sweet potato on acetaminophen (paraceptamol [APAP])-induced hepatotoxicity in mice and to determine the mechanism involved.'
p345
aS'26310701 | helianthus annuus | In a model system of sterile, hydroponically cultivated Zea mays (as C4 plant) and Helianthus annuus (as C3 plant), the uptake and effect of carbamazepine and 10,11-epoxycarbamazepine were studied in comparison with those of acetaminophen and ibuprofen.'
p346
aS'19290448 | nicotinate | Acetaminophen, caffeine, and cotinine detections confirm prior indications of pharmaceutical and nicotinate disposal in the landfill.'
p347
aS'15151167 | hibiscus sabbariffa | This work therefore seeks to induce liver damage in mice using single dose (25 0mg/kg) of acetaminophen and to evaluate the possible protective effects of administration (100mg/kg) of some medicinal plants (Kigelia africana, Calotropis procera, Hibiscus sabdariffa and Alchornea cordifolia) on PCM-induced liver damage in mice.'
p348
aS'15754502 | adzuki bean | We examined the hepatoprotective effect of water-extract from adzuki bean (Vigna angularis) hulls on acetaminophen (AAP)-induced damage in rat liver.'
p349
aS'19269423 | purine | The simultaneous presence of purine analogues and low concentrations of acetaminophen significantly potentiates mitochondrial dysfunction, increasing the risk of liver injury.'
p350
aS'11600306 | purine | In this study, we evaluated the utility of glutamate dehydrogenase (GLDH), purine nucleoside phosphorylase (PNP), malate dehydrogenase (MDH), and paraxonase 1 (PON1) as indicators of liver injury in cohorts of human subjects, including healthy subjects across age and gender, subjects with a variety of liver impairments, and several cases of acetaminophen poisoning.'
p351
aS'15818979 | acetic acid ester | p -acetaminophenol acetic acid ester and p -nitrophenol acetic acid ester.'
p352
aS'17045319 | ginkgolide a | The present cell culture study investigated the effect of Ginkgo biloba extract pretreatment on acetaminophen toxicity and assessed the role of ginkgolide A and cytochrome P450 3A (CYP3A) in hepatocytes isolated from adult male Long-Evans rats provided ad libitum with a standard diet.'
p353
aS'17045319 | ginkgolide a | At the level present in a modulating concentration (50 mug/ml) of the extract, ginkgolide A (0.55 mug/ml), which increased CYP3A23 mRNA levels and CYP3A-mediated enzyme activity, accounted for part but not all of the potentiating effect of the extract on acetaminophen toxicity.'
p354
aS'17045319 | ginkgolide a | This occurred as a result of CYP3A induction by ginkgolide A because triacetyloleandomycin (TAO), a specific inhibitor of CYP3A catalytic activity, completely blocked the effect of ginkgolide A. Ginkgolide B, ginkgolide C, ginkgolide J, quercetin, kaempferol, isorhamnetin, and isorhamnetin-3-O-rutinoside did not alter the extent of LDH leakage by acetaminophen.'
p355
aS'17045319 | ginkgolide a | In summary, G. biloba pretreatment potentiated acetaminophen toxicity in cultured rat hepatocytes and ginkgolide A contributed to this novel effect of the extract by inducing CYP3A.'
p356
aS'3356406 | spermine | All of the compounds tested more or less affected the tissue levels of polyamines, including putrescine, spermidine, spermine and acetylpolyamines (N1-acetylspermidine and N1-acetylspermine).'
p357
aS'3356406 | spermine | When the acetylpolyamine levels rose, the levels of spermidine and spermine declined, and then putrescine levels were elevated.'
p358
aS'24657950 | lysozyme | Co-iontophoresis of acetaminophen revealed a significant inhibition of electroosmosis; inhibition factors of 12-16 were indicative of strong lysozyme binding to skin.'
p359
aS'20020764 | l-histidine | The initial performance of the microplasma device has been evaluated by ionizing samples containing dimethyl sulfoxide (DMSO), dimethylformamide (DMF), methyl salicylate, caffeine, l-leucine, l-histidine, loratadine, ibuprofen, acetaminophen, acetylsalicylic acid, and cocaine in various forms.'
p360
aS'1085705 | l-histidine | In man, rats and mice, the urinary excretion of the histamine and L-histidine metabolite, imidazole acetic acid, is increased and that of the conjugated metabolite, ribosylimidazole acetic acid, decreased by small doses of salicylates.'
p361
aS'1085705 | l-histidine | In contrast to salicylates, other non-salicylate anti-inflammatory drugs, indomethacin, phenylbutazone, phenacetin and acetaminophen do not influence the excretion of the urinary metabolites of histamine and L-histidine.'
p362
aS'16227641 | betulin | Plant triterpenes, such as oleanolic acid and betulin were described as hepatoprotectants active against cytotoxicity of acetaminophen or cadmium.'
p363
aS'18838239 | zirconium | The development of composite electrodes for biosensors construction based on HRP and zirconium alcoxide film for acetaminophen detection and finally, acetaminophen determination in pharmaceutical products is described.'
p364
aS'15158948 | xylitol | Canine hepatocytes were harvested and cell viability of clove-leaf oil (CLO), eugenol (EUG), lemongrass oil (LGO), guanosine monophosphate (GMP), inosine monophosphate (IMP), sorbose, ginger-root extract (GRE), cinnamon-bark oil (CBO), cinnamaldehyde (CINA), thymol oil (TO), thymol (THYM), and citric acid were assessed with positive controls: acetaminophen (APAP), aflatoxin B1 and xylitol.'
p365
aS'19238284 | l-phenylalanine | Compounds including L-phenylalanine, L-serine, L-valine, urea, 4-acetaminophen, gallic acid and L-ascorbic acid were analyzed using both sources.'
p366
aS'23454338 | d-xylose | Excess saccharides including D-galactose, D-fructose, D-cellbiose, L-arabinose and D-sucrose, D-maltose, D-mannose and D-xylose as well as common interfering substances (acetaminophen, ascorbic acid and uric acid) did not affect the detection of D-glucose (0.1mM).'
p367
aS'28672209 | 4-hydroxybenzoic acid | Further studies on the degradation of other phenolic compounds, including 4-chlorophenol (4-CP), 4-hydroxybenzoic acid (4-HBA), and acetaminophen (ATP), verified the formation of their corresponding nitrated by-products as well.'
p368
aS'27653803 | 4-hydroxybenzoic acid | We evaluated the efficiency and trapping capacity of different semi-permeable surface restricted access media columns (C18 , C8 , and C4 inner pores) for four model small molecule compounds (dopamine hydrochloride, acetaminophen, 4-hydroxybenzoic acid, and diethyl phthalate) having variable physicochemical properties.'
p369
aS'7504664 | salicyl alcohol | Other inducers of phenotypic multiple antibiotic resistance, e.g., benzoate, salicyl alcohol, and acetaminophen, but not acetate, also increased transcription from the mar promoter but to a lesser extent than did salicylate.'
p370
aS'19459732 | sweet potato | The present study was undertaken to examine the protective effects of an anthocyanin fraction (AF) obtained from purple-fleshed sweet potato on acetaminophen (paraceptamol [APAP])-induced hepatotoxicity in mice and to determine the mechanism involved.'
p371
aS'23002620 | oxalic acid | The main intermediates of APAP were p-benzoquinone, benzoic acid, acetic acid, maleic acid, oxalic acid, formic acid etc, and the final products were carbon dioxide and water.'
p372
aS'25263253 | oxalic acid | Small aliphatic acids, such as acetic acid, formic acid and oxalic acid, were measured quantitatively with IC as well as inorganic ions (nitrite and nitrate) in which their yields increase with irradiation.'
p373
aS'12182655 | oxalic acid | (15)N NMR spectra revealed the accumulation since the early stages of substantial amounts of acetamide and oxalic acid monoamide.'
p374
aS'28340956 | oxalic acid | Co-crystal former exchange reactions were performed using acetaminophen (AC) co-crystals of oxalic acid (OX), maleic acid (MA), and theophylline (TH).'
p375
aS'28739326 | oxalic acid | In this work, the effect of some DESs containing choline chloride as hydrogen bond acceptor and urea, oxalic acid and malonic acid as hydrogen bond donors have been studied on acetaminophen (ACP) solubility at temperature ranges (298.15 to 313.15) K. The results indicate that the solubility of ACP increase with increasing concentration of DES and at higher temperatures and the DES containing malonic acid have a greater impact on the solubility of acetaminophen.'
p376
aS'25562760 | oxalic acid | The specific combination of xerogels formed from specific silane precursors, including propyl-trimethoxysilane, isobutyl-trimethoxysilane, octyl-trimethoxysilane, and hydroxymethyl-triethoxysilane, exhibit impressive dynamic and linear ranges of detection (e.g., 24-28 mM glucose) and low response times, as well as significant discrimination against common interferent species such as acetaminophen, ascorbic acid, sodium nitrite, oxalic acid, and uric acid as determined by selectivity coefficients.'
p377
aS'25201704 | pterostilbene | The present study was undertaken to evaluate the protective effect of pterostilbene against acetaminophen-induced hepatotoxicity.'
p378
aS'25201704 | pterostilbene | Histopathological evidence confirmed the protection offered by pterostilbene from the tissue damage caused by acetaminophen.'
p379
aS'21644253 | 2,3-dihydroxybenzoic acid | A simple and sensitive method has been developed for the simultaneous determination of polar nonsteroidal pharmaceuticals and metabolites, including acetaminophen, p-aminophenol and several aspirin metabolites (salicylic acid, gentisic acid, salicyluric acid and 2,3-dihydroxybenzoic acid), by capillary liquid chromatography with amperometric detection.'
p380
aS'20734624 | armoracia rusticana | Phytoremediation of selected pharmaceuticals (diclofenac, ibuprofen, and acetaminophen) using Armoracia rusticana and Linum usitatissimum cell cultures and by hydroponically cultivated Lupinus albus, Hordeum vulgaris, and Phragmites australis plants in laboratory conditions is described.'
p381
aS'20734624 | armoracia rusticana | During in vitro experiments, the best results for acetaminophen were achieved using Armoracia rusticana hairy root cultures, where 100% of the starting amount was removed from the media during eight days.'
p382
aS'15127575 | shark | To investigate the protective effects of shark hepatic stimulator substance (sHSS) against acute hepatic injury induced by acetaminophen (AAP) in mice.'
p383
aS'19446955 | chlorophyll | In order to assess ecological risk of pharmaceutical compounds entering into agricultural ecosystems, toxic effects of paracetamol with therapeutic action on wheat (Triticum aestivum L.) were investigated as an example, using early growing and developmental indexes of wheat, including seed germination, shoot height and root length, peroxidase, superoxide dismutase, chlorophyll, and soluble protein in the seedlings.'
p384
aS'14656133 | o-quinone | This compound was obtained from its monophenolic precursor, acetaminophen, using the enzyme tyrosinase in the presence of an excess of ascorbic acid, thus reducing back the o-quinone product of catalytic activity to the catechol acetaminophen derivative.'
p385
aS'12553730 | o-quinone | The presence of the corresponding o-diphenol as intermediate was demonstrated with ascorbic acid by chemical oxidation using NaIO4 and by HPLC analysis, indicating that acetaminophen is oxidized by the monophenolase activity of tyrosinase to its corresponding o-quinone.'
p386
aS'15538807 | tryptamine | The obtained sensor was highly responsive to serotonin in water but not to tryptamine, acetaminophen, or procainamide.'
p387
aS'6854339 | terpene | The mammalian metabolism of acetaminophen, a widely used mild analgesic, and R-(+)-pulegone, the major constituent terpene of pennyroyal oil, will be discussed to illustrate specific features of mammalian drug metabolism.'
p388
aS'8709008 | fumaric acid | By using the mobile phase adjusted to pH 3.0 with orthophosphoric acid, fumaric acid, MA, CP, acetaminophen (paracetamol), caffeine, and m- and p-hydroxybenzoic acid as candidates for an internal standard were eluted separately within 17 min.'
p389
aS'17637489 | zingiber officinale | Hepatoprotective activity of aqueous ethanol extract of Zingiber officinale was evaluated against single dose of acetaminophen-induced (3g/kg, p.o.)'
p390
aS'16941609 | zingiber officinale | The effect of the ethanol extract of the rhizome of Zingiber officinale was tested against carbon tetrachloride (CCl(4)) and acetaminophen-induced liver toxicities in rats.'
p391
aS'6821389 | palmitate | Particle size analysis results with respect to micronized, mean particle size below 10 microns, furosemide, chloramphenicol palmitate and acetaminophen particles are dealt with in this paper.'
p392
aS'7619878 | palmitate | This investigation was designed to assess cytoprotective efficacy of daily oral tiron (300 mg/kg) and daily oral methyl palmitate (300 mg/kg) against acetaminophen-induced acute liver injury.'
p393
aS'7619878 | palmitate | Rats were orally pretreated with either tiron or methyl palmitate at doses (300 mg/kg) for 7 days prior to oral acetaminophen (3 g/kg).'
p394
aS'7619878 | palmitate | Both methyl palmitate and tiron significantly reversed the acetaminophen-induced elevation of biochemical markers (ALT, AST, and ALP) with restoration of SOD levels.'
p395
aS'7619878 | palmitate | Histopathology revealed that tiron markedly reduced the extent of acetaminophen-induced necrosis and methyl palmitate moderately decreased the necrosis in liver tissue.'
p396
aS'7619878 | palmitate | Methyl palmitate (300 mg/kg) and tiron (300 mg/kg) demonstrated promising hepatoprotective effects against acetaminophen-induced acute liver injury via modulation of inflammatory response and alleviation of the oxidative stress, allowing the preservation of hepatic functions.'
p397
aS'11118966 | pyridoxine | We found no significant benefit for intermittent phenobarbitone, phenytoin, valproate, pyridoxine, ibuprofen or zinc sulfate versus placebo or no treatment; nor for diclofenac versus placebo followed by ibuprofen, acetaminophen or placebo; nor for continuous phenobarbitone versus diazepam, intermittent rectal diazepam versus intermittent valproate, or oral diazepam versus clobazam.There was a significant reduction of recurrent febrile seizures with intermittent diazepam versus placebo or no treatment, with a risk ratio (RR) of 0.64 (95% confidence interval (CI) 0.48 to 0.85 at six months), RR of 0.69 (95% CI 0.56 to 0.84) at 12 months, RR 0.37 (95% CI 0.23 to 0.60) at 18 months, RR 0.73 (95% CI 0.56 to 0.95) at 24 months, RR 0.58 (95% CI 0.40 to 0.85) at 36 months, RR 0.36 (95% CI 0.15 to 0.89) at 48 months, with no benefit at 60 to 72 months.'
p398
aS'4010751 | pyridoxine | The active ingredients determined in drugs were acetaminophen, aspartame, bisacodyl, caffeine, dextromethorphan, diphenhydramine, famotidine, glucosamine, guaifenesin, loratadine, niacin, phenylephrine, pyridoxine, thiamin, and tetrahydrozoline.'
p399
aS'23263810 | chlorogenic acid | Chlorogenic acid (CGA) has been reported to prevent acetaminophen (AP)-induced hepatotoxicity when mice were pre-administered orally with CGA for consecutive 7days before AP intoxication in our previous study.'
p400
aS'25384447 | chlorogenic acid | A recent report suggested that a therapeutic intervention with chlorogenic acid, a dietary polyphenolic compound, protects against acetaminophen-induced liver injury by inhibiting the inflammatory injury.'
p401
aS'25384447 | chlorogenic acid | The purpose of this letter is to discuss a number of reasons why the protective mechanism of chlorogenic acid against acetaminophen hepatotoxicity does not involve an anti-inflammatory effect and provides an alternative explanation for the observed protection.'
p402
aS'25724644 | diacylglycerol | The purpose of this study was to evaluate the effect of pradigastat, a diacylglycerol acyltransferase-1 inhibitor, on the pharmacokinetics of acetaminophen, a gastric emptying marker.'
p403
aS'16822497 | beta-glucan | The protective effect of beta-glucan against oxidative injury caused by acetaminophen was studied in mice liver.'
p404
aS'16822497 | beta-glucan | On the other hand, beta-d-glucan treatment reversed all these biochemical indices, as well as histopathological alterations that were induced by acetaminophen.'
p405
aS'16822497 | beta-glucan | In conclusion, these results suggest that beta-d-glucan exerts cytoprotective effects against oxidative injury through its antioxidant properties and may be of therapeutic use in preventing acetaminophen toxicity.'
p406
aS'19109935 | beta-glucan | The present study was conducted to compare the efficacy of unirradiated beta-glucan (UBG) and gamma irradiated beta-glucan (GIBG) against acetaminophen (APAP) induced hepatotoxicity in mice.'
p407
aS"2860980 | pregnenolone | Effective non-genotoxic inducers included phenobarbital and some structurally related compounds, p,p'-dichlorodiphenyltrichloroethane,alpha- and gamma-hexachlorocyclohexanes, Aroclor 1254, butyl hydroxytoluene, nafenopin, various estrogens, progesterone, pregnenolone-16 alpha-carbonitrile and cyproterone acetate."
p408
aS'1641853 | pregnenolone | Recently, we demonstrated that a microsomal enzyme inducer with a steroidal structure, pregnenolone-16 alpha-carbonitrile (PCN), markedly decreased the hepatotoxicity of acetaminophen (AA) in hamsters.'
p409
aS'1970767 | pregnenolone | Treatment of rats with phenobarbital (PB), 3-methylcholanthrene, and pregnenolone-16 alpha-carbonitrile increased the total (biliary plus urinary) excretion of thioether and glucuronic acid conjugates of acetaminophen (AA) without influencing AA-sulfate excretion, suggesting that these microsomal enzyme inducers enhance both cytochrome P-450-mediated toxication and UDP-glucuronosyltransferase-mediated detoxication of AA.'
p410
aS'20652556 | inulin | The selected transitions were m/z 195.2120.2, 127.1109.1, and 152.1110.0 for p-aminohippuric acid, inulin [measured as 5-(hydroxymethyl)furfural], and acetaminophen, respectively.'
p411
aS'27317992 | dioscin | In our previous study, the effects of dioscin against alcohol-, carbon tetrachloride- and acetaminophen-induced liver damage have been found.'
p412
aS'27135544 | dioscin | We previously reported the effects of dioscin against carbon tetrachloride-, acetaminophen- and alcohol-induced acute liver damage.'
p413
aS'2303440 | allantoin | The increase in urinary allantoin after the administration of acetaminophen suggests that the decrease in adenine nucleotides was due to their degradation in the liver.'
p414
aS'6138230 | 1,3-butanediol | Ketosis was produced by oral administration of either acetone or 1,3-butanediol.'
p415
aS'6138230 | 1,3-butanediol | Pharmacokinetic studies indicated that both acetone and 1,3-butanediol: a) increased the blood half-life of acetaminophen, b) markedly decreased the apparent rate constant for formation of acetaminophen mercapturate, and c) modestly decreased the capacities for acetaminophen sulfate formation and renal elimination of the drug.'
p416
aS'6138230 | 1,3-butanediol | Neither acetone nor 1,3-butanediol had any effect on either the apparent rate constant for formation of acetaminophen glucuronide or on the predrug levels of hepatic glutathione.'
p417
aS'27402199 | carbadox | Six-week-old rats were treated with the genotoxic hepatocarcinogen, carbadox (CRB), the marginally hepatocarcinogenic leucomalachite green (LMG), the tumor promoter, -naphthoflavone (BNF) or the non-carcinogenic hepatotoxicant, acetaminophen, for 2, 4 or 6 weeks during the post-initiation phase using a medium-term liver bioassay.'
p418
aS'26558467 | carbadox | Thus, rats were repeatedly administered with hepatocarcinogens (methapyrilene, carbadox and thioacetamide), a marginal hepatocarcinogen (leucomalachite green), hepatocarcinogenic promoters (oxfendazole and -naphthoflavone) or non-carcinogenic hepatotoxicants (promethazine and acetaminophen) for 7, 28 or 90 days, and the temporal changes in cell proliferation, expression of G1/S and spindle checkpoint-related molecules, and apoptosis were examined using immunohistochemistry and/or real-time RT-PCR analysis.'
p419
aS'26897403 | daidzein | Detection frequencies and concentrations varied, with atrazine, metolachlor, acetaminophen, caffeine, DEET, and trimethoprim detected in more than 70% of samples, acetochlor, mecoprop, carbamazepine, and daidzein detected in 30%-50% of samples, and 4-nonylphenol, cotinine, sulfamethoxazole, erythromycin, tylosin, and carbaryl detected in 10%-30% of samples.'
p420
aS'10900255 | cysteinylglycine | Although the mercapturic acid pathway was the major route of degradation of the glutathione adducts, it was found that the conjugation of the glutathione, cysteinylglycine, and cysteine adducts of acetaminophen with the gamma-carboxylic acid of the glutamic acid was both interesting and novel.'
p421
aS'6108199 | cysteinylglycine | The hydrolysis of the formed cysteinylglycine conjugate was extremely rapid since no conjugate was detected and an almost stoichiometric formation of acetaminophen-cysteine from acetaminophen-glutathione was observed.'
p422
aS'21824100 | hesperidin | Few antioxidants including edaravone (for ischemic stroke in Japan), Nacetylcysteine (for acetaminophen toxicity), alfa-lipoic acid (for diabetic neuropathy) and some flavonoids (polyphenolic compounds present in dietary plants), such as micronized purified flavonoid fraction (diosmin and hesperidin) and oxerutins (for chronic venous insufficiency) as well as baicalein and catechins (for osteoarthritis) have found accepted clinical use.'
p423
aS'1593391 | thallium | This misrepresentation ignores the literature, which is undivided, in reporting that illicit drugs contain adulterants and substitutes such as: sodium acetate, sodium cyclamate, dolomite, acetaminophen, gypsum, mannitol, inositol, lidocaine, amydricaine, benzocaine, caffeine, ephedrine, intercaine, phenylpropanolamine, piperocaine, procainamide, azopyridine, bromodiphenhydramine, ibuprofen, methaqualone, phenobarital trazodone, acetylcodine, codeine, quinine, quinidine, thallium, arsenic and strychnine.'
p424
aS'18423995 | dioscorea | In order to identify candidate miRNAs as diagnostic biomarkers for DILI, miRNA expression profiles of serum and liver tissue from two parallel liver injury Sprague-Dawley rat models induced by a compound (acetaminophen, APAP) or an herb (Dioscorea bulbifera, DB) were screened in this study.'
p425
aS'21784028 | uranium | The aim of this study was to determine whether a chronic (9 months) non-nephrotoxic low dose exposure to depleted uranium (DU, 1mg/rat/day) could modify the liver XME, using a single non-hepatotoxic acetaminophen (APAP) treatment (50mg/kg).'
p426
aS'11351354 | punicalin | In this study, the antihepatotoxic activity of punicalagin and punicalin on acetaminophen-induced toxicity in the rat liver was evaluated.'
p427
aS'11351354 | punicalin | After evaluating the changes of several biochemical functions in serum, the levels of aspartate aminotransferase (AST) and alanine aminotransferase (ALT) were increased by acetaminophen administration and reduced by punicalagin and punicalin.'
p428
aS'3958971 | d-cysteine | The D-cysteine pro-drug did not affect the urinary excretion of the acetaminophen metabolites examined.'
p429
aS'17964129 | erythritol | Powder mixtures containing acetaminophen, mannitol, erythritol, maltodextrin, crospovidone, colloidal silicon dioxide and polyoxyethylene 20 sorbitan monooleate were prepared via co-spray drying.'
p430
aS'23346767 | erythritol | The results reveal that delayed release occurs in preparations compounded with acetaminophen (AA) as the active ingredient and erythritol (ET) and crospovidone (CP) as excipients.'
p431
aS'17317123 | erythritol | Erythritol, lactose, maltodextrin, and mannitol were efficient in co-spray drying with acetaminophen.'
p432
aS"18248803 | erythritol | It can be concluded that a combination of mannitol, erythritol, Glucidex 9, Kollidon CL, colloidal silicon dioxide and polyoxyethylene 20 sorbitan monooleate allowed the spray drying of highly dosed drug substances (acetaminophen, ibuprofen, cimetidine) in order to obtain 'ready-to-compress' powder mixtures on lab-scale and production-scale equipment."
p433
aS'17576058 | erythritol | Powder mixtures containing acetaminophen, mannitol, erythritol and different maltodextrin types were prepared via co-spray drying and physically mixed with crospovidone (6% w/w, Kollidon CL) in order to evaluate the influence of maltodextrin grade (amylose/amylopectin ratio) on powder hygroscopicity, flowability, density and compactability.'
p434
aS'17576058 | erythritol | A combination of acetaminophen, mannitol, erythritol, Glucidex 9 and Kollidon CL was selected for further formulation and process optimisation of co-spray dried powders intended for direct compression.'
p435
aS'18363140 | erythritol | Four-component mixtures containing acetaminophen, mannitol, erythritol, and maltodextrin were produced by cospray drying.'
p436
aS'26763934 | vitexin | Isobolographical analysis method was used to examine the interaction between vitexin and acetaminophen.'
p437
aS'26763934 | vitexin | In addition, the combination of vitexin and acetaminophen produced an infra-additive effect in postoperative pain.'
p438
aS'3356406 | n1-acetylspermidine | All of the compounds tested more or less affected the tissue levels of polyamines, including putrescine, spermidine, spermine and acetylpolyamines (N1-acetylspermidine and N1-acetylspermine).'
p439
aS'3356406 | n1-acetylspermidine | It was found that they were classified into two groups of substances: one group (including radical-producing drugs and lipopolysaccharide) which elevated the tissue levels of N1-acetylspermidine, especially in the liver, while another group of drugs (such as D-galactosamine and DL-ethionine) had little effect on the acetylpolyamine levels.'
p440
aS'25037050 | pterin | Conversely, cancer association was inverse with acetaminophen metabolites (OR <0.1), tocopherols (OR = 0.3), sitostanol (OR = 0.2), 3-dehydrocarnitine (OR = 0.4), pterin (OR = 0.3), conjugated-linoleate-18-2N7 (OR = 0.2), N-2-furoyl-glycine (OR = 0.3) and p-aminobenzoate (PABA, OR = 0.2).'
p441
aS'19919835 | curcuma longa | In this study we investigated the effects of curcumin, derived from plant Curcuma longa, on acetaminophen toxicity, and the possibility of combining therapy of curcumin and N-acetyl cysteine (NAC) to treat this toxicity.'
p442
aS'20067861 | p. guajava | The study was designed to evaluate the hepatoprotective activity of different extracts (petroleum ether, chloroform, ethyl acetate, methanol and aqueous) of P. guajava in acute experimental liver injury induced by carbon tetrachloride and paracetamol.'
p443
aS'20067861 | p. guajava | P. guajava ethyl acetate leaf extract (200 mg/kg, p.o.)'
p444
aS'20067861 | p. guajava | P. guajava ethyl acetate and aqueous leaf extracts (200 mg/kg, p.o.)'
p445
aS'21906668 | piperine | A standardized curcuminoid/piperine preparation (4 g curcuminoids plus 24 mg piperine) or matched placebo was given orally four times over 2 days before oral administration of midazolam (CYP3A probe), flurbiprofen (CYP2C9 probe) or paracetamol (acetaminophen) (dual UGT and SULT probe).'
p446
aS'15916450 | piperine | The present study aims to identify potential intestinal absorption and metabolism interactions between B and four selected compounds, namely acetaminophen (APAP), (-)-epicatechin (EC), piperine (PIP) and curcumin (CUR) using in vitro and in situ models.'
p447
aS"8829996 | beta-carotene | We were intrigued by the fact that beta-carotene is stored in the liver, the major organ of detoxification, and we speculated that dietary supplementation of beta-carotene would enhance the liver's ability to withstand toxic challenge from acetaminophen."
p448
aS'8829996 | beta-carotene | We present a series of experiments which demonstrate that beta-carotene can prevent death or ameliorate toxicity from acetaminophen in mice.'
p449
aS'9028626 | beta-carotene | These include solvents commonly used in industry, anaesthetic agents, medications such as isoniazid, over the counter analgesics (acetaminophen), illicit drugs (cocaine), chemical carcinogens, and even vitamin A and its precursor beta-carotene.'
p450
aS'22170639 | methyl phenyl sulfide | For example we have used [(13) C]methyl phenyl sulfide to prepare the three possible (13) C-isotopomers ([1-(13) C]-, [2-(13) C]-, [1,2-(13) C(2) ]) of the two carbon precursors, ethyl 2-(phenylthio) acetate and ethyl N,N-dimethyl oxamate.'
p451
aS'19446955 | triticum | In order to assess ecological risk of pharmaceutical compounds entering into agricultural ecosystems, toxic effects of paracetamol with therapeutic action on wheat (Triticum aestivum L.) were investigated as an example, using early growing and developmental indexes of wheat, including seed germination, shoot height and root length, peroxidase, superoxide dismutase, chlorophyll, and soluble protein in the seedlings.'
p452
aS'28064122 | benzaldehyde | The aromatic compounds 2-hydroxy-4-(N-acetyl) aminophenol, 1,4-benzoquinone, benzaldehyde and benzoic acid were identified as toxic sub-products during the first stage of the electrochemical treatment, whereas aliphatic short-chain carboxylic acids (oxalic, maleic, oxamic, formic, acetic and fumaric acids) and inorganic ions (ammonium and nitrate) were well identified as non-toxic terminal sub-products.'
p453
aS'1226 | acetophenone | The same substrate specificity was observed when the modifier was acetophenone.'
p454
aS'21688788 | 4-methylphenol | Chromatograms obtained under acidic conditions (pH 2.7) of a mixture of acetaminophen, diazepam, and 2,6-diisopropylphenol and a mixture of phenol, 4-methylphenol, 2-chlorophenol, 4-chlorophenol, 4-bromophenol, and 1-tert-butyl-4-methylphenol are presented.'
p455
aS'4056569 | dimethyl disulfide | After massive liver injury with acetaminophen, subcoma doses of hepatic failure toxins (NH+4, dimethyl disulfide [----methanethiol], octanoic acid) depressed liver thymidine kinase (TK) activity by 78%, 85%, and 90%, respectively, and ornithine decarboxylase (ODC) activity by 40%, 83%, and 78%, respectively.'
p456
aS'27069723 | papaya | This study investigated the hepatomodulatory effects of aqueous extracts of C. papaya leaf (CPL) and unripe fruit (CPF) at doses of 100 and 300 mg/kg on carbon tetrachloride (CCl4) and acetaminophen (ACM)-induced liver toxicities in rats.'
p457
aS'19505764 | mustard | To study the protective mechanism of mustard seed extract against acetaminophen (APAP) toxicity in a hepatocellular carcinoma (HepG2) cell line.'
p458
aS'10999435 | a. lappa | A. lappa suppressed the SGOT and SGPT elevations induced by CCl4 or acetaminophen in a dose-dependent manner and alleviated the severity of liver damage based on histopathological observations.'
p459
aS'10999435 | a. lappa | A. lappa reversed the decrease in GSH and P-450 induced by CCl4 and acetaminophen.'
p460
aS'10999435 | a. lappa | It was also found that A. lappa decreased the malondialdehyde (MDA) content in CCl4 or acetaminophen-intoxicated mice.'
p461
aS'10999435 | a. lappa | From these results, it was suggested that A. lappa could protect the liver cells from CCl4 or acetaminophen-induced liver damages, perhaps by its antioxidative effect on hepatocytes, hence eliminating the deleterious effects of toxic metabolites from CCl4 or acetaminophen.'
p462
aS'27116471 | 2-bromophenol | Despite the reduced peak capacity and the reduction in ions detected, the RAMMP method was able to achieve similar levels of group discrimination as conventional UPLC-MS when applied to rat urine samples obtained from investigative studies on the effects of acute 2-bromophenol and chronic acetaminophen administration.'
p463
aS'14614599 | eggs | In the eggs which were prenatally exposed to 9.5 mg L(-1) of acetaminophen, reduced hatchability was observed.'
p464
aS'6754389 | i2 | Quantitative analysis of the antihyperalgesic and response rate-suppressing effects suggests that I2 receptor ligands are not well suited to combination therapy with acetaminophen.'
p465
aS'28410226 | i2 | Compared with never use acetaminophen, ever use this drug was not associated with risk of endometrial cancer (summarized RR = 1.02; 95% CI: 0.93-1.13, I2 = 0%).'
p466
aS'28410226 | i2 | Similar null association was also observed when compared the highest category of frequency/duration with never use acetaminophen (summarized RR = 0.88; 95% CI: 0.70-1.11, I2 = 15.2%).'
p467
aS'15148345 | i2 | This study systematically examined the antihyperalgesic and response rate-suppressing effects of selective I2 receptor ligands (2-BFI and phenyzoline) alone and in combination with acetaminophen.'
p468
aS'4086640 | codeinone | A high-performance liquid chromatographic method has been developed for the simultaneous determination of acetaminophen and codeine phosphate for product stability studies, and release and dissolution testing of tablets and capsules.'
p469
aS'4086640 | codeinone | The method has been validated for use with products containing as much as 500 mg of acetaminophen and as little as 7.5 mg of codeine phosphate.'
p470
aS'3700530 | codeinone | A stability-indicating high-performance liquid chromatographic method has been developed for the simultaneous determination of acetaminophen, codeine phosphate and sodium benzoate in an elixir formulation.'
p471
aS'3700530 | codeinone | The method has been validated for use with elixirs containing 120 mg of acetaminophen, 12 mg of codeine phosphate and 7.5 mg sodium benzoate preservative per 5 ml.'
p472
aS'28524081 | tormentic acid | The hepatoprotective effects of tormentic acid (TA) on acetaminophen (APAP)-induced liver damage were investigated in mice.'
p473
aS'9110357 | lycopene | Acetaminophen use (p = 0.05), coffee consumption (p = 0.05) and plasma lycopene (p = 0.06) were positively associated with CYP1A2 activity.'
p474
aS'27989599 | lycopene | In the invivo study, male C57BL/6 mice received lycopene (10 or 100mg/kg by oral gavage) and 1h later, acetaminophen (APAP) (500mg/kg) was administrated.'
p475
aS'20024105 | pyridine | Herein we report an investigation of the efficacy of pyridine and pyrimidine analogs of acetaminophen (ApAP) as peroxyl radical-trapping antioxidants and inhibitors of enzyme-catalyzed lipid peroxidation by cyclooxygenases (COX) and lipoxygenases (LOX).'
p476
aS'18296000 | dehydroascorbic acid | A reversed-phase ion pair liquid chromatographic method (RP-LC) for the determination of dehydroascorbic acid (DHA) and ascorbic acid (AA) and also acetaminophen, which is combined in pharmaceuticals, is proposed and validated.'
p477
aS'17976270 | limonexic acid | When evaluated against acetic acid-induced abdominal constrictions, limonexic acid (10, 30 and 60 mg kg(-1), i.p.)'
p478
aS'2743472 | pentane | The increased expiration of ethane and pentane by mice treated with hepatotoxic doses of acetaminophen suggests the possibility of oxidant mechanisms associated with the necrosis.'
p479
aS'27294530 | l-homocysteine | Using a phosphate buffered saline (PBS)-buffer mobile phase, the stability of the Cd-HSA complex was investigated in the presence of 2.0mM of SMW ligands, including taurine, acetaminophen, l-methionine, l-cysteine (Cys), d,l-homocysteine (hCys) or l-cysteine methyl-ester (Cys-Me).'
p480
aS'22199125 | cabbage | The chronic ingestion of cabbage of the same family is known to accelerate conjugating acetaminophen (AA) and decrease the plasma AA level.'
p481
aS'8988067 | watercress | A single oral dose of acetaminophen (1 gm) was given 10 hours after ingestion of watercress homogenates (50 gm).'
p482
aS'8988067 | watercress | In comparison with acetaminophen only, the ingestion of watercress resulted in a significant reduction in the area under the plasma cysteine acetaminophen (Cys-acetaminophen) concentration-time curve and in the peak plasma Cys-acetaminophen concentration by 28% +/- 3% and by 21% +/- 4% (mean +/- SE; n = 7; p < 0.005), respectively.'
p483
aS'8988067 | watercress | However, the plasma pharmacokinetic processes and the urinary excretions of acetaminophen, acetaminophen glucuronide, and acetaminophen sulfate were not altered significantly by the watercress treatment.'
p484
aS'8988067 | watercress | These results suggest that the consumption of watercress causes a decrease in the levels of oxidative metabolites of acetaminophen, probably due to inhibition of oxidative metabolism of this drug.'
p485
aS'2350427 | hippophae rhamnoides | Protection by flesh oil of Hippophae rhamnoides against hepatotoxicity induced by CCl4 and acetaminophen (AAP) is reported in this paper.'
p486
aS'7104022 | harmol | Microsomal UDP-GT activity was assayed in vitro with acetaminophen (AA), harmol (HA), and 1-naphthol (NA) as the aglycones.'
p487
aS'522515 | harmol | This study was conducted to characterize intestinal biotransformation of harmol (HA) and 1-naphthol (NA) in the rat and to investigate whether a similar dose-dependency exists as reported previously for acetaminophen (1).'
p488
aS'16988054 | harmol | In the present study, the involvement in this process of Mrp3 and Mrp4, two basolateral efflux transporters, was evaluated by analyzing the hepatic basolateral excretion of the glucuronide and sulfate metabolites of acetaminophen, 4-methylumbelliferone, and harmol in Abcc3(-/-) and Abcc4(-/-) mice using a cassette dosing approach.'
p489
aS'16988054 | harmol | In the livers of Abcc3(-/-) and Abcc4(-/-) mice, the basolateral excretory clearance of acetaminophen sulfate was reduced approximately 20 and approximately 20%, 4-methylumbelliferyl sulfate was reduced approximately 50 and approximately 65%, and harmol sulfate was decreased approximately 30 and approximately 45%, respectively.'
p490
aS'16988054 | harmol | The basolateral excretory clearance of acetaminophen glucuronide, 4-methylumbelliferyl glucuronide, and harmol glucuronide was reduced by approximately 96, approximately 85, and approximately 40%, respectively, in the livers of Abcc3(-/-) mice.'
p491
aS'1676634 | harmol | Uptake, sulfate conjugation, and efflux of the sulfated conjugates of harmol, p-nitrophenol, N-acetyldopamine and acetaminophen were demonstrated.'
p492
aS'16959944 | harmol | The role of Mrp2, Bcrp, and P-glycoprotein in the biliary excretion of acetaminophen sulfate (AS) and glucuronide (AG), 4-methylumbelliferyl sulfate (4MUS) and glucuronide (4MUG), and harmol sulfate (HS) and glucuronide (HG) was studied in Abcc2(-/-), Abcg2(-/-), and Abcb1a(-/-)/Abcb1b(-/-) mouse livers perfused with the respective parent compounds using a cassette dosing approach.'
p493
aS'8603877 | l-cystine | To assess the efficacy of 2-mercaptoethanol/L-cysteine mixed disulfide (CySSME) as an L-cysteine prodrug suitable for glutathione biosynthesis in rat lenses in vitro, as an agent for the prevention of acetaminophen- and naphthalene-induced murine cataract in genetically-susceptible mice, and as an agent for maintenance of near-normal glutathione levels in lenses and livers of mice subjected to acetaminophen and naphthalene at cataractogenic doses.'
p494
aS'28344490 | butter | The study was conducted with suppositories with acetaminophen (AAP) a typical antipyretic analgesic, as model drug on lipophilic (cocoa butter) and hydrophilic base (polyethylene glycol 1500+400).'
p495
aS'9657023 | latex | Eighty-four drugs were incriminated: antibiotics (49.6%), muscle relaxants, latex and anesthetics (15%), nonsteroidal anti-inflammatory drugs (10.2%), acetaminophen (3.9%), iodinated or magnetic resonance imaging contrast media (4.2%), immunotherapy and vaccines (3.9%), and other drugs (13%).'
p496
aS'10758782 | taxifolin | The results indicated that some compounds, such as taxifolin (2) and its tetramethylated derivative (4) exhibited potent and dose-dependent antinociceptive action against acetic acid-induced abdominal constriction when administered intraperitoneally or orally.'
p497
aS'7730139 | uracil | Animals were concurrently administered with 0.1% dihydroxy-di-N-propylnitrosamine (DHPN) in drinking water and 3.0% uracil in the diet for 4 weeks and then, starting 1 week after the cessation of this treatment, received basal diet or diet containing phenacetin, acetaminophen or antipyrine for 35 weeks.'
p498
aS'18389098 | uracil | This issue focuses on the following selection of drugs: 101M, 3F8; Abatacept, ABT-263, Adalimumab, AG-7352, Agatolimod sodium, Alfimeprase, Aliskiren fumarate, Alvimopan hydrate, Aminolevulinic acid hexyl ester, Ammonium tetrathiomolybdate, Anakinra, Aripiprazole, AS-1404, AT-9283, Atomoxetine hydrochloride, AVE-1642, AVE-9633, Axitinib, AZD-0530; Becocalcidiol, Belotecan hydrochloride, Bevacizumab, BG-9928, BIBF-1120, BMS-275183, Bortezomib, Bosentan; Catumaxomab, Cetuximab, CHR-2797, Ciclesonide, Clevidipine, Cypher, Cytarabine/daunorubicin; Darifenacin hydrobromide, Darunavir, Denosumab, Desvenlafaxine succinate, Disufenton sodium, Duloxetine hydrochloride, Dutasteride; Eculizumab, Efalizumab, Eicosapentaenoic acid/docosahexaenoic acid, Eplerenone, Epratuzumab, Erlotinib hydrochloride, Escitalopram oxalate, Ethynylcytidine, Etravirine, Everolimus, Ezetimibe; Fulvestrant; Garenoxacin mesilate, Gefitinib, Gestodene; HI-164, Hydralazine hydrochloride/isosorbide dinitrate; Icatibant acetate, ICX-RHY, Idraparinux sodium, Indacaterol, Ispronicline, Ivabradine hydrochloride, Ixabepilone; KB-2115, KW-2449; L-791515, Lapatinib ditosylate, LGD-4665, Licofelone, Liposomal doxorubicin, Lisdexamfetamine mesilate, Lumiracoxib; Methoxy polyethylene glycol-epoetin-beta, Miglustat, Mipomersen sodium, Mitumprotimut-T, MK-0822A, MK-0974; Nelarabine; Obatoclax mesylate, Olmesartan medoxomil, Olmesartan medoxomil/hydrochlorothiazide; Paliperidone, Palonosetron hydrochloride, Panitumumab, Pegfilgrastim, Peginterferon alfa-2a, Pemetrexed disodium, Perospirone hydrochloride, Pertuzumab, Pimecrolimus, Pitrakinra, Pixantrone maleate, Posaconazole, Pregabalin; Quercetin; RALGA, Raltegravir potassium, Ranelic acid distrontium salt, rhHistone 1.3, Rimonabant, Rivaroxaban, Rosuvastatin calcium, RTS,S/SBAS2; Satraplatin, SNDX-275, Sodium butyrate, Solifenacin succinate, Sorafenib, SU-14813, Sunitinib malate; Tadalafil, Tafenoquine succinate, Tamatinib fosdium, Taxus, Telbivudine, Telmisartan/hydrochlorothiazide, Temsirolimus, Tiotropium bromide, Tipranavir, Tocilizumab, Trabectedin, Tramadol hydrochloride/acetaminophen; Ulipristal acetate, Uracil, Ursodeoxycholyltaurine; Valdecoxib, Vardenafil hydrochloride hydrate, Varenicline tartrate, Vildagliptin, Vinflunine, Vitespen, Vorinostat; ZK-EPO, Zoledronic acid monohydrate.'
p499
aS'17934819 | ginkgolide b | These results indicate that PAF may play an important role in APAP-induced liver injury and regeneration, and that the use of ginkgolide B attenuates liver damage providing important means of improving liver function following acetaminophen intoxication.'
p500
aS'17045319 | ginkgolide b | The present cell culture study investigated the effect of Ginkgo biloba extract pretreatment on acetaminophen toxicity and assessed the role of ginkgolide A and cytochrome P450 3A (CYP3A) in hepatocytes isolated from adult male Long-Evans rats provided ad libitum with a standard diet.'
p501
aS'17045319 | ginkgolide b | At the level present in a modulating concentration (50 mug/ml) of the extract, ginkgolide A (0.55 mug/ml), which increased CYP3A23 mRNA levels and CYP3A-mediated enzyme activity, accounted for part but not all of the potentiating effect of the extract on acetaminophen toxicity.'
p502
aS'17045319 | ginkgolide b | This occurred as a result of CYP3A induction by ginkgolide A because triacetyloleandomycin (TAO), a specific inhibitor of CYP3A catalytic activity, completely blocked the effect of ginkgolide A. Ginkgolide B, ginkgolide C, ginkgolide J, quercetin, kaempferol, isorhamnetin, and isorhamnetin-3-O-rutinoside did not alter the extent of LDH leakage by acetaminophen.'
p503
aS'17045319 | ginkgolide b | In summary, G. biloba pretreatment potentiated acetaminophen toxicity in cultured rat hepatocytes and ginkgolide A contributed to this novel effect of the extract by inducing CYP3A.'
p504
aS'20102673 | spirulina | The present study investigated the protection by dietary Spirulina platensis against d-galactosamine (d-GalN)- and acetaminophen (APAP)-induced hepatitis in ICR mice.'
p505
aS'20813430 | dock | These snapshots were used to dock compounds A and B as well as the reference compound acetaminophen (APAP).'
p506
aS'9501466 | phosphatidylethanolamine | The release of acetaminophen (AAP) from tablets containing phospholipids was examined using hydrogenated soybean phospholipid (HSL) and its main components, phosphatidylcholine (PC), phosphatidylethanolamine (PE) and phosphatidylinositol (PI), although the PI was not well purified (PI rich).'
p507
aS'20016708 | saturated fatty acids | We conclude that diets with high 18:2n-6 promote acetaminophen-induced liver injury compared to diets with more saturated fatty acids (SFA).'
p508
aS'20734624 | lupinus albus | Phytoremediation of selected pharmaceuticals (diclofenac, ibuprofen, and acetaminophen) using Armoracia rusticana and Linum usitatissimum cell cultures and by hydroponically cultivated Lupinus albus, Hordeum vulgaris, and Phragmites australis plants in laboratory conditions is described.'
p509
aS'17045319 | ginkgolide j | The present cell culture study investigated the effect of Ginkgo biloba extract pretreatment on acetaminophen toxicity and assessed the role of ginkgolide A and cytochrome P450 3A (CYP3A) in hepatocytes isolated from adult male Long-Evans rats provided ad libitum with a standard diet.'
p510
aS'17045319 | ginkgolide j | At the level present in a modulating concentration (50 mug/ml) of the extract, ginkgolide A (0.55 mug/ml), which increased CYP3A23 mRNA levels and CYP3A-mediated enzyme activity, accounted for part but not all of the potentiating effect of the extract on acetaminophen toxicity.'
p511
aS'17045319 | ginkgolide j | This occurred as a result of CYP3A induction by ginkgolide A because triacetyloleandomycin (TAO), a specific inhibitor of CYP3A catalytic activity, completely blocked the effect of ginkgolide A. Ginkgolide B, ginkgolide C, ginkgolide J, quercetin, kaempferol, isorhamnetin, and isorhamnetin-3-O-rutinoside did not alter the extent of LDH leakage by acetaminophen.'
p512
aS'17045319 | ginkgolide j | In summary, G. biloba pretreatment potentiated acetaminophen toxicity in cultured rat hepatocytes and ginkgolide A contributed to this novel effect of the extract by inducing CYP3A.'
p513
aS'15757115 | guanosine | To test the system capabilities, we investigated the formation of covalent adducts produced by guanosine and acetaminophen (APAP).'
p514
aS'25660481 | guanosine | Canine hepatocytes were harvested and cell viability of clove-leaf oil (CLO), eugenol (EUG), lemongrass oil (LGO), guanosine monophosphate (GMP), inosine monophosphate (IMP), sorbose, ginger-root extract (GRE), cinnamon-bark oil (CBO), cinnamaldehyde (CINA), thymol oil (TO), thymol (THYM), and citric acid were assessed with positive controls: acetaminophen (APAP), aflatoxin B1 and xylitol.'
p515
aS'23454338 | l-arabinose | Excess saccharides including D-galactose, D-fructose, D-cellbiose, L-arabinose and D-sucrose, D-maltose, D-mannose and D-xylose as well as common interfering substances (acetaminophen, ascorbic acid and uric acid) did not affect the detection of D-glucose (0.1mM).'
p516
aS'3356406 | n1-acetylspermine | All of the compounds tested more or less affected the tissue levels of polyamines, including putrescine, spermidine, spermine and acetylpolyamines (N1-acetylspermidine and N1-acetylspermine).'
p517
aS'3356406 | n1-acetylspermine | It was found that they were classified into two groups of substances: one group (including radical-producing drugs and lipopolysaccharide) which elevated the tissue levels of N1-acetylspermidine, especially in the liver, while another group of drugs (such as D-galactosamine and DL-ethionine) had little effect on the acetylpolyamine levels.'
p518
aS'4004520 | riboflavin | The effect of riboflavin status on acetaminophen hepatotoxicity was determined in the rat.'
p519
aS'4004520 | riboflavin | After riboflavin deficiency was established by determining erythrocyte glutathione reductase activity coefficient, rats in all groups were administered a toxic dose of acetaminophen (1 g/kg body weight) orally.'
p520
aS'4004520 | riboflavin | The RFF diet induced biochemical riboflavin deficiency, decreased food intake and body weight gain, and was associated with almost complete protection against acetaminophen toxicity.'
p521
aS'4004520 | riboflavin | Our results suggest that riboflavin deficiency protects rats against acetaminophen toxicity but it is confounded by decreased food consumption and body weight.'
p522
aS'27118639 | riboflavin | Quantification of [Pd(2+)] is demonstrated in the presence of excess acetaminophen (ACM), l-ascorbic acid, caffeine and riboflavin.'
p523
aS'9553609 | riboflavin | The absorption characteristics of drugs in spinal cord injury (SCI) were studied using an actively transported drug [riboflavin (RBF)] and a passively absorbed drug [acetaminophen (ACE)].'
p524
aS'15740912 | riboflavin | Cyclodextrin-modified microemulsion electrokinetic chromatography (CD-MEEKC) was used to simultaneously determine 14 active ingredients (thiamine nitrate, anhydrous caffeine, acetaminophen, riboflavin, guaifenesin, pseudoephedrine hydrochloride, ascorbic acid, ethenzamide, DL-methylephedrine hydrochloride, dihydrocodeine phosphate, ibuprofen, noscapine, carbinoxamine maleate, and bromhexine hydrochloride) in a cold medicine.'
p525
aS'22321380 | arsenite | Cell toxicity produced by chemotherapeutics (cisplatin, etoposide), oxidants (hydrogen peroxide, acetaminophen), toxins (phenyl arsine oxide, arsenite) or ionizing radiation was rapidly determined by the HEDS assay.'
p526
aS'21561794 | arsenite | Substances tested were diazepam, triazolam, haloperidol, amitriptyline, mianserin, bromovalerylurea, phenobarbital, acetaminophen, acetylsalicylic acid, lidocaine, aconitine, atropine, caffeine, nicotine, malathion, dichlorvos, fenitrothion, chlorpyrifosmethyl, paraquat, diquat, potassium cyanide, sodium arsenite, sodium azide, o-cresol, and probenecid (control, a representative inhibitor of hOAT1).'
p527
aS'23472850 | arsenite | In this study, we demonstrate that ngfb mRNA is positively modulated in mouse livers after oxidative injury via intraperitoneal injection of 14 mg/kg sodium arsenite, 6 mmol/kg L-buthionine-S-R-sulfoximine (BSO), or 300 mg/kg acetaminophen (APAP).'
p528
aS'8391436 | n-butanol | The crude methanol extract of the whole plant of F. olivieri (FOM) and its derived fractions; n-hexane (FOH), chloroform (FOC), ethyl acetate (FOE), n-butanol (FOB) and aqueous (FOA) were evaluated for the total phenolic and flavonoid content and in vitro antioxidant abilities.'
p529
aS'17200890 | zea mays | In a model system of sterile, hydroponically cultivated Zea mays (as C4 plant) and Helianthus annuus (as C3 plant), the uptake and effect of carbamazepine and 10,11-epoxycarbamazepine were studied in comparison with those of acetaminophen and ibuprofen.'
p530
aS'27579048 | zea mays | This study evaluated membrane stabilization and detoxification potential of ethyl acetate fraction of Zea mays L., Stigma maydis in acetaminophen-induced oxidative onslaughts in the kidneys of Wistar rats.'
p531
aS'23454338 | d-galactose | Excess saccharides including D-galactose, D-fructose, D-cellbiose, L-arabinose and D-sucrose, D-maltose, D-mannose and D-xylose as well as common interfering substances (acetaminophen, ascorbic acid and uric acid) did not affect the detection of D-glucose (0.1mM).'
p532
aS'16010985 | p. tomentosa | This study appraised the effectiveness of P. tomentosa leaf extract in protecting the liver against mitochondrial damage induced by acetaminophen, since mitochondrial injury has been investigated as a potential initiator of hepatotoxicity.'
p533
aS'16010985 | p. tomentosa | Normal Wistar strain rats were pre-treated with P. tomentosa extract (750 mg/kg, orally) for 15 days and then intoxicated with acetaminophen (640 mg/kg, orally).'
p534
aS'12842496 | p. tomentosa | Our earlier studies show that the extract of P. tomentosa leaves prevents acetaminophen-induced hepatotoxicity owing to its antioxidant property.'
p535
aS'24658104 | estriol | Acclimatized sponge showed significantly enhanced removal of some less hydrophobic compounds (log D<2.5), such as ibuprofen, acetaminophen, naproxen, and estriol, as compared with non-acclimatized sponge.'
p536
aS'20491057 | estriol | Pharmaceutical compounds evaluated were nonsteroidal anti-inflammatory drugs (acetaminophen, diclofenac, ibuprofen, ketoprofen, naproxen and salicylic acid), antibiotics (sulfamethoxazole and trimethoprim), an anti-epileptic drug (carbamazepine), a beta-blocker (propranolol), a nervous stimulant (caffeine), estrogens (17alpha-ethinylestradiol, 17beta-estradiol, estriol and estrone) and lipid regulators (clofibric acid, metabolite of clofibrate and gemfibrozil).'
p537
aS'21807398 | estriol | In the WWTPs, the concentrations of analgesic acetaminophen, stimulant caffeine, hormones estriol and estradiol decreased by over 99%.'
p538
aS"17542484 | quercitrin | Through usual chromatographic techniques with an acetonic extract, the following compounds were obtained: 3,4,3'-trimethoxy flavellagic acid (1), 3,4,3'-trimethoxy flavellagic acid 4'-O-glucoside (3) and quercitrin (4), which were identified based on spectroscopic data."
p539
aS'8571920 | turmeric | Turmeric, glycyrrhiza, acetaminophen, and metformin HCl were used as model drugs for the preparation of tablets.'
p540
a.