(lp0
S'antacids "fig"'
p1
aS'antacids "lard"'
p2
aS'antacids "gin"'
p3
aS'antacids "prickly pear"'
p4
aS'antacids "cloves"'
p5
aS'antacids "drag\xc3\xa9e"'
p6
aS'antacids "cichlidae (tilapia)"'
p7
aS'antacids "burdock"'
p8
aS'antacids "apricot"'
p9
aS'antacids "haddock"'
p10
aS'antacids "poppy"'
p11
aS'antacids "sorghum"'
p12
aS'antacids "kale"'
p13
aS'antacids "fennel"'
p14
aS'antacids "alfalfa"'
p15
aS'antacids "chicory"'
p16
aS'antacids "eastern oyster"'
p17
aS'antacids "sherry"'
p18
aS'antacids "snapper"'
p19
aS'antacids "red algae"'
p20
aS'antacids "other snack food"'
p21
aS'antacids "soy milk"'
p22
aS'antacids "cocoa butter"'
p23
aS'antacids "biscuit"'
p24
aS'antacids "ostrich"'
p25
aS'antacids "mung bean"'
p26
aS'antacids "rainbow trout"'
p27
aS'antacids "other fish product"'
p28
aS'antacids "pistachio"'
p29
aS'antacids "lotus"'
p30
aS'antacids "almond"'
p31
aS'antacids "ginger"'
p32
aS'antacids "lettuce"'
p33
aS'antacids "spinach"'
p34
aS'antacids "whey"'
p35
aS'antacids "papaya"'
p36
aS'antacids "green turtle"'
p37
aS'antacids "pear"'
p38
aS'antacids "nopal"'
p39
aS'antacids "salmonidae (salmon, trout)"'
p40
aS'antacids "other bread"'
p41
aS'antacids "cheese"'
p42
aS'antacids "oat"'
p43
aS'antacids "common ling"'
p44
aS'antacids "banana"'
p45
aS'antacids "pizza"'
p46
aS'antacids "mushrooms"'
p47
aS'antacids "processed cheese"'
p48
aS'antacids "mustard"'
p49
aS'antacids "acorn"'
p50
aS'antacids "hazelnut"'
p51
aS'antacids "cabbage"'
p52
aS'antacids "persimmon"'
p53
aS'antacids "dill"'
p54
aS'antacids "apple"'
p55
aS'antacids "ginseng"'
p56
aS'antacids "deer"'
p57
aS'antacids "carrot"'
p58
aS'antacids "chewing gum"'
p59
aS'antacids "common carp"'
p60
aS'antacids "calabash"'
p61
aS'antacids "cracker"'
p62
aS'antacids "hamburger"'
p63
aS'antacids "soft drink"'
p64
aS'antacids "turmeric"'
p65
aS'antacids "coconut"'
p66
aS'antacids "canola"'
p67
aS'antacids "squid"'
p68
aS'antacids "quail"'
p69
aS'antacids "fruit juice"'
p70
aS'antacids "peppermint"'
p71
aS'antacids "true oyster"'
p72
aS'antacids "yam"'
p73
aS'antacids "milk (cow)"'
p74
aS'antacids "vinegar"'
p75
aS'antacids "garlic"'
p76
aS'antacids "allium (onion)"'
p77
aS'antacids "shrimp"'
p78
aS'antacids "milk and milk products"'
p79
aS'antacids "cinnamon"'
p80
aS'antacids "eggplant"'
p81
aS'antacids "whiting"'
p82
aS'antacids "marine mussel"'
p83
aS'antacids "radish"'
p84
aS'antacids "chickpea"'
p85
aS'antacids "chinese cabbage"'
p86
aS'antacids "sausage"'
p87
aS'antacids "shiitake"'
p88
aS'antacids "crab"'
p89
aS'antacids "alcoholic beverages"'
p90
aS'antacids "pineappple sage"'
p91
aS'antacids "dock"'
p92
aS'antacids "spirit"'
p93
aS'antacids "blue mussel"'
p94
aS'antacids "cauliflower"'
p95
aS'antacids "sesame"'
p96
aS'antacids "malus (crab apple)"'
p97
aS'antacids "dripping"'
p98
aS'antacids "scallop"'
p99
aS'antacids "asian pear"'
p100
aS'antacids "cassava"'
p101
aS'antacids "sunflower"'
p102
aS'antacids "ascidians"'
p103
aS'antacids "dandelion"'
p104
aS'antacids "spearmint"'
p105
aS'antacids "vegetable juice"'
p106
aS'antacids "edible shell"'
p107
aS'antacids "buttermilk"'
p108
aS'antacids "linden"'
p109
aS'antacids "mustard spinach"'
p110
aS'antacids "pudding"'
p111
aS'antacids "tortilla"'
p112
aS'antacids "cowpea"'
p113
aS'antacids "beaver"'
p114
aS'antacids "other meat product"'
p115
aS'antacids "jujube"'
p116
aS'antacids "syrup"'
p117
aS'antacids "cucumber"'
p118
aS'antacids "anguilliformes (eel)"'
p119
aS'antacids "cuttlefish"'
p120
aS'antacids "dried milk"'
p121
aS'antacids "cottonseed"'
p122
aS'antacids "rapini"'
p123
aS'antacids "emu"'
p124
aS'antacids "butter"'
p125
aS'antacids "columbidae (dove, pigeon)"'
p126
aS'antacids "evening primrose"'
p127
aS'antacids "sake"'
p128
aS'antacids "mentha (mint)"'
p129
aS'antacids "fudge"'
p130
aS'antacids "squirrel"'
p131
aS'antacids "bean"'
p132
aS'antacids "carob"'
p133
aS'antacids "pancake"'
p134
aS'antacids "whisky"'
p135
aS'antacids "soup"'
p136
aS'antacids "lasagna"'
p137
aS'antacids "pineapple"'
p138
aS'antacids "other sandwich"'
p139
aS'antacids "milk (human)"'
p140
aS'antacids "orange mint"'
p141
aS'antacids "millet"'
p142
aS'antacids "nuts"'
p143
aS'antacids "oil palm"'
p144
aS'antacids "chia"'
p145
aS'antacids "chestnut"'
p146
aS'antacids "chocolate"'
p147
aS'antacids "salad dressing"'
p148
aS'antacids "salad"'
p149
aS'antacids "oyster mushroom"'
p150
aS'antacids "cocoa and cocoa products"'
p151
aS'antacids "yogurt"'
p152
aS'antacids "sweet potato"'
p153
aS'antacids "apple cider"'
p154
aS'antacids "pheasant"'
p155
aS'antacids "cooking oil"'
p156
aS'antacids "soft-necked garlic"'
p157
aS'antacids "honey"'
p158
aS'antacids "kefir"'
p159
aS'antacids "blue crab"'
p160
aS'antacids "peanut"'
p161
aS'antacids "walnut"'
p162
aS'antacids "grapefruit"'
p163
aS'antacids "catfish"'
p164
aS'antacids "chicory roots"'
p165
aS'antacids "atlantic salmon"'
p166
aS'antacids "conch"'
p167
aS'antacids "other animal fat"'
p168
aS'antacids "fruits"'
p169
aS'antacids "roe"'
p170
aS'antacids "sturgeon"'
p171
aS'antacids "rape"'
p172
aS'antacids "grape"'
p173
aS'antacids "roselle"'
p174
aS'antacids "pollock"'
p175
aS'antacids "sauce"'
p176
aS'antacids "true sole"'
p177
aS'antacids "icing"'
p178
aS'antacids "lemon"'
p179
aS'antacids "chili"'
p180
aS'antacids "horseradish"'
p181
aS'antacids "safflower"'
p182
aS'antacids "garden onion"'
p183
aS'antacids "coffee and coffee products"'
p184
aS'antacids "other candy"'
p185
aS'antacids "thistle"'
p186
aS'antacids "fats and oils"'
p187
aS'antacids "ice cream"'
p188
aS'antacids "rye"'
p189
aS'antacids "kelp"'
p190
aS'antacids "mulberry"'
p191
aS'antacids "pacific oyster"'
p192
aS'antacids "spirulina"'
p193
aS'antacids "other vegetable product"'
p194
aS'antacids "king mackerel"'
p195
aS'antacids "shark"'
p196
aS'antacids "morus"'
p197
aS'antacids "chelonia mydas"'
p198
aS'antacids "acipenseridae"'
p199
aS'antacids "lupinus albus"'
p200
aS'antacids "brassica napus"'
p201
aS'antacids "nelumbo"'
p202
aS'antacids "tamarindus indica"'
p203
aS'antacids "olea europaea"'
p204
aS'antacids "citrus sinensis"'
p205
aS'antacids "opuntia"'
p206
aS'antacids "procyon lotor"'
p207
aS'antacids "apium graveolens"'
p208
aS'antacids "cyprinus carpio"'
p209
aS'antacids "lactuca sativa"'
p210
aS'antacids "acipenser"'
p211
aS'antacids "columbidae"'
p212
aS'antacids "allium"'
p213
aS'antacids "ginkgo biloba"'
p214
aS'antacids "sisymbrium"'
p215
aS'antacids "gossypium"'
p216
aS'antacids "lagenaria siceraria"'
p217
aS'antacids "portulaca oleracea"'
p218
aS'antacids "perciformes"'
p219
aS'antacids "physalis"'
p220
aS'antacids "odocoileus"'
p221
a.