(lp0
S'acetaminophen "okra"'
p1
aS'acetaminophen "avocado"'
p2
aS'acetaminophen "fig"'
p3
aS'acetaminophen "lard"'
p4
aS'acetaminophen "gin"'
p5
aS'acetaminophen "cloves"'
p6
aS'acetaminophen "cichlidae (tilapia)"'
p7
aS'acetaminophen "burdock"'
p8
aS'acetaminophen "haddock"'
p9
aS'acetaminophen "poppy"'
p10
aS'acetaminophen "sorghum"'
p11
aS'acetaminophen "kale"'
p12
aS'acetaminophen "nutritional drink"'
p13
aS'acetaminophen "fennel"'
p14
aS'acetaminophen "sherry"'
p15
aS'acetaminophen "vegetarian food"'
p16
aS'acetaminophen "red algae"'
p17
aS'acetaminophen "cocoa butter"'
p18
aS'acetaminophen "common grape"'
p19
aS'acetaminophen "biscuit"'
p20
aS'acetaminophen "mung bean"'
p21
aS'acetaminophen "rainbow trout"'
p22
aS'acetaminophen "other fish product"'
p23
aS'acetaminophen "lotus"'
p24
aS'acetaminophen "liquor"'
p25
aS'acetaminophen "almond"'
p26
aS'acetaminophen "amaranth"'
p27
aS'acetaminophen "whey"'
p28
aS'acetaminophen "papaya"'
p29
aS'acetaminophen "steller sea lion"'
p30
aS'acetaminophen "wheat bread"'
p31
aS'acetaminophen "other bread"'
p32
aS'acetaminophen "cheese"'
p33
aS'acetaminophen "tofu"'
p34
aS'acetaminophen "oat"'
p35
aS'acetaminophen "pulses"'
p36
aS'acetaminophen "striped mullet"'
p37
aS'acetaminophen "common ling"'
p38
aS'acetaminophen "banana"'
p39
aS'acetaminophen "pizza"'
p40
aS'acetaminophen "mushrooms"'
p41
aS'acetaminophen "mustard"'
p42
aS'acetaminophen "snail"'
p43
aS'acetaminophen "acorn"'
p44
aS'acetaminophen "cabbage"'
p45
aS'acetaminophen "moose"'
p46
aS'acetaminophen "apple"'
p47
aS'acetaminophen "ginseng"'
p48
aS'acetaminophen "deer"'
p49
aS'acetaminophen "carrot"'
p50
aS'acetaminophen "chewing gum"'
p51
aS'acetaminophen "casein"'
p52
aS'acetaminophen "common carp"'
p53
aS'acetaminophen "greater sturgeon"'
p54
aS'acetaminophen "broccoli"'
p55
aS'acetaminophen "black radish"'
p56
aS'acetaminophen "pasta"'
p57
aS'acetaminophen "hamburger"'
p58
aS'acetaminophen "soft drink"'
p59
aS'acetaminophen "turmeric"'
p60
aS'acetaminophen "coconut"'
p61
aS'acetaminophen "canola"'
p62
aS'acetaminophen "quail"'
p63
aS'acetaminophen "wheat"'
p64
aS'acetaminophen "adzuki bean"'
p65
aS'acetaminophen "peppermint"'
p66
aS'acetaminophen "tallow"'
p67
aS'acetaminophen "walrus"'
p68
aS'acetaminophen "guava"'
p69
aS'acetaminophen "liquorice"'
p70
aS'acetaminophen "yam"'
p71
aS'acetaminophen "vinegar"'
p72
aS'acetaminophen "borage"'
p73
aS'acetaminophen "allium (onion)"'
p74
aS'acetaminophen "watercress"'
p75
aS'acetaminophen "shrimp"'
p76
aS'acetaminophen "cinnamon"'
p77
aS'acetaminophen "eggplant"'
p78
aS'acetaminophen "whiting"'
p79
aS'acetaminophen "radish"'
p80
aS'acetaminophen "lime"'
p81
aS'acetaminophen "shiitake"'
p82
aS'acetaminophen "saffron"'
p83
aS'acetaminophen "pineappple sage"'
p84
aS'acetaminophen "pomegranate"'
p85
aS'acetaminophen "dock"'
p86
aS'acetaminophen "swede"'
p87
aS'acetaminophen "spirit"'
p88
aS'acetaminophen "kiwi"'
p89
aS'acetaminophen "sesame"'
p90
aS'acetaminophen "strawberry"'
p91
aS'acetaminophen "rosemary"'
p92
aS'acetaminophen "dripping"'
p93
aS'acetaminophen "cassava"'
p94
aS'acetaminophen "sunflower"'
p95
aS'acetaminophen "dandelion"'
p96
aS'acetaminophen "fishes"'
p97
aS'acetaminophen "caraway"'
p98
aS'acetaminophen "crayfish"'
p99
aS'acetaminophen "celery leaves"'
p100
aS'acetaminophen "linden"'
p101
aS'acetaminophen "jellyfish"'
p102
aS'acetaminophen "port wine"'
p103
aS'acetaminophen "bilberry"'
p104
aS'acetaminophen "flour"'
p105
aS'acetaminophen "margarine"'
p106
aS'acetaminophen "other meat product"'
p107
aS'acetaminophen "jujube"'
p108
aS'acetaminophen "anguilliformes (eel)"'
p109
aS'acetaminophen "emu"'
p110
aS'acetaminophen "berry wine"'
p111
aS'acetaminophen "butter"'
p112
aS'acetaminophen "rubus (blackberry, raspberry)"'
p113
aS'acetaminophen "columbidae (dove, pigeon)"'
p114
aS'acetaminophen "sake"'
p115
aS'acetaminophen "mentha (mint)"'
p116
aS'acetaminophen "fenugreek"'
p117
aS'acetaminophen "squirrel"'
p118
aS'acetaminophen "whisky"'
p119
aS'acetaminophen "cumin"'
p120
aS'acetaminophen "soup"'
p121
aS'acetaminophen "lasagna"'
p122
aS'acetaminophen "other sandwich"'
p123
aS'acetaminophen "nuts"'
p124
aS'acetaminophen "eggs"'
p125
aS'acetaminophen "chestnut"'
p126
aS'acetaminophen "swiss chard"'
p127
aS'acetaminophen "chocolate"'
p128
aS'acetaminophen "potato"'
p129
aS'acetaminophen "oyster mushroom"'
p130
aS'acetaminophen "cocoa and cocoa products"'
p131
aS'acetaminophen "yogurt"'
p132
aS'acetaminophen "sweet potato"'
p133
aS'acetaminophen "pheasant"'
p134
aS'acetaminophen "pie"'
p135
aS'acetaminophen "rye bread"'
p136
aS'acetaminophen "peanut"'
p137
aS'acetaminophen "walnut"'
p138
aS'acetaminophen "grapefruit"'
p139
aS'acetaminophen "pigeon pea"'
p140
aS'acetaminophen "cocoa powder"'
p141
aS'acetaminophen "atlantic salmon"'
p142
aS'acetaminophen "other animal fat"'
p143
aS'acetaminophen "roe"'
p144
aS'acetaminophen "sturgeon"'
p145
aS'acetaminophen "durian"'
p146
aS'acetaminophen "rape"'
p147
aS'acetaminophen "angelica"'
p148
aS'acetaminophen "pollock"'
p149
aS'acetaminophen "barley"'
p150
aS'acetaminophen "icing"'
p151
aS'acetaminophen "crustaceans"'
p152
aS'acetaminophen "lemon"'
p153
aS'acetaminophen "asparagus"'
p154
aS'acetaminophen "red rice"'
p155
aS'acetaminophen "sourdough"'
p156
aS'acetaminophen "coffee and coffee products"'
p157
aS'acetaminophen "thistle"'
p158
aS'acetaminophen "tamarind"'
p159
aS'acetaminophen "ice cream"'
p160
aS'acetaminophen "rye"'
p161
aS'acetaminophen "spirulina"'
p162
aS'acetaminophen "other vegetable product"'
p163
aS'acetaminophen "shark"'
p164
aS'acetaminophen "phoenix dactylifera"'
p165
aS'acetaminophen "basella alba"'
p166
aS'acetaminophen "bivalvia"'
p167
aS'acetaminophen "lupinus albus"'
p168
aS'acetaminophen "auricularia polytricha"'
p169
aS'acetaminophen "rubus"'
p170
aS'acetaminophen "cynara scolymus"'
p171
aS'acetaminophen "rubus idaeus"'
p172
aS'acetaminophen "citrus sinensis"'
p173
aS'acetaminophen "opuntia"'
p174
aS'acetaminophen "bubalus bubalis"'
p175
aS'acetaminophen "apium graveolens"'
p176
aS'acetaminophen "cyprinus carpio"'
p177
aS'acetaminophen "manihot esculenta"'
p178
aS'acetaminophen "columbidae"'
p179
aS'acetaminophen "allium"'
p180
aS'acetaminophen "ginkgo biloba"'
p181
aS'acetaminophen "gossypium"'
p182
aS'acetaminophen "pimpinella anisum"'
p183
aS'acetaminophen "portulaca oleracea"'
p184
aS'acetaminophen "carica papaya"'
p185
aS'acetaminophen "armoracia rusticana"'
p186
aS'acetaminophen "oncorhynchus kisutch"'
p187
aS'acetaminophen "vitis"'
p188
aS'acetaminophen "ipomoea batatas"'
p189
aS'acetaminophen "hordeum vulgare"'
p190
aS'acetaminophen "cyathea"'
p191
aS'acetaminophen "allium sativum"'
p192
aS'acetaminophen "raphanus sativus"'
p193
aS'acetaminophen "daucus carota"'
p194
aS'acetaminophen "oncorhynchus mykiss"'
p195
aS'acetaminophen "hibiscus sabdariffa"'
p196
aS'acetaminophen "cichorium intybus"'
p197
aS'acetaminophen "zea mays"'
p198
aS'acetaminophen "thymus vulgaris"'
p199
aS'acetaminophen "crassostrea gigas"'
p200
aS'acetaminophen "psidium guajava"'
p201
aS'acetaminophen "crocus sativus"'
p202
aS'acetaminophen "solanum melongena"'
p203
aS'acetaminophen "lepidium sativum"'
p204
aS'acetaminophen "cinnamomum"'
p205
aS'acetaminophen "oryza sativa"'
p206
aS'acetaminophen "cucurbita"'
p207
aS'acetaminophen "myristica fragrans"'
p208
aS'acetaminophen "ocimum basilicum"'
p209
aS'acetaminophen "durio zibethinus"'
p210
aS'acetaminophen "curcuma longa"'
p211
aS'acetaminophen "oncorhynchus"'
p212
aS'acetaminophen "pinus"'
p213
aS'acetaminophen "corylus avellana"'
p214
aS'acetaminophen "allium cepa"'
p215
aS'acetaminophen "moringa oleifera"'
p216
aS'acetaminophen "cymbopogon citratus"'
p217
aS'acetaminophen "momordica charantia"'
p218
aS'acetaminophen "arctium lappa"'
p219
aS'acetaminophen "amaranthus"'
p220
aS'acetaminophen "laminaria"'
p221
aS'acetaminophen "chondrus crispus"'
p222
aS'acetaminophen "anguilla"'
p223
aS'acetaminophen "rhodophyta"'
p224
aS'acetaminophen "linum usitatissimum"'
p225
aS'acetaminophen "cajanus cajan"'
p226
aS'acetaminophen "hibiscus sabbariffa"'
p227
aS'acetaminophen "piper nigrum"'
p228
aS'acetaminophen "beta vulgaris"'
p229
aS'acetaminophen "salmo salar"'
p230
aS'acetaminophen "mentha"'
p231
aS'acetaminophen "pleurotus ostreatus"'
p232
aS'acetaminophen "corylus"'
p233
aS'acetaminophen "cirsium"'
p234
aS'acetaminophen "zingiber officinale"'
p235
aS'acetaminophen "prunus"'
p236
aS'acetaminophen "eriobotrya japonica"'
p237
aS'acetaminophen "myrica rubra"'
p238
aS'acetaminophen "myrica"'
p239
aS'acetaminophen "panax"'
p240
aS'acetaminophen "spirulina"'
p241
aS'acetaminophen "helianthus annuus"'
p242
aS'acetaminophen "brassica juncea"'
p243
aS'acetaminophen "mugil cephalus"'
p244
aS'acetaminophen "triticum"'
p245
aS'acetaminophen "sus scrofa"'
p246
aS'acetaminophen "lupinus"'
p247
aS'acetaminophen "camellia sinensis"'
p248
aS'acetaminophen "ziziphus zizyphus"'
p249
aS'acetaminophen "dioscorea"'
p250
aS'acetaminophen "eugenia"'
p251
aS'acetaminophen "angelica keiskei"'
p252
aS'acetaminophen "hippophae rhamnoides"'
p253
aS'acetaminophen "taraxacum officinale"'
p254
aS'acetaminophen "triticum aestivum"'
p255
aS'acetaminophen "vigna angularis"'
p256
aS'acetaminophen "b. alba"'
p257
aS'acetaminophen "bivalvia"'
p258
aS'acetaminophen "a. polytricha"'
p259
aS'acetaminophen "rubus"'
p260
aS'acetaminophen "lupinus"'
p261
aS'acetaminophen "r. glandulosum"'
p262
aS'acetaminophen "opuntia"'
p263
aS'acetaminophen "eugenia"'
p264
aS'acetaminophen "columbidae"'
p265
aS'acetaminophen "allium"'
p266
aS'acetaminophen "g. biloba"'
p267
aS'acetaminophen "gossypium"'
p268
aS'acetaminophen "c. papaya"'
p269
aS'acetaminophen "a. rusticana"'
p270
aS'acetaminophen "vitis"'
p271
aS'acetaminophen "a. cepa"'
p272
aS'acetaminophen "cyathea"'
p273
aS'acetaminophen "a. sativum"'
p274
aS'acetaminophen "o. mykiss"'
p275
aS'acetaminophen "h. sabdariffa"'
p276
aS'acetaminophen "c. gigas"'
p277
aS'acetaminophen "p. guajava"'
p278
aS'acetaminophen "cinnamomum"'
p279
aS'acetaminophen "cucurbita"'
p280
aS'acetaminophen "a. sativum"'
p281
aS'acetaminophen "l. edodes"'
p282
aS'acetaminophen "mentha"'
p283
aS'acetaminophen "oncorhynchus"'
p284
aS'acetaminophen "pinus"'
p285
aS'acetaminophen "a. cepa"'
p286
aS'acetaminophen "a. lappa"'
p287
aS'acetaminophen "amaranthus"'
p288
aS'acetaminophen "laminaria"'
p289
aS'acetaminophen "corylus"'
p290
aS'acetaminophen "anguilla"'
p291
aS'acetaminophen "m. kitt"'
p292
aS'acetaminophen "rhodophyta"'
p293
aS'acetaminophen "c. cajan"'
p294
aS'acetaminophen "m. x"'
p295
aS'acetaminophen "cirsium"'
p296
aS'acetaminophen "c. x"'
p297
aS'acetaminophen "z. officinale"'
p298
aS'acetaminophen "prunus"'
p299
aS'acetaminophen "o. x"'
p300
aS'acetaminophen "myrica"'
p301
aS'acetaminophen "panax"'
p302
aS'acetaminophen "p. vulgaris"'
p303
aS'acetaminophen "p. tomentosa"'
p304
aS'acetaminophen "triticum"'
p305
aS'acetaminophen "m. x"'
p306
aS'acetaminophen "dioscorea"'
p307
aS'acetaminophen "a. vulgaris"'
p308
aS'acetaminophen "spirulina"'
p309
aS'acetaminophen "t. officinale"'
p310
aS'acetaminophen "isorhamnetin 3-(2g-apiosylrutinoside)"'
p311
aS'acetaminophen "formononetin"'
p312
aS'acetaminophen "ellagic acid acetyl-arabinoside"'
p313
aS'acetaminophen "3,5,6-trihydroxy-5-(hydroxymethyl)-2-methoxy-2-cyclohexen-1-one"'
p314
aS'acetaminophen "6beta,7beta-dihydroxykaurenoic acid"'
p315
aS'acetaminophen "octanoic acid"'
p316
aS'acetaminophen "prostaglandin e-1"'
p317
aS'acetaminophen "beta-phenethyl alcohol"'
p318
aS'acetaminophen "kaempferol 3-feruloyl-triglucoside"'
p319
aS'acetaminophen "ginsenoside m7cd"'
p320
aS'acetaminophen "lf"'
p321
aS'acetaminophen "d-ribose"'
p322
aS'acetaminophen "luteolin 7-(6\'\'-apiosylglucoside)"'
p323
aS'acetaminophen "isorhamnetin 3-o-b-d-glucofuranoside 4\'-o-a-l-rhamnopyranoside"'
p324
aS'acetaminophen "isorhamnetin 3-vicianoside"'
p325
aS'acetaminophen "oxalic acid"'
p326
aS'acetaminophen "luteolin 3\'-(4\'\'-acetylglucuronide)"'
p327
aS'acetaminophen "kaurenoic acid"'
p328
aS'acetaminophen "flavan-3-ol"'
p329
aS'acetaminophen "vanillin"'
p330
aS'acetaminophen "d-mannose"'
p331
aS'acetaminophen "ash"'
p332
aS'acetaminophen "acetic acid ester"'
p333
aS'acetaminophen "epigallocatechin 3-gallate"'
p334
aS'acetaminophen "acetophenone"'
p335
aS'acetaminophen "bisdemethoxycurcumin"'
p336
aS'acetaminophen "n-methoxyspirobrassinol methyl ether"'
p337
aS'acetaminophen "isoflavones"'
p338
aS'acetaminophen "hex-cis-3-en-1-ol isobutyrate"'
p339
aS'acetaminophen "cysteinylglycine"'
p340
aS'acetaminophen "3,3\',4\',5,6,8-hexamethoxyflavone"'
p341
aS'acetaminophen "ruthenium"'
p342
aS'acetaminophen "(-)-menthol"'
p343
aS'acetaminophen "l-phenylalanine"'
p344
aS'acetaminophen "aloe emodin w-acetate"'
p345
aS'acetaminophen "1,8-cineole"'
p346
aS'acetaminophen "decanoic acid"'
p347
aS'acetaminophen "n-dodecane"'
p348
aS'acetaminophen "7-hydroxy-2,5-dimethyl-4h-1-benzopyran-4-one"'
p349
aS'acetaminophen "carbamoyl-phosphate"'
p350
aS'acetaminophen "malvin"'
p351
aS'acetaminophen "juglone"'
p352
aS'acetaminophen "4-methylsulfoxidebuten-(3)-yl cyanide"'
p353
aS'acetaminophen "diacylglycerol"'
p354
aS'acetaminophen "kaempferol 3-sophoroside-rhamnoside"'
p355
aS'acetaminophen "steviol"'
p356
aS'acetaminophen "4\'-methylliquiritigenin 7-glucoside"'
p357
aS'acetaminophen "(-)-borneol"'
p358
aS'acetaminophen "proanthocyanidins"'
p359
aS'acetaminophen "cytosine"'
p360
aS'acetaminophen "l-(-)-phenylalanine"'
p361
aS'acetaminophen "ethyl methyl amine"'
p362
aS'acetaminophen "vanillic acid"'
p363
aS'acetaminophen "2-ethylpyridine"'
p364
aS'acetaminophen "l-tryptophan"'
p365
aS'acetaminophen "cardiolipin"'
p366
aS'acetaminophen "4-hydroxy-3-prenylbenzoic acid glucoside"'
p367
aS'acetaminophen "porphobilinogen"'
p368
aS'acetaminophen "tyramine"'
p369
aS'acetaminophen "5,7-megastigmadien-9-ol glucoside"'
p370
aS'acetaminophen "glycyrrhiza triterpene"'
p371
aS'acetaminophen "chinese tannin"'
p372
aS'acetaminophen "epsilon-carotene"'
p373
aS'acetaminophen "kaempferol 3-(2g-rhamnosylgentiobioside)"'
p374
aS'acetaminophen "ginsenoside m6-bc"'
p375
aS'acetaminophen "4alpha,5alpha-epoxy-11-eudesmen-3a-ol"'
p376
aS'acetaminophen "(2e)-piperamide-c5:1"'
p377
aS'acetaminophen "trimethylamine"'
p378
aS'acetaminophen "4-ipomeanol"'
p379
aS'acetaminophen "2-methyl-1,5-dinitro-3-nitrosobenzene"'
p380
aS'acetaminophen "5\',8-dihydroxy-3\',4\',7-trimethoxyflavan"'
p381
aS'acetaminophen "epigallocatechin 3,4\'-digallate"'
p382
aS'acetaminophen "polyamines"'
p383
aS'acetaminophen "citral"'
p384
aS'acetaminophen "1,4-naphthoquinone"'
p385
aS'acetaminophen "3-methoxy-4-hydroxyphenylglycol"'
p386
aS'acetaminophen "epigallocatechin 3-(3-methylgallate)"'
p387
aS'acetaminophen "1-chloro-2,4-dinitrobenzene"'
p388
aS'acetaminophen "isopentyl isopentanoate"'
p389
aS'acetaminophen "cholestanol"'
p390
aS'acetaminophen "kaempferol 3-o-alpha-l-rhamnoside-beta-d-glucosyl"'
p391
aS'acetaminophen "l-lactic acid"'
p392
aS'acetaminophen "beta-glucan"'
p393
aS'acetaminophen "decanoate"'
p394
aS'acetaminophen "isothiocyanates"'
p395
aS'acetaminophen "germanium"'
p396
aS'acetaminophen "auxin b"'
p397
aS'acetaminophen "limonene"'
p398
aS'acetaminophen "thial-1-propene-1-thiol s-oxide"'
p399
aS'acetaminophen "thearubigin"'
p400
aS'acetaminophen "molybdenum"'
p401
aS'acetaminophen "utp"'
p402
aS'acetaminophen "p-coumaric acid"'
p403
aS'acetaminophen "quercitrin"'
p404
aS'acetaminophen "chlorophyll"'
p405
aS'acetaminophen "3,5-di-o-caffeoylquinic acid"'
p406
aS'acetaminophen "diosmetin 7-neohesperidoside"'
p407
aS'acetaminophen "isovitexin 2\'\'-galactoside"'
p408
aS'acetaminophen "liquiritin"'
p409
aS'acetaminophen "phosphofructokinase"'
p410
aS'acetaminophen "s-propyl 2-propene-1-sulfinothioate"'
p411
aS'acetaminophen "prunetin"'
p412
aS'acetaminophen "chlorogenic acid"'
p413
aS'acetaminophen "bupropion"'
p414
aS'acetaminophen "6-phospho d-gluconate"'
p415
aS'acetaminophen "dipentene o-diphenollactone"'
p416
aS'acetaminophen "(all-e)-6\'-apo-y-caroten-6\'-al"'
p417
aS'acetaminophen "mn2+"'
p418
aS'acetaminophen "glucoraphanin"'
p419
aS'acetaminophen "naringin 6\'\'-rhamnoside"'
p420
aS'acetaminophen "pentane"'
p421
aS'acetaminophen "apigenin 5-[4\'\'-rhamnosyl-6\'\'-acetylglucoside]"'
p422
aS'acetaminophen "2,5-dimethylthiazole"'
p423
aS'acetaminophen "isorhamnetin 3-rhamnosylgalactoside"'
p424
aS'acetaminophen "leukotriene-c4"'
p425
aS'acetaminophen "docusate sodium"'
p426
aS'acetaminophen "bisulfite"'
p427
aS'acetaminophen "laurate"'
p428
aS'acetaminophen "asiatic acid"'
p429
aS'acetaminophen "hydroxycinnamic acid"'
p430
aS'acetaminophen "kaempferol 3-o-rhamnodiglucoside"'
p431
aS'acetaminophen "n-butanol"'
p432
aS'acetaminophen "sulforaphane"'
p433
aS'acetaminophen "pterostilbene"'
p434
aS'acetaminophen "1,5-dicaffeoylquinic acid"'
p435
aS'acetaminophen "ajoene"'
p436
aS'acetaminophen "pyridoxal"'
p437
aS'acetaminophen "glucosidase"'
p438
aS'acetaminophen "monoterpenes"'
p439
aS'acetaminophen "vanillyl caproylamide"'
p440
aS'acetaminophen "silidianin"'
p441
aS'acetaminophen "pyrroline"'
p442
aS'acetaminophen "isodulcitol"'
p443
aS'acetaminophen "1-(4-hydroxy-3-methoxyphenyl)-3,5-diacetoxyoctane"'
p444
aS'acetaminophen "naringin"'
p445
aS'acetaminophen "kaempferol 3-o-glucosyl-rhamnosyl-galactoside"'
p446
aS'acetaminophen "styrene"'
p447
aS'acetaminophen "1-methyl 2-galloylgalactarate"'
p448
aS'acetaminophen "tantalum"'
p449
aS'acetaminophen "luteolin 7-disulfoglucoside"'
p450
aS'acetaminophen "guanosine"'
p451
aS'acetaminophen "protoporphyrin ix"'
p452
aS'acetaminophen "2-c-hydroxymethyl-d-erythrono-1,4-lactone"'
p453
aS'acetaminophen "safrole"'
p454
aS'acetaminophen "n-(2r-hydroxydocosanoyl)-2s-amino-1,3s,4r-octadecanetriol"'
p455
aS'acetaminophen "xmp"'
p456
aS'acetaminophen "dihydrolipoamide"'
p457
aS'acetaminophen "latex"'
p458
aS'acetaminophen "cincassiol d3"'
p459
aS'acetaminophen "corilagin"'
p460
aS'acetaminophen "s-propyl 1-propanesulfinothioate"'
p461
aS'acetaminophen "behenate"'
p462
aS'acetaminophen "hydrogen carbonate"'
p463
aS'acetaminophen "cytidine"'
p464
aS'acetaminophen "d-glucose"'
p465
aS'acetaminophen "crassostrea secocarotenoid"'
p466
aS'acetaminophen "luteolin 7-glucoside"'
p467
aS'acetaminophen "alpha-pinene"'
p468
aS'acetaminophen "hydroxytyrosol"'
p469
aS'acetaminophen "kaempferol 3-glucosylxyloside"'
p470
aS'acetaminophen "phloretin"'
p471
aS'acetaminophen "pentosan polysulfate"'
p472
aS'acetaminophen "hebevinoside xii"'
p473
aS'acetaminophen "isorhamnetin 3-arabino-glucoside"'
p474
aS'acetaminophen "fe3+"'
p475
aS'acetaminophen "quercitin 3-glucosyl-rhamnoside"'
p476
aS'acetaminophen "avocadyne 1-acetate"'
p477
aS'acetaminophen "4\',5,6,7,8-pentahydroxy-3\'-methoxyflavone"'
p478
aS'acetaminophen "hebevinoside xiv"'
p479
aS'acetaminophen "beta-galactosidase"'
p480
aS'acetaminophen "zn2+"'
p481
aS'acetaminophen "(2r)-1-o-beta-d-galactopyranosylglycerol"'
p482
aS'acetaminophen "luteolin"'
p483
aS'acetaminophen "epigallocatechin 3-(4-methylgallate)"'
p484
aS'acetaminophen "nicotinic acid"'
p485
aS'acetaminophen "pyrophosphate"'
p486
aS'acetaminophen "[9]-gingerol"'
p487
aS'acetaminophen "5-(methylthio)-pentanonitrile"'
p488
aS'acetaminophen "myo-inositol"'
p489
aS'acetaminophen "2\',4\',5,7-tetrahydroxy-8-prenylisoflavone"'
p490
aS'acetaminophen "fluorene"'
p491
aS'acetaminophen "hydrogen sulfide (h2s)"'
p492
aS'acetaminophen "d-glucaric acid"'
p493
aS'acetaminophen "strontium"'
p494
aS'acetaminophen "oxalacetic acid"'
p495
aS'acetaminophen "avocadene 1-acetate"'
p496
aS'acetaminophen "3-methoxy-4,5-methylenedioxypropylbenzene"'
p497
aS'acetaminophen "4-hydroxybenzoic acid"'
p498
aS'acetaminophen "harmine"'
p499
aS'acetaminophen "thromboxane a2"'
p500
aS'acetaminophen "eupatorin"'
p501
aS'acetaminophen "dihydromethysticin"'
p502
aS'acetaminophen "hexadecanoic acid"'
p503
aS'acetaminophen "7-epi-12-hydroxyjasmonic acid glucoside"'
p504
aS'acetaminophen "panaxatriol"'
p505
aS'acetaminophen "(-)-quinic acid"'
p506
aS'acetaminophen "punicalagin"'
p507
aS'acetaminophen "ferulic acid"'
p508
aS'acetaminophen "5-methylnaringenin 7-glucoside"'
p509
aS'acetaminophen "ginsenoside a2"'
p510
aS'acetaminophen "l-carnosine"'
p511
aS'acetaminophen "kaempferol 3-gluco-xyloside"'
p512
aS'acetaminophen "17alpha-ethynylestradiol"'
p513
aS'acetaminophen "opc"'
p514
aS'acetaminophen "6,7-dimethyoxy coumarin"'
p515
aS'acetaminophen "hypoxanthine"'
p516
aS'acetaminophen "2-propanol"'
p517
aS'acetaminophen "silibinin"'
p518
aS'acetaminophen "baicalein"'
p519
aS'acetaminophen "beta-amyrin"'
p520
aS'acetaminophen "ellagic acid 2-(6-glucosylglucoside)"'
p521
aS'acetaminophen "hesperidin"'
p522
aS'acetaminophen "rhein"'
p523
aS'acetaminophen "n-acetylneuraminic acid"'
p524
aS'acetaminophen "bromine"'
p525
aS'acetaminophen "undecanoic acid"'
p526
aS'acetaminophen "\xce\xb5,\xce\xb5-carotene-3-diol"'
p527
aS'acetaminophen "2\',2\'-dimethyl(pyrano-5\',6\':3:4)-1,5-dihydroxy-6-methoxy-10-methylacridone"'
p528
aS'acetaminophen "8-hydroxy-2-methoxy-6-methyl-1,4-naphthoquinone"'
p529
aS'acetaminophen "nobiletin"'
p530
aS'acetaminophen "6-epi-7-isocucurbic acid glucoside"'
p531
aS'acetaminophen "allantoin"'
p532
aS'acetaminophen "xylitol"'
p533
aS'acetaminophen "hexadecane"'
p534
aS'acetaminophen "thallium"'
p535
aS'acetaminophen "fukinolic acid"'
p536
aS'acetaminophen "betulin"'
p537
aS'acetaminophen "gentisic acid"'
p538
aS'acetaminophen "uricase"'
p539
aS'acetaminophen "propanoic acid"'
p540
aS'acetaminophen "2\',3,4\',5-tetrahydroxy-4-prenylstilbene"'
p541
aS'acetaminophen "lignin"'
p542
aS'acetaminophen "isopentyl alcohol"'
p543
aS'acetaminophen "8-c-ascorbylepigallocatechin 3-gallate"'
p544
aS'acetaminophen "n-heptane"'
p545
aS'acetaminophen "dihydrobenzofuran"'
p546
aS'acetaminophen "l-lysine"'
p547
aS'acetaminophen "apigenin 5-[4\'\'-rhamnosylglucoside]"'
p548
aS'acetaminophen "cetyl alcohol"'
p549
aS'acetaminophen "(-)-alpha-pinene"'
p550
aS'acetaminophen "n-(2r-hydroxyhexacosanoyl)-2s-amino-1,3s,4r-octadecanetriol"'
p551
aS'acetaminophen "purine"'
p552
aS'acetaminophen "ceramide"'
p553
aS'acetaminophen "codeine n-oxide"'
p554
aS'acetaminophen "glycolipids"'
p555
aS'acetaminophen "peroxiredoxin-(s-hydroxy-s-oxocysteine)"'
p556
aS'acetaminophen "phosphatidylethanolamine"'
p557
aS'acetaminophen "4-ethylphenol"'
p558
aS'acetaminophen "caprolactam"'
p559
aS'acetaminophen "dehydroascorbic acid"'
p560
aS'acetaminophen "fisetin"'
p561
aS'acetaminophen "spermidine"'
p562
aS'acetaminophen "tuberin"'
p563
aS'acetaminophen "nitrogenase"'
p564
aS'acetaminophen "beta-phenylethanol 6-beta-d-arabinofuranosyl-beta-d-glucopyranoside"'
p565
aS'acetaminophen "n,n-dimethylformamide"'
p566
aS'acetaminophen "4-hydroxyphenylacetic acid"'
p567
aS'acetaminophen "zein"'
p568
aS'acetaminophen "biochanin-a"'
p569
aS'acetaminophen "uranium"'
p570
aS'acetaminophen "ochratoxin a"'
p571
aS'acetaminophen "biochanin a"'
p572
aS'acetaminophen "propyl gallate"'
p573
aS'acetaminophen "4-vinylpyridine"'
p574
aS'acetaminophen "5\',5\'\'\'-diadenosine triphosphate"'
p575
aS'acetaminophen "cellobiose"'
p576
aS'acetaminophen "7-hydroxybutylidenephthalide 7-glucoside"'
p577
aS'acetaminophen "methacrylic acid"'
p578
aS'acetaminophen "sinensetin"'
p579
aS'acetaminophen "benzyl alcohol 6-o-l-arabinofuranosyl-beta-d-glucopyranoside"'
p580
aS'acetaminophen "piperine"'
p581
aS'acetaminophen "gamma-l-glutamyl-s-(2-carboxy-beta-methyl-ethyl)-cysteinyl-glycine"'
p582
aS'acetaminophen "cis-2,5-diethyl-tetrahydrofuran"'
p583
aS'acetaminophen "pc(16:0/p-16:0)"'
p584
aS'acetaminophen "integrin"'
p585
aS'acetaminophen "isorhamnetin 3,7-beta-d-diglucoside"'
p586
aS'acetaminophen "kaempferol 3-(2g-apiosylrobinobioside)"'
p587
aS'acetaminophen "benzaldehyde"'
p588
aS'acetaminophen "eremopetasitenin c2"'
p589
aS'acetaminophen "benzophenone"'
p590
aS'acetaminophen "1-phenyl-2,4-pentadiyn-1-one"'
p591
aS'acetaminophen "fumaric acid"'
p592
aS'acetaminophen "meso-zeaxanthin"'
p593
aS'acetaminophen "formononetin 7-(6\'\'-methylmalonylglucoside)"'
p594
aS'acetaminophen "polygalacturonase"'
p595
aS'acetaminophen "ginsenoside rg3"'
p596
aS'acetaminophen "gliadin"'
p597
aS'acetaminophen "d-galactose"'
p598
aS'acetaminophen "toluidine"'
p599
aS'acetaminophen "4-methylphenol"'
p600
aS'acetaminophen "7\',8\'-dihydro-8\'-hydroxycitraniaxanthin"'
p601
aS'acetaminophen "1-butanethiol"'
p602
aS'acetaminophen "ubiquinone 100"'
p603
aS'acetaminophen "isopropyl benzoate"'
p604
aS'acetaminophen "7-(4-hydroxy-3-methoxyphenyl)-5-methoxy-1-phenyl-3-heptanone"'
p605
aS'acetaminophen "neohesperidin dihydrochalcone"'
p606
aS'acetaminophen "pyrazine"'
p607
aS'acetaminophen "liquiritigenin"'
p608
aS'acetaminophen "2\'-hydroxy-3\',4\',5\',7,8-pentamethoxyflavan"'
p609
aS'acetaminophen "haematin"'
p610
aS'acetaminophen "dihydromaleimide beta-d-glucoside"'
p611
aS'acetaminophen "kaempferol 3-rhamno-glucoside"'
p612
aS'acetaminophen "kaempferol"'
p613
aS'acetaminophen "pyridoxine"'
p614
aS'acetaminophen "thebaine"'
p615
aS'acetaminophen "diosgenin"'
p616
aS'acetaminophen "6-(gamma,gamma-dimethylallyl-amino)-purine"'
p617
aS'acetaminophen "beta-methylthiopropionic acid ethyl ester"'
p618
aS'acetaminophen "l-homocysteine"'
p619
aS'acetaminophen "hederagenin"'
p620
aS'acetaminophen "3,4\',5,6,8-pentamethoxyflavone"'
p621
aS'acetaminophen "kynurenine"'
p622
aS'acetaminophen "acetic acid hex-cis-3-enyl ester"'
p623
aS'acetaminophen "isoquercitrin"'
p624
aS'acetaminophen "luteolin 3\'-(3\'\'-acetylglucuronide)"'
p625
aS'acetaminophen "pyrrolidine"'
p626
aS'acetaminophen "pyrrole"'
p627
aS'acetaminophen "hyperforin"'
p628
aS'acetaminophen "beta-sitosterol"'
p629
aS'acetaminophen "pyridine"'
p630
aS'acetaminophen "acrylic acid"'
p631
aS'acetaminophen "d-sorbitol"'
p632
aS'acetaminophen "deoxypyridinoline"'
p633
aS'acetaminophen "hex-cis-3-en-1-ol beta-d-glucoside"'
p634
aS'acetaminophen "uracil"'
p635
aS'acetaminophen "inulin"'
p636
aS'acetaminophen "7-epizucchini factor a"'
p637
aS'acetaminophen "saturated fatty acids"'
p638
aS'acetaminophen "2\'-oxoaloesol 7-glucoside"'
p639
aS'acetaminophen "methanethiol"'
p640
aS'acetaminophen "n-(2r-hydroxypentacosanoyl)-2s-amino-1,3s,4r-octadecanetriol"'
p641
aS'acetaminophen "iridium"'
p642
aS'acetaminophen "monoferulyl succinic acid"'
p643
aS'acetaminophen "flavones"'
p644
aS'acetaminophen "procyanidin"'
p645
aS'acetaminophen "phosphatidylcholine"'
p646
aS'acetaminophen "diethylamine"'
p647
aS'acetaminophen "pentadecane"'
p648
aS'acetaminophen "ent-6r,16boh,17-trihydroxy-7-oxo-6,7-seco-19,6-kauranolide 6-o-glucoside"'
p649
aS'acetaminophen "vitamin d3"'
p650
aS'acetaminophen "l-serine"'
p651
aS'acetaminophen "131-oxo-magnesium-protoporphyrin ix 13-monomethyl ester"'
p652
aS'acetaminophen "kaempferol 3-(2\'\'\'-caffeoylsophoroside) 7-cellobioside"'
p653
aS'acetaminophen "erythritol"'
p654
aS'acetaminophen "anthracene"'
p655
aS'acetaminophen "lupeol"'
p656
aS'acetaminophen "benzothiazole"'
p657
aS'acetaminophen "lignan"'
p658
aS'acetaminophen "gladiatoside b3"'
p659
aS'acetaminophen "riboflavin cyclic-4\',5\'-phosphate"'
p660
aS'acetaminophen "s-allylcysteine"'
p661
aS'acetaminophen "kaempferol 7-arabinoside"'
p662
aS'acetaminophen "pyrrolidine carboxylic acid"'
p663
aS'acetaminophen "cholate"'
p664
aS'acetaminophen "xi-5-isopropyl-2(5h)-furanone"'
p665
aS'acetaminophen "cytarabine"'
p666
aS'acetaminophen "13(s)-hydroperoxylinolenic acid"'
p667
aS'acetaminophen "carotenoids"'
p668
aS'acetaminophen "friedelin"'
p669
aS'acetaminophen "\xce\xb2-alanine"'
p670
aS'acetaminophen "[7]-gingerol"'
p671
aS'acetaminophen "ethanolamine"'
p672
aS'acetaminophen "isoeugenol"'
p673
aS'acetaminophen "carbamate"'
p674
aS'acetaminophen "tetrahydro-6-(2-hydroxy-16,19-dimethylhexacosyl)-4-methyl-2h-pyran-2-one"'
p675
aS'acetaminophen "tyrosol"'
p676
aS'acetaminophen "tocopherols"'
p677
aS'acetaminophen "dihydroxyacetone phosphate"'
p678
aS'acetaminophen "cerium"'
p679
aS'acetaminophen "chlorophyll a"'
p680
aS'acetaminophen "vitexin"'
p681
aS'acetaminophen "alpha,alpha-p-trimethylbenzyl alcohol ether"'
p682
aS'acetaminophen "eremopetasitenin d3"'
p683
aS'acetaminophen "ethylparaben"'
p684
aS'acetaminophen "phytomenadione"'
p685
aS'acetaminophen "fad"'
p686
aS'acetaminophen "sativoside r1"'
p687
aS'acetaminophen "3alpha,15-dihydroxymarasmene"'
p688
aS'acetaminophen "3-methoxy-4,5-methylenedioxycinnamaldehyde"'
p689
aS'acetaminophen "5-chloro-6-methoxy-2(3h)-benzoxazolone"'
p690
aS'acetaminophen "l-arabinose"'
p691
aS'acetaminophen "ms 3"'
p692
aS'acetaminophen "vitexin 2\'\'-xyloside"'
p693
aS'acetaminophen "carbamoylphosphate"'
p694
aS'acetaminophen "shikimic acid"'
p695
aS'acetaminophen "1,4-dimethoxybenzene"'
p696
aS'acetaminophen "dysprosium"'
p697
aS'acetaminophen "dimethylamine"'
p698
aS'acetaminophen "glycolate"'
p699
aS'acetaminophen "hebevinoside xiii"'
p700
aS'acetaminophen "alkanes"'
p701
aS'acetaminophen "cryptochrome"'
p702
aS'acetaminophen "rotenone"'
p703
aS'acetaminophen "trigonelline"'
p704
aS'acetaminophen "prolamine"'
p705
aS'acetaminophen "eriodictyol"'
p706
aS'acetaminophen "spermine"'
p707
aS'acetaminophen "ent-epigallocatechin 3-gallate"'
p708
aS'acetaminophen "(24s)-24-methyl-25-dehydrocholesterol"'
p709
aS'acetaminophen "2-bromophenol"'
p710
aS'acetaminophen "gallic acid"'
p711
aS'acetaminophen "ellagic acid"'
p712
aS'acetaminophen "5-octyl-cyclopenta-1,3-dione"'
p713
aS'acetaminophen "3-methylthiophene"'
p714
aS'acetaminophen "octane"'
p715
aS'acetaminophen "dl-lactic acid"'
p716
aS'acetaminophen "praseodymium"'
p717
aS'acetaminophen "molybdate"'
p718
aS'acetaminophen "(3s)-3-hydroxycyclocitral"'
p719
aS'acetaminophen "2,4-dinitrophenylhydrazone"'
p720
aS'acetaminophen "methyl acetate"'
p721
aS'acetaminophen "chymopapain"'
p722
aS'acetaminophen "d-glyceraldehyde 3-phosphate"'
p723
aS'acetaminophen "7\',8\'-dihydro-8\'-hydroxyreticulataxanthin"'
p724
aS'acetaminophen "cis-1-(propenyl-dithio)-propane"'
p725
aS'acetaminophen "kaempferol 3-(3r-glucosylrutinoside)"'
p726
aS'acetaminophen "4-hydroxy-3,5,5-trimethylcyclohexan-1-on-2-ene"'
p727
aS'acetaminophen "n-gamma-glutamylcysteine"'
p728
aS'acetaminophen "kaempferol 3-rhamnofuranoside"'
p729
aS'acetaminophen "arabinose"'
p730
aS'acetaminophen "l-alanine"'
p731
aS'acetaminophen "valerenic acid"'
p732
aS'acetaminophen "3-deoxy-d-arabino-hexono-1,4-lactone"'
p733
aS'acetaminophen "2-(3,4-dihydroxyphenyl)-5,6-dihydroxy-7-methoxy-4h-1-benzopyran-4-one"'
p734
aS'acetaminophen "lycopene"'
p735
aS'acetaminophen "orotic acid"'
p736
aS'acetaminophen "ribonuclease"'
p737
aS'acetaminophen "hydrogen sulfide"'
p738
aS'acetaminophen "hesperidin 7-o-alpha-l-rhamno-glucoside"'
p739
aS'acetaminophen "4\'-hydroxyacetophenone"'
p740
aS'acetaminophen "l-valine"'
p741
aS'acetaminophen "prostaglandin-h2"'
p742
aS'acetaminophen "dctp"'
p743
aS'acetaminophen "myristicin"'
p744
aS'acetaminophen "allixin"'
p745
aS'acetaminophen "methionine sulfoxide"'
p746
aS'acetaminophen "emodin"'
p747
aS'acetaminophen "epigallocatechin"'
p748
aS'acetaminophen "papain"'
p749
aS'acetaminophen "pinene"'
p750
aS'acetaminophen "biochanin a 7-(6-methylmalonylglucoside)"'
p751
aS'acetaminophen "luteolin 7-malonylglucoside"'
p752
aS'acetaminophen "1-(4-hydroxy-3-methoxyphenyl)-5-(4-hydroxyphenyl)-penta-trans-1-trans-4-dien-3-one"'
p753
aS'acetaminophen "peroxiredoxin-(s-hydroxycysteine)"'
p754
aS'acetaminophen "trans-2-decadienic acid ethyl ester"'
p755
aS'acetaminophen "deoxyuridine"'
p756
aS'acetaminophen "protein r"'
p757
aS'acetaminophen "caffeoylquinic acid"'
p758
aS'acetaminophen "deoxycytidine"'
p759
aS'acetaminophen "lipoamide"'
p760
aS'acetaminophen "phytol"'
p761
aS'acetaminophen "kaempferol 3-(6-acetylgalactoside)"'
p762
aS'acetaminophen "sodium nitrite"'
p763
aS'acetaminophen "2-amino-3-methylimidazo[4,5-f]quinoline"'
p764
aS'acetaminophen "(5z,8z)-1,5,8-heptadecatriene"'
p765
aS'acetaminophen "hexenoic acid"'
p766
aS'acetaminophen "triacylglycerol"'
p767
aS'acetaminophen "s-allylmercaptocysteine"'
p768
aS'acetaminophen "hydroxylamine"'
p769
aS'acetaminophen "genistein"'
p770
aS'acetaminophen "allicin"'
p771
aS'acetaminophen "1,5-dihydroxyxanthone"'
p772
aS'acetaminophen "s-propyl 1-propenesulfinothioate"'
p773
aS'acetaminophen "apigenin 7-o-beta-d-galactomannoside"'
p774
aS'acetaminophen "2-acetoxy-3-geranylgeranyl-1,4-dihydroxybenzene"'
p775
aS'acetaminophen "pantothenic acid"'
p776
aS'acetaminophen "apigenin 3,6-di-c-glucoside"'
p777
aS'acetaminophen "trehalose"'
p778
aS'acetaminophen "kaempferol 3-feruloyltriglucoside"'
p779
aS'acetaminophen "m-secociguatoxin 4a"'
p780
aS'acetaminophen "n-(2r-hydroxytricosanoyl)-2s-amino-1,3s,4r-octadecanetriol"'
p781
aS'acetaminophen "isovitexin 2\'\'-arabinoside"'
p782
aS'acetaminophen "5-hydroxytryptophol"'
p783
aS'acetaminophen "dimethyl disulfide"'
p784
aS'acetaminophen "2-oxoglutarate"'
p785
aS'acetaminophen "limonexic acid"'
p786
aS'acetaminophen "deoxyuridine triphosphate"'
p787
aS'acetaminophen "phenylhydrazine"'
p788
aS'acetaminophen "s-methyl-5-thio-\xce\xb1-d-ribose 1-phosphate"'
p789
aS'acetaminophen "s-carboxymethyl-l-cysteine"'
p790
aS'acetaminophen "apigenin 7-rhamnosylglucoside"'
p791
aS'acetaminophen "isorhamnetin 3-rhamnodiglucoside"'
p792
aS'acetaminophen "carbon disulfide"'
p793
aS'acetaminophen "butyl phenylacetate"'
p794
aS'acetaminophen "o-quinone"'
p795
aS'acetaminophen "salidroside"'
p796
aS'acetaminophen "carotene"'
p797
aS'acetaminophen "genistein 7-o-(2-p-coumaroylglucoside)"'
p798
aS'acetaminophen "dihydrosphingosine"'
p799
aS'acetaminophen "2\'-deoxyguanosine"'
p800
aS'acetaminophen "allyl-1-propenyl tetrasulfide"'
p801
aS'acetaminophen "samarium"'
p802
aS'acetaminophen "calcium oxalate"'
p803
aS'acetaminophen "formononetin 7-(2-p-hydroxybenzoylglucoside)"'
p804
aS'acetaminophen "2-nonenal"'
p805
aS'acetaminophen "arjunolic acid"'
p806
aS'acetaminophen "\xce\xb3-tocopherol"'
p807
aS'acetaminophen "dihydroxycinnamic acid"'
p808
aS'acetaminophen "cinnamic acid"'
p809
aS'acetaminophen "3-(4-hydroxy-3-methoxyphenyl)-1-glucosyl-prop-2-ene"'
p810
aS'acetaminophen "silicristin"'
p811
aS'acetaminophen "stigmasterol"'
p812
aS'acetaminophen "cinnamaldehyde"'
p813
aS'acetaminophen "isosilybin"'
p814
aS'acetaminophen "gladiatoside c2"'
p815
aS'acetaminophen "methyl phenyl sulfide"'
p816
aS'acetaminophen "3-methyladenine"'
p817
aS'acetaminophen "liquiritin 2\'\'-apioside"'
p818
aS'acetaminophen "kaempferol 7-(6\'\'-p-coumaroylglucoside)"'
p819
aS'acetaminophen "thymoquinone"'
p820
aS'acetaminophen "dioscin"'
p821
aS'acetaminophen "d-pinitol"'
p822
aS'acetaminophen "cyclic gmp"'
p823
aS'acetaminophen "chiro-inositol"'
p824
aS'acetaminophen "sufloquinovosyl diglyceride"'
p825
aS'acetaminophen "d-xylose"'
p826
aS'acetaminophen "3b,18b-3-methoxy-11-oxo-12-oleanen-30-oic acid"'
p827
aS'acetaminophen "(25s)-26-hydroxy-24-methylenecycloartan-3-one"'
p828
aS'acetaminophen "menthofuran"'
p829
aS'acetaminophen "butter acids"'
p830
aS'acetaminophen "l-cystine"'
p831
aS'acetaminophen "tungsten"'
p832
aS'acetaminophen "kaempferol 3-o-beta-d-xylofuranoside"'
p833
aS'acetaminophen "daidzein"'
p834
aS'acetaminophen "hg2+"'
p835
aS'acetaminophen "fukiic acid"'
p836
aS'acetaminophen "myricetin 3-(6\'\'-acetylgalactoside)"'
p837
aS'acetaminophen "octopamine"'
p838
aS'acetaminophen "(s)-1\',2\'-epoxy-1\',2\'-dihydro-b,y-carotene"'
p839
aS'acetaminophen "phenoxyacetic acid"'
p840
aS'acetaminophen "lactyltrimethylammonium betaine"'
p841
aS'acetaminophen "plumbagin"'
p842
aS'acetaminophen "taxifolin"'
p843
aS'acetaminophen "udp-xylose"'
p844
aS'acetaminophen "kaempferol 3-o-xylosyl-rutinoside"'
p845
aS'acetaminophen "3-(3,4-dihydroxyphenyl)lactic acid"'
p846
aS'acetaminophen "alkaloid a6"'
p847
aS'acetaminophen "lysozyme"'
p848
aS'acetaminophen "oleate"'
p849
aS'acetaminophen "citrinin"'
p850
aS'acetaminophen "cellulase"'
p851
aS'acetaminophen "cis-2,8-menthadien-2-ol"'
p852
aS'acetaminophen "alpha-amyrin tetratriacontanoate"'
p853
aS'acetaminophen "benzyl alcohol"'
p854
aS'acetaminophen "kaempferol 3-(2\'\'\'-sinapoylsophoroside) 7-cellobioside"'
p855
aS'acetaminophen "isorhamnetin 3-dirhamnoside"'
p856
aS'acetaminophen "4-aminobenzoic acid"'
p857
aS'acetaminophen "apigenin 7-di-o-xyloside"'
p858
aS'acetaminophen "allyl-1-propenyl trisulfide"'
p859
aS'acetaminophen "nervonic acid"'
p860
aS'acetaminophen "d-cysteine"'
p861
aS'acetaminophen "debenzoylzucchini factor b"'
p862
aS'acetaminophen "kaempferol 3-(2g-p-coumaroylrutinoside)"'
p863
aS'acetaminophen "isorhamnetin"'
p864
aS'acetaminophen "betulinic acid"'
p865
aS'acetaminophen "kaempferol 3-(2\\"'
p866
aS'acetaminophen "4-vinyl-4-deethyl chlorophyll a"'
p867
aS'acetaminophen "myricetin"'
p868
aS'acetaminophen "guanine"'
p869
aS'acetaminophen "cyclohexanones"'
p870
aS'acetaminophen "diaminopimelic acid"'
p871
aS'acetaminophen "acrolein"'
p872
aS'acetaminophen "biochanin c"'
p873
aS'acetaminophen "yttrium"'
p874
aS'acetaminophen "2-hydroxy-3,5,5-trimethylcyclohexa-1,4-dion-2-ene"'
p875
aS'acetaminophen "xantofyl palmitate"'
p876
aS'acetaminophen "phthalic acid"'
p877
aS'acetaminophen "l-tyrosine"'
p878
aS'acetaminophen "apigenin"'
p879
aS'acetaminophen "fmn"'
p880
aS'acetaminophen "(e)-10,11-dihydro-alpha-atlantone"'
p881
aS'acetaminophen "alpha-linolenic acid"'
p882
aS'acetaminophen "2\'\'-o-alpha-rhamnosyl-6-c-(6-deoxo-xylo-hexos-4-ulosyl)-apigenin"'
p883
aS'acetaminophen "hygrine"'
p884
aS'acetaminophen "l-aspartate"'
p885
aS'acetaminophen "phloretic acid"'
p886
aS'acetaminophen "oxalate"'
p887
aS'acetaminophen "kaempferol 3-o-alpha-l-galactoside"'
p888
aS'acetaminophen "2-deoxy-d-lyxono-1,4-lactone"'
p889
aS'acetaminophen "apigenin 7-digalacturonoside"'
p890
aS'acetaminophen "chrysin"'
p891
aS'acetaminophen "isoquercitrin 4\'\'-rhamnoside"'
p892
aS'acetaminophen "n1,n10-dicoumaroylspermidine"'
p893
aS'acetaminophen "apigenin 7-arabinoside"'
p894
aS'acetaminophen "ginkgolide c"'
p895
aS'acetaminophen "ginkgolide b"'
p896
aS'acetaminophen "ginkgolide a"'
p897
aS'acetaminophen "ginkgolide j"'
p898
aS'acetaminophen "vicenin"'
p899
aS'acetaminophen "dicoumarol"'
p900
aS'acetaminophen "carnosic acid"'
p901
aS'acetaminophen "l-proline"'
p902
aS'acetaminophen "cu2+"'
p903
aS'acetaminophen "azulene"'
p904
aS'acetaminophen "beta-carotene"'
p905
aS'acetaminophen "hippuric acid"'
p906
aS'acetaminophen "indole-3-acetic acid cellulosiglucan"'
p907
aS'acetaminophen "d-fructose"'
p908
aS'acetaminophen "isogenistein 7-glucoside"'
p909
aS'acetaminophen "luteolin 7-(2\'\'-apiosylglucoside)"'
p910
aS'acetaminophen "sesamol"'
p911
aS'acetaminophen "sedoheptulose"'
p912
aS'acetaminophen "ethyl acrylate"'
p913
aS'acetaminophen "mfa"'
p914
aS'acetaminophen "barium"'
p915
aS'acetaminophen "polyacetylene"'
p916
aS'acetaminophen "ethyl acetoacetate"'
p917
aS'acetaminophen "selenate"'
p918
aS'acetaminophen "dihydrolipoate"'
p919
aS'acetaminophen "dimethyl peroxide"'
p920
aS'acetaminophen "sennoside a"'
p921
aS'acetaminophen "phloroglucinol"'
p922
aS'acetaminophen "okadaic acid"'
p923
aS'acetaminophen "agavasaponin c\'"'
p924
aS'acetaminophen "cyanate"'
p925
aS'acetaminophen "alkaloid"'
p926
aS'acetaminophen "bentonite"'
p927
aS'acetaminophen "dimethyl sulfide"'
p928
aS'acetaminophen "myosmine"'
p929
aS'acetaminophen "(+)-alpha-pinene"'
p930
aS'acetaminophen "selenocysteine"'
p931
aS'acetaminophen "betaine"'
p932
aS'acetaminophen "thymine"'
p933
aS'acetaminophen "piperenol a triacetate"'
p934
aS'acetaminophen "di-o-punicyl-o-octadeca-8z,11z,13e-trienylglycerol"'
p935
aS'acetaminophen "cuscohygrine"'
p936
aS'acetaminophen "tormentic acid"'
p937
aS'acetaminophen "anethole"'
p938
aS'acetaminophen "raffinose"'
p939
aS'acetaminophen "(6e)-piperamide-c7:1"'
p940
aS'acetaminophen "myoglobin"'
p941
aS'acetaminophen "prostaglandin b-2"'
p942
aS'acetaminophen "1,3,7-trimethyluric acid"'
p943
aS'acetaminophen "sphingosine"'
p944
aS'acetaminophen "2,4-decadienal"'
p945
aS'acetaminophen "fe2+"'
p946
aS'acetaminophen "(+)-6-hydroxy-2,6-dimethyl-7-octen-4-one"'
p947
aS'acetaminophen "1,7,7-trimethyltricyclo[2.2.1.02,6]heptane"'
p948
aS'acetaminophen "mequinol"'
p949
aS'acetaminophen "ptr toxin"'
p950
aS'acetaminophen "7-(4-hydroxyphenyl)-1-phenyl-4-hepten-3-one"'
p951
aS'acetaminophen "succinic acid"'
p952
aS'acetaminophen "anthranilic acid"'
p953
aS'acetaminophen "3-hydroxyanthranilic acid"'
p954
aS'acetaminophen "hydroxybupropion"'
p955
aS'acetaminophen "2-amino-3,4-dihydroxypentanedioic acid"'
p956
aS'acetaminophen "haem"'
p957
aS'acetaminophen "pterin"'
p958
aS'acetaminophen "gamma-l-glutamyl-s-(2-carboxy-1-propyl)cysteinylglycine"'
p959
aS'acetaminophen "gamma-sitosterol"'
p960
aS'acetaminophen "d-glyceraldehyde"'
p961
aS'acetaminophen "pyridoxal 5\'-phosphate"'
p962
aS'acetaminophen "2-(2-carboxy-4-methylthiazol-5-yl)ethyl phosphate"'
p963
aS'acetaminophen "apigenin 8-c-rhamnosyl-glucoside"'
p964
aS'acetaminophen "isosafrole"'
p965
aS'acetaminophen "citicoline"'
p966
aS'acetaminophen "retinol palmitate"'
p967
aS'acetaminophen "diacetyl"'
p968
aS'acetaminophen "dimethyl styrene"'
p969
aS'acetaminophen "chrysarone methyl ether"'
p970
aS'acetaminophen "carbadox"'
p971
aS'acetaminophen "apigenin 6-c-glucoside 8-c-riboside"'
p972
aS'acetaminophen "galangin"'
p973
aS'acetaminophen "protopanaxadiol"'
p974
aS'acetaminophen "xanthophylls"'
p975
aS'acetaminophen "kaempferol 3-(2g-glucosylgentiobioside)"'
p976
aS'acetaminophen "methyleugenol"'
p977
aS'acetaminophen "l-glutamic acid"'
p978
aS'acetaminophen "squalene"'
p979
aS'acetaminophen "n1-acetylspermine"'
p980
aS'acetaminophen "ferulate"'
p981
aS'acetaminophen "glycyrrhizin"'
p982
aS'acetaminophen "3,3\',4\',7,8-pentamethylgossypetin"'
p983
aS'acetaminophen "methoxyl"'
p984
aS'acetaminophen "d-mannitol"'
p985
aS'acetaminophen "zirconium"'
p986
aS'acetaminophen "isolimocitrol 3-beta-d-glucoside"'
p987
aS'acetaminophen "(-)-trans-2,5-diethyltetrahydrofuran"'
p988
aS'acetaminophen "carbamic acid"'
p989
aS'acetaminophen "ctp"'
p990
aS'acetaminophen "eicosapentaenoic acid"'
p991
aS'acetaminophen "gentiobiose"'
p992
aS'acetaminophen "leukotriene b4"'
p993
aS'acetaminophen "kaempferol 3-coumaroyl-triglucoside"'
p994
aS'acetaminophen "maleic acid"'
p995
aS'acetaminophen "luteolin 7-rhamnosylglucoside"'
p996
aS'acetaminophen "1-rhamnono-1,4-lactone"'
p997
aS'acetaminophen "uvaol"'
p998
aS'acetaminophen "cincassiol c2"'
p999
aS'acetaminophen "2-butanol"'
p1000
aS'acetaminophen "1-methylpyrrole"'
p1001
aS'acetaminophen "tellurium"'
p1002
aS'acetaminophen "kaempferol 3-o-rhamnosyl-rhamnosyl-glucoside"'
p1003
aS'acetaminophen "octacosanoic acid"'
p1004
aS'acetaminophen "salicyl alcohol"'
p1005
aS'acetaminophen "hydroxamic acid"'
p1006
aS'acetaminophen "ubiquinone 9"'
p1007
aS'acetaminophen "6-hydroxymelatonin"'
p1008
aS'acetaminophen "terpene"'
p1009
aS'acetaminophen "glutaminase"'
p1010
aS'acetaminophen "myricetin 3-(4\'\'-acetylrhamnoside)"'
p1011
aS'acetaminophen "apigenin 6-c-glucosyl-o-arabinoside"'
p1012
aS'acetaminophen "anthocyanins"'
p1013
aS'acetaminophen "1-deoxy-l-glycero-tetrulose 4-phosphate"'
p1014
aS'acetaminophen "phenylacetate"'
p1015
aS'acetaminophen "tartaric acid"'
p1016
aS'acetaminophen "lanthanum"'
p1017
aS'acetaminophen "vanadium"'
p1018
aS'acetaminophen "palladium"'
p1019
aS'acetaminophen "ethyl hydrogen sulfate"'
p1020
aS'acetaminophen "eugenol"'
p1021
aS'acetaminophen "pc(p-16:0/20:0)"'
p1022
aS'acetaminophen "ethanethiol"'
p1023
aS'acetaminophen "isovitexin"'
p1024
aS'acetaminophen "(s)-2,3-dihydro-5-hydroxy-2-methyl-1,4-naphthoquinone"'
p1025
aS'acetaminophen "coenzyme q"'
p1026
aS'acetaminophen "luteolin 7-glucuronylglucoside"'
p1027
aS'acetaminophen "apigenin 7-glucuronosyl-glucoside"'
p1028
aS'acetaminophen "antimony"'
p1029
aS'acetaminophen "citromitin"'
p1030
aS'acetaminophen "5alpha-stigmastan-3,6-dione"'
p1031
aS'acetaminophen "phenylacetic acid"'
p1032
aS'acetaminophen "1,4-benzoquinone"'
p1033
aS'acetaminophen "gmp"'
p1034
aS'acetaminophen "epicatechin"'
p1035
aS'acetaminophen "scordinine b-1"'
p1036
aS'acetaminophen "estriol"'
p1037
aS'acetaminophen "17\xce\xb2-estradiol"'
p1038
aS'acetaminophen "2,3-dihydroxybenzoic acid"'
p1039
aS'acetaminophen "lapachenole"'
p1040
aS'acetaminophen "1-hydroxy-2,12,15-heneicosatrien-4-one"'
p1041
aS'acetaminophen "zeaxanthin"'
p1042
aS'acetaminophen "1-hydroxy-3,5-dimethoxy-2-prenylxanthone"'
p1043
aS'acetaminophen "quinolinic acid"'
p1044
aS'acetaminophen "alpha-lipoic acid"'
p1045
aS'acetaminophen "sulfite"'
p1046
aS'acetaminophen "domoic acid"'
p1047
aS'acetaminophen "kaempferol 7-(3g-glucosylgentiobioside)"'
p1048
aS'acetaminophen "kaempferol 3-(2\'\'-rhamnosylrutinoside)"'
p1049
aS'acetaminophen "campest-4-en-3,6-dione"'
p1050
aS'acetaminophen "datp"'
p1051
aS'acetaminophen "scoparone"'
p1052
aS'acetaminophen "7\',9\'-cis-lycopene"'
p1053
aS'acetaminophen "selenite"'
p1054
aS'acetaminophen "isovitexin 6\'\'-rhamnoside"'
p1055
aS'acetaminophen "dihydroxyferuloyl-sinapoyl spermidine"'
p1056
aS'acetaminophen "imp"'
p1057
aS'acetaminophen "3\',4\',5,7,8-pentamethoxyflavanone"'
p1058
aS'acetaminophen "l-dopa"'
p1059
aS'acetaminophen "methyl salicylate"'
p1060
aS'acetaminophen "kaempferol 3-(2\'\'\'-feruloylsophoroside) 7-cellobioside"'
p1061
aS'acetaminophen "morin"'
p1062
aS'acetaminophen "putrescine"'
p1063
aS'acetaminophen "(24s)-24-ethylbrassinone"'
p1064
aS'acetaminophen "(+)-pulegone"'
p1065
aS'acetaminophen "d-glucuronic acid"'
p1066
aS'acetaminophen "acetyl-coa"'
p1067
aS'acetaminophen "cyclohexane"'
p1068
aS'acetaminophen "linoleate"'
p1069
aS'acetaminophen "gamma-tocopherol"'
p1070
aS'acetaminophen "hemin"'
p1071
aS'acetaminophen "nicotinate"'
p1072
aS'acetaminophen "tetracosanoic acid"'
p1073
aS'acetaminophen "dehydroepiandrosterone"'
p1074
aS'acetaminophen "isovitexin 2\'\'-caffeoylglucoside"'
p1075
aS'acetaminophen "methylparaben"'
p1076
aS'acetaminophen "phosphatidylglycerol"'
p1077
aS'acetaminophen "methionine-sulfoxide"'
p1078
aS'acetaminophen "i2"'
p1079
aS'acetaminophen "kaempferol 7-rhamnofuranoside"'
p1080
aS'acetaminophen "scordinine b-3"'
p1081
aS'acetaminophen "3,4-dihydroxybenzaldehyde"'
p1082
aS'acetaminophen "n-(2-hydroxybenzoyl)glycine"'
p1083
aS'acetaminophen "benzofuran"'
p1084
aS'acetaminophen "osmium"'
p1085
aS'acetaminophen "1-butanol"'
p1086
aS'acetaminophen "sitosterol"'
p1087
aS'acetaminophen "pc(p-16:0/16:0)"'
p1088
aS'acetaminophen "3,4-dihydroxyphenylacetic acid"'
p1089
aS'acetaminophen "beta-d-(1->3)-glucan"'
p1090
aS'acetaminophen "beta-lactoglobulin"'
p1091
aS'acetaminophen "codeinone"'
p1092
aS'acetaminophen "glycolaldehyde"'
p1093
aS'acetaminophen "punicalin"'
p1094
aS'acetaminophen "syringic acid"'
p1095
aS'acetaminophen "ergocalciferol"'
p1096
aS'acetaminophen "inosine"'
p1097
aS'acetaminophen "n1-acetylspermidine"'
p1098
aS'acetaminophen "(r)-2\',4\',7-trihydroxy-3\',8-diprenylisoflavan"'
p1099
aS'acetaminophen "2-deoxy-l-ribono-1,4-lactone"'
p1100
aS'acetaminophen "rosmarinic acid"'
p1101
aS'acetaminophen "malic acid"'
p1102
aS'acetaminophen "gallium"'
p1103
aS'acetaminophen "xylene"'
p1104
aS'acetaminophen "arbutin"'
p1105
aS'acetaminophen "l-glutamate"'
p1106
aS'acetaminophen "luteolin 6-c-glucosyl-o-arabinoside"'
p1107
aS'acetaminophen "cd2+"'
p1108
aS'acetaminophen "glucosyl passiflorate"'
p1109
aS'acetaminophen "hydantoin"'
p1110
aS'acetaminophen "gamma-butyrolactone"'
p1111
aS'acetaminophen "pyruvic acid"'
p1112
aS'acetaminophen "n-acetylglucosamine"'
p1113
aS'acetaminophen "acetoacetate"'
p1114
aS'acetaminophen "apiosylglucosyl 4-hydroxybenzoate"'
p1115
aS'acetaminophen "ursolic acid"'
p1116
aS'acetaminophen "cyclic-gmp"'
p1117
aS'acetaminophen "phosphoenolpyruvate"'
p1118
aS'acetaminophen "gtp"'
p1119
aS'acetaminophen "guanosine triphosphate"'
p1120
aS'acetaminophen "3-(4-hydroxyphenyl)-3-hydroxy-propionyl-coa"'
p1121
aS'acetaminophen "hypericin"'
p1122
aS'acetaminophen "secologanin"'
p1123
aS'acetaminophen "kaempferol 3-o-rhamnosyl-rutinoside"'
p1124
aS'acetaminophen "potassium persulfate (k2s2o8)"'
p1125
aS'acetaminophen "solanidine"'
p1126
aS'acetaminophen "1,3-butanediol"'
p1127
aS'acetaminophen "methyl-cis-propenyl trisulfide"'
p1128
aS'acetaminophen "2\',4\',5,7,8-pentahydroxyisoflavone"'
p1129
aS'acetaminophen "dimethyl benzofuran"'
p1130
aS'acetaminophen "methyl-trans-propenyl trisulfide"'
p1131
aS'acetaminophen "quinoline"'
p1132
aS'acetaminophen "lutein"'
p1133
aS'acetaminophen "kaempferol 3-gluco-rhamnoside"'
p1134
aS'acetaminophen "phenethyl 6-galloylglucoside"'
p1135
aS'acetaminophen "samin"'
p1136
aS'acetaminophen "kaempferol 7-o-beta-d-glucoside-o-alpha-l-rhamnosyl"'
p1137
aS'acetaminophen "cobalamin"'
p1138
aS'acetaminophen "alpha-amylase"'
p1139
aS'acetaminophen "tetrahydrofolate"'
p1140
aS'acetaminophen "hex-cis-3-en-1-ol caproate"'
p1141
aS'acetaminophen "isobutanol"'
p1142
aS'acetaminophen "l-histidine"'
p1143
aS'acetaminophen "nonane"'
p1144
aS'acetaminophen "131-hydroxy-magnesium-protoporphyrin ix 13-monomethyl ester"'
p1145
aS'acetaminophen "n-[(4-hydroxyphenyl)methyl]ethoxycarbothioamide 4\'-(tri-acetylrhamnoside)"'
p1146
aS'acetaminophen "isorhamnetin 3-beta-laminaribioside"'
p1147
aS'acetaminophen "cynaroside a"'
p1148
aS'acetaminophen "unsaturated fatty acids"'
p1149
aS'acetaminophen "gamma-glutamyl-cysteine"'
p1150
aS'acetaminophen "l-ascorbate"'
p1151
aS'acetaminophen "methyl-1,5-alpha-stigmast-7-en-3beta-ol"'
p1152
aS'acetaminophen "kaempferol 3-p-coumaroylsophorotrioside"'
p1153
aS'acetaminophen "1-octanol"'
p1154
aS'acetaminophen "(+)-taxifolin"'
p1155
aS'acetaminophen "naphthalene"'
p1156
aS'acetaminophen "ajmaline"'
p1157
aS'acetaminophen "pyridinoline"'
p1158
aS'acetaminophen "pregnenolone"'
p1159
aS'acetaminophen "3\'-hydroxy-4\',5,6,7,8-pentamethoxyflavone"'
p1160
aS'acetaminophen "tryptamine"'
p1161
aS'acetaminophen "naringenin rutinoside-4-beta-d-glucoside"'
p1162
aS'acetaminophen "piperidine"'
p1163
aS'acetaminophen "gladiatoside a3"'
p1164
aS'acetaminophen "gdp"'
p1165
aS'acetaminophen "amoxycillin"'
p1166
aS'acetaminophen "6-methyl 2-galloylgalactarate"'
p1167
aS'acetaminophen "ginsenoside rf"'
p1168
aS'acetaminophen "10alpha-4,5-seco-11-eudesmene-4,5-dione"'
p1169
aS'acetaminophen "demethoxycurcumin"'
p1170
aS'acetaminophen "beta-glycyrrhetinic acid"'
p1171
aS'acetaminophen "homogentisic acid"'
p1172
aS'acetaminophen "unknown 370"'
p1173
aS'acetaminophen "\xce\xb2-d-glucose"'
p1174
aS'acetaminophen "2-angeloyl-9-(3-methyl-2e-pentenoyl)-2b,9a-dihydroxy-4z,10(14)-oplopadien-3-one"'
p1175
aS'acetaminophen "s-(5\'-adenosyl)-l-homocysteine"'
p1176
aS'acetaminophen "dihydroxyacetone"'
p1177
aS'acetaminophen "(s)-[10]-gingerol"'
p1178
aS'acetaminophen "kaempferol 3-alpha-d-arabinopyranoside"'
p1179
aS'acetaminophen "chlorine"'
p1180
aS'acetaminophen "trans-2-trans-4-decadienic acid ethyl ester"'
p1181
aS'acetaminophen "quercetin 3,4\',7-triglucoside"'
p1182
aS'acetaminophen "(+)-borneol"'
p1183
aS'acetaminophen "kaempferol 3-feruloylapioside"'
p1184
aS'acetaminophen "l-leucine"'
p1185
aS'acetaminophen "dehydrogibberellin ga-35"'
p1186
aS'acetaminophen "cis-4-decadienic acid ethyl ester"'
p1187
aS'acetaminophen "palmidrol"'
p1188
aS'acetaminophen "cdp"'
p1189
aS'acetaminophen "kaempferol 3-o-acetyl-glucoside"'
p1190
aS'acetaminophen "n-propanol"'
p1191
aS'acetaminophen "oxalates"'
p1192
aS'acetaminophen "isopentenyl diphosphate"'
p1193
aS'acetaminophen "pc(20:0/p-16:0)"'
p1194
aS'acetaminophen "methylglyoxal"'
p1195
aS'acetaminophen "harmol"'
p1196
aS'acetaminophen "sterols"'
p1197
aS'acetaminophen "7-hydroxy-2-methyl-4-oxo-4h-1-benzopyran-5-carboxylic acid 7-glucoside"'
p1198
aS'acetaminophen "maltodextrin"'
p1199
aS'acetaminophen "sedanoic anhydride"'
p1200
aS'acetaminophen "acetol"'
p1201
aS'acetaminophen "palmitate"'
p1202
aS'acetaminophen "hexosamine"'
p1203
aS'acetaminophen "d-serine"'
p1204
aS'acetaminophen "alpha-lactose"'
p1205
aS'acetaminophen "sphinganine"'
p1206
aS'acetaminophen "undecane"'
p1207
aS'acetaminophen "uridine triphosphate"'
p1208
aS'acetaminophen "riboflavin"'
p1209
aS'acetaminophen "arsenite"'
p1210
a.