(lp0
S'antihistamine "parsley"'
p1
aS'antihistamine "fig"'
p2
aS'antihistamine "gin"'
p3
aS'antihistamine "drag\xc3\xa9e"'
p4
aS'antihistamine "cichlidae (tilapia)"'
p5
aS'antihistamine "haddock"'
p6
aS'antihistamine "poppy"'
p7
aS'antihistamine "kale"'
p8
aS'antihistamine "nutritional drink"'
p9
aS'antihistamine "alfalfa"'
p10
aS'antihistamine "chicory"'
p11
aS'antihistamine "cocoa butter"'
p12
aS'antihistamine "mung bean"'
p13
aS'antihistamine "rainbow trout"'
p14
aS'antihistamine "other fish product"'
p15
aS'antihistamine "liquor"'
p16
aS'antihistamine "almond"'
p17
aS'antihistamine "spinach"'
p18
aS'antihistamine "amaranth"'
p19
aS'antihistamine "whey"'
p20
aS'antihistamine "wheat bread"'
p21
aS'antihistamine "opium poppy"'
p22
aS'antihistamine "common hazelnut"'
p23
aS'antihistamine "capers"'
p24
aS'antihistamine "mugwort"'
p25
aS'antihistamine "striped mullet"'
p26
aS'antihistamine "common ling"'
p27
aS'antihistamine "banana"'
p28
aS'antihistamine "pizza"'
p29
aS'antihistamine "mushrooms"'
p30
aS'antihistamine "snail"'
p31
aS'antihistamine "hazelnut"'
p32
aS'antihistamine "cabbage"'
p33
aS'antihistamine "spiny lobster"'
p34
aS'antihistamine "cake"'
p35
aS'antihistamine "dill"'
p36
aS'antihistamine "apple"'
p37
aS'antihistamine "ginseng"'
p38
aS'antihistamine "deer"'
p39
aS'antihistamine "carrot"'
p40
aS'antihistamine "chewing gum"'
p41
aS'antihistamine "casein"'
p42
aS'antihistamine "cattle (beef, veal)"'
p43
aS'antihistamine "elk"'
p44
aS'antihistamine "pate"'
p45
aS'antihistamine "cracker"'
p46
aS'antihistamine "soy bean"'
p47
aS'antihistamine "hamburger"'
p48
aS'antihistamine "soft drink"'
p49
aS'antihistamine "coconut"'
p50
aS'antihistamine "squid"'
p51
aS'antihistamine "mamey sapote"'
p52
aS'antihistamine "endive"'
p53
aS'antihistamine "watermelon"'
p54
aS'antihistamine "fruit juice"'
p55
aS'antihistamine "other fruit product"'
p56
aS'antihistamine "peppermint"'
p57
aS'antihistamine "tallow"'
p58
aS'antihistamine "mango"'
p59
aS'antihistamine "liquorice"'
p60
aS'antihistamine "yam"'
p61
aS'antihistamine "vinegar"'
p62
aS'antihistamine "garlic"'
p63
aS'antihistamine "borage"'
p64
aS'antihistamine "allium (onion)"'
p65
aS'antihistamine "yellowfin tuna"'
p66
aS'antihistamine "shrimp"'
p67
aS'antihistamine "cinnamon"'
p68
aS'antihistamine "whiting"'
p69
aS'antihistamine "radish"'
p70
aS'antihistamine "lime"'
p71
aS'antihistamine "peach"'
p72
aS'antihistamine "shiitake"'
p73
aS'antihistamine "saffron"'
p74
aS'antihistamine "crab"'
p75
aS'antihistamine "pineappple sage"'
p76
aS'antihistamine "dock"'
p77
aS'antihistamine "kiwi"'
p78
aS'antihistamine "sesame"'
p79
aS'antihistamine "strawberry"'
p80
aS'antihistamine "malus (crab apple)"'
p81
aS'antihistamine "dripping"'
p82
aS'antihistamine "sunflower"'
p83
aS'antihistamine "dandelion"'
p84
aS'antihistamine "pectin"'
p85
aS'antihistamine "jellyfish"'
p86
aS'antihistamine "flour"'
p87
aS'antihistamine "beaver"'
p88
aS'antihistamine "opossum"'
p89
aS'antihistamine "quinoa"'
p90
aS'antihistamine "cucumber"'
p91
aS'antihistamine "milk substitute"'
p92
aS'antihistamine "cottonseed"'
p93
aS'antihistamine "vanilla"'
p94
aS'antihistamine "rapini"'
p95
aS'antihistamine "butter"'
p96
aS'antihistamine "evening primrose"'
p97
aS'antihistamine "sake"'
p98
aS'antihistamine "mentha (mint)"'
p99
aS'antihistamine "bean"'
p100
aS'antihistamine "american lobster"'
p101
aS'antihistamine "lupine"'
p102
aS'antihistamine "nance"'
p103
aS'antihistamine "soup"'
p104
aS'antihistamine "agave"'
p105
aS'antihistamine "lasagna"'
p106
aS'antihistamine "pineapple"'
p107
aS'antihistamine "millet"'
p108
aS'antihistamine "chia"'
p109
aS'antihistamine "pine nut"'
p110
aS'antihistamine "chestnut"'
p111
aS'antihistamine "chocolate"'
p112
aS'antihistamine "salad dressing"'
p113
aS'antihistamine "cashew nut"'
p114
aS'antihistamine "salad"'
p115
aS'antihistamine "potato"'
p116
aS'antihistamine "flatfish"'
p117
aS'antihistamine "cocoa and cocoa products"'
p118
aS'antihistamine "yogurt"'
p119
aS'antihistamine "pheasant"'
p120
aS'antihistamine "soft-necked garlic"'
p121
aS'antihistamine "pie"'
p122
aS'antihistamine "arrowhead"'
p123
aS'antihistamine "smelt"'
p124
aS'antihistamine "walnut"'
p125
aS'antihistamine "coffee"'
p126
aS'antihistamine "other animal fat"'
p127
aS'antihistamine "roe"'
p128
aS'antihistamine "rape"'
p129
aS'antihistamine "grape"'
p130
aS'antihistamine "pollock"'
p131
aS'antihistamine "barley"'
p132
aS'antihistamine "true sole"'
p133
aS'antihistamine "crustaceans"'
p134
aS'antihistamine "lemon"'
p135
aS'antihistamine "mollusks"'
p136
aS'antihistamine "safflower"'
p137
aS'antihistamine "other candy"'
p138
aS'antihistamine "tamarind"'
p139
aS'antihistamine "ice cream"'
p140
aS'antihistamine "rye"'
p141
aS'antihistamine "condensed milk"'
p142
aS'antihistamine "spirulina"'
p143
aS'antihistamine "pouteria sapota"'
p144
aS'antihistamine "scyphozoa"'
p145
aS'antihistamine "vitis vinifera"'
p146
aS'antihistamine "chelonia mydas"'
p147
aS'antihistamine "vaccinium deliciosum"'
p148
aS'antihistamine "bivalvia"'
p149
aS'antihistamine "prunus avium"'
p150
aS'antihistamine "vigna radiata"'
p151
aS'antihistamine "citrus sinensis"'
p152
aS'antihistamine "apium graveolens"'
p153
aS'antihistamine "cyprinus carpio"'
p154
aS'antihistamine "allium"'
p155
aS'antihistamine "ginkgo biloba"'
p156
aS'antihistamine "gossypium"'
p157
aS'antihistamine "perciformes"'
p158
aS'antihistamine "physalis"'
p159
aS'antihistamine "vitis"'
p160
aS'antihistamine "laurus nobilis"'
p161
aS'antihistamine "nephropidae"'
p162
aS'antihistamine "coryphaena hippurus"'
p163
aS'antihistamine "citrus aurantiifolia"'
p164
aS'antihistamine "raphanus sativus"'
p165
aS'antihistamine "oncorhynchus mykiss"'
p166
aS'antihistamine "hibiscus sabdariffa"'
p167
aS'antihistamine "beta vulgaris var. rubra"'
p168
aS'antihistamine "zea mays"'
p169
aS'antihistamine "capparis spinosa"'
p170
aS'antihistamine "papaver somniferum"'
p171
aS'antihistamine "crocus sativus"'
p172
aS'antihistamine "vaccinium myrtillus"'
p173
aS'antihistamine "sciuridae"'
p174
aS'antihistamine "cinnamomum"'
p175
aS'antihistamine "lentinus edodes"'
p176
aS'antihistamine "thunnus"'
p177
aS'antihistamine "glycine max"'
p178
aS'antihistamine "chenopodium album"'
p179
aS'antihistamine "oncorhynchus"'
p180
aS'antihistamine "pinus"'
p181
aS'antihistamine "quercus"'
p182
aS'antihistamine "scombridae"'
p183
aS'antihistamine "garcinia mangostana"'
p184
aS'antihistamine "allium cepa"'
p185
aS'antihistamine "moringa oleifera"'
p186
aS'antihistamine "brachyura"'
p187
aS'antihistamine "thunnus albacares"'
p188
aS'antihistamine "vanilla"'
p189
aS'antihistamine "gallus gallus"'
p190
aS'antihistamine "tilia"'
p191
aS'antihistamine "avena sativa"'
p192
aS'antihistamine "momordica charantia"'
p193
aS'antihistamine "laminaria"'
p194
aS'antihistamine "oryctolagus"'
p195
aS'antihistamine "linum usitatissimum"'
p196
aS'antihistamine "hibiscus sabbariffa"'
p197
aS'antihistamine "piper nigrum"'
p198
aS'antihistamine "matricaria recutita"'
p199
aS'antihistamine "agave"'
p200
aS'antihistamine "beta vulgaris"'
p201
aS'antihistamine "mentha"'
p202
aS'antihistamine "corylus"'
p203
aS'antihistamine "malus"'
p204
aS'antihistamine "gastropoda"'
p205
aS'antihistamine "papaver"'
p206
aS'antihistamine "salmonidae"'
p207
aS'antihistamine "zingiber officinale"'
p208
aS'antihistamine "prunus"'
p209
aS'antihistamine "meleagris gallopavo"'
p210
aS'antihistamine "pisum sativum"'
p211
aS'antihistamine "spirulina"'
p212
aS'antihistamine "capsicum"'
p213
aS'antihistamine "mugil cephalus"'
p214
aS'antihistamine "mytilus edulis"'
p215
aS'antihistamine "phaseolus vulgaris"'
p216
aS'antihistamine "triticum"'
p217
aS'antihistamine "rosmarinus officinalis"'
p218
aS'antihistamine "sus scrofa"'
p219
aS'antihistamine "lupinus"'
p220
aS'antihistamine "camellia sinensis"'
p221
aS'antihistamine "capsicum annuum"'
p222
aS'antihistamine "juglans"'
p223
aS'antihistamine "vaccinium"'
p224
aS'antihistamine "artemisia vulgaris"'
p225
aS'antihistamine "rumex"'
p226
aS'antihistamine "chenopodium quinoa"'
p227
aS'antihistamine "triticum aestivum"'
p228
aS'antihistamine "scyphozoa"'
p229
aS'antihistamine "p. vera"'
p230
aS'antihistamine "bivalvia"'
p231
aS'antihistamine "lupinus"'
p232
aS'antihistamine "m. cephalus"'
p233
aS'antihistamine "allium"'
p234
aS'antihistamine "malus"'
p235
aS'antihistamine "gossypium"'
p236
aS'antihistamine "thunnus"'
p237
aS'antihistamine "perciformes"'
p238
aS'antihistamine "physalis"'
p239
aS'antihistamine "vitis"'
p240
aS'antihistamine "l. nobilis"'
p241
aS'antihistamine "nephropidae"'
p242
aS'antihistamine "a. fimbria"'
p243
aS'antihistamine "sciuridae"'
p244
aS'antihistamine "cinnamomum"'
p245
aS'antihistamine "mentha"'
p246
aS'antihistamine "g. max"'
p247
aS'antihistamine "s. officinalis"'
p248
aS'antihistamine "vaccinium"'
p249
aS'antihistamine "oncorhynchus"'
p250
aS'antihistamine "pinus"'
p251
aS'antihistamine "quercus"'
p252
aS'antihistamine "scombridae"'
p253
aS'antihistamine "s. montana"'
p254
aS'antihistamine "brachyura"'
p255
aS'antihistamine "vanilla"'
p256
aS'antihistamine "tilia"'
p257
aS'antihistamine "m. charantia"'
p258
aS'antihistamine "laminaria"'
p259
aS'antihistamine "corylus"'
p260
aS'antihistamine "oryctolagus"'
p261
aS'antihistamine "l. usitatissimum"'
p262
aS'antihistamine "m. officinalis"'
p263
aS'antihistamine "agave"'
p264
aS'antihistamine "m. x"'
p265
aS'antihistamine "gastropoda"'
p266
aS'antihistamine "papaver"'
p267
aS'antihistamine "salmonidae"'
p268
aS'antihistamine "c. x"'
p269
aS'antihistamine "prunus"'
p270
aS'antihistamine "capsicum"'
p271
aS'antihistamine "m. edulis"'
p272
aS'antihistamine "triticum"'
p273
aS'antihistamine "m. x"'
p274
aS'antihistamine "juglans"'
p275
aS'antihistamine "rumex"'
p276
aS'antihistamine "spirulina"'
p277
aS'antihistamine "1,4-dimethylpyrrolo[1,2-a]pyrazine"'
p278
aS'antihistamine "pc(14:0/22:0)"'
p279
aS'antihistamine "sp1"'
p280
aS'antihistamine "ellagic acid acetyl-arabinoside"'
p281
aS'antihistamine "gadolinium"'
p282
aS'antihistamine "3,5,6-trihydroxy-5-(hydroxymethyl)-2-methoxy-2-cyclohexen-1-one"'
p283
aS'antihistamine "6beta,7beta-dihydroxykaurenoic acid"'
p284
aS'antihistamine "octanoic acid"'
p285
aS'antihistamine "prostaglandin e-1"'
p286
aS'antihistamine "kaempferol 3-feruloyl-triglucoside"'
p287
aS'antihistamine "ginsenoside m7cd"'
p288
aS'antihistamine "lf"'
p289
aS'antihistamine "estrone"'
p290
aS'antihistamine "aflatoxin"'
p291
aS'antihistamine "2,4-heptadecanedione"'
p292
aS'antihistamine "2-(1-methylethyl)-4-propylthiazole"'
p293
aS'antihistamine "oxalic acid"'
p294
aS'antihistamine "lignans"'
p295
aS'antihistamine "vanillin"'
p296
aS'antihistamine "4-vinylphenol"'
p297
aS'antihistamine "ash"'
p298
aS'antihistamine "epigallocatechin 3-gallate"'
p299
aS'antihistamine "acetophenone"'
p300
aS'antihistamine "(r)-apiumetin glucoside"'
p301
aS'antihistamine "benzyl ethyl ether"'
p302
aS'antihistamine "uridine diphosphate"'
p303
aS'antihistamine "protoporphyrin"'
p304
aS'antihistamine "(+)-myrtenol"'
p305
aS'antihistamine "quinolinate"'
p306
aS'antihistamine "isoflavones"'
p307
aS'antihistamine "hex-cis-3-en-1-ol isobutyrate"'
p308
aS'antihistamine "l-phenylalanine"'
p309
aS'antihistamine "catechin"'
p310
aS'antihistamine "aloe emodin w-acetate"'
p311
aS'antihistamine "lysolecithin"'
p312
aS'antihistamine "1,8-cineole"'
p313
aS'antihistamine "decanoic acid"'
p314
aS'antihistamine "n-dodecane"'
p315
aS'antihistamine "(-)-medicarpin"'
p316
aS'antihistamine "7-hydroxy-2,5-dimethyl-4h-1-benzopyran-4-one"'
p317
aS'antihistamine "l-ascorbic acid"'
p318
aS'antihistamine "quercetin 3-(2g-rhamnosylgentiobioside)"'
p319
aS'antihistamine "diacylglycerol"'
p320
aS'antihistamine "kaempferol 3-sophoroside-rhamnoside"'
p321
aS'antihistamine "(-)-maackiain"'
p322
aS'antihistamine "isopropylamine"'
p323
aS'antihistamine "proanthocyanidins"'
p324
aS'antihistamine "cytosine"'
p325
aS'antihistamine "l-(-)-phenylalanine"'
p326
aS'antihistamine "vanillic acid"'
p327
aS'antihistamine "humulene-1,2-oxide"'
p328
aS'antihistamine "cardiolipin"'
p329
aS'antihistamine "4-hydroxy-3-prenylbenzoic acid glucoside"'
p330
aS'antihistamine "porphobilinogen"'
p331
aS'antihistamine "tricin"'
p332
aS'antihistamine "kaempferol 3-(2g-rhamnosylgentiobioside)"'
p333
aS'antihistamine "ginsenoside m6-bc"'
p334
aS'antihistamine "(2e)-piperamide-c5:1"'
p335
aS'antihistamine "trimethylamine"'
p336
aS'antihistamine "hex-trans-2-enyl hexanoate"'
p337
aS'antihistamine "2-methyl-1,5-dinitro-3-nitrosobenzene"'
p338
aS'antihistamine "cis-limonene-1,2-oxide"'
p339
aS'antihistamine "5\',8-dihydroxy-3\',4\',7-trimethoxyflavan"'
p340
aS'antihistamine "epigallocatechin 3,4\'-digallate"'
p341
aS'antihistamine "5-hydroxyindole-3-acetic acid"'
p342
aS'antihistamine "hydrogen peroxide (h2o2)"'
p343
aS'antihistamine "polyamines"'
p344
aS'antihistamine "citral"'
p345
aS'antihistamine "1,4-naphthoquinone"'
p346
aS'antihistamine "glucosides"'
p347
aS'antihistamine "nepitrin"'
p348
aS'antihistamine "benzoyl peroxide"'
p349
aS'antihistamine "(r)-marmin"'
p350
a.