(lp0
S'digoxin "fig"'
p1
aS'digoxin "gin"'
p2
aS'digoxin "stew"'
p3
aS'digoxin "coriander"'
p4
aS'digoxin "poppy"'
p5
aS'digoxin "eastern oyster"'
p6
aS'digoxin "rice"'
p7
aS'digoxin "rainbow trout"'
p8
aS'digoxin "other fish product"'
p9
aS'digoxin "lotus"'
p10
aS'digoxin "liquor"'
p11
aS'digoxin "almond"'
p12
aS'digoxin "ginger"'
p13
aS'digoxin "lettuce"'
p14
aS'digoxin "spinach"'
p15
aS'digoxin "papaya"'
p16
aS'digoxin "buffalo"'
p17
aS'digoxin "corn"'
p18
aS'digoxin "pear"'
p19
aS'digoxin "yellow zucchini"'
p20
aS'digoxin "salmonidae (salmon, trout)"'
p21
aS'digoxin "cheese"'
p22
aS'digoxin "oat"'
p23
aS'digoxin "pulses"'
p24
aS'digoxin "mushrooms"'
p25
aS'digoxin "mustard"'
p26
aS'digoxin "snail"'
p27
aS'digoxin "hazelnut"'
p28
aS'digoxin "milk (other mammals)"'
p29
aS'digoxin "apple"'
p30
aS'digoxin "deer"'
p31
aS'digoxin "casein"'
p32
aS'digoxin "norway lobster"'
p33
aS'digoxin "broccoli"'
p34
aS'digoxin "pasta"'
p35
aS'digoxin "hamburger"'
p36
aS'digoxin "turmeric"'
p37
aS'digoxin "coconut"'
p38
aS'digoxin "squid"'
p39
aS'digoxin "quail"'
p40
aS'digoxin "wheat"'
p41
aS'digoxin "fruit juice"'
p42
aS'digoxin "pummelo"'
p43
aS'digoxin "mango"'
p44
aS'digoxin "liquorice"'
p45
aS'digoxin "popcorn"'
p46
aS'digoxin "ravioli"'
p47
aS'digoxin "vinegar"'
p48
aS'digoxin "borage"'
p49
aS'digoxin "shrimp"'
p50
aS'digoxin "eggplant"'
p51
aS'digoxin "lime"'
p52
aS'digoxin "lentils"'
p53
aS'digoxin "peach"'
p54
aS'digoxin "crab"'
p55
aS'digoxin "alcoholic beverages"'
p56
aS'digoxin "pineappple sage"'
p57
aS'digoxin "rose hip"'
p58
aS'digoxin "spirit"'
p59
aS'digoxin "malus (crab apple)"'
p60
aS'digoxin "herbs and spices"'
p61
aS'digoxin "fishes"'
p62
aS'digoxin "caraway"'
p63
aS'digoxin "linden"'
p64
aS'digoxin "pectin"'
p65
aS'digoxin "port wine"'
p66
aS'digoxin "flour"'
p67
aS'digoxin "opossum"'
p68
aS'digoxin "other meat product"'
p69
aS'digoxin "syrup"'
p70
aS'digoxin "cucumber"'
p71
aS'digoxin "vanilla"'
p72
aS'digoxin "emu"'
p73
aS'digoxin "columbidae (dove, pigeon)"'
p74
aS'digoxin "evening primrose"'
p75
aS'digoxin "fudge"'
p76
aS'digoxin "fenugreek"'
p77
aS'digoxin "bean"'
p78
aS'digoxin "carob"'
p79
aS'digoxin "chinook salmon"'
p80
aS'digoxin "nance"'
p81
aS'digoxin "soup"'
p82
aS'digoxin "lasagna"'
p83
aS'digoxin "other sandwich"'
p84
aS'digoxin "milk (human)"'
p85
aS'digoxin "millet"'
p86
aS'digoxin "chia"'
p87
aS'digoxin "tamale"'
p88
aS'digoxin "eggs"'
p89
aS'digoxin "chestnut"'
p90
aS'digoxin "chocolate"'
p91
aS'digoxin "olive"'
p92
aS'digoxin "salad"'
p93
aS'digoxin "potato"'
p94
aS'digoxin "common sage"'
p95
aS'digoxin "pie"'
p96
aS'digoxin "honey"'
p97
aS'digoxin "peanut"'
p98
aS'digoxin "walnut"'
p99
aS'digoxin "beer"'
p100
aS'digoxin "coffee"'
p101
aS'digoxin "other animal fat"'
p102
aS'digoxin "fruits"'
p103
aS'digoxin "energy drink"'
p104
aS'digoxin "roe"'
p105
aS'digoxin "sturgeon"'
p106
aS'digoxin "angelica"'
p107
aS'digoxin "grape"'
p108
aS'digoxin "natto"'
p109
aS'digoxin "pollock"'
p110
aS'digoxin "barley"'
p111
aS'digoxin "crustaceans"'
p112
aS'digoxin "lemon"'
p113
aS'digoxin "other candy"'
p114
aS'digoxin "thistle"'
p115
aS'digoxin "tamarind"'
p116
aS'digoxin "rye"'
p117
aS'digoxin "kelp"'
p118
aS'digoxin "mulberry"'
p119
aS'digoxin "pacific oyster"'
p120
aS'digoxin "lake trout"'
p121
aS'digoxin "flaxseed"'
p122
aS'digoxin "shark"'
p123
aS'digoxin "morus"'
p124
aS'digoxin "haliotis"'
p125
aS'digoxin "acipenseridae"'
p126
aS'digoxin "bivalvia"'
p127
aS'digoxin "acipenser"'
p128
aS'digoxin "columbidae"'
p129
aS'digoxin "allium"'
p130
aS'digoxin "oncorhynchus tshawytscha"'
p131
aS'digoxin "carica papaya"'
p132
aS'digoxin "sus scrofa domestica"'
p133
aS'digoxin "spinacia oleracea"'
p134
aS'digoxin "rosa"'
p135
aS'digoxin "nephropidae"'
p136
aS'digoxin "cucumis sativus"'
p137
aS'digoxin "arachis hypogaea"'
p138
aS'digoxin "citrus aurantiifolia"'
p139
aS'digoxin "allium sativum"'
p140
aS'digoxin "oncorhynchus mykiss"'
p141
aS'digoxin "crassostrea virginica"'
p142
aS'digoxin "crassostrea gigas"'
p143
aS'digoxin "papaver somniferum"'
p144
aS'digoxin "cucumis melo"'
p145
aS'digoxin "mytilidae"'
p146
aS'digoxin "homarus americanus"'
p147
aS'digoxin "secale cereale"'
p148
aS'digoxin "glycine max"'
p149
aS'digoxin "salvelinus"'
p150
aS'digoxin "borago officinalis"'
p151
aS'digoxin "curcuma longa"'
p152
aS'digoxin "sambucus"'
p153
aS'digoxin "solanum tuberosum"'
p154
aS'digoxin "oncorhynchus"'
p155
aS'digoxin "actinidia chinensis"'
p156
aS'digoxin "corylus avellana"'
p157
aS'digoxin "vanilla"'
p158
aS'digoxin "gallus gallus"'
p159
aS'digoxin "ostreidae"'
p160
aS'digoxin "cymbopogon citratus"'
p161
aS'digoxin "laminaria"'
p162
aS'digoxin "hibiscus sabbariffa"'
p163
aS'digoxin "piper nigrum"'
p164
aS'digoxin "melissa officinalis"'
p165
aS'digoxin "ovis aries"'
p166
aS'digoxin "corylus"'
p167
aS'digoxin "malus"'
p168
aS'digoxin "papaver"'
p169
aS'digoxin "zingiber officinale"'
p170
aS'digoxin "sambucus nigra"'
p171
aS'digoxin "capsicum"'
p172
aS'digoxin "salvelinus namaycush"'
p173
aS'digoxin "phaseolus vulgaris"'
p174
aS'digoxin "triticum"'
p175
aS'digoxin "callinectes sapidus"'
p176
aS'digoxin "sus scrofa"'
p177
aS'digoxin "medicago sativa"'
p178
aS'digoxin "camellia sinensis"'
p179
aS'digoxin "bos taurus"'
p180
aS'digoxin "nephrops norvegicus"'
p181
aS'digoxin "null"'
p182
aS'digoxin "carthamus tinctorius"'
p183
aS'digoxin "squalus acanthias"'
p184
aS'digoxin "morus"'
p185
aS'digoxin "haliotis"'
p186
aS'digoxin "acipenseridae"'
p187
aS'digoxin "bivalvia"'
p188
aS'digoxin "acipenser"'
p189
aS'digoxin "columbidae"'
p190
aS'digoxin "allium"'
p191
aS'digoxin "malus"'
p192
aS'digoxin "rosa"'
p193
aS'digoxin "nephropidae"'
p194
aS'digoxin "a. sativum"'
p195
aS'digoxin "a. fimbria"'
p196
aS'digoxin "c. gigas"'
p197
aS'digoxin "a. sativum"'
p198
aS'digoxin "mytilidae"'
p199
aS'digoxin "s. cereale"'
p200
aS'digoxin "salvelinus"'
p201
aS'digoxin "c. longa"'
p202
aS'digoxin "sambucus"'
p203
aS'digoxin "oncorhynchus"'
p204
aS'digoxin "vanilla"'
p205
aS'digoxin "ostreidae"'
p206
aS'digoxin "laminaria"'
p207
aS'digoxin "corylus"'
p208
aS'digoxin "papaver"'
p209
aS'digoxin "capsicum"'
p210
aS'digoxin "triticum"'
p211
aS'digoxin "null"'
p212
aS'digoxin "pc(14:0/22:0)"'
p213
aS'digoxin "sp1"'
p214
aS'digoxin "formononetin"'
p215
aS'digoxin "ellagic acid acetyl-arabinoside"'
p216
aS'digoxin "gadolinium"'
p217
aS'digoxin "3,5,6-trihydroxy-5-(hydroxymethyl)-2-methoxy-2-cyclohexen-1-one"'
p218
aS'digoxin "6beta,7beta-dihydroxykaurenoic acid"'
p219
aS'digoxin "auxin"'
p220
aS'digoxin "octanoic acid"'
p221
aS'digoxin "prostaglandin e-1"'
p222
aS'digoxin "kaempferol 3-feruloyl-triglucoside"'
p223
aS'digoxin "lf"'
p224
aS'digoxin "graecunin h-3"'
p225
aS'digoxin "aflatoxin"'
p226
aS'digoxin "panaxadiol"'
p227
aS'digoxin "lignans"'
p228
aS'digoxin "beta-d-galactose"'
p229
aS'digoxin "ash"'
p230
aS'digoxin "epigallocatechin 3-gallate"'
p231
aS'digoxin "n-methoxyspirobrassinol methyl ether"'
p232
aS'digoxin "(r)-apiumetin glucoside"'
p233
aS'digoxin "uridine diphosphate"'
p234
aS'digoxin "protoporphyrin"'
p235
aS'digoxin "isoflavones"'
p236
aS'digoxin "beta-methylthiopropionic acid methyl ester"'
p237
aS'digoxin "ruthenium"'
p238
aS'digoxin "l-phenylalanine"'
p239
aS'digoxin "catechin"'
p240
aS'digoxin "aloe emodin w-acetate"'
p241
a.