(lp0
S'analgesic "betulalbuside a"'
p1
aS'analgesic "8-oxo-dgtp"'
p2
aS'analgesic "7,9-docosanedione"'
p3
aS'analgesic "2\'-c-methylmyricetin 3-rhamnoside 5\'-gallate"'
p4
aS'analgesic "(1s,2s,4r)-1,8-epoxy-p-menthan-2-ol glucoside"'
p5
aS'analgesic "3,4-dihydrocadalene"'
p6
aS'analgesic "astragalin"'
p7
aS'analgesic "palmitaldehyde"'
p8
aS'analgesic "gamma-terpineol"'
p9
aS'analgesic "octadecane"'
p10
aS'analgesic "bilobetin"'
p11
aS'analgesic "hygrine"'
p12
aS'analgesic "zerumbone oxide"'
p13
aS'analgesic "(+)-hardwickiic acid"'
p14
aS'analgesic "artemin"'
p15
aS'analgesic "syringin"'
p16
aS'analgesic "phloretic acid"'
p17
aS'analgesic "gentianine"'
p18
aS'analgesic "2-deoxy-d-lyxono-1,4-lactone"'
p19
aS'analgesic "cucurbitacin b"'
p20
aS'analgesic "cucurbitacin e"'
p21
aS'analgesic "cucurbitacin k"'
p22
aS'analgesic "arctic acid c"'
p23
aS'analgesic "torachrysone 8-beta-gentiobioside"'
p24
aS'analgesic "2-acetylthiophene"'
p25
aS'analgesic "dimethyl succinate"'
p26
aS'analgesic "6,7-dihydro-5-methyl-5h-cyclopenta[b]pyrazine"'
p27
aS'analgesic "3-phosphatidylinositol"'
p28
aS'analgesic "octanoyl-coa"'
p29
aS'analgesic "theaflavin acid"'
p30
aS'analgesic "hex-cis-3-en-1-ol isovalerate"'
p31
aS'analgesic "ginkgolide c"'
p32
aS'analgesic "ginkgolide a"'
p33
aS'analgesic "5-hydroxy-4,4\',6-trimethoxyaurone"'
p34
aS'analgesic "ginkgolide j"'
p35
aS'analgesic "1-isomangostin"'
p36
aS'analgesic "butyl propyl disulfide"'
p37
aS'analgesic "2-phosphoglycerate"'
p38
aS'analgesic "cetyl myristoleate"'
p39
aS'analgesic "vicenin"'
p40
aS'analgesic "dioctyl phthalate"'
p41
aS'analgesic "pterolactam"'
p42
aS'analgesic "chrysophanol 8-(6-galloylglucoside)"'
p43
aS'analgesic "octadecanoic acid"'
p44
aS'analgesic "lignan diglucoside"'
p45
aS'analgesic "(1s,3r,4r)-8,10-dihydroxyfenchone 10-o-b-d-glucoside"'
p46
aS'analgesic "vicenin 2"'
p47
aS'analgesic "myrtenal"'
p48
aS'analgesic "di-n-propylamine"'
p49
aS'analgesic "1-isothiocyanato-7-(methylsulfinyl)heptane"'
p50
aS'analgesic "2-phenylpyridine"'
p51
aS'analgesic "verbenol"'
p52
aS'analgesic "xi-5-acetyltetrahydro-2(3h)-furanone"'
p53
aS'analgesic "dudp"'
p54
aS'analgesic "isovitexin 2\'\'-(6\'\'\'-feruloylglucoside)"'
p55
aS'analgesic "(-)-dihydrocarveol"'
p56
aS'analgesic "p-menth-trans-2,8-dien-1-ol"'
p57
aS'analgesic "n6-(\xce\x942-isopentenyl)-adenosine 5\'-monophosphate"'
p58
aS'analgesic "5,6-dihydrouracil"'
p59
aS'analgesic "sedoheptulose"'
p60
aS'analgesic "(e)-2-hexenal"'
p61
aS'analgesic "patchoulene"'
p62
aS'analgesic "methyl 3,4-dihydroxy-5-prenylbenzoate 3-glucoside"'
p63
aS'analgesic "maltopentaose"'
p64
aS'analgesic "4-methylbenzoic acid"'
p65
aS'analgesic "punicic acid"'
p66
aS'analgesic "3-ethyl-2-methylhepta-1,3-diene"'
p67
aS'analgesic "naringenin 5-glucoside"'
p68
aS'analgesic "trans-delta-viniferin 3\'\'-glucoside"'
p69
aS'analgesic "d-erythrose 4-phosphate"'
p70
aS'analgesic "brassicasterol"'
p71
aS'analgesic "ethyl acrylate"'
p72
aS'analgesic "mab 4"'
p73
aS'analgesic "benzyl cinnamate"'
p74
aS'analgesic "hop ether"'
p75
aS'analgesic "l-n-(1h-indol-3-ylacetyl)glutamic acid"'
p76
aS'analgesic "\xce\xb2-tocopherol"'
p77
aS'analgesic "ethyl octanoate"'
p78
aS'analgesic "[8]-shogaol"'
p79
aS'analgesic "2-methylthio-n-6-isopentyl adenosine-37 trna"'
p80
aS'analgesic "cyanidin 3-galactoside"'
p81
aS'analgesic "curcumin iii"'
p82
aS'analgesic "neuraminic-acid"'
p83
aS'analgesic "withangulatin a"'
p84
aS'analgesic "1,3,7,9-tetramethyluric acid"'
p85
aS'analgesic "polyacetylene"'
p86
aS'analgesic "adenosine 3\',5\'-diphosphate"'
p87
aS'analgesic "n-acetyl-serotonin"'
p88
aS'analgesic "dimethicone"'
p89
aS'analgesic "brein"'
p90
aS'analgesic "palmitone"'
p91
aS'analgesic "d-myo-inositol (1,2) bisphosphate"'
p92
aS'analgesic "garlicin"'
p93
aS'analgesic "n-carbamoyl-2-amino-2-(4-hydroxyphenyl)acetic acid"'
p94
aS'analgesic "dehydropipernonaline"'
p95
aS'analgesic "alpha-bisabolol oxide b"'
p96
aS'analgesic "nobilin"'
p97
aS'analgesic "lepidine b"'
p98
aS'analgesic "4,5-dihydropiperlonguminine"'
p99
aS'analgesic "valerenal"'
p100
aS'analgesic "n-demethyldiazepam"'
p101
aS'analgesic "apiin"'
p102
aS'analgesic "ethyl acetoacetate"'
p103
aS'analgesic "2\'\'-methoxy-(s)-oleuropein"'
p104
aS'analgesic "2,4-dihydroxychalcone"'
p105
aS'analgesic "heptadecadienoic acid"'
p106
aS'analgesic "salviaflaside"'
p107
aS'analgesic "gamma-gurjunene"'
p108
aS'analgesic "(-)-cis-carveol"'
p109
aS'analgesic "falcarindiol 3-acetate"'
p110
aS'analgesic "calcium oxide"'
p111
aS'analgesic "kaempferol 3-neohesperidoside 7-(2\'\'-feruloylglucoside)"'
p112
aS'analgesic "ginsenoside b2"'
p113
aS'analgesic "[6]-dehydrogingerdione"'
p114
aS'analgesic "selenate"'
p115
aS'analgesic "2-methyl-gamma-butyrolactone"'
p116
aS'analgesic "alpha-elemolic acid"'
p117
aS'analgesic "macelignan"'
p118
aS'analgesic "1,2-dihydroxy-3-keto-5-methylthiopentene"'
p119
aS'analgesic "lucidone c"'
p120
aS'analgesic "ethyl 1-(methylthio)propyl disulfide"'
p121
aS'analgesic "vanilloloside"'
p122
aS'analgesic "5-hydroxy-7,8-dimethoxyflavonol"'
p123
aS'analgesic "s-methyl-5\'-thioadenosine"'
p124
aS'analgesic "dihydrolipoate"'
p125
aS'analgesic "6-hydroxymethylpterin"'
p126
aS'analgesic "sennoside b"'
p127
aS'analgesic "5-(12-nonadecenyl)-1,3-benzenediol"'
p128
aS'analgesic "3,6-dimethyl-2,3,4,5,8,9-hexahydrobenzofuran"'
p129
aS'analgesic "2-methoxy-4-vinylphenol"'
p130
aS'analgesic "edulisin ii"'
p131
aS'analgesic "silicon oxide"'
p132
aS'analgesic "artocarpesin"'
p133
aS'analgesic "pc(p-18:0/14:0)"'
p134
aS'analgesic "succinate semialdehyde"'
p135
aS'analgesic "trigofoenoside d"'
p136
aS'analgesic "colubrinic acid"'
p137
aS'analgesic "plantacyanin"'
p138
aS'analgesic "plastochromanol 8"'
p139
aS'analgesic "beta-d-galactopyranosyl-(1->4)-beta-d-galactopyranosyl-(1->4)-d-galactose"'
p140
aS'analgesic "potassium nitrate (kno3)"'
p141
aS'analgesic "all-trans-retinal"'
p142
aS'analgesic "methyl n-methylanthranilate"'
p143
aS'analgesic "beta-bourbonene"'
p144
aS'analgesic "4-methylumbelliferyl acetate"'
p145
aS'analgesic "methylpyrazine"'
p146
aS'analgesic "dimethyl sulfide"'
p147
aS'analgesic "n-acetylhistidine"'
p148
aS'analgesic "homoeriodictyol 4\'-isobutyrate"'
p149
aS'analgesic "5-(16-heneicosenyl)-1,3-benzenediol"'
p150
aS'analgesic "7,9-triacontanedione"'
p151
aS'analgesic "3-(methylthio)thiophene"'
p152
aS'analgesic "cis-epsilon-viniferin"'
p153
aS'analgesic "azi"'
p154
aS'analgesic "prenyl acetate"'
p155
aS'analgesic "3,5-dihydroxy-4-methoxybenzoic acid"'
p156
aS'analgesic "r-propyl 1-propenesulfinothioate"'
p157
aS'analgesic "cuscohygrine"'
p158
aS'analgesic "chicoric acid"'
p159
aS'analgesic "tormentic acid"'
p160
aS'analgesic "epicatechin 3-gallate"'
p161
aS'analgesic "ethyl isopropyl sulfide"'
p162
aS'analgesic "rhamnetin 3-(4-rhamnosylrhamnoside)"'
p163
aS'analgesic "delta-cadinol"'
p164
aS'analgesic "d-myo-inositol (1,3,4,5)-tetrakisphosphate"'
p165
aS'analgesic "l-linalool"'
p166
aS'analgesic "kaempferide"'
p167
aS'analgesic "5-hydroxy-n-hentriacontan-14,16-dione"'
p168
aS'analgesic "pseudouridine 5\'-phosphate"'
p169
aS'analgesic "7,8-dimethylisoscutellarein"'
p170
aS'analgesic "[6]-dehydroshogaol"'
p171
aS'analgesic "d-myo-inositol (1,2,3,4) tetrakisphosphate"'
p172
aS'analgesic "undecanal"'
p173
aS'analgesic "3,4-dihydroxyphenylpyruvate"'
p174
aS'analgesic "salvigenin"'
p175
aS'analgesic "fraxidin"'
p176
aS'analgesic "kuwanon b"'
p177
aS'analgesic "kuwanon d"'
p178
aS'analgesic "kuwanon f"'
p179
aS'analgesic "kuwanon j"'
p180
aS'analgesic "suberin"'
p181
aS'analgesic "kuwanon q"'
p182
aS'analgesic "butyl palmitate"'
p183
aS'analgesic "kuwanon y"'
p184
aS'analgesic "(+)-fargesin"'
p185
aS'analgesic "1,3,7-trimethyluric acid"'
p186
aS'analgesic "neopine"'
p187
aS'analgesic "(3beta,11alpha,13beta)-3,11,13-oleananetriol"'
p188
aS'analgesic "rubrofusarin"'
p189
aS'analgesic "2,4-decadienal"'
p190
aS'analgesic "kaempferol 3-galactoside"'
p191
aS'analgesic "bilobalide a"'
p192
aS'analgesic "rotundifolone"'
p193
aS'analgesic "\xce\xb1-d-glucose"'
p194
aS'analgesic "gamolenic acid"'
p195
aS'analgesic "nootkatone"'
p196
aS'analgesic "ziziphin"'
p197
aS'analgesic "scopolin"'
p198
aS'analgesic "pc(18:0/p-18:0)"'
p199
aS'analgesic "mequinol"'
p200
aS'analgesic "pelargonidin 5-galactoside"'
p201
aS'analgesic "ent-copalyl diphosphate"'
p202
aS'analgesic "3-methylbutanol"'
p203
aS'analgesic "xi-dihydro-2-methyl-3(2h)-furanone"'
p204
aS'analgesic "cis-o-coumaric acid 2-glucoside"'
p205
aS'analgesic "n6-(\xce\x942-isopentenyl)-adenosine 5\'-triphosphate"'
p206
aS'analgesic "2-(5\'-methylthio)pentylmalate"'
p207
aS'analgesic "beta-cyanoalanine"'
p208
aS'analgesic "kaempferol 7-glucoside"'
p209
aS'analgesic "urocanic acid"'
p210
aS'analgesic "1\'-acetoxyeugenol acetate"'
p211
aS'analgesic "sarsasapogenin"'
p212
aS'analgesic "plastoquinone 9"'
p213
aS'analgesic "hexyl acetate"'
p214
aS'analgesic "hordein b"'
p215
aS'analgesic "isothymusin"'
p216
aS'analgesic "3-hydroxyanthranilic acid"'
p217
aS'analgesic "2,4,6-trihydroxybenzoic acid"'
p218
aS'analgesic "rutinose"'
p219
aS'analgesic "hydroxybupropion"'
p220
aS'analgesic "d-ribulose"'
p221
aS'analgesic "apigenin 7-o-beta-d-rutinoside"'
p222
aS'analgesic "verbenin"'
p223
aS'analgesic "artonin u"'
p224
aS'analgesic "osthenol"'
p225
aS'analgesic "yuccaol b"'
p226
aS'analgesic "pterin"'
p227
aS'analgesic "artonin j"'
p228
aS'analgesic "terpinolene oxide"'
p229
aS'analgesic "methyl 1-(1-propenylsulfinyl)propyl disulfide"'
p230
aS'analgesic "6-hydroxy-n-hentriacontan-14,16-dione"'
p231
aS'analgesic "d-arabinose"'
p232
aS'analgesic "alpha-muurolene"'
p233
aS'analgesic "monogalactosyl diglkyceide"'
p234
aS'analgesic "petunidin 3-o-alpha-l-galactoside"'
p235
aS'analgesic "d-glyceraldehyde"'
p236
aS'analgesic "pentyl benzoate"'
p237
aS'analgesic "rhamnazin"'
p238
aS'analgesic "stachyose"'
p239
aS'analgesic "kaempferol 3-neohesperidoside"'
p240
aS'analgesic "2-(6-hydroxy-2-methoxy-3,4-methylenedioxyphenyl)benzofuran"'
p241
aS'analgesic "corchoionol c 9-glucoside"'
p242
aS'analgesic "linoleoyl-coa"'
p243
aS'analgesic "arabinan"'
p244
aS'analgesic "malonyl-coa methyl ester"'
p245
aS'analgesic "isosafrole"'
p246
aS'analgesic "(e)-2-hexen-1-ol"'
p247
aS'analgesic "l-kynurenine"'
p248
aS'analgesic "p-mentha-1,3-dien-7-al"'
p249
aS'analgesic "[12]-gingerdione"'
p250
aS'analgesic "uroporphyrinogen i"'
p251
aS'analgesic "charantin"'
p252
aS'analgesic "calcium lactate"'
p253
aS'analgesic "hexyl butyrate"'
p254
aS'analgesic "phytoene"'
p255
aS'analgesic "3-(methylthio)alanine"'
p256
aS'analgesic "retinol palmitate"'
p257
aS'analgesic "dimethyl styrene"'
p258
aS'analgesic "gamma-mangostin"'
p259
aS'analgesic "cudraflavone a"'
p260
aS'analgesic "carbadox"'
p261
aS'analgesic "protopanaxadiol"'
p262
aS'analgesic "4\xce\xb1-carboxy-ergosta-7,24(241)-dien-3\xce\xb2-ol"'
p263
aS'analgesic "gamma-muurolene"'
p264
aS'analgesic "afzelechin"'
p265
aS'analgesic "trans-carveol"'
p266
aS'analgesic "hexa-hydrocyclopenta[c]pyran-3(1)-one"'
p267
aS'analgesic "narcotoline"'
p268
aS'analgesic "plastoquinone"'
p269
aS'analgesic "butyrylcarnitine"'
p270
aS'analgesic "5,10-methylenetetrahydrofolate"'
p271
aS'analgesic "n1-acetylspermine"'
p272
aS'analgesic "taraxasterol acetate"'
p273
aS'analgesic "dimethyl furan"'
p274
aS'analgesic "diguanosine tetraphosphate"'
p275
aS'analgesic "vitamin k2"'
p276
aS'analgesic "methyl 1-(methylthio)propyl disulfide"'
p277
aS'analgesic "hydrogen cyanide"'
p278
aS'analgesic "7-hydroxyterpineol 8-glucoside"'
p279
aS'analgesic "lavandulifolioside"'
p280
aS'analgesic "4-hydroxy-5-methyl-2-propyl-3(2h)-furanone"'
p281
aS'analgesic "petunidin 3-(4\'\'\'-p-coumaroyl-rutinoside)"'
p282
aS'analgesic "physalin j"'
p283
aS'analgesic "panaxynol"'
p284
aS'analgesic "(+)-o-methylarmepavine"'
p285
aS'analgesic "dadp"'
p286
aS'analgesic "4-methoxybenzoic acid"'
p287
aS'analgesic "itaconate"'
p288
aS'analgesic "2-acetylfuran"'
p289
aS'analgesic "pinostrobin"'
p290
aS'analgesic "alpha-d-galactose"'
p291
aS'analgesic "luteoforol"'
p292
aS'analgesic "ginkgetin"'
p293
aS'analgesic "5-isopropyl-2-methylphenol"'
p294
aS'analgesic "(s)-higenamine"'
p295
aS'analgesic "n-acetylserotonin"'
p296
aS'analgesic "cyclododecane"'
p297
aS'analgesic "epigallocatechin 3,3\'-digallate"'
p298
aS'analgesic "d-lactic acid"'
p299
aS'analgesic "3\'-geranyl-2\',3,4,4\'-tetrahydroxychalcone"'
p300
aS'analgesic "isolimocitrol 3-beta-d-glucoside"'
p301
aS'analgesic "d-galactopyranosyl-(1->3)-d-galactopyranosyl-(1->3)-l-arabinose"'
p302
aS'analgesic "isoegomaketone"'
p303
aS'analgesic "alpha-sinensal"'
p304
aS'analgesic "indole-3-ethanol"'
p305
aS'analgesic "5-o-beta-d-glucopyranosyl-3-hydroxy-1-(4-hydroxyphenyl)-decane"'
p306
aS'analgesic "physalin b"'
p307
aS'analgesic "trimethylpyrazine"'
p308
aS'analgesic "gentiobiose"'
p309
aS'analgesic "4-amino-4-deoxychorismate"'
p310
aS'analgesic "narirutin glucoside"'
p311
aS'analgesic "xi-5-ethyldihydro-2(3h)-furanone"'
p312
aS'analgesic "4-ethylbenzaldehyde"'
p313
aS'analgesic "sativan"'
p314
aS'analgesic "pelargonidin 3-(2gluglucosylrutinoside)"'
p315
aS'analgesic "meso-chimonanthine"'
p316
aS'analgesic "prephenate"'
p317
aS'analgesic "3-oxoadipyl-coa"'
p318
aS'analgesic "erythrodiol"'
p319
aS'analgesic "n-acetyl-\xce\xb1-d-glucosamine"'
p320
aS'analgesic "pectenotoxin 3"'
p321
aS'analgesic "luteolin 7-glucuronide"'
p322
aS'analgesic "4-methylpyridine"'
p323
aS'analgesic "1-rhamnono-1,4-lactone"'
p324
aS'analgesic "trans-p-mentha-1(7),8-dien-2-ol"'
p325
aS'analgesic "schottenol 3-ferulate"'
p326
aS'analgesic "(4s,6s)-3,4,5,6-tetrahydro-4-hydroxy-6-methyl-2h-pyran-2-one"'
p327
aS'analgesic "2-isopropyl-3,5-dimethoxy-6-methylpyrazine"'
p328
aS'analgesic "sphinganine 1-phosphate"'
p329
aS'analgesic "avenanthramide b"'
p330
aS'analgesic "crithmumdiol"'
p331
aS'analgesic "5-heneicosyl-1,3-benzenediol"'
p332
aS'analgesic "5-hydroxy-7,3\',4\'-trimethoxy-8-methylisoflavone 5-neohesperidoside"'
p333
aS'analgesic "hamamelitannin"'
p334
aS'analgesic "cafestol"'
p335
aS'analgesic "d-myo-inositol (3,4)-bisphosphate"'
p336
aS'analgesic "1-methylpyrrole"'
p337
aS'analgesic "vitisifuran b"'
p338
aS'analgesic "masticadienolic acid"'
p339
aS'analgesic "n-propyl-n-propane thiosulfinate"'
p340
aS'analgesic "ganoderic acid f"'
p341
aS'analgesic "octacosanoic acid"'
p342
aS'analgesic "gingerglycolipid b"'
p343
aS'analgesic "acetyldeoxynivalenol"'
p344
aS'analgesic "3-octanol"'
p345
aS'analgesic "jujuboside a"'
p346
aS'analgesic "propanolamine"'
p347
aS'analgesic "2-decenal"'
p348
aS'analgesic "magnoflorine"'
p349
aS'analgesic "thiamine hydrochloride"'
p350
aS'analgesic "(s)-piperitone"'
p351
aS'analgesic "6-methylheptanoic acid"'
p352
aS'analgesic "(6r*,8s*)-6,8-tetratriacontanediol"'
p353
aS'analgesic "ubiquinone 9"'
p354
aS'analgesic "6-hydroxymelatonin"'
p355
aS'analgesic "1-isothiocyanato-2-(methylthio)ethane"'
p356
aS'analgesic "simonin iv"'
p357
aS'analgesic "1-hexanol acetate"'
p358
aS'analgesic "l-n-(1h-indol-3-ylacetyl)aspartic acid"'
p359
aS'analgesic "simonin ii"'
p360
aS'analgesic "benzoyl-coa"'
p361
aS'analgesic "n-methylanthraniloyl-coa"'
p362
aS'analgesic "oxoglaucine"'
p363
aS'analgesic "(+)-calycanthine"'
p364
aS'analgesic "2-methylnaphthalene"'
p365
aS'analgesic "chrysophanein"'
p366
aS'analgesic "ethyl 1-(methylthio)ethyl disulfide"'
p367
aS'analgesic "alpha-amyrin palmitate"'
p368
aS'analgesic "1-(3-methylbutanoyl)-6-apiosylglucose"'
p369
aS'analgesic "supinine"'
p370
aS'analgesic "20-tetracosene-1,18-diol"'
p371
aS'analgesic "bisacurone"'
p372
aS'analgesic "(-)-lariciresinol"'
p373
aS'analgesic "di-1-propenyl trisulfide"'
p374
aS'analgesic "luteolin 7-methyl ether"'
p375
aS'analgesic "monodehydroascorbate"'
p376
aS'analgesic "erythro-7,9-hexatriacontanediol"'
p377
aS'analgesic "caffeic acid ester"'
p378
aS'analgesic "theaflavin 3\'-gallate"'
p379
aS'analgesic "monoacyl glycerol"'
p380
aS'analgesic "epicatechin 3-glucoside"'
p381
aS'analgesic "oxybenzoic acid"'
p382
aS'analgesic "alpha-cedrene"'
p383
aS'analgesic "4-amino-2,6-dinitrotoluene"'
p384
aS'analgesic "cyanidin 3-rutinoside"'
p385
aS'analgesic "medioresinol"'
p386
aS'analgesic "methyl phenylacetate"'
p387
aS'analgesic "trans-delta-viniferin"'
p388
aS'analgesic "ent-gallocatechin"'
p389
aS'analgesic "ursolic acid lactone"'
p390
aS'analgesic "hexadecanamide"'
p391
aS'analgesic "terpinenol"'
p392
aS'analgesic "(-)-matairesinol"'
p393
aS'analgesic "5a,6a-epoxy-7e-megastigmene-3a,9e-diol 3-glucoside"'
p394
aS'analgesic "calsequestrin"'
p395
aS'analgesic "udp-n-acetyl-\xce\xb1-d-glucosamine"'
p396
aS'analgesic "dantron"'
p397
aS'analgesic "heptanoate"'
p398
aS'analgesic "indole-3-acetate"'
p399
aS'analgesic "benzene-1,4-diol"'
p400
aS'analgesic "aminoadipic acid"'
p401
aS'analgesic "neohesperidoside"'
p402
aS'analgesic "2-butyl-4,5-diethyloxazole"'
p403
aS'analgesic "kaempferol 3-rhamnoside 4\'-xyloside"'
p404
aS'analgesic "isoscopoletin"'
p405
aS'analgesic "all-trans-retinol"'
p406
aS'analgesic "safynol"'
p407
aS'analgesic "faradiol"'
p408
aS'analgesic "calebin a"'
p409
aS'analgesic "sclareol"'
p410
aS'analgesic "rugosin e"'
p411
aS'analgesic "gibberellin a4"'
p412
aS'analgesic "d-fructose 6-phosphate"'
p413
aS'analgesic "(s)-carvone"'
p414
aS'analgesic "ethyl hydrogen sulfate"'
p415
aS'analgesic "pc(p-16:0/20:0)"'
p416
aS'analgesic "echinocystic acid"'
p417
aS'analgesic "(4z,7z)-4,7-decadien-1-ol"'
p418
aS'analgesic "ethanethiol"'
p419
aS'analgesic "cyanidin 3-(malonylsophoroside) 5-glucoside"'
p420
aS'analgesic "trehalose 6-phosphate"'
p421
aS'analgesic "galanal a"'
p422
aS'analgesic "manoyl oxide"'
p423
aS'analgesic "pc(p-18:0/18:0)"'
p424
aS'analgesic "(-)-arctigenin"'
p425
aS'analgesic "l-homoserine"'
p426
aS'analgesic "2-furanmethanol"'
p427
aS'analgesic "picrocrocin"'
p428
aS'analgesic "helipyrone"'
p429
aS'analgesic "dillapiol"'
p430
aS'analgesic "strictosidine"'
p431
aS'analgesic "galanal b"'
p432
aS'analgesic "methyl-trans-1-propenyl thiosulfinate"'
p433
aS'analgesic "6,7-dihydro-2-methyl-5h-cyclopenta[b]pyrazine"'
p434
aS'analgesic "(-)-arctiin"'
p435
aS'analgesic "1-pentanol"'
p436
aS'analgesic "alpha-turmerone"'
p437
aS'analgesic "5-diphospho-1d-myo-inositol (1,2,3,4,6)pentakisphosphate"'
p438
aS'analgesic "citromitin"'
p439
aS'analgesic "alpha-eudesmol"'
p440
aS'analgesic "(s)-boldine"'
p441
aS'analgesic "3-propylpyridine"'
p442
aS'analgesic "erythro-7,9-triacontanediol"'
p443
aS'analgesic "sabinyl acetate"'
p444
aS'analgesic "apigenin 7-o-glucuronide"'
p445
aS'analgesic "alpha-amino butyric acid"'
p446
aS'analgesic "momordin"'
p447
aS'analgesic "(r)-dihydromaleimide beta-d-glucoside"'
p448
aS'analgesic "1-(1-propenylsulfinyl)propyl propyl disulfide"'
p449
aS'analgesic "pangamic acid"'
p450
aS'analgesic "25-acetyl-6,7-didehydrofevicordin f 3-glucoside"'
p451
aS'analgesic "6-[(3,4-methylenedioxy)phenyl]-3,3-dimethyl-1-hexene"'
p452
aS'analgesic "campesterol glucoside"'
p453
aS'analgesic "alpha-atlantone"'
p454
aS'analgesic "kaempferol 3-o-beta-d-diglucopyranoside 7-o-beta-d-glucopyranoside"'
p455
aS'analgesic "6alpha,7alpha,12alpha-trihydroxykaurenoic acid"'
p456
aS'analgesic "1-decanol"'
p457
aS'analgesic "(-)-5,7-dihydroxy-3-(4-hydroxybenzyl)-4-chromanone"'
p458
aS'analgesic "2,4-dihydroxybenzoic acid"'
p459
aS'analgesic "homodihydrocapsaicin"'
p460
aS'analgesic "eicosadienoic acid"'
p461
aS'analgesic "(+)-2,3-dihydro-9-hydroxy-2[1-(6-sinapinoyl)beta-d-glucosyloxy-1-methylethyl]-7h-furo[3,2-g][1]benzopyran-7-one"'
p462
aS'analgesic "methionine sulfone"'
p463
aS'analgesic "arachidate"'
p464
aS'analgesic "lapachenole"'
p465
aS'analgesic "1-hydroxy-2,12,15-heneicosatrien-4-one"'
p466
aS'analgesic "ethyl gallate"'
p467
aS'analgesic "7,8-dehydro-beta-micropteroxanthin"'
p468
aS'analgesic "(6z,9z,12z)-6,9,12-pentadecatrien-2-one"'
p469
aS'analgesic "11-eicosenoic acid"'
p470
aS'analgesic "isocolumbin"'
p471
aS'analgesic "germacrene b"'
p472
aS'analgesic "violaxanthin"'
p473
aS'analgesic "assamsaponin c"'
p474
aS'analgesic "assamsaponin a"'
p475
aS'analgesic "25-hydroxycholecalciferol"'
p476
aS'analgesic "orotidine"'
p477
aS'analgesic "2-hydroxy-4-methoxybenzaldehyde"'
p478
aS'analgesic "phytofluene a"'
p479
aS'analgesic "hentriacontanol"'
p480
aS'analgesic "lariciresinol"'
p481
aS'analgesic "hydroxytanshinone"'
p482
aS'analgesic "tomatine"'
p483
aS'analgesic "saussurea lactone"'
p484
aS'analgesic "potassium oxide"'
p485
aS'analgesic "1\'-acetoxychavicol"'
p486
aS'analgesic "cis-zeatin riboside"'
p487
aS'analgesic "meranzin"'
p488
aS'analgesic "isovaleryl-coa"'
p489
aS'analgesic "soyasapogenol b 24-o-b-d-glucoside"'
p490
aS'analgesic "astragalin 2\'\'-xyloside 6\'\'-rhamnoside"'
p491
aS'analgesic "2\',4-dihydroxy-4\',6\'-dimethoxychalcone"'
p492
aS'analgesic "3beta-cycloartane-3,25-diol"'
p493
aS'analgesic "4-aminobutyric acid"'
p494
aS'analgesic "obtusifoliol"'
p495
aS'analgesic "galactinol"'
p496
aS'analgesic "pelargonin"'
p497
aS'analgesic "4-aminobenzoate"'
p498
aS'analgesic "3,3\',5-trihydroxy-4\',7-dimethoxyflavanone"'
p499
aS'analgesic "coumarin-4-carboxylic acid"'
p500
aS'analgesic "4-hydroxybenzoyl glucoside"'
p501
aS'analgesic "(z)-3-methyl-2-(2-pentenyl)-2-cyclopenten-1-one"'
p502
aS'analgesic "hydroxy-alpha-sanshool"'
p503
aS'analgesic "prodelphinidin c"'
p504
aS'analgesic "eugenin"'
p505
aS'analgesic "prodelphinidin b"'
p506
aS'analgesic "delphinidin 3-glucoside"'
p507
aS'analgesic "tropinone"'
p508
aS'analgesic "beta-cubebene"'
p509
aS'analgesic "guaiacin"'
p510
aS'analgesic "scoparone"'
p511
aS'analgesic "15-octadecene-9,11,13-triynoic acid"'
p512
aS'analgesic "ficin b"'
p513
aS'analgesic "isodesmosine"'
p514
aS'analgesic "propanal"'
p515
aS'analgesic "(2s,3s,4r)-3,4,4\',7-tetrahydroxyflavan"'
p516
aS'analgesic "(+)-fenchone"'
p517
aS'analgesic "(+)-lariciresinol"'
p518
aS'analgesic "xi-dihydro-5-octyl-2(3h)-furanone"'
p519
aS'analgesic "alpha-bergamotene"'
p520
aS'analgesic "alpha-selinene"'
p521
aS'analgesic "1-dodecanol"'
p522
aS'analgesic "d-myo-inositol (2,4) bisphosphate"'
p523
aS'analgesic "neferine"'
p524
aS'analgesic "5-8\'-benzofuran dehydrodiferulic acid"'
p525
aS'analgesic "glycitein"'
p526
aS'analgesic "(-)-epiafzelechin"'
p527
aS'analgesic "silandrin"'
p528
aS'analgesic "norcoclaurine carboxylic acid"'
p529
aS'analgesic "5,6-dihydrothymine"'
p530
aS'analgesic "1\'-acetoxychavicol acetate"'
p531
aS'analgesic "3-(3-methylbutylidene)-1(3h)-isobenzofuranone"'
p532
aS'analgesic "2-geranyl-2\',3,4,4\'-tetrahydroxydihydrochalcone"'
p533
aS'analgesic "l-(+)-homoserine"'
p534
aS'analgesic "ampelopsin d"'
p535
aS'analgesic "sciadonic acid"'
p536
aS'analgesic "o-acetyl-l-serine"'
p537
aS'analgesic "1-isothiocyanato-7-(methylthio)heptane"'
p538
aS'analgesic "murrayanol"'
p539
aS'analgesic "caffeic acid 3-glucoside"'
p540
aS'analgesic "carvacryl acetate"'
p541
aS'analgesic "delphinidin 3,5,3\'-triglucoside"'
p542
aS'analgesic "butyl salicylate"'
p543
aS'analgesic "1,2-di-o-(8-hexadecenoyl)-3-o-(6-sulfoquinovopyranosyl)glycerol"'
p544
aS'analgesic "ononin"'
p545
aS'analgesic "germanicol"'
p546
aS'analgesic "(s)-edulinine"'
p547
aS'analgesic "4-phenylbenzaldehyde"'
p548
aS'analgesic "(4e,6e)-4,6-tetradecadien-8,10,12-triyn-1,3-diyl diacetate"'
p549
aS'analgesic "(s)-scoulerine"'
p550
aS'analgesic "4-methylpentanoic acid"'
p551
aS'analgesic "olean-12-en-28-oic acid"'
p552
aS'analgesic "tetracosanoic acid"'
p553
aS'analgesic "laudanine"'
p554
aS'analgesic "cis-3-hexenyl acetate"'
p555
aS'analgesic "physalin p"'
p556
aS'analgesic "physalin i"'
p557
aS'analgesic "physalin c"'
p558
aS'analgesic "physalin d"'
p559
aS'analgesic "physalin f"'
p560
aS'analgesic "physalin g"'
p561
aS'analgesic "isoliensinine"'
p562
aS'analgesic "edulisin i"'
p563
aS'analgesic "cyanidin 3-(6\'\'-caffeyl-6\'\'\'-ferulylsophoroside) 5-glucoside"'
p564
aS'analgesic "albafuran a"'
p565
aS'analgesic "albafuran c"'
p566
aS'analgesic "1-(4-hydroxy-3-methoxyphenyl)-7-(3,4-dihydroxyphenyl)-hepta-1,6-diene-3,5-dione"'
p567
aS'analgesic "3-oxo-2-(2-entenyl)cyclopentaneoctanoic acid"'
p568
aS'analgesic "24-methylenecholesterol"'
p569
aS'analgesic "uridine 5\'-monophosphate"'
p570
aS'analgesic "20,23-cis-bullatalicinone"'
p571
aS'analgesic "benzyl acetate"'
p572
aS'analgesic "imidazole acetaldehyde"'
p573
aS'analgesic "4\xce\xb1-carboxy-stigmasta-7,24(241)-dien-3\xce\xb2-ol"'
p574
aS'analgesic "trans-10-hydroxylinalyl oxide 7-glucoside"'
p575
aS'analgesic "3,4-dihydroxybenzaldehyde"'
p576
aS'analgesic "peonidin 3-galactoside"'
p577
aS'analgesic "germacranolide"'
p578
aS'analgesic "prunasin"'
p579
aS'analgesic "casticin"'
p580
aS'analgesic "3,5-dihydroxybenzoic acid"'
p581
aS'analgesic "dimethyl furfural"'
p582
aS'analgesic "2\'-hydroxydaidzein"'
p583
aS'analgesic "4-hydroxyproline galactoside"'
p584
aS'analgesic "1b-furanoeudesm-4(15)-en-1-ol acetate"'
p585
aS'analgesic "licochalcone b"'
p586
aS'analgesic "(+)-neomenthol"'
p587
aS'analgesic "geranylgeraniol"'
p588
aS'analgesic "\xce\xb1-carotene"'
p589
aS'analgesic "verbascose"'
p590
aS'analgesic "1-(3-methyl-2-butenoyl)-6-apiosylglucose"'
p591
aS'analgesic "majonoside r2"'
p592
aS'analgesic "n-docosane"'
p593
aS'analgesic "(12s,15s)-15-o-demethyl-10,29-dideoxy-11,12-dihydro-striatin c"'
p594
aS'analgesic "2\'-aminoacetophenone"'
p595
aS'analgesic "pc(p-16:0/16:0)"'
p596
aS'analgesic "rosmarinus officinalis alkaloid 2"'
p597
aS'analgesic "5-methylthiazole"'
p598
aS'analgesic "adenosine 5\'-phosphosulfate"'
p599
aS'analgesic "24-methylene-31-nor-5alpha-lanost-9(11)-3beta-ol"'
p600
aS'analgesic "dihydro-2(3h)-thiophenone"'
p601
aS'analgesic "moretenone"'
p602
aS'analgesic "kaempferol 3-rhamnoside 7-rhamnosylglucoside"'
p603
aS'analgesic "1-hexanol"'
p604
aS'analgesic "[8]-paradol"'
p605
aS'analgesic "clusin"'
p606
aS'analgesic "glycitin"'
p607
aS'analgesic "veranisatin a"'
p608
aS'analgesic "marneral"'
p609
aS'analgesic "glycolaldehyde"'
p610
aS'analgesic "2,4,6-phenanthrenetriol 2-o-b-d-glucoside"'
p611
aS'analgesic "veranisatin c"'
p612
aS'analgesic "glaucarubin"'
p613
aS'analgesic "magnesium-protoporphyrin ix 13-monomethyl ester"'
p614
aS'analgesic "veranisatin b"'
p615
aS'analgesic "stigmastane-3,6-dione"'
p616
aS'analgesic "esculentic acid (phytolacca)"'
p617
aS'analgesic "5-feruloylquinic acid"'
p618
aS'analgesic "cyanidin 3-(6-feruloyl-2\'-sinapoylsophoroside) 5-glucoside"'
p619
aS'analgesic "3-phospho-l-serine"'
p620
aS'analgesic "(+)-menthyl acetate"'
p621
aS'analgesic "germacrone 4,5-epoxide"'
p622
aS'analgesic "punicalin"'
p623
aS'analgesic "myricyl cerotate"'
p624
aS'analgesic "ganoderic acid mg"'
p625
aS'analgesic "kaempferol 3-o-arabinosyl 7-o-rhamnoside"'
p626
aS'analgesic "ursonic acid"'
p627
aS'analgesic "ergocalciferol"'
p628
aS'analgesic "apiole"'
p629
aS'analgesic "isoamericanol a"'
p630
aS'analgesic "1-aminocyclopropane-1-carboxylate"'
p631
aS'analgesic "humulene epoxide ii"'
p632
aS'analgesic "mbp 1"'
p633
aS'analgesic "2,4,6-tribromophenol"'
p634
aS'analgesic "3-aminobutanoic acid"'
p635
aS'analgesic "aspalathin"'
p636
aS'analgesic "4-methoxyglucobrassicin"'
p637
aS'analgesic "poncirin"'
p638
aS'analgesic "n1-acetylspermidine"'
p639
aS'analgesic "[7]-paradol"'
p640
aS'analgesic "1,3-dimethoxybenzene"'
p641
aS'analgesic "caffeoylcalleryanin"'
p642
aS'analgesic "3-hydroxy-2-methylidene butyric acid angelate"'
p643
aS'analgesic "sn-glycerol-3-phosphate"'
p644
aS'analgesic "2-deoxy-l-ribono-1,4-lactone"'
p645
aS'analgesic "swertiajaponin"'
p646
aS'analgesic "\xce\xb1-d-ribose-1-phosphate"'
p647
aS'analgesic "inosinic acid"'
p648
aS'analgesic "methoxatin"'
p649
aS'analgesic "p-mentha-cis-1(7)-8-dien-2-ol"'
p650
aS'analgesic "2-acetylpyridine"'
p651
aS'analgesic "l-arabitol"'
p652
aS'analgesic "3-chlorobenzoate"'
p653
aS'analgesic "sericic acid"'
p654
aS'analgesic "(2z,4e,6e)-2,4,6,10-farnesatetraene"'
p655
aS'analgesic "curcumin diglucoside"'
p656
aS'analgesic "byakangelicol"'
p657
aS'analgesic "2-pentanol"'
p658
aS'analgesic "xi-2,3-dihydro-3-methylfuran"'
p659
aS'analgesic "kahweol"'
p660
aS'analgesic "anisic acid"'
p661
aS'analgesic "coumarinic acid"'
p662
aS'analgesic "histidinol"'
p663
aS'analgesic "pallidol 3,3\'\'-diglucoside"'
p664
aS'analgesic "calenduladiol"'
p665
aS'analgesic "nonivamide"'
p666
aS'analgesic "dihydrocarvone acetate"'
p667
aS'analgesic "fenchol"'
p668
aS'analgesic "(3e,7e)-4,8,12-trimethyl-1,3,7,11-tridecatetraene"'
p669
aS'analgesic "cajanin"'
p670
aS'analgesic "turmerin"'
p671
aS'analgesic "cyanidin 3-dicaffeoyl-sophoroside 5-glucoside"'
p672
aS'analgesic "(-)-nopol"'
p673
aS'analgesic "xi-dihydro-4-methyl-2(3h)-furanone"'
p674
aS'analgesic "6,10-gingerdione"'
p675
aS'analgesic "monellin"'
p676
aS'analgesic "torachrysone"'
p677
aS'analgesic "secoisolariciresinol"'
p678
aS'analgesic "notoginsenoside d"'
p679
aS'analgesic "prenyl glucoside"'
p680
aS'analgesic "2,3-butanediol"'
p681
aS'analgesic "1,3-dithiane"'
p682
aS'analgesic "3-diphospho-1d-myo-inositol (1,2,4,5,6)pentakisphosphate"'
p683
aS'analgesic "theaflavin 3,3\'-digallate"'
p684
aS'analgesic "2,4,6-trinitrotoluene"'
p685
aS'analgesic "alnustone"'
p686
aS'analgesic "methyl-n-propane thiosulfinate"'
p687
aS'analgesic "(e)-4,8-dimethyl-1,3,7-nonatriene"'
p688
aS'analgesic "uroporphyrinogen iii"'
p689
aS'analgesic "1-(5-phospho-d-ribosyl)-amp"'
p690
aS'analgesic "trans-caffeic acid"'
p691
aS'analgesic "oleoyl-coa"'
p692
aS'analgesic "cis-3-hexenyl"'
p693
aS'analgesic "cinnamyl acetate"'
p694
aS'analgesic "pinusolide"'
p695
aS'analgesic "potassium persulfate (k2s2o8)"'
p696
aS'analgesic "2,5-dimethylphenol"'
p697
aS'analgesic "dulcin"'
p698
aS'analgesic "batatasin iii"'
p699
aS'analgesic "pregeijerene"'
p700
aS'analgesic "solanidine"'
p701
aS'analgesic "1,3-butanediol"'
p702
aS'analgesic "notoginsenoside j"'
p703
aS'analgesic "methyl indole-3-acetate"'
p704
aS'analgesic "4\xce\xb1-hydroxymethyl-stigmasta-7,24(241)-dien-3\xce\xb2-ol"'
p705
aS'analgesic "notoginsenoside c"'
p706
aS'analgesic "notoginsenoside b"'
p707
aS'analgesic "notoginsenoside i"'
p708
aS'analgesic "notoginsenoside h"'
p709
aS'analgesic "cis-aconitate"'
p710
aS'analgesic "orotidine-5\'-phosphate"'
p711
aS'analgesic "heraclenol"'
p712
aS'analgesic "n-methyl-\xce\xb2-alanine"'
p713
aS'analgesic "dimethylallyl diphosphate"'
p714
aS'analgesic "2-[4-(3-hydroxypropyl)-2-methoxyphenoxy]-1,3-propanediol"'
p715
aS'analgesic "capsanthin"'
p716
aS'analgesic "delta-selinene"'
p717
aS'analgesic "1-hydroxy-3,7-dimethoxyxanthone"'
p718
aS'analgesic "caffeic acid ethyl ester"'
p719
aS'analgesic "liriodenine"'
p720
aS'analgesic "peonidin 3-(6\'\'-acetyl-galactoside)"'
p721
aS'analgesic "3-phenylpropanoic acid"'
p722
aS'analgesic "2-octene"'
p723
aS'analgesic "alpha-curcumene"'
p724
aS'analgesic "assamsaponin i"'
p725
aS'analgesic "koenimbine"'
p726
aS'analgesic "alpha-amorphene"'
p727
aS'analgesic "2-methylthiophene"'
p728
aS'analgesic "samin"'
p729
aS'analgesic "(4rs,9alphasr)-octahydro-4-methyl-2h-quinolizin-2-one"'
p730
aS'analgesic "xi-2,5-dimethyltridecane"'
p731
aS'analgesic "2-amino-4,6-dinitrotoluene"'
p732
aS'analgesic "kaempferol 3-o-alpha-l-(3-trans-p-coumaroyl-rhamnopyranoside)"'
p733
aS'analgesic "cnidilide"'
p734
aS'analgesic "dimethylmatairesinol"'
p735
aS'analgesic "santalol (alpha and beta)"'
p736
aS'analgesic "4\xce\xb1-formyl-ergosta-7,24(241)-dien-3\xce\xb2-ol"'
p737
aS'analgesic "cholesteryl ferulate"'
p738
aS'analgesic "3-heptanol"'
p739
aS'analgesic "(r)-pantothenate"'
p740
aS'analgesic "pelargonidin-3,5-diglucoside-5-o-p-coumaroylglucoside"'
p741
aS'analgesic "safranal"'
p742
aS'analgesic "1-p-menthene-8,9-diol"'
p743
aS'analgesic "isobutanol"'
p744
aS'analgesic "butan-2-one"'
p745
aS'analgesic "trans-cinnamate"'
p746
aS'analgesic "acacetin 7-glucoside"'
p747
aS'analgesic "n-[(4-hydroxyphenyl)methyl]ethoxycarbothioamide 4\'-(tri-acetylrhamnoside)"'
p748
aS'analgesic "4-hydroxybenzyl alcohol"'
p749
aS'analgesic "4-o-methyl-a-d-glucosyl-(1->2)-b-d-xylosyl-(1->4)-d-xylose"'
p750
aS'analgesic "isogentisin"'
p751
aS'analgesic "cis-coumarinic acid-\xce\xb2-d-glucoside"'
p752
aS'analgesic "antibiotic sb 202742"'
p753
aS'analgesic "3-methylphenol"'
p754
aS'analgesic "trans-m-coumaric acid"'
p755
aS'analgesic "3-caffeoylpelargonidin 5-glucoside"'
p756
aS'analgesic "methyl 2,3-dihydro-3,5-dihydroxy-2-oxo-3-indoleacetic acid"'
p757
aS'analgesic "thujopsene"'
p758
aS'analgesic "gamma-glutamyl-cysteine"'
p759
aS'analgesic "l-ascorbate"'
p760
aS'analgesic "kaempferol 3-o-(6\'\'-acetyl-galactoside) 7-o-rhamnoside"'
p761
aS'analgesic "2-oxobutanoate"'
p762
aS'analgesic "alpha-humulene epoxide"'
p763
aS'analgesic "2-[2-(4-hydroxy-3-methoxyphenyl)ethyl]-5-octylfuran"'
p764
aS'analgesic "2-butanone"'
p765
aS'analgesic "n-dimethylethanolamine"'
p766
aS'analgesic "n-methyltyramine"'
p767
aS'analgesic "ginsenoside rb2"'
p768
aS'analgesic "terpinen-4-ol methyl ether"'
p769
aS'analgesic "alpha-amyrin acetate"'
p770
aS'analgesic "kaempferol 3-rhamnoside 7-glucosylrhamnoside"'
p771
aS'analgesic "adenylo-succinate"'
p772
aS'analgesic "dimethyl malonate"'
p773
aS'analgesic "(s)-norisocorydine"'
p774
aS'analgesic "4\xce\xb1-hydroxymethyl-ergosta-7,24(241)-dien-3\xce\xb2-ol"'
p775
aS'analgesic "thymidine 5\'-triphosphate"'
p776
aS'analgesic "absinthin"'
p777
aS'analgesic "3\'-hydroxy-4\',5,6,7,8-pentamethoxyflavone"'
p778
aS'analgesic "adouetine x"'
p779
aS'analgesic "2,6-diamino-4-hydroxy-5-formamidopyrimidine"'
p780
aS'analgesic "hydroxysafflor yellow a"'
p781
aS'analgesic "ng,ng-dimethyl-l-arginine"'
p782
aS'analgesic "alpha-d-glucopyranose"'
p783
aS'analgesic "lactitol"'
p784
aS'analgesic "trans-grandmarin isovalerate"'
p785
aS'analgesic "4-hydroxychalcone"'
p786
aS'analgesic "soja hispidasaponin c1"'
p787
aS'analgesic "clerosterol"'
p788
aS'analgesic "polydextrose"'
p789
aS'analgesic "2-o-(4-o-methyl-a-d-glucopyranuronosyl)-d-xylose"'
p790
aS'analgesic "cycloeucalenol"'
p791
aS'analgesic "dehydrovomifoliol"'
p792
aS'analgesic "methylarbutin"'
p793
aS'analgesic "3-epigibberellin a72"'
p794
aS'analgesic "beta-selinene"'
p795
aS'analgesic "methyl 2-methoxybenzoate"'
p796
aS'analgesic "7,8-methylenedioxy-9-methoxycoumarin"'
p797
aS'analgesic "coumestrol"'
p798
aS'analgesic "24-methylenecholestanol ferulate"'
p799
aS'analgesic "vanillylamine"'
p800
aS'analgesic "sativanone"'
p801
aS'analgesic "acetoacetyl-coa"'
p802
aS'analgesic "piperic acid"'
p803
aS'analgesic "phosphoglycolic acid"'
p804
aS'analgesic "5-(2,3-dihydroxy-3-methylbutyl)-4-(3,4-epoxy-4-methylpentanoyl)-3,4-dihydroxy-2-isopentanoyl-2-cyclopenten-1-one"'
p805
aS'analgesic "ginsenoside rf"'
p806
aS'analgesic "ginsenoside rd"'
p807
aS'analgesic "ginsenoside rc"'
p808
aS'analgesic "xanthochymol"'
p809
aS'analgesic "methyl (2-propenylthio) selenide"'
p810
aS'analgesic "hesperetin 7-(2,6-dirhamnosylglucoside)"'
p811
aS'analgesic "pancrelipase"'
p812
aS'analgesic "soyasaponin aa"'
p813
aS'analgesic "6alpha,7alpha,13-trihydroxykaurenoic acid"'
p814
aS'analgesic "kaempferol 3-(2-p-coumaroylsophoroside) 7-glucoside"'
p815
aS'analgesic "(z)-3-hexen-1-ol"'
p816
aS'analgesic "beta-glycyrrhetinic acid"'
p817
aS'analgesic "succinyl-coa"'
p818
aS'analgesic "linin"'
p819
aS'analgesic "caffeoyl-coa"'
p820
aS'analgesic "madecassoside"'
p821
aS'analgesic "af toxin ii"'
p822
aS'analgesic "carveol"'
p823
aS'analgesic "glc3man9glcnac2"'
p824
aS'analgesic "presqualene diphosphate"'
p825
aS'analgesic "1-diphospho-1d-myo-inositol (2,3,4,5,6)pentakisphosphate"'
p826
aS'analgesic "7,8-didehydrodesmosterol"'
p827
aS'analgesic "neodecanoic acid"'
p828
aS'analgesic "vitisin c"'
p829
aS'analgesic "vitisin b"'
p830
aS'analgesic "cis-anethole"'
p831
aS'analgesic "panaxytriol"'
p832
aS'analgesic "nomilin"'
p833
aS'analgesic "3,4-dimethoxybenzaldehyde"'
p834
aS'analgesic "propenyl alliin"'
p835
aS'analgesic "erucin"'
p836
aS'analgesic "vaccenic acid"'
p837
aS'analgesic "epimyricanol 5-glucoside"'
p838
aS'analgesic "n-gamma-glutamyl-s-cis-(1-propenyl)cysteine"'
p839
aS'analgesic "adenosine phosphosulfate"'
p840
aS'analgesic "2-methylphenol"'
p841
aS'analgesic "pc(18:0/18:0)"'
p842
aS'analgesic "dihydromyricetin"'
p843
aS'analgesic "(s)-3-octanol"'
p844
aS'analgesic "thorium"'
p845
aS'analgesic "germacrene a"'
p846
aS'analgesic "acetoin"'
p847
aS'analgesic "angelic acid"'
p848
aS'analgesic "2\'-hydroxy-4\',6\'-dimethoxychalcone"'
p849
aS'analgesic "sinapoyl-coa"'
p850
aS'analgesic "methylpropanol"'
p851
aS'analgesic "cyanidin 3-(p-coumaroyl)-glucoside"'
p852
aS'analgesic "nornantenine"'
p853
aS'analgesic "3-hydroxychavicol 1-glucoside"'
p854
aS'analgesic "pyridoxine-5\'-phosphate"'
p855
aS'analgesic "glycycoumarin"'
p856
aS'analgesic "beta-damascone"'
p857
aS'analgesic "ethyl propionate"'
p858
aS'analgesic "dtdp"'
p859
aS'analgesic "beta-fructofuranosidase"'
p860
aS'analgesic "solasodine"'
p861
aS'analgesic "isosalicin"'
p862
aS'analgesic "16beta-hydroxy-3-oxo-olean-1,12-dien-28-oic acid"'
p863
aS'analgesic "dehydrogibberellin ga-35"'
p864
aS'analgesic "methyl-3,7-dimethyl-2,6-octadienoate"'
p865
aS'analgesic "patulin"'
p866
aS'analgesic "patuletin 3-(2\'\'-apiosyl-[2\'\'\'-feruloylgentiobioside])"'
p867
aS'analgesic "4-methoxybenzyl acetate"'
p868
aS'analgesic "dodecyl acetate"'
p869
aS'analgesic "glycinol"'
p870
aS'analgesic "2-decanone"'
p871
aS'analgesic "nonanoic acid"'
p872
aS'analgesic "6\'\'-acetylapiin"'
p873
aS'analgesic "3-methylbutanoic acid"'
p874
aS'analgesic "homogalacturonan"'
p875
aS'analgesic "(s)-beta-aminoisobutyric acid"'
p876
aS'analgesic "pelargonidin 3-o-\xce\xb2-d-caffeoylglucoside"'
p877
aS'analgesic "cajanol"'
p878
aS'analgesic "isopentenyl diphosphate"'
p879
aS'analgesic "1,2-benzenediol"'
p880
aS'analgesic "[14]-gingerol"'
p881
aS'analgesic "koetjapic acid"'
p882
aS'analgesic "quercetin 3-(2-feruloylsophoroside) 7-glucoside"'
p883
aS'analgesic "pc(20:0/p-16:0)"'
p884
aS'analgesic "5,6:8,9-diepoxyergost-22-ene-3,7beta-diol"'
p885
aS'analgesic "cynaropicrin"'
p886
aS'analgesic "campesteryl brassidate"'
p887
aS'analgesic "armillaridin"'
p888
aS'analgesic "trans-s-(1-propenyl)-cysteine sulfoxide"'
p889
aS'analgesic "glycinin"'
p890
aS'analgesic "gallic acid 3-o-gallate"'
p891
aS'analgesic "asparagusic acid syn-s-oxide"'
p892
aS'analgesic "p-mentha-1,8-dien-4-ol"'
p893
aS'analgesic "6-hydroxyluteolin 7-glucoside"'
p894
aS'analgesic "harmol"'
p895
aS'analgesic "leucopelargonidin 3-o-alpha-l-rhamno-beta-d-glucopyranoside"'
p896
aS'analgesic "3-dehydroquinate"'
p897
aS'analgesic "digeranyl"'
p898
aS'analgesic "19-hydroxyandrostenedione"'
p899
aS'analgesic "2\'\'-methoxy-(r)-oleuropein"'
p900
aS'analgesic "proanthocyanidin a2"'
p901
aS'analgesic "panose"'
p902
aS'analgesic "dimethylsulfoniopropionate"'
p903
aS'analgesic "dethiobiotin"'
p904
aS'analgesic "cycloartocarpin"'
p905
aS'analgesic "7-hydroxy-2-methyl-4-oxo-4h-1-benzopyran-5-carboxylic acid 7-glucoside"'
p906
aS'analgesic "n-methylanthranilic acid"'
p907
aS'analgesic "propyl benzoate"'
p908
aS'analgesic "3\'-methoxyacetophenone"'
p909
aS'analgesic "m7g(5\')pppm6am"'
p910
aS'analgesic "ethyl propyl disulfide"'
p911
aS'analgesic "cyanidin 3-(diferuloylsophoroside) 5-glucoside"'
p912
aS'analgesic "pentadecanal"'
p913
aS'analgesic "(3beta,4alpha,5alpha)-4-methyl-8(14)-cholesten-3-ol"'
p914
aS'analgesic "p-mentha-1(7),8-dien-2-ol"'
p915
aS'analgesic "n1,n5,n10-tris-trans-p-coumaroylspermine"'
p916
aS'analgesic "acetol"'
p917
aS'analgesic "l-theanine"'
p918
aS'analgesic "(e)-alpha-bergamotene"'
p919
aS'analgesic "3-(8,11,14-pentadecatrienyl)phenol"'
p920
aS'analgesic "3beta-cycloart-5-ene-3,25-diol"'
p921
aS'analgesic "vestitone"'
p922
aS'analgesic "acetylursolic acid"'
p923
aS'analgesic "l-alpha-amino-5-oxo-2(5h)-isoxazolepropanoic acid"'
p924
aS'analgesic "dump"'
p925
aS'analgesic "4\xce\xb1-formyl-stigmasta-7,24(241)-dien-3\xce\xb2-ol"'
p926
aS'analgesic "3\'-methoxytricetin 7-glucuronide"'
p927
aS'analgesic "o-phosphoethanolamine"'
p928
aS'analgesic "alpha-lactose"'
p929
aS'analgesic "alpha-solanine"'
p930
aS'analgesic "trans-miyabenol c"'
p931
aS'analgesic "stigmasterol 3-o-\xce\xb2-d-glucoside"'
p932
aS'analgesic "cirsiliol"'
p933
aS'analgesic "2-methyl-2-butanol"'
p934
aS'analgesic "sphinganine"'
p935
aS'analgesic "2,6-dimethyl-7-octene-2,6-diol"'
p936
aS'analgesic "3,3\'-bis(4\'\'-hydroxyanigorufone)"'
p937
aS'analgesic "2-hexen-1-ol"'
p938
aS'analgesic "(+)-mahanimbine"'
p939
aS'analgesic "neoisoliquiritin"'
p940
aS'analgesic "glaudine"'
p941
aS'analgesic "beta-cadinene"'
p942
aS'analgesic "beta-sesquiphellandrene"'
p943
aS'analgesic "neryl acetate"'
p944
aS'analgesic "withanolide a"'
p945
a.