(lp0
S'antihistamine "glycerylphosphoinositol"'
p1
aS'antihistamine "3-methoxy-4-hydroxyphenylglycol"'
p2
aS'antihistamine "5-aminolevulinic acid"'
p3
aS'antihistamine "5-\xce\xb2-pregnan-3,20 dione"'
p4
aS'antihistamine "epigallocatechin 3-(3-methylgallate)"'
p5
aS'antihistamine "1-chloro-2,4-dinitrobenzene"'
p6
aS'antihistamine "cholestanol"'
p7
aS'antihistamine "psoralen"'
p8
aS'antihistamine "kaempferol 3-o-alpha-l-rhamnoside-beta-d-glucosyl"'
p9
aS'antihistamine "l-lactic acid"'
p10
aS'antihistamine "beta-glucan"'
p11
aS'antihistamine "decanoate"'
p12
aS'antihistamine "disulfides"'
p13
aS'antihistamine "isothiocyanates"'
p14
aS'antihistamine "rubidium"'
p15
aS'antihistamine "germanium"'
p16
aS'antihistamine "auxin b"'
p17
aS'antihistamine "limonene"'
p18
aS'antihistamine "iron oxide"'
p19
aS'antihistamine "thial-1-propene-1-thiol s-oxide"'
p20
aS'antihistamine "molybdenum"'
p21
aS'antihistamine "utp"'
p22
aS'antihistamine "3\',4\',5\',7,8-pentamethoxyflavan"'
p23
aS'antihistamine "cinchonine"'
p24
aS'antihistamine "chlorophyll"'
p25
aS'antihistamine "diosmetin 7-neohesperidoside"'
p26
aS'antihistamine "phosphofructokinase"'
p27
aS'antihistamine "quercetin 3-(6\'\'\'\'-caffeylsophorotrioside)"'
p28
aS'antihistamine "chlorogenic acid"'
p29
aS'antihistamine "dipentene o-diphenollactone"'
p30
aS'antihistamine "quercetin 3-(2-galloylglucoside)"'
p31
aS'antihistamine "d-myo-inositol (2,3,4) trisphosphate"'
p32
aS'antihistamine "quercetin 3-(2-glucosylrhamnoside)"'
p33
aS'antihistamine "l-iditol"'
p34
aS'antihistamine "naringin 6\'\'-rhamnoside"'
p35
aS'antihistamine "pentane"'
p36
aS'antihistamine "1,2,3,4-tetrahydro-b-carboline-1,3-dicarboxylic acid"'
p37
aS'antihistamine "2,5-dimethylthiazole"'
p38
aS'antihistamine "curcumin"'
p39
aS'antihistamine "docusate sodium"'
p40
aS'antihistamine "laurate"'
p41
aS'antihistamine "7alpha,16beta-17-trihydroxy"'
p42
aS'antihistamine "hex-cis-3-en-1-ol hexanoate"'
p43
aS'antihistamine "hydroxycinnamic acid"'
p44
aS'antihistamine "11b-hydroxygibberellin a7"'
p45
aS'antihistamine "kaempferol 3-o-rhamnodiglucoside"'
p46
aS'antihistamine "n-butanol"'
p47
aS'antihistamine "glutathione disulfide"'
p48
aS'antihistamine "(3beta,5alpha)-3-hydroxypregn-16-en-20-one"'
p49
aS'antihistamine "glucosidase"'
p50
aS'antihistamine "monoterpenes"'
p51
aS'antihistamine "soja hispidasaponin c"'
p52
aS'antihistamine "methylene glutamine"'
p53
aS'antihistamine "pyrroline"'
p54
aS'antihistamine "isodulcitol"'
p55
aS'antihistamine "1-(4-hydroxy-3-methoxyphenyl)-3,5-diacetoxyoctane"'
p56
aS'antihistamine "naringin"'
p57
aS'antihistamine "kaempferol 3-o-glucosyl-rhamnosyl-galactoside"'
p58
aS'antihistamine "styrene"'
p59
aS'antihistamine "synergistic antifungal protein"'
p60
aS'antihistamine "tantalum"'
p61
aS'antihistamine "luteolin 7-disulfoglucoside"'
p62
aS'antihistamine "protoporphyrin ix"'
p63
aS'antihistamine "5\'-deoxyadenosine"'
p64
aS'antihistamine "safrole"'
p65
aS'antihistamine "n-(2r-hydroxydocosanoyl)-2s-amino-1,3s,4r-octadecanetriol"'
p66
aS'antihistamine "osthol"'
p67
aS'antihistamine "l-histidinol"'
p68
aS'antihistamine "hyperin"'
p69
aS'antihistamine "glutaric acid"'
p70
aS'antihistamine "dihydrolipoamide"'
p71
aS'antihistamine "n-butyl acetate"'
p72
aS'antihistamine "mannuronic acid"'
p73
aS'antihistamine "ethyl carbamate"'
p74
aS'antihistamine "behenate"'
p75
aS'antihistamine "apigenin 7-o-(6\'\'-malonyl-apiosyl-glucoside)"'
p76
aS'antihistamine "s-methyl methanesulfinothioate"'
p77
aS'antihistamine "cytidine"'
p78
aS'antihistamine "sugars"'
p79
aS'antihistamine "kaempferol 3-glucosylxyloside"'
p80
aS'antihistamine "3-phenyl-1-propanol"'
p81
aS'antihistamine "phloretin"'
p82
aS'antihistamine "pentosan polysulfate"'
p83
aS'antihistamine "tricin 7-glucuronoside"'
p84
aS'antihistamine "biotin"'
p85
aS'antihistamine "fe3+"'
p86
aS'antihistamine "4\',5,6,7,8-pentahydroxy-3\'-methoxyflavone"'
p87
aS'antihistamine "hebevinoside xiv"'
p88
aS'antihistamine "lormetazepam"'
p89
aS'antihistamine "beta-galactosidase"'
p90
aS'antihistamine "prostaglandin b-1"'
p91
aS'antihistamine "zn2+"'
p92
aS'antihistamine "anthranilate"'
p93
aS'antihistamine "luteolin"'
p94
aS'antihistamine "epigallocatechin 3-(4-methylgallate)"'
p95
aS'antihistamine "pyrophosphate"'
p96
aS'antihistamine "5-(methylthio)-pentanonitrile"'
p97
aS'antihistamine "2\',4\',5,7-tetrahydroxy-8-prenylisoflavone"'
p98
aS'antihistamine "fluorene"'
p99
aS'antihistamine "6,8-dihydroxy-1,7-diprenylxanthone-2-carboxylic acid"'
p100
aS'antihistamine "2-propenyl hexanoate"'
p101
aS'antihistamine "d-glucaric acid"'
p102
aS'antihistamine "orotate"'
p103
aS'antihistamine "strontium"'
p104
aS'antihistamine "s-adenosyl-l-homocysteine"'
p105
aS'antihistamine "isoliquiritigenin"'
p106
aS'antihistamine "4-hydroxybenzoic acid"'
p107
aS'antihistamine "uronic acid"'
p108
aS'antihistamine "harmine"'
p109
aS'antihistamine "n-nitrosodimethylamine"'
p110
aS'antihistamine "hydroxymethylbilane"'
p111
aS'antihistamine "desmosine"'
p112
aS'antihistamine "7-epi-12-hydroxyjasmonic acid glucoside"'
p113
aS'antihistamine "4-methylthiazole"'
p114
aS'antihistamine "(-)-quinic acid"'
p115
aS'antihistamine "medicarpin"'
p116
aS'antihistamine "ferulic acid"'
p117
aS'antihistamine "l-carnosine"'
p118
aS'antihistamine "kaempferol 3-gluco-xyloside"'
p119
aS'antihistamine "opc"'
p120
aS'antihistamine "anthocyanidins"'
p121
aS'antihistamine "3\'\',4\'\'-diacetylafzelin"'
p122
aS'antihistamine "6,7-dimethyoxy coumarin"'
p123
aS'antihistamine "tropine"'
p124
aS'antihistamine "hypoxanthine"'
p125
aS'antihistamine "s-methyl 2-propene-1-sulfinothioate"'
p126
aS'antihistamine "baicalein"'
p127
aS'antihistamine "beta-amyrin"'
p128
aS'antihistamine "ellagic acid 2-(6-glucosylglucoside)"'
p129
aS'antihistamine "hesperidin"'
p130
aS'antihistamine "rhein"'
p131
aS'antihistamine "lotaustralin"'
p132
aS'antihistamine "n-acetylneuraminic acid"'
p133
aS'antihistamine "gossypol"'
p134
aS'antihistamine "benzylamine"'
p135
aS'antihistamine "2\',2\'-dimethyl(pyrano-5\',6\':3:4)-1,5-dihydroxy-6-methoxy-10-methylacridone"'
p136
aS'antihistamine "8-hydroxy-2-methoxy-6-methyl-1,4-naphthoquinone"'
p137
aS'antihistamine "chlorohydrin"'
p138
aS'antihistamine "nobiletin"'
p139
aS'antihistamine "6-epi-7-isocucurbic acid glucoside"'
p140
aS'antihistamine "15-hete"'
p141
aS'antihistamine "allantoin"'
p142
aS'antihistamine "xylitol"'
p143
aS'antihistamine "hexadecane"'
p144
aS'antihistamine "d-glucitol"'
p145
aS'antihistamine "thallium"'
p146
aS'antihistamine "3,3\'-digalloylprodelphinidin b1"'
p147
aS'antihistamine "acetylcholine(1+)"'
p148
aS'antihistamine "uricase"'
p149
aS'antihistamine "propanoic acid"'
p150
aS'antihistamine "1,3-dimethylpyrrolo[1,2-a]pyrazine"'
p151
aS'antihistamine "2\',3,4\',5-tetrahydroxy-4-prenylstilbene"'
p152
aS'antihistamine "lignin"'
p153
aS'antihistamine "homoserine"'
p154
aS'antihistamine "l-(-)-homoserine"'
p155
aS'antihistamine "cyclohexanol"'
p156
aS'antihistamine "linalool"'
p157
aS'antihistamine "8-c-ascorbylepigallocatechin 3-gallate"'
p158
aS'antihistamine "n-heptane"'
p159
aS'antihistamine "3-heptanone"'
p160
aS'antihistamine "l-lysine"'
p161
aS'antihistamine "titanium"'
p162
aS'antihistamine "cetyl alcohol"'
p163
aS'antihistamine "quercetin 3,3\'-diglucoside"'
p164
aS'antihistamine "n-(2r-hydroxyhexacosanoyl)-2s-amino-1,3s,4r-octadecanetriol"'
p165
aS'antihistamine "ceramide"'
p166
aS'antihistamine "glycolipids"'
p167
aS'antihistamine "peroxiredoxin-(s-hydroxy-s-oxocysteine)"'
p168
aS'antihistamine "phenethyl phenylacetate"'
p169
aS'antihistamine "caprolactam"'
p170
aS'antihistamine "dehydroascorbic acid"'
p171
aS'antihistamine "3,6-dimethyl-7-oxo-octanoic acid ethyl ester"'
p172
aS'antihistamine "momordin i"'
p173
aS'antihistamine "quercetin 3-(6\'\'-caffeoylsophorotrioside)"'
p174
aS'antihistamine "spermidine"'
p175
aS'antihistamine "\xce\xb1-d-glucose 1-phosphate"'
p176
aS'antihistamine "geraniol"'
p177
aS'antihistamine "5-hete"'
p178
aS'antihistamine "beta-phenylethanol 6-beta-d-arabinofuranosyl-beta-d-glucopyranoside"'
p179
aS'antihistamine "zein"'
p180
a.