(lp0
S'warfarin "okra"'
p1
aS'warfarin "avocado"'
p2
aS'warfarin "parsley"'
p3
aS'warfarin "fig"'
p4
aS'warfarin "lard"'
p5
aS'warfarin "gin"'
p6
aS'warfarin "cardamom"'
p7
aS'warfarin "miso"'
p8
aS'warfarin "apricot"'
p9
aS'warfarin "haddock"'
p10
aS'warfarin "bison"'
p11
aS'warfarin "poppy"'
p12
aS'warfarin "kale"'
p13
aS'warfarin "fennel"'
p14
aS'warfarin "alfalfa"'
p15
aS'warfarin "lovage"'
p16
aS'warfarin "sherry"'
p17
aS'warfarin "lemon balm"'
p18
aS'warfarin "soy milk"'
p19
aS'warfarin "ostrich"'
p20
aS'warfarin "rainbow trout"'
p21
aS'warfarin "other fish product"'
p22
aS'warfarin "lotus"'
p23
aS'warfarin "almond"'
p24
aS'warfarin "lettuce"'
p25
aS'warfarin "passion fruit"'
p26
aS'warfarin "spinach"'
p27
aS'warfarin "amaranth"'
p28
aS'warfarin "whey"'
p29
aS'warfarin "leek"'
p30
aS'warfarin "papaya"'
p31
aS'warfarin "corn"'
p32
aS'warfarin "salmonidae (salmon, trout)"'
p33
aS'warfarin "other bread"'
p34
aS'warfarin "cheese"'
p35
aS'warfarin "common ling"'
p36
aS'warfarin "banana"'
p37
aS'warfarin "mustard"'
p38
aS'warfarin "snail"'
p39
aS'warfarin "cabbage"'
p40
aS'warfarin "green vegetables"'
p41
aS'warfarin "agar"'
p42
aS'warfarin "cake"'
p43
aS'warfarin "milk (other mammals)"'
p44
aS'warfarin "dill"'
p45
aS'warfarin "apple"'
p46
aS'warfarin "deer"'
p47
aS'warfarin "whelk"'
p48
aS'warfarin "chewing gum"'
p49
aS'warfarin "casein"'
p50
aS'warfarin "pate"'
p51
aS'warfarin "broccoli"'
p52
aS'warfarin "anise"'
p53
aS'warfarin "turmeric"'
p54
aS'warfarin "quail"'
p55
aS'warfarin "wheat"'
p56
aS'warfarin "watermelon"'
p57
aS'warfarin "fruit juice"'
p58
aS'warfarin "other fruit product"'
p59
aS'warfarin "mango"'
p60
aS'warfarin "guava"'
p61
aS'warfarin "liquorice"'
p62
aS'warfarin "yam"'
p63
aS'warfarin "popcorn"'
p64
aS'warfarin "borage"'
p65
aS'warfarin "cinnamon"'
p66
aS'warfarin "eggplant"'
p67
aS'warfarin "whiting"'
p68
aS'warfarin "garland chrysanthemum"'
p69
aS'warfarin "lime"'
p70
aS'warfarin "peach"'
p71
aS'warfarin "alcoholic beverages"'
p72
aS'warfarin "pineappple sage"'
p73
aS'warfarin "pomegranate"'
p74
aS'warfarin "dock"'
p75
aS'warfarin "spirit"'
p76
aS'warfarin "kiwi"'
p77
aS'warfarin "common verbena"'
p78
aS'warfarin "cauliflower"'
p79
aS'warfarin "strawberry"'
p80
aS'warfarin "rosemary"'
p81
aS'warfarin "dripping"'
p82
aS'warfarin "taro"'
p83
aS'warfarin "sunflower"'
p84
aS'warfarin "fishes"'
p85
aS'warfarin "caraway"'
p86
aS'warfarin "vegetable juice"'
p87
aS'warfarin "maitake"'
p88
aS'warfarin "linden"'
p89
aS'warfarin "flour"'
p90
aS'warfarin "beaver"'
p91
aS'warfarin "syrup"'
p92
aS'warfarin "butter"'
p93
aS'warfarin "columbidae (dove, pigeon)"'
p94
aS'warfarin "evening primrose"'
p95
aS'warfarin "sake"'
p96
aS'warfarin "fudge"'
p97
aS'warfarin "fenugreek"'
p98
aS'warfarin "topping"'
p99
aS'warfarin "squirrel"'
p100
aS'warfarin "bean"'
p101
aS'warfarin "abalone"'
p102
aS'warfarin "soup"'
p103
aS'warfarin "lasagna"'
p104
aS'warfarin "other sandwich"'
p105
aS'warfarin "milk (human)"'
p106
aS'warfarin "great horned owl"'
p107
aS'warfarin "nuts"'
p108
aS'warfarin "muscadine grape"'
p109
aS'warfarin "eggs"'
p110
aS'warfarin "chestnut"'
p111
aS'warfarin "taco"'
p112
aS'warfarin "olive"'
p113
aS'warfarin "salad"'
p114
aS'warfarin "potato"'
p115
aS'warfarin "flatfish"'
p116
aS'warfarin "sweet potato"'
p117
aS'warfarin "pie"'
p118
aS'warfarin "honey"'
p119
aS'warfarin "walnut"'
p120
aS'warfarin "coffee"'
p121
aS'warfarin "citrus"'
p122
aS'warfarin "atlantic salmon"'
p123
aS'warfarin "other animal fat"'
p124
aS'warfarin "fruits"'
p125
aS'warfarin "roe"'
p126
aS'warfarin "turnip"'
p127
aS'warfarin "durian"'
p128
aS'warfarin "rape"'
p129
aS'warfarin "angelica"'
p130
aS'warfarin "grape"'
p131
aS'warfarin "roselle"'
p132
aS'warfarin "natto"'
p133
aS'warfarin "pollock"'
p134
aS'warfarin "barley"'
p135
aS'warfarin "sauce"'
p136
aS'warfarin "lemon"'
p137
aS'warfarin "horseradish"'
p138
aS'warfarin "safflower"'
p139
aS'warfarin "thistle"'
p140
aS'warfarin "gelatin"'
p141
aS'warfarin "tamarind"'
p142
aS'warfarin "cream"'
p143
aS'warfarin "kelp"'
p144
aS'warfarin "mulberry"'
p145
aS'warfarin "other vegetable product"'
p146
aS'warfarin "flaxseed"'
p147
aS'warfarin "vitis vinifera"'
p148
aS'warfarin "haliotis"'
p149
aS'warfarin "procyon lotor"'
p150
aS'warfarin "columbidae"'
p151
aS'warfarin "allium"'
p152
aS'warfarin "bubo virginianus"'
p153
aS'warfarin "odocoileus"'
p154
aS'warfarin "vitis"'
p155
aS'warfarin "passiflora edulis"'
p156
aS'warfarin "allium sativum"'
p157
aS'warfarin "oncorhynchus mykiss"'
p158
aS'warfarin "zea mays"'
p159
aS'warfarin "thymus vulgaris"'
p160
aS'warfarin "papaver somniferum"'
p161
aS'warfarin "sciuridae"'
p162
aS'warfarin "oryza sativa"'
p163
aS'warfarin "sorbus aucuparia"'
p164
aS'warfarin "oncorhynchus"'
p165
aS'warfarin "allium cepa"'
p166
aS'warfarin "avena sativa"'
p167
aS'warfarin "oryctolagus"'
p168
aS'warfarin "piper nigrum"'
p169
aS'warfarin "trigonella foenum-graecum"'
p170
aS'warfarin "prunus persica"'
p171
aS'warfarin "salmo salar"'
p172
aS'warfarin "gastropoda"'
p173
aS'warfarin "papaver"'
p174
aS'warfarin "salmonidae"'
p175
aS'warfarin "zingiber officinale"'
p176
aS'warfarin "prunus"'
p177
aS'warfarin "cetacea"'
p178
aS'warfarin "capsicum"'
p179
aS'warfarin "verbena officinalis"'
p180
aS'warfarin "triticum"'
p181
aS'warfarin "sus scrofa"'
p182
aS'warfarin "medicago sativa"'
p183
aS'warfarin "camellia sinensis"'
p184
aS'warfarin "eugenia"'
p185
aS'warfarin "carthamus tinctorius"'
p186
aS'warfarin "haliotis"'
p187
aS'warfarin "eugenia"'
p188
aS'warfarin "s. aucuparia"'
p189
aS'warfarin "columbidae"'
p190
aS'warfarin "allium"'
p191
aS'warfarin "g. biloba"'
p192
aS'warfarin "odocoileus"'
p193
aS'warfarin "f. x"'
p194
aS'warfarin "vitis"'
p195
aS'warfarin "a. sativum"'
p196
aS'warfarin "a. fimbria"'
p197
aS'warfarin "sciuridae"'
p198
aS'warfarin "a. sativum"'
p199
aS'warfarin "oncorhynchus"'
p200
aS'warfarin "oryctolagus"'
p201
aS'warfarin "m. officinalis"'
p202
aS'warfarin "t. foenum-graecum"'
p203
aS'warfarin "gastropoda"'
p204
aS'warfarin "papaver"'
p205
aS'warfarin "salmonidae"'
p206
aS'warfarin "prunus"'
p207
aS'warfarin "cetacea"'
p208
aS'warfarin "capsicum"'
p209
aS'warfarin "triticum"'
p210
aS'warfarin "methyl [8]-shogaol"'
p211
aS'warfarin "sp1"'
p212
aS'warfarin "ellagic acid acetyl-arabinoside"'
p213
aS'warfarin "3,5,6-trihydroxy-5-(hydroxymethyl)-2-methoxy-2-cyclohexen-1-one"'
p214
aS'warfarin "6beta,7beta-dihydroxykaurenoic acid"'
p215
aS'warfarin "resins"'
p216
aS'warfarin "octanoic acid"'
p217
aS'warfarin "prostaglandin e-1"'
p218
aS'warfarin "kaempferol 3-feruloyl-triglucoside"'
p219
aS'warfarin "ginsenoside m7cd"'
p220
aS'warfarin "lf"'
p221
aS'warfarin "estrone"'
p222
aS'warfarin "graecunin h-3"'
p223
aS'warfarin "aflatoxin"'
p224
aS'warfarin "luteolin 7-(6\'\'-apiosylglucoside)"'
p225
aS'warfarin "1-heptanol"'
p226
aS'warfarin "m-coumaric acid"'
p227
aS'warfarin "1,5,5,9-tetramethyl-bicyclo[4.3.0]-non-8-en-7-one"'
p228
aS'warfarin "lignans"'
p229
aS'warfarin "vanillin"'
p230
aS'warfarin "lanosterol"'
p231
aS'warfarin "n-methoxyspirobrassinol methyl ether"'
p232
aS'warfarin "lactic acid"'
p233
aS'warfarin "(r)-apiumetin glucoside"'
p234
aS'warfarin "uridine diphosphate"'
p235
a.