(lp0
S'bronchodilator "zerumbone"'
p1
aS'bronchodilator "glycitein"'
p2
aS'bronchodilator "methyl salicylate"'
p3
aS'bronchodilator "1\'-acetoxychavicol acetate"'
p4
aS'bronchodilator "pc(20:3(8z,11z,14z)/20:0)"'
p5
aS'bronchodilator "2-geranyl-2\',3,4,4\'-tetrahydroxydihydrochalcone"'
p6
aS'bronchodilator "l-(+)-homoserine"'
p7
aS'bronchodilator "ampelopsin d"'
p8
aS'bronchodilator "sciadonic acid"'
p9
aS'bronchodilator "o-acetyl-l-serine"'
p10
aS'bronchodilator "pc(p-18:1(11z)/18:4(6z,9z,12z,15z))"'
p11
aS'bronchodilator "(24s)-24-ethylbrassinone"'
p12
aS'bronchodilator "delphinidin 3,5,3\'-triglucoside"'
p13
aS'bronchodilator "dihydrobutylidene phthalide"'
p14
aS'bronchodilator "guanidino succinic acid"'
p15
aS'bronchodilator "d-glucuronic acid"'
p16
aS'bronchodilator "muscomin"'
p17
aS'bronchodilator "2-heptanone"'
p18
aS'bronchodilator "2-pentenal"'
p19
aS'bronchodilator "olean-12-en-28-oic acid"'
p20
aS'bronchodilator "physcion"'
p21
aS'bronchodilator "physalin p"'
p22
aS'bronchodilator "physalin i"'
p23
aS'bronchodilator "physalin l"'
p24
aS'bronchodilator "physalin o"'
p25
aS'bronchodilator "physalin a"'
p26
aS'bronchodilator "physalin c"'
p27
aS'bronchodilator "physalin d"'
p28
aS'bronchodilator "physalin f"'
p29
aS'bronchodilator "physalin g"'
p30
aS'bronchodilator "indole-3-acetonitrile"'
p31
aS'bronchodilator "isovitexin 2\'\'-caffeoylglucoside"'
p32
aS'bronchodilator "edulisin i"'
p33
aS'bronchodilator "nummularine a"'
p34
aS'bronchodilator "pc(18:1(11z)/p-18:1(11z))"'
p35
aS'bronchodilator "pc(18:4(6z,9z,12z,15z)/18:1(9z))"'
p36
aS'bronchodilator "chrysophanol"'
p37
aS'bronchodilator "pc(20:0/18:3(6z,9z,12z))"'
p38
aS'bronchodilator "24-methylenecholesterol"'
p39
aS'bronchodilator "cucurbitacin d"'
p40
aS'bronchodilator "uridine 5\'-monophosphate"'
p41
aS'bronchodilator "20,23-cis-bullatalicinone"'
p42
aS'bronchodilator "methionine-sulfoxide"'
p43
aS'bronchodilator "octanal"'
p44
aS'bronchodilator "trans-10-hydroxylinalyl oxide 7-glucoside"'
p45
aS'bronchodilator "germacranolide"'
p46
aS'bronchodilator "prunasin"'
p47
aS'bronchodilator "sitosterol 3-o-(6\'-o-oleyl-beta-d-glucoside)"'
p48
aS'bronchodilator "casticin"'
p49
aS'bronchodilator "3,5-dihydroxybenzoic acid"'
p50
aS'bronchodilator "alpha-mangostin"'
p51
aS'bronchodilator "xanthoangelol e"'
p52
aS'bronchodilator "xanthoangelol b"'
p53
aS'bronchodilator "(-)-beta-elemene"'
p54
aS'bronchodilator "secoisolariciresinol 9,9\'-diglucoside"'
p55
aS'bronchodilator "licochalcone b"'
p56
aS'bronchodilator "geranylgeraniol"'
p57
aS'bronchodilator "\xce\xb1-carotene"'
p58
aS'bronchodilator "verbascose"'
p59
aS'bronchodilator "3,4-dimethylpyrrolo[1,2-a]pyrazine"'
p60
aS'bronchodilator "1-acetoxy-2-hydroxy-5,12,15-heneicosatrien-4-one"'
p61
aS'bronchodilator "1(10),11-eremophiladiene-2,9-dione"'
p62
aS'bronchodilator "pc(p-16:0/16:0)"'
p63
aS'bronchodilator "adenosine 5\'-phosphosulfate"'
p64
aS'bronchodilator "24-methylene-31-nor-5alpha-lanost-9(11)-3beta-ol"'
p65
aS'bronchodilator "tritriacontyl octacosanoate"'
p66
aS'bronchodilator "soyasapogenol a"'
p67
aS'bronchodilator "4-hydroxybenzoate"'
p68
aS'bronchodilator "1-hexanol"'
p69
aS'bronchodilator "[8]-paradol"'
p70
aS'bronchodilator "11,13-octacosanedione"'
p71
aS'bronchodilator "clusin"'
p72
aS'bronchodilator "mytilus small cardioactive peptide"'
p73
aS'bronchodilator "1,3-dimethylbenzene"'
p74
aS'bronchodilator "glycolaldehyde"'
p75
aS'bronchodilator "pc(18:3(6z,9z,12z)/20:1(11z))"'
p76
aS'bronchodilator "cyanidin 3-sambubioside"'
p77
aS'bronchodilator "3-phospho-l-serine"'
p78
aS'bronchodilator "punicalin"'
p79
aS'bronchodilator "syringic acid"'
p80
aS'bronchodilator "ganoderic acid mg"'
p81
aS'bronchodilator "bullatacin"'
p82
aS'bronchodilator "ergocalciferol"'
p83
aS'bronchodilator "1-aminocyclopropane-1-carboxylate"'
p84
aS'bronchodilator "lysopc(p-18:1(9z))"'
p85
aS'bronchodilator "mbp 1"'
p86
aS'bronchodilator "6-hydroxymethyl-7,8-dihydropterin"'
p87
aS'bronchodilator "aspalathin"'
p88
aS'bronchodilator "pc(18:3(9z,12z,15z)/18:1(9z))"'
p89
aS'bronchodilator "n1-acetylspermidine"'
p90
aS'bronchodilator "[7]-paradol"'
p91
aS'bronchodilator "3-hydroxy-2-methylidene butyric acid angelate"'
p92
aS'bronchodilator "sn-glycerol-3-phosphate"'
p93
aS'bronchodilator "conidendrin"'
p94
aS'bronchodilator "2-deoxy-l-ribono-1,4-lactone"'
p95
aS'bronchodilator "inosinic acid"'
p96
aS'bronchodilator "biliverdin-ix-\xce\xb1"'
p97
aS'bronchodilator "methoxatin"'
p98
aS'bronchodilator "torachrysone 8-(2-apiosylglucoside)"'
p99
aS'bronchodilator "linalool 3-(6\'\'-apiosylglucoside)"'
p100
aS'bronchodilator "hexanoic acid"'
p101
aS'bronchodilator "pc(18:1(11z)/18:3(6z,9z,12z))"'
p102
aS'bronchodilator "byakangelicol"'
p103
aS'bronchodilator "2-pentanol"'
p104
aS'bronchodilator "11,13-hexacosanedione"'
p105
aS'bronchodilator "chorismate"'
p106
aS'bronchodilator "kahweol"'
p107
aS'bronchodilator "anisic acid"'
p108
aS'bronchodilator "grifola frandosa lectin"'
p109
aS'bronchodilator "acacetin"'
p110
aS'bronchodilator "histidinol"'
p111
aS'bronchodilator "arbutin"'
p112
aS'bronchodilator "calenduladiol"'
p113
aS'bronchodilator "nonivamide"'
p114
aS'bronchodilator "azelaic acid"'
p115
aS'bronchodilator "xylulose 5-phosphate"'
p116
aS'bronchodilator "xi-dihydro-4-methyl-2(3h)-furanone"'
p117
aS'bronchodilator "6,10-gingerdione"'
p118
aS'bronchodilator "pc(18:3(9z,12z,15z)/20:3(8z,11z,14z))"'
p119
aS'bronchodilator "(24s)-ergost-4-ene-3,6-dione"'
p120
aS'bronchodilator "torachrysone"'
p121
aS'bronchodilator "1-deoxy-d-xylulose 5-phosphate"'
p122
aS'bronchodilator "hydantoin"'
p123
aS'bronchodilator "secoisolariciresinol"'
p124
aS'bronchodilator "pomolic acid"'
p125
aS'bronchodilator "goshonoside f5"'
p126
aS'bronchodilator "manool"'
p127
aS'bronchodilator "2,3-butanediol"'
p128
aS'bronchodilator "chitotriose"'
p129
aS'bronchodilator "apiosylglucosyl 4-hydroxybenzoate"'
p130
aS'bronchodilator "5-(10,13-nonadecadienyl)-1,3-benzenediol"'
p131
aS'bronchodilator "(r)-pantothenic acid 4\'-o-b-d-glucoside"'
p132
aS'bronchodilator "1,3-dithiane"'
p133
aS'bronchodilator "3-diphospho-1d-myo-inositol (1,2,4,5,6)pentakisphosphate"'
p134
aS'bronchodilator "3,4-dihydroxymandelaldehyde"'
p135
aS'bronchodilator "theaflavin 3,3\'-digallate"'
p136
aS'bronchodilator "2,4,6-trinitrotoluene"'
p137
aS'bronchodilator "methyl-n-propane thiosulfinate"'
p138
aS'bronchodilator "pc(18:1(9z)/20:3(8z,11z,14z))"'
p139
aS'bronchodilator "(e)-4,8-dimethyl-1,3,7-nonatriene"'
p140
aS'bronchodilator "hypericin"'
p141
aS'bronchodilator "pc(18:4(6z,9z,12z,15z)/18:0)"'
p142
aS'bronchodilator "sonchifolin"'
p143
aS'bronchodilator "trans-caffeic acid"'
p144
aS'bronchodilator "oleoyl-coa"'
p145
aS'bronchodilator "cinnamyl acetate"'
p146
aS'bronchodilator "pinusolide"'
p147
aS'bronchodilator "relaxins"'
p148
aS'bronchodilator "dulcin"'
p149
aS'bronchodilator "batatasin iii"'
p150
aS'bronchodilator "solanidine"'
p151
aS'bronchodilator "1-(5-acetyl-2-hydroxyphenyl)-3-methyl-1-butanone"'
p152
aS'bronchodilator "notoginsenoside j"'
p153
aS'bronchodilator "notoginsenoside b"'
p154
aS'bronchodilator "notoginsenoside i"'
p155
aS'bronchodilator "notoginsenoside h"'
p156
aS'bronchodilator "cis-aconitate"'
p157
aS'bronchodilator "alpha-amyrin"'
p158
aS'bronchodilator "orotidine-5\'-phosphate"'
p159
aS'bronchodilator "cadinene"'
p160
aS'bronchodilator "8-hydroxydaidzein"'
p161
aS'bronchodilator "35s-methylokadaic acid 7-hexadecanoate"'
p162
aS'bronchodilator "caffeic acid ethyl ester"'
p163
aS'bronchodilator "citroside a"'
p164
aS'bronchodilator "liriodenine"'
p165
aS'bronchodilator "chrysoeriol 7-disulfoglucoside"'
p166
aS'bronchodilator "peonidin 3-(6\'\'-acetyl-galactoside)"'
p167
aS'bronchodilator "gingerenone a"'
p168
aS'bronchodilator "d-malic acid"'
p169
aS'bronchodilator "epicurcumenol"'
p170
aS'bronchodilator "2-methylthiophene"'
p171
aS'bronchodilator "abieta-7,13-dien-18-ol"'
p172
aS'bronchodilator "(4rs,9alphasr)-octahydro-4-methyl-2h-quinolizin-2-one"'
p173
aS'bronchodilator "taraxerol"'
p174
aS'bronchodilator "kaempferol 3-o-alpha-l-(3-trans-p-coumaroyl-rhamnopyranoside)"'
p175
aS'bronchodilator "cnidilide"'
p176
aS'bronchodilator "exo-2-methyl-3-methylenebicyclo[2.2.1]heptan-2-ol"'
p177
aS'bronchodilator "allithiamine"'
p178
aS'bronchodilator "bicyclogermacrene"'
p179
aS'bronchodilator "methionine methylsulfonium salt"'
p180
aS'bronchodilator "safranal"'
p181
aS'bronchodilator "1-p-menthene-8,9-diol"'
p182
aS'bronchodilator "isobutanol"'
p183
aS'bronchodilator "butan-2-one"'
p184
aS'bronchodilator "d-myo-inositol (1,2,3) trisphosphate"'
p185
aS'bronchodilator "2\'\'-(6\'\'-p-coumaroylglucosyl)quercitrin"'
p186
aS'bronchodilator "oryzanol"'
p187
aS'bronchodilator "trans-cinnamate"'
p188
aS'bronchodilator "nonane"'
p189
aS'bronchodilator "n-[(4-hydroxyphenyl)methyl]ethoxycarbothioamide 4\'-(tri-acetylrhamnoside)"'
p190
aS'bronchodilator "4-hydroxybenzyl alcohol"'
p191
aS'bronchodilator "4-o-methyl-a-d-glucosyl-(1->2)-b-d-xylosyl-(1->4)-d-xylose"'
p192
aS'bronchodilator "cynaroside a"'
p193
aS'bronchodilator "12,14-octacosanedione"'
p194
aS'bronchodilator "n,n-dimethylaniline"'
p195
aS'bronchodilator "butyl dihydrophthalide"'
p196
aS'bronchodilator "2,3,5-trimethylphenol"'
p197
aS'bronchodilator "isogentisin"'
p198
aS'bronchodilator "antibiotic sb 202742"'
p199
aS'bronchodilator "chrysoeriol 7-triglucuronide"'
p200
aS'bronchodilator "3-caffeoylpelargonidin 5-glucoside"'
p201
aS'bronchodilator "methyl 2,3-dihydro-3,5-dihydroxy-2-oxo-3-indoleacetic acid"'
p202
aS'bronchodilator "beta-d-galactopyranosyl-(1->6)-beta-d-galactopyranosyl-(1->6)-d-galactose"'
p203
aS'bronchodilator "gamma-glutamyl-cysteine"'
p204
aS'bronchodilator "simonin v"'
p205
aS'bronchodilator "2-oxobutanoate"'
p206
aS'bronchodilator "2-[2-(4-hydroxy-3-methoxyphenyl)ethyl]-5-octylfuran"'
p207
aS'bronchodilator "2-butanone"'
p208
aS'bronchodilator "n-dimethylethanolamine"'
p209
aS'bronchodilator "n-methyltyramine"'
p210
aS'bronchodilator "ginsenoside rb3"'
p211
aS'bronchodilator "ginsenoside rb2"'
p212
aS'bronchodilator "alpha-amyrin acetate"'
p213
aS'bronchodilator "pc(18:0/14:0)"'
p214
aS'bronchodilator "3-hexanone"'
p215
aS'bronchodilator "pc(20:0/18:4(6z,9z,12z,15z))"'
p216
aS'bronchodilator "boldine"'
p217
aS'bronchodilator "oripavine"'
p218
aS'bronchodilator "thymidine 5\'-triphosphate"'
p219
aS'bronchodilator "absinthin"'
p220
aS'bronchodilator "(+)-7-epi-syringaresinol 4\'-glucoside"'
p221
aS'bronchodilator "3\'-hydroxy-4\',5,6,7,8-pentamethoxyflavone"'
p222
aS'bronchodilator "2,6-diamino-4-hydroxy-5-formamidopyrimidine"'
p223
aS'bronchodilator "hydroxysafflor yellow a"'
p224
aS'bronchodilator "ng,ng-dimethyl-l-arginine"'
p225
aS'bronchodilator "alpha-d-glucopyranose"'
p226
aS'bronchodilator "(-)-beta-pinene"'
p227
aS'bronchodilator "lactitol"'
p228
aS'bronchodilator "trans-grandmarin isovalerate"'
p229
aS'bronchodilator "salsolinol"'
p230
aS'bronchodilator "pc(18:3(9z,12z,15z)/20:0)"'
p231
aS'bronchodilator "pc(18:1(11z)/18:3(9z,12z,15z))"'
p232
aS'bronchodilator "valencic acid"'
p233
aS'bronchodilator "beta-pinene"'
p234
aS'bronchodilator "7,8-methylenedioxy-9-methoxycoumarin"'
p235
aS'bronchodilator "neodymium"'
p236
aS'bronchodilator "pc(18:4(6z,9z,12z,15z)/p-18:1(9z))"'
p237
aS'bronchodilator "coumestrol"'
p238
aS'bronchodilator "pc(p-18:1(9z)/18:4(6z,9z,12z,15z))"'
p239
aS'bronchodilator "amoxycillin"'
p240
aS'bronchodilator "sativanone"'
p241
aS'bronchodilator "caraganoside a"'
p242
aS'bronchodilator "s-propyl-l-cysteine"'
p243
aS'bronchodilator "epsilon-viniferin"'
p244
aS'bronchodilator "ginsenoside rf"'
p245
aS'bronchodilator "ginsenoside rd"'
p246
aS'bronchodilator "5-(2-methylpropyl)tetrahydro-2-oxo-3-furancarboxylic acid"'
p247
aS'bronchodilator "ginsenoside rc"'
p248
aS'bronchodilator "methyl (2-propenylthio) selenide"'
p249
aS'bronchodilator "hesperetin 7-(2,6-dirhamnosylglucoside)"'
p250
aS'bronchodilator "pancrelipase"'
p251
aS'bronchodilator "5-(12,15-heneicosadienyl)-1,3-benzenediol"'
p252
aS'bronchodilator "sitosterol 3-o-(6\'-o-stearyl-beta-d-glucoside)"'
p253
aS'bronchodilator "demethoxycurcumin"'
p254
aS'bronchodilator "soyasaponin aa"'
p255
aS'bronchodilator "beta-glycyrrhetinic acid"'
p256
aS'bronchodilator "succinyl-coa"'
p257
aS'bronchodilator "homogentisic acid"'
p258
aS'bronchodilator "unknown 370"'
p259
aS'bronchodilator "2-angeloyl-9-(3-methyl-2e-pentenoyl)-2b,9a-dihydroxy-4z,10(14)-oplopadien-3-one"'
p260
aS'bronchodilator "madecassoside"'
p261
aS'bronchodilator "terpinene"'
p262
aS'bronchodilator "af toxin ii"'
p263
aS'bronchodilator "1-diphospho-1d-myo-inositol (2,3,4,5,6)pentakisphosphate"'
p264
aS'bronchodilator "7,8-didehydrodesmosterol"'
p265
aS'bronchodilator "trans-2-pentenal"'
p266
aS'bronchodilator "butanoic acid"'
p267
aS'bronchodilator "vitisin a"'
p268
aS'bronchodilator "vitisin c"'
p269
aS'bronchodilator "vitisin b"'
p270
aS'bronchodilator "nomilin"'
p271
aS'bronchodilator "(s)-[10]-gingerol"'
p272
aS'bronchodilator "erucin"'
p273
aS'bronchodilator "pc(18:1(9z)/p-18:1(11z))"'
p274
aS'bronchodilator "vaccenic acid"'
p275
aS'bronchodilator "5-hydroxyindole acetate"'
p276
aS'bronchodilator "epimyricanol 5-glucoside"'
p277
aS'bronchodilator "n-gamma-glutamyl-s-cis-(1-propenyl)cysteine"'
p278
aS'bronchodilator "pc(18:3(6z,9z,12z)/18:1(9z))"'
p279
aS'bronchodilator "adenosine phosphosulfate"'
p280
aS'bronchodilator "pc(18:0/18:0)"'
p281
aS'bronchodilator "dihydromyricetin"'
p282
aS'bronchodilator "thorium"'
p283
aS'bronchodilator "flazine"'
p284
aS'bronchodilator "pc(20:1(11z)/18:0)"'
p285
aS'bronchodilator "germacrene d"'
p286
aS'bronchodilator "xi-11,12,13-trinor-7-calamenone"'
p287
aS'bronchodilator "2\'-hydroxy-4\',6\'-dimethoxychalcone"'
p288
aS'bronchodilator "methyl benzoate"'
p289
aS'bronchodilator "pyridoxine-5\'-phosphate"'
p290
aS'bronchodilator "glycycoumarin"'
p291
aS'bronchodilator "2-heptylfuran"'
p292
aS'bronchodilator "pc(18:0/p-18:1(9z))"'
p293
aS'bronchodilator "ethyl propionate"'
p294
aS'bronchodilator "(+)-borneol"'
p295
aS'bronchodilator "dtdp"'
p296
aS'bronchodilator "solasodine"'
p297
aS'bronchodilator "16beta-hydroxy-3-oxo-olean-1,12-dien-28-oic acid"'
p298
aS'bronchodilator "4-octanone"'
p299
aS'bronchodilator "palmidrol"'
p300
aS'bronchodilator "hydroxymyricanone"'
p301
aS'bronchodilator "pc(20:3(8z,11z,14z)/18:3(9z,12z,15z))"'
p302
aS'bronchodilator "patulin"'
p303
aS'bronchodilator "4-methoxybenzyl acetate"'
p304
aS'bronchodilator "pc(o-22:0/20:1(11z))"'
p305
aS'bronchodilator "nonanoic acid"'
p306
aS'bronchodilator "6\'\'-acetylapiin"'
p307
aS'bronchodilator "2,3-dihydro-2,3-dihydroxy-9-phenyl-1h-phenalen-1-one"'
p308
aS'bronchodilator "homogalacturonan"'
p309
aS'bronchodilator "(s)-beta-aminoisobutyric acid"'
p310
aS'bronchodilator "costunolide"'
p311
aS'bronchodilator "n-propanol"'
p312
aS'bronchodilator "pelargonidin 3-o-\xce\xb2-d-caffeoylglucoside"'
p313
aS'bronchodilator "citrusin ii"'
p314
aS'bronchodilator "isopentenyl diphosphate"'
p315
aS'bronchodilator "1,2-benzenediol"'
p316
aS'bronchodilator "[14]-gingerol"'
p317
aS'bronchodilator "5,6:8,9-diepoxyergost-22-ene-3,7beta-diol"'
p318
aS'bronchodilator "cynaropicrin"'
p319
aS'bronchodilator "glycinin"'
p320
aS'bronchodilator "gallic acid 3-o-gallate"'
p321
aS'bronchodilator "(-)-pinoresinol"'
p322
aS'bronchodilator "citroside b"'
p323
aS'bronchodilator "harmol"'
p324
aS'bronchodilator "2\'\'-o-alpha-rhamnosyl-6-c-(6-deoxo-xylo-hexos-4-ulosyl)-chrysoeriol"'
p325
aS'bronchodilator "19-hydroxyandrostenedione"'
p326
aS'bronchodilator "dimethylsulfoniopropionate"'
p327
aS'bronchodilator "cycloartocarpin"'
p328
aS'bronchodilator "7-hydroxy-2-methyl-4-oxo-4h-1-benzopyran-5-carboxylic acid 7-glucoside"'
p329
aS'bronchodilator "ethyl propyl disulfide"'
p330
aS'bronchodilator "maltodextrin"'
p331
aS'bronchodilator "sarsasapogenin 3-[2\'\'-glucosyl-4\'\'-xylosylglucoside]"'
p332
aS'bronchodilator "n1,n5,n10-tris-trans-p-coumaroylspermine"'
p333
aS'bronchodilator "acetol"'
p334
aS'bronchodilator "l-theanine"'
p335
aS'bronchodilator "3beta-cycloart-5-ene-3,25-diol"'
p336
aS'bronchodilator "3-butenenitrile"'
p337
aS'bronchodilator "3-oxo-alpha-ionol"'
p338
aS'bronchodilator "dump"'
p339
aS'bronchodilator "3\'-methoxytricetin 7-glucuronide"'
p340
aS'bronchodilator "alpha-solanine"'
p341
aS'bronchodilator "cirsiliol"'
p342
aS'bronchodilator "sphinganine"'
p343
aS'bronchodilator "2,6-dimethyl-7-octene-2,6-diol"'
p344
aS'bronchodilator "3,3\'-bis(4\'\'-hydroxyanigorufone)"'
p345
aS'bronchodilator "1-dehydro-[8]-gingerdione"'
p346
aS'bronchodilator "neoisoliquiritin"'
p347
aS'bronchodilator "undecane"'
p348
a.