(lp0
S'antacids "spinacia oleracea"'
p1
aS'antacids "vitis"'
p2
aS'antacids "laurus nobilis"'
p3
aS'antacids "nephropidae"'
p4
aS'antacids "hordeum vulgare"'
p5
aS'antacids "struthio camelus"'
p6
aS'antacids "arachis hypogaea"'
p7
aS'antacids "raphanus sativus"'
p8
aS'antacids "daucus carota"'
p9
aS'antacids "oncorhynchus mykiss"'
p10
aS'antacids "crassostrea virginica"'
p11
aS'antacids "thymus vulgaris"'
p12
aS'antacids "crassostrea gigas"'
p13
aS'antacids "ficus carica"'
p14
aS'antacids "papaver somniferum"'
p15
aS'antacids "elaeis"'
p16
aS'antacids "psidium guajava"'
p17
aS'antacids "gadiformes"'
p18
aS'antacids "solanum melongena"'
p19
aS'antacids "lepidium sativum"'
p20
aS'antacids "sciuridae"'
p21
aS'antacids "agaricus bisporus"'
p22
aS'antacids "oryza sativa"'
p23
aS'antacids "ranidae"'
p24
aS'antacids "mytilidae"'
p25
aS'antacids "homarus americanus"'
p26
aS'antacids "secale cereale"'
p27
aS'antacids "vicia faba"'
p28
aS'antacids "fagopyrum esculentum"'
p29
aS'antacids "salvia officinalis"'
p30
aS'antacids "salvelinus"'
p31
aS'antacids "chenopodium album"'
p32
aS'antacids "curcuma longa"'
p33
aS'antacids "solanum tuberosum"'
p34
aS'antacids "oncorhynchus"'
p35
aS'antacids "pinus"'
p36
aS'antacids "quercus"'
p37
aS'antacids "allium cepa"'
p38
aS'antacids "brachyura"'
p39
aS'antacids "pectinidae"'
p40
aS'antacids "gallus gallus"'
p41
aS'antacids "avena sativa"'
p42
aS'antacids "amaranthus"'
p43
aS'antacids "chondrus crispus"'
p44
aS'antacids "beta vulgaris"'
p45
aS'antacids "salmo salar"'
p46
aS'antacids "mentha"'
p47
aS'antacids "pleurotus ostreatus"'
p48
aS'antacids "malus"'
p49
aS'antacids "sinapis alba"'
p50
aS'antacids "papaver"'
p51
aS'antacids "phaseolus lunatus"'
p52
aS'antacids "salmonidae"'
p53
aS'antacids "zingiber officinale"'
p54
aS'antacids "panax"'
p55
aS'antacids "spirulina"'
p56
aS'antacids "cetacea"'
p57
aS'antacids "capsicum"'
p58
aS'antacids "ascidiacea"'
p59
aS'antacids "mytilus edulis"'
p60
aS'antacids "phaseolus vulgaris"'
p61
aS'antacids "callinectes sapidus"'
p62
aS'antacids "rosmarinus officinalis"'
p63
aS'antacids "sus scrofa"'
p64
aS'antacids "lupinus"'
p65
aS'antacids "medicago sativa"'
p66
aS'antacids "camellia sinensis"'
p67
aS'antacids "ziziphus zizyphus"'
p68
aS'antacids "carya"'
p69
aS'antacids "octopus vulgaris"'
p70
aS'antacids "anas platyrhynchos"'
p71
aS'antacids "squalus acanthias"'
p72
aS'antacids "triticum aestivum"'
p73
aS'antacids "citrus paradisi x citrus maxima"'
p74
aS'antacids "morus"'
p75
aS'antacids "acipenseridae"'
p76
aS'antacids "l. albus"'
p77
aS'antacids "nelumbo"'
p78
aS'antacids "lupinus"'
p79
aS'antacids "c. sinensis"'
p80
aS'antacids "opuntia"'
p81
aS'antacids "p. lotor"'
p82
aS'antacids "p. ostreatus"'
p83
aS'antacids "acipenser"'
p84
aS'antacids "columbidae"'
p85
aS'antacids "r. \xc3\x97"'
p86
aS'antacids "allium"'
p87
aS'antacids "sisymbrium"'
p88
aS'antacids "malus"'
p89
aS'antacids "gossypium"'
p90
aS'antacids "c. virginica"'
p91
aS'antacids "perciformes"'
p92
aS'antacids "physalis"'
p93
aS'antacids "odocoileus"'
p94
aS'antacids "f. x"'
p95
aS'antacids "vitis"'
p96
aS'antacids "nephropidae"'
p97
aS'antacids "a. cepa"'
p98
aS'antacids "o. mykiss"'
p99
aS'antacids "t. vulgaris"'
p100
aS'antacids "elaeis"'
p101
aS'antacids "gadiformes"'
p102
aS'antacids "sciuridae"'
p103
a.