(lp0
S'antihistamine "parsley"'
p1
aS'antihistamine "fig"'
p2
aS'antihistamine "gin"'
p3
aS'antihistamine "drag\xc3\xa9e"'
p4
aS'antihistamine "cichlidae (tilapia)"'
p5
aS'antihistamine "haddock"'
p6
aS'antihistamine "poppy"'
p7
aS'antihistamine "kale"'
p8
aS'antihistamine "nutritional drink"'
p9
aS'antihistamine "alfalfa"'
p10
aS'antihistamine "chicory"'
p11
aS'antihistamine "cocoa butter"'
p12
aS'antihistamine "mung bean"'
p13
aS'antihistamine "rainbow trout"'
p14
aS'antihistamine "other fish product"'
p15
aS'antihistamine "liquor"'
p16
aS'antihistamine "almond"'
p17
aS'antihistamine "spinach"'
p18
aS'antihistamine "amaranth"'
p19
aS'antihistamine "whey"'
p20
aS'antihistamine "wheat bread"'
p21
aS'antihistamine "opium poppy"'
p22
aS'antihistamine "common hazelnut"'
p23
aS'antihistamine "capers"'
p24
aS'antihistamine "mugwort"'
p25
aS'antihistamine "striped mullet"'
p26
aS'antihistamine "common ling"'
p27
aS'antihistamine "banana"'
p28
aS'antihistamine "pizza"'
p29
aS'antihistamine "mushrooms"'
p30
aS'antihistamine "snail"'
p31
aS'antihistamine "hazelnut"'
p32
aS'antihistamine "cabbage"'
p33
aS'antihistamine "spiny lobster"'
p34
aS'antihistamine "cake"'
p35
aS'antihistamine "dill"'
p36
aS'antihistamine "apple"'
p37
aS'antihistamine "ginseng"'
p38
aS'antihistamine "deer"'
p39
aS'antihistamine "carrot"'
p40
aS'antihistamine "chewing gum"'
p41
aS'antihistamine "casein"'
p42
aS'antihistamine "cattle (beef, veal)"'
p43
aS'antihistamine "elk"'
p44
aS'antihistamine "pate"'
p45
aS'antihistamine "cracker"'
p46
aS'antihistamine "soy bean"'
p47
aS'antihistamine "hamburger"'
p48
aS'antihistamine "soft drink"'
p49
aS'antihistamine "coconut"'
p50
aS'antihistamine "squid"'
p51
aS'antihistamine "mamey sapote"'
p52
aS'antihistamine "endive"'
p53
aS'antihistamine "watermelon"'
p54
aS'antihistamine "fruit juice"'
p55
aS'antihistamine "other fruit product"'
p56
aS'antihistamine "peppermint"'
p57
aS'antihistamine "tallow"'
p58
aS'antihistamine "mango"'
p59
aS'antihistamine "liquorice"'
p60
aS'antihistamine "yam"'
p61
aS'antihistamine "vinegar"'
p62
aS'antihistamine "garlic"'
p63
aS'antihistamine "borage"'
p64
aS'antihistamine "allium (onion)"'
p65
aS'antihistamine "yellowfin tuna"'
p66
aS'antihistamine "shrimp"'
p67
aS'antihistamine "cinnamon"'
p68
aS'antihistamine "whiting"'
p69
aS'antihistamine "radish"'
p70
aS'antihistamine "lime"'
p71
aS'antihistamine "peach"'
p72
aS'antihistamine "shiitake"'
p73
aS'antihistamine "saffron"'
p74
aS'antihistamine "crab"'
p75
aS'antihistamine "pineappple sage"'
p76
aS'antihistamine "dock"'
p77
aS'antihistamine "kiwi"'
p78
aS'antihistamine "sesame"'
p79
aS'antihistamine "strawberry"'
p80
aS'antihistamine "malus (crab apple)"'
p81
aS'antihistamine "dripping"'
p82
aS'antihistamine "sunflower"'
p83
aS'antihistamine "dandelion"'
p84
aS'antihistamine "pectin"'
p85
aS'antihistamine "jellyfish"'
p86
aS'antihistamine "flour"'
p87
aS'antihistamine "beaver"'
p88
aS'antihistamine "opossum"'
p89
aS'antihistamine "quinoa"'
p90
aS'antihistamine "cucumber"'
p91
aS'antihistamine "milk substitute"'
p92
aS'antihistamine "cottonseed"'
p93
aS'antihistamine "vanilla"'
p94
aS'antihistamine "rapini"'
p95
aS'antihistamine "butter"'
p96
aS'antihistamine "evening primrose"'
p97
aS'antihistamine "sake"'
p98
aS'antihistamine "mentha (mint)"'
p99
aS'antihistamine "bean"'
p100
aS'antihistamine "american lobster"'
p101
aS'antihistamine "lupine"'
p102
aS'antihistamine "nance"'
p103
aS'antihistamine "soup"'
p104
aS'antihistamine "agave"'
p105
aS'antihistamine "lasagna"'
p106
aS'antihistamine "pineapple"'
p107
aS'antihistamine "millet"'
p108
aS'antihistamine "chia"'
p109
aS'antihistamine "pine nut"'
p110
aS'antihistamine "chestnut"'
p111
aS'antihistamine "chocolate"'
p112
aS'antihistamine "salad dressing"'
p113
aS'antihistamine "cashew nut"'
p114
aS'antihistamine "salad"'
p115
aS'antihistamine "potato"'
p116
aS'antihistamine "flatfish"'
p117
aS'antihistamine "cocoa and cocoa products"'
p118
aS'antihistamine "yogurt"'
p119
aS'antihistamine "pheasant"'
p120
aS'antihistamine "soft-necked garlic"'
p121
aS'antihistamine "pie"'
p122
aS'antihistamine "arrowhead"'
p123
aS'antihistamine "smelt"'
p124
aS'antihistamine "walnut"'
p125
aS'antihistamine "coffee"'
p126
aS'antihistamine "other animal fat"'
p127
aS'antihistamine "roe"'
p128
aS'antihistamine "rape"'
p129
aS'antihistamine "grape"'
p130
aS'antihistamine "pollock"'
p131
aS'antihistamine "barley"'
p132
aS'antihistamine "true sole"'
p133
aS'antihistamine "crustaceans"'
p134
aS'antihistamine "lemon"'
p135
aS'antihistamine "mollusks"'
p136
aS'antihistamine "safflower"'
p137
aS'antihistamine "other candy"'
p138
aS'antihistamine "tamarind"'
p139
aS'antihistamine "ice cream"'
p140
aS'antihistamine "rye"'
p141
aS'antihistamine "condensed milk"'
p142
aS'antihistamine "spirulina"'
p143
aS'antihistamine "pouteria sapota"'
p144
aS'antihistamine "scyphozoa"'
p145
aS'antihistamine "vitis vinifera"'
p146
aS'antihistamine "chelonia mydas"'
p147
aS'antihistamine "vaccinium deliciosum"'
p148
aS'antihistamine "bivalvia"'
p149
aS'antihistamine "prunus avium"'
p150
aS'antihistamine "vigna radiata"'
p151
aS'antihistamine "citrus sinensis"'
p152
aS'antihistamine "apium graveolens"'
p153
aS'antihistamine "cyprinus carpio"'
p154
aS'antihistamine "allium"'
p155
aS'antihistamine "ginkgo biloba"'
p156
aS'antihistamine "gossypium"'
p157
aS'antihistamine "perciformes"'
p158
aS'antihistamine "physalis"'
p159
aS'antihistamine "vitis"'
p160
aS'antihistamine "laurus nobilis"'
p161
aS'antihistamine "nephropidae"'
p162
aS'antihistamine "coryphaena hippurus"'
p163
aS'antihistamine "citrus aurantiifolia"'
p164
aS'antihistamine "raphanus sativus"'
p165
aS'antihistamine "oncorhynchus mykiss"'
p166
aS'antihistamine "hibiscus sabdariffa"'
p167
aS'antihistamine "beta vulgaris var. rubra"'
p168
aS'antihistamine "zea mays"'
p169
aS'antihistamine "capparis spinosa"'
p170
aS'antihistamine "papaver somniferum"'
p171
aS'antihistamine "crocus sativus"'
p172
aS'antihistamine "vaccinium myrtillus"'
p173
aS'antihistamine "sciuridae"'
p174
aS'antihistamine "cinnamomum"'
p175
aS'antihistamine "lentinus edodes"'
p176
aS'antihistamine "thunnus"'
p177
aS'antihistamine "glycine max"'
p178
aS'antihistamine "chenopodium album"'
p179
aS'antihistamine "oncorhynchus"'
p180
aS'antihistamine "pinus"'
p181
aS'antihistamine "quercus"'
p182
aS'antihistamine "scombridae"'
p183
aS'antihistamine "garcinia mangostana"'
p184
aS'antihistamine "allium cepa"'
p185
aS'antihistamine "moringa oleifera"'
p186
aS'antihistamine "brachyura"'
p187
aS'antihistamine "thunnus albacares"'
p188
aS'antihistamine "vanilla"'
p189
aS'antihistamine "gallus gallus"'
p190
aS'antihistamine "tilia"'
p191
aS'antihistamine "avena sativa"'
p192
aS'antihistamine "momordica charantia"'
p193
aS'antihistamine "laminaria"'
p194
aS'antihistamine "oryctolagus"'
p195
aS'antihistamine "linum usitatissimum"'
p196
aS'antihistamine "hibiscus sabbariffa"'
p197
aS'antihistamine "piper nigrum"'
p198
aS'antihistamine "matricaria recutita"'
p199
aS'antihistamine "agave"'
p200
aS'antihistamine "beta vulgaris"'
p201
aS'antihistamine "mentha"'
p202
aS'antihistamine "corylus"'
p203
aS'antihistamine "malus"'
p204
aS'antihistamine "gastropoda"'
p205
aS'antihistamine "papaver"'
p206
aS'antihistamine "salmonidae"'
p207
aS'antihistamine "zingiber officinale"'
p208
aS'antihistamine "prunus"'
p209
aS'antihistamine "meleagris gallopavo"'
p210
aS'antihistamine "pisum sativum"'
p211
aS'antihistamine "spirulina"'
p212
aS'antihistamine "capsicum"'
p213
aS'antihistamine "mugil cephalus"'
p214
aS'antihistamine "mytilus edulis"'
p215
aS'antihistamine "phaseolus vulgaris"'
p216
aS'antihistamine "triticum"'
p217
aS'antihistamine "rosmarinus officinalis"'
p218
aS'antihistamine "sus scrofa"'
p219
aS'antihistamine "lupinus"'
p220
aS'antihistamine "camellia sinensis"'
p221
aS'antihistamine "capsicum annuum"'
p222
aS'antihistamine "juglans"'
p223
aS'antihistamine "vaccinium"'
p224
aS'antihistamine "artemisia vulgaris"'
p225
aS'antihistamine "rumex"'
p226
aS'antihistamine "chenopodium quinoa"'
p227
aS'antihistamine "triticum aestivum"'
p228
aS'antihistamine "scyphozoa"'
p229
aS'antihistamine "p. vera"'
p230
aS'antihistamine "bivalvia"'
p231
aS'antihistamine "lupinus"'
p232
aS'antihistamine "m. cephalus"'
p233
aS'antihistamine "allium"'
p234
aS'antihistamine "malus"'
p235
aS'antihistamine "gossypium"'
p236
aS'antihistamine "thunnus"'
p237
aS'antihistamine "perciformes"'
p238
aS'antihistamine "physalis"'
p239
aS'antihistamine "vitis"'
p240
aS'antihistamine "l. nobilis"'
p241
aS'antihistamine "nephropidae"'
p242
aS'antihistamine "a. fimbria"'
p243
aS'antihistamine "sciuridae"'
p244
aS'antihistamine "cinnamomum"'
p245
aS'antihistamine "mentha"'
p246
aS'antihistamine "g. max"'
p247
aS'antihistamine "s. officinalis"'
p248
aS'antihistamine "vaccinium"'
p249
aS'antihistamine "oncorhynchus"'
p250
aS'antihistamine "pinus"'
p251
aS'antihistamine "quercus"'
p252
aS'antihistamine "scombridae"'
p253
aS'antihistamine "s. montana"'
p254
aS'antihistamine "brachyura"'
p255
aS'antihistamine "vanilla"'
p256
aS'antihistamine "tilia"'
p257
aS'antihistamine "m. charantia"'
p258
aS'antihistamine "laminaria"'
p259
aS'antihistamine "corylus"'
p260
aS'antihistamine "oryctolagus"'
p261
aS'antihistamine "l. usitatissimum"'
p262
aS'antihistamine "m. officinalis"'
p263
aS'antihistamine "agave"'
p264
aS'antihistamine "m. x"'
p265
aS'antihistamine "gastropoda"'
p266
aS'antihistamine "papaver"'
p267
aS'antihistamine "salmonidae"'
p268
aS'antihistamine "c. x"'
p269
aS'antihistamine "prunus"'
p270
aS'antihistamine "capsicum"'
p271
aS'antihistamine "m. edulis"'
p272
aS'antihistamine "triticum"'
p273
aS'antihistamine "m. x"'
p274
aS'antihistamine "juglans"'
p275
aS'antihistamine "rumex"'
p276
aS'antihistamine "spirulina"'
p277
aS'antihistamine "1,4-dimethylpyrrolo[1,2-a]pyrazine"'
p278
aS'antihistamine "pc(14:0/22:0)"'
p279
aS'antihistamine "sp1"'
p280
aS'antihistamine "ellagic acid acetyl-arabinoside"'
p281
aS'antihistamine "gadolinium"'
p282
aS'antihistamine "3,5,6-trihydroxy-5-(hydroxymethyl)-2-methoxy-2-cyclohexen-1-one"'
p283
aS'antihistamine "6beta,7beta-dihydroxykaurenoic acid"'
p284
aS'antihistamine "octanoic acid"'
p285
aS'antihistamine "prostaglandin e-1"'
p286
aS'antihistamine "kaempferol 3-feruloyl-triglucoside"'
p287
aS'antihistamine "ginsenoside m7cd"'
p288
aS'antihistamine "lf"'
p289
aS'antihistamine "estrone"'
p290
aS'antihistamine "aflatoxin"'
p291
aS'antihistamine "2,4-heptadecanedione"'
p292
aS'antihistamine "2-(1-methylethyl)-4-propylthiazole"'
p293
aS'antihistamine "oxalic acid"'
p294
aS'antihistamine "lignans"'
p295
aS'antihistamine "vanillin"'
p296
aS'antihistamine "4-vinylphenol"'
p297
aS'antihistamine "ash"'
p298
aS'antihistamine "epigallocatechin 3-gallate"'
p299
aS'antihistamine "acetophenone"'
p300
aS'antihistamine "(r)-apiumetin glucoside"'
p301
aS'antihistamine "benzyl ethyl ether"'
p302
aS'antihistamine "uridine diphosphate"'
p303
aS'antihistamine "protoporphyrin"'
p304
aS'antihistamine "(+)-myrtenol"'
p305
aS'antihistamine "quinolinate"'
p306
aS'antihistamine "isoflavones"'
p307
aS'antihistamine "hex-cis-3-en-1-ol isobutyrate"'
p308
aS'antihistamine "l-phenylalanine"'
p309
aS'antihistamine "catechin"'
p310
aS'antihistamine "aloe emodin w-acetate"'
p311
aS'antihistamine "lysolecithin"'
p312
aS'antihistamine "1,8-cineole"'
p313
aS'antihistamine "decanoic acid"'
p314
aS'antihistamine "n-dodecane"'
p315
aS'antihistamine "(-)-medicarpin"'
p316
aS'antihistamine "7-hydroxy-2,5-dimethyl-4h-1-benzopyran-4-one"'
p317
aS'antihistamine "l-ascorbic acid"'
p318
aS'antihistamine "quercetin 3-(2g-rhamnosylgentiobioside)"'
p319
aS'antihistamine "diacylglycerol"'
p320
aS'antihistamine "kaempferol 3-sophoroside-rhamnoside"'
p321
aS'antihistamine "(-)-maackiain"'
p322
aS'antihistamine "isopropylamine"'
p323
aS'antihistamine "proanthocyanidins"'
p324
aS'antihistamine "cytosine"'
p325
aS'antihistamine "l-(-)-phenylalanine"'
p326
aS'antihistamine "vanillic acid"'
p327
aS'antihistamine "humulene-1,2-oxide"'
p328
aS'antihistamine "cardiolipin"'
p329
aS'antihistamine "4-hydroxy-3-prenylbenzoic acid glucoside"'
p330
aS'antihistamine "porphobilinogen"'
p331
aS'antihistamine "tricin"'
p332
aS'antihistamine "kaempferol 3-(2g-rhamnosylgentiobioside)"'
p333
aS'antihistamine "ginsenoside m6-bc"'
p334
aS'antihistamine "(2e)-piperamide-c5:1"'
p335
aS'antihistamine "trimethylamine"'
p336
aS'antihistamine "hex-trans-2-enyl hexanoate"'
p337
aS'antihistamine "2-methyl-1,5-dinitro-3-nitrosobenzene"'
p338
aS'antihistamine "cis-limonene-1,2-oxide"'
p339
aS'antihistamine "5\',8-dihydroxy-3\',4\',7-trimethoxyflavan"'
p340
aS'antihistamine "epigallocatechin 3,4\'-digallate"'
p341
aS'antihistamine "5-hydroxyindole-3-acetic acid"'
p342
aS'antihistamine "hydrogen peroxide (h2o2)"'
p343
aS'antihistamine "polyamines"'
p344
aS'antihistamine "citral"'
p345
aS'antihistamine "1,4-naphthoquinone"'
p346
aS'antihistamine "glucosides"'
p347
aS'antihistamine "nepitrin"'
p348
aS'antihistamine "benzoyl peroxide"'
p349
aS'antihistamine "(r)-marmin"'
p350
aS'antihistamine "glycerylphosphoinositol"'
p351
aS'antihistamine "3-methoxy-4-hydroxyphenylglycol"'
p352
aS'antihistamine "5-aminolevulinic acid"'
p353
aS'antihistamine "5-\xce\xb2-pregnan-3,20 dione"'
p354
aS'antihistamine "epigallocatechin 3-(3-methylgallate)"'
p355
aS'antihistamine "1-chloro-2,4-dinitrobenzene"'
p356
aS'antihistamine "cholestanol"'
p357
aS'antihistamine "psoralen"'
p358
aS'antihistamine "kaempferol 3-o-alpha-l-rhamnoside-beta-d-glucosyl"'
p359
aS'antihistamine "l-lactic acid"'
p360
aS'antihistamine "beta-glucan"'
p361
aS'antihistamine "decanoate"'
p362
aS'antihistamine "disulfides"'
p363
aS'antihistamine "isothiocyanates"'
p364
aS'antihistamine "rubidium"'
p365
aS'antihistamine "germanium"'
p366
aS'antihistamine "auxin b"'
p367
aS'antihistamine "limonene"'
p368
aS'antihistamine "iron oxide"'
p369
aS'antihistamine "thial-1-propene-1-thiol s-oxide"'
p370
aS'antihistamine "molybdenum"'
p371
aS'antihistamine "utp"'
p372
aS'antihistamine "3\',4\',5\',7,8-pentamethoxyflavan"'
p373
aS'antihistamine "cinchonine"'
p374
aS'antihistamine "chlorophyll"'
p375
aS'antihistamine "diosmetin 7-neohesperidoside"'
p376
aS'antihistamine "phosphofructokinase"'
p377
aS'antihistamine "quercetin 3-(6\'\'\'\'-caffeylsophorotrioside)"'
p378
aS'antihistamine "chlorogenic acid"'
p379
aS'antihistamine "dipentene o-diphenollactone"'
p380
aS'antihistamine "quercetin 3-(2-galloylglucoside)"'
p381
aS'antihistamine "d-myo-inositol (2,3,4) trisphosphate"'
p382
aS'antihistamine "quercetin 3-(2-glucosylrhamnoside)"'
p383
aS'antihistamine "l-iditol"'
p384
aS'antihistamine "naringin 6\'\'-rhamnoside"'
p385
aS'antihistamine "pentane"'
p386
aS'antihistamine "1,2,3,4-tetrahydro-b-carboline-1,3-dicarboxylic acid"'
p387
aS'antihistamine "2,5-dimethylthiazole"'
p388
aS'antihistamine "curcumin"'
p389
aS'antihistamine "docusate sodium"'
p390
aS'antihistamine "laurate"'
p391
aS'antihistamine "7alpha,16beta-17-trihydroxy"'
p392
aS'antihistamine "hex-cis-3-en-1-ol hexanoate"'
p393
aS'antihistamine "hydroxycinnamic acid"'
p394
aS'antihistamine "11b-hydroxygibberellin a7"'
p395
aS'antihistamine "kaempferol 3-o-rhamnodiglucoside"'
p396
aS'antihistamine "n-butanol"'
p397
aS'antihistamine "glutathione disulfide"'
p398
aS'antihistamine "(3beta,5alpha)-3-hydroxypregn-16-en-20-one"'
p399
aS'antihistamine "glucosidase"'
p400
aS'antihistamine "monoterpenes"'
p401
aS'antihistamine "soja hispidasaponin c"'
p402
aS'antihistamine "methylene glutamine"'
p403
aS'antihistamine "pyrroline"'
p404
aS'antihistamine "isodulcitol"'
p405
aS'antihistamine "1-(4-hydroxy-3-methoxyphenyl)-3,5-diacetoxyoctane"'
p406
aS'antihistamine "naringin"'
p407
aS'antihistamine "kaempferol 3-o-glucosyl-rhamnosyl-galactoside"'
p408
aS'antihistamine "styrene"'
p409
aS'antihistamine "synergistic antifungal protein"'
p410
aS'antihistamine "tantalum"'
p411
aS'antihistamine "luteolin 7-disulfoglucoside"'
p412
aS'antihistamine "protoporphyrin ix"'
p413
aS'antihistamine "5\'-deoxyadenosine"'
p414
aS'antihistamine "safrole"'
p415
aS'antihistamine "n-(2r-hydroxydocosanoyl)-2s-amino-1,3s,4r-octadecanetriol"'
p416
aS'antihistamine "osthol"'
p417
aS'antihistamine "l-histidinol"'
p418
aS'antihistamine "hyperin"'
p419
aS'antihistamine "glutaric acid"'
p420
aS'antihistamine "dihydrolipoamide"'
p421
aS'antihistamine "n-butyl acetate"'
p422
aS'antihistamine "mannuronic acid"'
p423
aS'antihistamine "ethyl carbamate"'
p424
aS'antihistamine "behenate"'
p425
aS'antihistamine "apigenin 7-o-(6\'\'-malonyl-apiosyl-glucoside)"'
p426
aS'antihistamine "s-methyl methanesulfinothioate"'
p427
aS'antihistamine "cytidine"'
p428
aS'antihistamine "sugars"'
p429
aS'antihistamine "kaempferol 3-glucosylxyloside"'
p430
aS'antihistamine "3-phenyl-1-propanol"'
p431
aS'antihistamine "phloretin"'
p432
aS'antihistamine "pentosan polysulfate"'
p433
aS'antihistamine "tricin 7-glucuronoside"'
p434
aS'antihistamine "biotin"'
p435
aS'antihistamine "fe3+"'
p436
aS'antihistamine "4\',5,6,7,8-pentahydroxy-3\'-methoxyflavone"'
p437
aS'antihistamine "hebevinoside xiv"'
p438
aS'antihistamine "lormetazepam"'
p439
aS'antihistamine "beta-galactosidase"'
p440
aS'antihistamine "prostaglandin b-1"'
p441
aS'antihistamine "zn2+"'
p442
aS'antihistamine "anthranilate"'
p443
aS'antihistamine "luteolin"'
p444
aS'antihistamine "epigallocatechin 3-(4-methylgallate)"'
p445
aS'antihistamine "pyrophosphate"'
p446
aS'antihistamine "5-(methylthio)-pentanonitrile"'
p447
aS'antihistamine "2\',4\',5,7-tetrahydroxy-8-prenylisoflavone"'
p448
aS'antihistamine "fluorene"'
p449
aS'antihistamine "6,8-dihydroxy-1,7-diprenylxanthone-2-carboxylic acid"'
p450
aS'antihistamine "2-propenyl hexanoate"'
p451
aS'antihistamine "d-glucaric acid"'
p452
aS'antihistamine "orotate"'
p453
aS'antihistamine "strontium"'
p454
aS'antihistamine "s-adenosyl-l-homocysteine"'
p455
aS'antihistamine "isoliquiritigenin"'
p456
aS'antihistamine "4-hydroxybenzoic acid"'
p457
aS'antihistamine "uronic acid"'
p458
aS'antihistamine "harmine"'
p459
aS'antihistamine "n-nitrosodimethylamine"'
p460
aS'antihistamine "hydroxymethylbilane"'
p461
aS'antihistamine "desmosine"'
p462
aS'antihistamine "7-epi-12-hydroxyjasmonic acid glucoside"'
p463
aS'antihistamine "4-methylthiazole"'
p464
aS'antihistamine "(-)-quinic acid"'
p465
aS'antihistamine "medicarpin"'
p466
aS'antihistamine "ferulic acid"'
p467
aS'antihistamine "l-carnosine"'
p468
aS'antihistamine "kaempferol 3-gluco-xyloside"'
p469
aS'antihistamine "opc"'
p470
aS'antihistamine "anthocyanidins"'
p471
aS'antihistamine "3\'\',4\'\'-diacetylafzelin"'
p472
aS'antihistamine "6,7-dimethyoxy coumarin"'
p473
aS'antihistamine "tropine"'
p474
aS'antihistamine "hypoxanthine"'
p475
aS'antihistamine "s-methyl 2-propene-1-sulfinothioate"'
p476
aS'antihistamine "baicalein"'
p477
aS'antihistamine "beta-amyrin"'
p478
aS'antihistamine "ellagic acid 2-(6-glucosylglucoside)"'
p479
aS'antihistamine "hesperidin"'
p480
aS'antihistamine "rhein"'
p481
aS'antihistamine "lotaustralin"'
p482
aS'antihistamine "n-acetylneuraminic acid"'
p483
aS'antihistamine "gossypol"'
p484
aS'antihistamine "benzylamine"'
p485
aS'antihistamine "2\',2\'-dimethyl(pyrano-5\',6\':3:4)-1,5-dihydroxy-6-methoxy-10-methylacridone"'
p486
aS'antihistamine "8-hydroxy-2-methoxy-6-methyl-1,4-naphthoquinone"'
p487
aS'antihistamine "chlorohydrin"'
p488
aS'antihistamine "nobiletin"'
p489
aS'antihistamine "6-epi-7-isocucurbic acid glucoside"'
p490
aS'antihistamine "15-hete"'
p491
aS'antihistamine "allantoin"'
p492
aS'antihistamine "xylitol"'
p493
aS'antihistamine "hexadecane"'
p494
aS'antihistamine "d-glucitol"'
p495
aS'antihistamine "thallium"'
p496
aS'antihistamine "3,3\'-digalloylprodelphinidin b1"'
p497
aS'antihistamine "acetylcholine(1+)"'
p498
aS'antihistamine "uricase"'
p499
aS'antihistamine "propanoic acid"'
p500
aS'antihistamine "1,3-dimethylpyrrolo[1,2-a]pyrazine"'
p501
aS'antihistamine "2\',3,4\',5-tetrahydroxy-4-prenylstilbene"'
p502
aS'antihistamine "lignin"'
p503
aS'antihistamine "homoserine"'
p504
aS'antihistamine "l-(-)-homoserine"'
p505
aS'antihistamine "cyclohexanol"'
p506
aS'antihistamine "linalool"'
p507
aS'antihistamine "8-c-ascorbylepigallocatechin 3-gallate"'
p508
aS'antihistamine "n-heptane"'
p509
aS'antihistamine "3-heptanone"'
p510
aS'antihistamine "l-lysine"'
p511
aS'antihistamine "titanium"'
p512
aS'antihistamine "cetyl alcohol"'
p513
aS'antihistamine "quercetin 3,3\'-diglucoside"'
p514
aS'antihistamine "n-(2r-hydroxyhexacosanoyl)-2s-amino-1,3s,4r-octadecanetriol"'
p515
aS'antihistamine "ceramide"'
p516
aS'antihistamine "glycolipids"'
p517
aS'antihistamine "peroxiredoxin-(s-hydroxy-s-oxocysteine)"'
p518
aS'antihistamine "phenethyl phenylacetate"'
p519
aS'antihistamine "caprolactam"'
p520
aS'antihistamine "dehydroascorbic acid"'
p521
aS'antihistamine "3,6-dimethyl-7-oxo-octanoic acid ethyl ester"'
p522
aS'antihistamine "momordin i"'
p523
aS'antihistamine "quercetin 3-(6\'\'-caffeoylsophorotrioside)"'
p524
aS'antihistamine "spermidine"'
p525
aS'antihistamine "\xce\xb1-d-glucose 1-phosphate"'
p526
aS'antihistamine "geraniol"'
p527
aS'antihistamine "5-hete"'
p528
aS'antihistamine "beta-phenylethanol 6-beta-d-arabinofuranosyl-beta-d-glucopyranoside"'
p529
aS'antihistamine "zein"'
p530
aS'antihistamine "biochanin-a"'
p531
aS'antihistamine "uranium"'
p532
aS'antihistamine "biochanin a"'
p533
aS'antihistamine "propyl gallate"'
p534
aS'antihistamine "methacrylic acid"'
p535
aS'antihistamine "(+)-sesamin"'
p536
aS'antihistamine "cotinine"'
p537
aS'antihistamine "benzyl alcohol 6-o-l-arabinofuranosyl-beta-d-glucopyranoside"'
p538
aS'antihistamine "piperine"'
p539
aS'antihistamine "palmitoleic acid"'
p540
aS'antihistamine "cis-2,5-diethyl-tetrahydrofuran"'
p541
aS'antihistamine "(9e)-valenciaxanthin"'
p542
aS'antihistamine "kaempferol 3-(2g-apiosylrobinobioside)"'
p543
aS'antihistamine "4-(3-hydroxy-7-phenyl-6-heptenyl)-1,2-benzenediol"'
p544
aS'antihistamine "avenanthramide 2c"'
p545
aS'antihistamine "benzaldehyde"'
p546
aS'antihistamine "scopoletin"'
p547
aS'antihistamine "benzophenone"'
p548
aS'antihistamine "quercetin 3-(sulfatoglucoside)"'
p549
aS'antihistamine "cmp"'
p550
aS'antihistamine "fumaric acid"'
p551
aS'antihistamine "propyl butyrate"'
p552
aS'antihistamine "ginsenoside rg3"'
p553
aS'antihistamine "pc(16:0/22:0)"'
p554
aS'antihistamine "gliadin"'
p555
aS'antihistamine "sapogenins"'
p556
aS'antihistamine "d-galactose"'
p557
aS'antihistamine "4-methylphenol"'
p558
aS'antihistamine "7\',8\'-dihydro-8\'-hydroxycitraniaxanthin"'
p559
aS'antihistamine "o-toluidine"'
p560
aS'antihistamine "sanguinarine"'
p561
aS'antihistamine "isopropyl benzoate"'
p562
aS'antihistamine "astin i"'
p563
aS'antihistamine "pyrazine"'
p564
aS'antihistamine "liquiritigenin"'
p565
aS'antihistamine "2\'-hydroxy-3\',4\',5\',7,8-pentamethoxyflavan"'
p566
aS'antihistamine "s-methyl hexanethioate"'
p567
aS'antihistamine "kaempferol 3-rhamno-glucoside"'
p568
aS'antihistamine "kaempferol"'
p569
aS'antihistamine "3,4-dihydro-2,2,5,7,8-pentamethyl-2h-1-benzopyran-6-ol"'
p570
aS'antihistamine "diosgenin"'
p571
aS'antihistamine "6-(gamma,gamma-dimethylallyl-amino)-purine"'
p572
aS'antihistamine "l-homocysteine"'
p573
aS'antihistamine "lysophosphatidylserine"'
p574
aS'antihistamine "sesquiterpenes"'
p575
aS'antihistamine "acetamide"'
p576
aS'antihistamine "kynurenine"'
p577
aS'antihistamine "amygdalin"'
p578
aS'antihistamine "isoquercitrin"'
p579
aS'antihistamine "pentylamine"'
p580
aS'antihistamine "aflatoxin b1"'
p581
aS'antihistamine "quercetin 3-(3r-glucosylrutinoside)"'
p582
aS'antihistamine "2\'\',6\'\'-diacetylorientin"'
p583
aS'antihistamine "propene"'
p584
aS'antihistamine "d-sorbitol"'
p585
aS'antihistamine "alpha-allocryptopine"'
p586
aS'antihistamine "uracil"'
p587
aS'antihistamine "inulin"'
p588
aS'antihistamine "octanoate"'
p589
aS'antihistamine "n-(2r-hydroxypentacosanoyl)-2s-amino-1,3s,4r-octadecanetriol"'
p590
aS'antihistamine "2h-1-benzopyran-2-one"'
p591
aS'antihistamine "catechol"'
p592
aS'antihistamine "flavones"'
p593
aS'antihistamine "procyanidin"'
p594
aS'antihistamine "quercetin 3-(4-glucosylrhamnoside)"'
p595
aS'antihistamine "methyl gallate"'
p596
aS'antihistamine "diethylamine"'
p597
aS'antihistamine "pentadecane"'
p598
aS'antihistamine "vitamin d3"'
p599
aS'antihistamine "l-serine"'
p600
aS'antihistamine "kaempferol 3-(2\'\'\'-caffeoylsophoroside) 7-cellobioside"'
p601
aS'antihistamine "erythritol"'
p602
aS'antihistamine "n-acetylgalactosamine"'
p603
aS'antihistamine "anthracene"'
p604
aS'antihistamine "benzothiazole"'
p605
aS'antihistamine "gladiatoside b3"'
p606
aS'antihistamine "riboflavin cyclic-4\',5\'-phosphate"'
p607
aS'antihistamine "amylose"'
p608
aS'antihistamine "kaempferol 7-arabinoside"'
p609
aS'antihistamine "pyrrolidine carboxylic acid"'
p610
aS'antihistamine "cholate"'
p611
aS'antihistamine "beta-tocopherol"'
p612
aS'antihistamine "carotenoids"'
p613
aS'antihistamine "friedelin"'
p614
aS'antihistamine "\xce\xb2-alanine"'
p615
aS'antihistamine "tetrahydro-6-(2-hydroxy-16,19-dimethylhexacosyl)-4-methyl-2h-pyran-2-one"'
p616
aS'antihistamine "methyl 7-epi-12-hydroxyjasmonate glucoside"'
p617
aS'antihistamine "tocopherols"'
p618
aS'antihistamine "cerium"'
p619
aS'antihistamine "cesium"'
p620
aS'antihistamine "alpha,alpha-p-trimethylbenzyl alcohol ether"'
p621
aS'antihistamine "benzyl benzoate"'
p622
aS'antihistamine "ethylparaben"'
p623
aS'antihistamine "fad"'
p624
aS'antihistamine "3alpha,15-dihydroxymarasmene"'
p625
aS'antihistamine "pentosane"'
p626
aS'antihistamine "retinol"'
p627
aS'antihistamine "ms 3"'
p628
aS'antihistamine "deoxynivalenol"'
p629
aS'antihistamine "tomatidine"'
p630
aS'antihistamine "hydroquinone"'
p631
aS'antihistamine "dimethylamine"'
p632
aS'antihistamine "2,6-di-tert-butyl-4-methylphenol"'
p633
aS'antihistamine "glycolate"'
p634
aS'antihistamine "l-isoleucine"'
p635
aS'antihistamine "cadaverine"'
p636
aS'antihistamine "benzoxazole"'
p637
aS'antihistamine "l-glutamine"'
p638
aS'antihistamine "hydrocyanic acid"'
p639
aS'antihistamine "hebevinoside xiii"'
p640
aS'antihistamine "beta-amyrin palmitate"'
p641
aS'antihistamine "alkanes"'
p642
aS'antihistamine "cryptochrome"'
p643
aS'antihistamine "acetovanillone"'
p644
aS'antihistamine "chrysoeriol"'
p645
aS'antihistamine "rotenone"'
p646
aS'antihistamine "phosphoribosyl formamidocarboxamide"'
p647
aS'antihistamine "malonyl coa"'
p648
aS'antihistamine "nicotinic acid adenine dinucleotide"'
p649
aS'antihistamine "spermine"'
p650
aS'antihistamine "s-methyl 4-methylpentanethioate"'
p651
aS'antihistamine "ent-epigallocatechin 3-gallate"'
p652
aS'antihistamine "rhenium"'
p653
aS'antihistamine "gallic acid"'
p654
aS'antihistamine "ellagic acid"'
p655
aS'antihistamine "licorice glycoside a"'
p656
aS'antihistamine "avenanthramide 2"'
p657
aS'antihistamine "5-octyl-cyclopenta-1,3-dione"'
p658
aS'antihistamine "amino adipic acid"'
p659
aS'antihistamine "octane"'
p660
aS'antihistamine "l-cysteine"'
p661
aS'antihistamine "molybdate"'
p662
aS'antihistamine "glyoxylic acid"'
p663
aS'antihistamine "lacinilene c"'
p664
aS'antihistamine "taraxasterol"'
p665
aS'antihistamine "4-methoxybenzyl o-(2-sulfoglucoside)"'
p666
aS'antihistamine "7\',8\'-dihydro-8\'-hydroxyreticulataxanthin"'
p667
aS'antihistamine "quercetin 3-(6\'\'-sinapoylsophorotrioside)"'
p668
aS'antihistamine "kaempferol 3-(3r-glucosylrutinoside)"'
p669
aS'antihistamine "diaminopropane"'
p670
aS'antihistamine "4-hydroxy-3,5,5-trimethylcyclohexan-1-on-2-ene"'
p671
aS'antihistamine "kaempferol 3-rhamnofuranoside"'
p672
aS'antihistamine "malonyl-coa"'
p673
aS'antihistamine "2\'\',6\'\'-o-diacetyloninin"'
p674
aS'antihistamine "arabinose"'
p675
aS'antihistamine "l-alanine"'
p676
aS'antihistamine "orotic acid"'
p677
aS'antihistamine "ribonuclease"'
p678
aS'antihistamine "diethyl malonate"'
p679
aS'antihistamine "hydrogen sulfide"'
p680
aS'antihistamine "hesperidin 7-o-alpha-l-rhamno-glucoside"'
p681
aS'antihistamine "coclaurine"'
p682
aS'antihistamine "tricin 7-diglucuronoside"'
p683
aS'antihistamine "prostaglandin-h2"'
p684
aS'antihistamine "cyclohexanone"'
p685
aS'antihistamine "butyl acetate"'
p686
aS'antihistamine "beta-conglycinin"'
p687
aS'antihistamine "emodin"'
p688
aS'antihistamine "epigallocatechin"'
p689
aS'antihistamine "papain"'
p690
aS'antihistamine "luteolin 7-malonylglucoside"'
p691
aS'antihistamine "(s)-4\',5,7-trihydroxy-8-prenylflavanone"'
p692
aS'antihistamine "peroxiredoxin-(s-hydroxycysteine)"'
p693
aS'antihistamine "deoxyuridine"'
p694
aS'antihistamine "caffeoylquinic acid"'
p695
aS'antihistamine "deoxycytidine"'
p696
aS'antihistamine "quercetin 3-(6\'\'\'\'-p-coumarylsophorotrioside)"'
p697
aS'antihistamine "lipoamide"'
p698
aS'antihistamine "undecylenic acid"'
p699
aS'antihistamine "phytol"'
p700
aS'antihistamine "kaempferol 3-(6-acetylgalactoside)"'
p701
aS'antihistamine "quercetin 3-(6\'\'\'-rhamnosylgentiobioside)"'
p702
aS'antihistamine "sodium nitrite"'
p703
aS'antihistamine "diphenyl ether"'
p704
aS'antihistamine "2-amino-3-methylimidazo[4,5-f]quinoline"'
p705
aS'antihistamine "(5z,8z)-1,5,8-heptadecatriene"'
p706
aS'antihistamine "triacylglycerol"'
p707
aS'antihistamine "hydroxylamine"'
p708
aS'antihistamine "2-methylpropyl 3-hydroxy-2-methylidenebutanoate"'
p709
aS'antihistamine "apigenin 7-o-beta-d-galactomannoside"'
p710
aS'antihistamine "epicatechin 3-(3-methylgallate)"'
p711
aS'antihistamine "pantothenic acid"'
p712
aS'antihistamine "apigenin 3,6-di-c-glucoside"'
p713
aS'antihistamine "kaempferol 3-feruloyltriglucoside"'
p714
aS'antihistamine "n-(2r-hydroxytricosanoyl)-2s-amino-1,3s,4r-octadecanetriol"'
p715
aS'antihistamine "2-oxoglutarate"'
p716
aS'antihistamine "deoxyuridine triphosphate"'
p717
aS'antihistamine "s-carboxymethyl-l-cysteine"'
p718
aS'antihistamine "apigenin 7-rhamnosylglucoside"'
p719
aS'antihistamine "12-hete"'
p720
aS'antihistamine "butyl phenylacetate"'
p721
aS'antihistamine "oxaloacetate"'
p722
aS'antihistamine "pristane"'
p723
aS'antihistamine "4-coumarate"'
p724
aS'antihistamine "carotene"'
p725
aS'antihistamine "2\'-deoxyguanosine"'
p726
aS'antihistamine "pyridoxamine"'
p727
aS'antihistamine "momordin ic"'
p728
aS'antihistamine "calcium oxalate"'
p729
aS'antihistamine "bromelains"'
p730
aS'antihistamine "4-hydroxy-2,6-dimethyl-7-octen-3-one"'
p731
aS'antihistamine "ginsenoside rh2"'
p732
aS'antihistamine "ginsenoside rh1"'
p733
aS'antihistamine "cinnamic acid"'
p734
aS'antihistamine "3-(4-hydroxy-3-methoxyphenyl)-1-glucosyl-prop-2-ene"'
p735
aS'antihistamine "cinnamaldehyde"'
p736
aS'antihistamine "3-methyladenine"'
p737
aS'antihistamine "hesperetin"'
p738
aS'antihistamine "thymoquinone"'
p739
aS'antihistamine "4-hydroxybenzylamine"'
p740
aS'antihistamine "(2s,2\'s)-pyrosaccharopine"'
p741
aS'antihistamine "3b,18b-3-methoxy-11-oxo-12-oleanen-30-oic acid"'
p742
aS'antihistamine "urate"'
p743
aS'antihistamine "2-c-methyl-d-erythritol-4-phosphate"'
p744
aS'antihistamine "(25s)-26-hydroxy-24-methylenecycloartan-3-one"'
p745
aS'antihistamine "arctic acid"'
p746
aS'antihistamine "tungsten"'
p747
aS'antihistamine "kaempferol 3-o-beta-d-xylofuranoside"'
p748
aS'antihistamine "daidzein"'
p749
aS'antihistamine "hg2+"'
p750
aS'antihistamine "l-2-aminoethyl seryl phosphate"'
p751
aS'antihistamine "masticadienonic acid"'
p752
aS'antihistamine "tricin 7-triglucuronoside"'
p753
aS'antihistamine "(s)-1\',2\'-epoxy-1\',2\'-dihydro-b,y-carotene"'
p754
aS'antihistamine "lactyltrimethylammonium betaine"'
p755
aS'antihistamine "taxifolin"'
p756
aS'antihistamine "6alpha,7alpha-17-tetrahydroxy"'
p757
aS'antihistamine "scandium"'
p758
aS'antihistamine "arctic acid b"'
p759
aS'antihistamine "kaempferol 3-o-xylosyl-rutinoside"'
p760
aS'antihistamine "oleate"'
p761
aS'antihistamine "epicatechin 3-(4-methylgallate)"'
p762
aS'antihistamine "quercetin 3-(2gal-apiosylrobinobioside)"'
p763
aS'antihistamine "maltose"'
p764
aS'antihistamine "cis-2,8-menthadien-2-ol"'
p765
aS'antihistamine "alpha-amyrin tetratriacontanoate"'
p766
aS'antihistamine "benzyl alcohol"'
p767
aS'antihistamine "kaempferol 3-(2\'\'\'-sinapoylsophoroside) 7-cellobioside"'
p768
aS'antihistamine "2-octanol"'
p769
aS'antihistamine "apigenin 7-di-o-xyloside"'
p770
aS'antihistamine "s-methyl 1-propenesulfinothioate"'
p771
aS'antihistamine "isoprene"'
p772
aS'antihistamine "quercetin 3-(2g-glucosylgentiobioside)"'
p773
aS'antihistamine "debenzoylzucchini factor b"'
p774
aS'antihistamine "kaempferol 3-(2g-p-coumaroylrutinoside)"'
p775
aS'antihistamine "1,2,3,4,6-pentagalloylglucose"'
p776
aS'antihistamine "cyclohexanones"'
p777
aS'antihistamine "acrolein"'
p778
aS'antihistamine "l-ornithine"'
p779
aS'antihistamine "kb 2"'
p780
aS'antihistamine "melilotussaponin o1"'
p781
aS'antihistamine "ergothioneine"'
p782
aS'antihistamine "typhaneoside"'
p783
aS'antihistamine "2-hydroxy-3,5,5-trimethylcyclohexa-1,4-dion-2-ene"'
p784
aS'antihistamine "quercetin 3-(feruloylsophorotrioside)"'
p785
aS'antihistamine "pc(22:0/14:0)"'
p786
aS'antihistamine "xantofyl palmitate"'
p787
a.