(lp0
S'warfarin "isoflavones"'
p1
aS'warfarin "beta-methylthiopropionic acid methyl ester"'
p2
aS'warfarin "ruthenium"'
p3
aS'warfarin "(-)-menthol"'
p4
aS'warfarin "l-phenylalanine"'
p5
aS'warfarin "catechin"'
p6
aS'warfarin "lysolecithin"'
p7
aS'warfarin "1-phenyl-1,3-pentadecanedione"'
p8
aS'warfarin "decanoic acid"'
p9
aS'warfarin "abscisic acid"'
p10
aS'warfarin "quercetin 3-(2g-rhamnosylgentiobioside)"'
p11
aS'warfarin "diacylglycerol"'
p12
aS'warfarin "kaempferol 3-sophoroside-rhamnoside"'
p13
aS'warfarin "imperatorin"'
p14
aS'warfarin "proanthocyanidins"'
p15
aS'warfarin "cytosine"'
p16
aS'warfarin "l-(-)-phenylalanine"'
p17
aS'warfarin "4-hydroxy-3-prenylbenzoic acid glucoside"'
p18
aS'warfarin "columbianetin"'
p19
aS'warfarin "tyramine"'
p20
aS'warfarin "2,10-bisaboladiene-1,4-diol"'
p21
aS'warfarin "glycyrrhiza triterpene"'
p22
aS'warfarin "carnitine"'
p23
aS'warfarin "2-methylquinoline"'
p24
aS'warfarin "chinese tannin"'
p25
aS'warfarin "kaempferol 3-(2g-rhamnosylgentiobioside)"'
p26
aS'warfarin "ginsenoside m6-bc"'
p27
aS'warfarin "4alpha,5alpha-epoxy-11-eudesmen-3a-ol"'
p28
aS'warfarin "hex-trans-2-enyl hexanoate"'
p29
aS'warfarin "2-methyl-1,5-dinitro-3-nitrosobenzene"'
p30
aS'warfarin "5\',8-dihydroxy-3\',4\',7-trimethoxyflavan"'
p31
aS'warfarin "epigallocatechin 3,4\'-digallate"'
p32
aS'warfarin "pc(p-16:0/22:0)"'
p33
aS'warfarin "polyamines"'
p34
aS'warfarin "1,4-naphthoquinone"'
p35
aS'warfarin "glucosides"'
p36
aS'warfarin "ginsenoside ii"'
p37
aS'warfarin "5-\xce\xb2-pregnan-3,20 dione"'
p38
aS'warfarin "epigallocatechin 3-(3-methylgallate)"'
p39
aS'warfarin "norvaline"'
p40
aS'warfarin "psoralen"'
p41
aS'warfarin "kaempferol 3-o-alpha-l-rhamnoside-beta-d-glucosyl"'
p42
aS'warfarin "propionylcarnitine"'
p43
aS'warfarin "phosphocholine"'
p44
aS'warfarin "decanoate"'
p45
aS'warfarin "glycerol 1,3-didodecanoate 2-decanoate"'
p46
aS'warfarin "disulfides"'
p47
aS'warfarin "pc(22:0/p-16:0)"'
p48
aS'warfarin "isothiocyanates"'
p49
aS'warfarin "rubidium"'
p50
aS'warfarin "thial-1-propene-1-thiol s-oxide"'
p51
aS'warfarin "molybdenum"'
p52
aS'warfarin "utp"'
p53
aS'warfarin "p-coumaric acid"'
p54
aS'warfarin "3\',4\',5\',7,8-pentamethoxyflavan"'
p55
aS'warfarin "1-phenyl-1,3-hexadecanedione"'
p56
aS'warfarin "3,5-di-o-caffeoylquinic acid"'
p57
aS'warfarin "diosmetin 7-neohesperidoside"'
p58
aS'warfarin "quercetin 3-(6\'\'\'\'-caffeylsophorotrioside)"'
p59
aS'warfarin "chlorogenic acid"'
p60
aS'warfarin "isochlorogenic acid"'
p61
aS'warfarin "formaldehyde"'
p62
aS'warfarin "quercetin 3-(2-galloylglucoside)"'
p63
aS'warfarin "oxypeucedanin hydrate"'
p64
aS'warfarin "acetylcholine"'
p65
aS'warfarin "mn2+"'
p66
aS'warfarin "quercetin 3-(2-glucosylrhamnoside)"'
p67
aS'warfarin "naringin 6\'\'-rhamnoside"'
p68
aS'warfarin "curcumin"'
p69
aS'warfarin "bisulfite"'
p70
aS'warfarin "laurate"'
p71
aS'warfarin "7alpha,16beta-17-trihydroxy"'
p72
aS'warfarin "chloroform"'
p73
aS'warfarin "hex-cis-3-en-1-ol hexanoate"'
p74
aS'warfarin "1-phenyl-1,3-heptadecanedione"'
p75
aS'warfarin "myristate"'
p76
aS'warfarin "hydroxycinnamic acid"'
p77
aS'warfarin "kaempferol 3-o-rhamnodiglucoside"'
p78
aS'warfarin "ajoene"'
p79
aS'warfarin "pyridoxal"'
p80
aS'warfarin "licochalcone a"'
p81
aS'warfarin "glucosidase"'
p82
aS'warfarin "cucurbitacin i"'
p83
aS'warfarin "soja hispidasaponin c"'
p84
aS'warfarin "naringin"'
p85
aS'warfarin "kaempferol 3-o-glucosyl-rhamnosyl-galactoside"'
p86
aS'warfarin "styrene"'
p87
aS'warfarin "cyanocobalamin"'
p88
aS'warfarin "1-methyl 2-galloylgalactarate"'
p89
aS'warfarin "tantalum"'
p90
aS'warfarin "luteolin 7-disulfoglucoside"'
p91
aS'warfarin "lactose"'
p92
aS'warfarin "guanosine"'
p93
aS'warfarin "ethyl icosapentate"'
p94
aS'warfarin "2-c-hydroxymethyl-d-erythrono-1,4-lactone"'
p95
aS'warfarin "acetone"'
p96
aS'warfarin "safrole"'
p97
aS'warfarin "methylether"'
p98
aS'warfarin "n-(2r-hydroxydocosanoyl)-2s-amino-1,3s,4r-octadecanetriol"'
p99
aS'warfarin "formate"'
p100
aS'warfarin "2a-hydroxyoleanolic acid methyl ester"'
p101
aS'warfarin "osthol"'
p102
aS'warfarin "dihydrolipoamide"'
p103
aS'warfarin "cincassiol d4"'
p104
aS'warfarin "latex"'
p105
aS'warfarin "cincassiol d1"'
p106
aS'warfarin "hydrogen carbonate"'
p107
aS'warfarin "s-methyl methanesulfinothioate"'
p108
aS'warfarin "cytidine"'
p109
aS'warfarin "1-phenyl-1,3-nonadecanedione"'
p110
aS'warfarin "d-glucose"'
p111
aS'warfarin "sugars"'
p112
aS'warfarin "kaempferol 3-glucosylxyloside"'
p113
aS'warfarin "pentosan polysulfate"'
p114
aS'warfarin "2,8-dihydroxy-3,4,7-trimethoxy-dibenzofuran"'
p115
aS'warfarin "n-methylaniline"'
p116
aS'warfarin "fe3+"'
p117
aS'warfarin "hebevinoside xiv"'
p118
aS'warfarin "3-epigibberellin a1"'
p119
aS'warfarin "lormetazepam"'
p120
aS'warfarin "beta-galactosidase"'
p121
aS'warfarin "allyl alcohol"'
p122
aS'warfarin "methylcaffeic acid piperidide"'
p123
aS'warfarin "mercury"'
p124
aS'warfarin "zn2+"'
p125
aS'warfarin "(2r)-1-o-beta-d-galactopyranosylglycerol"'
p126
aS'warfarin "luteolin"'
p127
aS'warfarin "epigallocatechin 3-(4-methylgallate)"'
p128
aS'warfarin "nicotinic acid"'
p129
aS'warfarin "pyrophosphate"'
p130
aS'warfarin "[9]-gingerol"'
p131
aS'warfarin "5-(methylthio)-pentanonitrile"'
p132
aS'warfarin "2\',4\',5,7-tetrahydroxy-8-prenylisoflavone"'
p133
aS'warfarin "d-glucaric acid"'
p134
aS'warfarin "pyrazines"'
p135
aS'warfarin "isofraxidin"'
p136
aS'warfarin "1-phenyl-1,3-octadecanedione"'
p137
aS'warfarin "delta-maslinic acid methyl ester"'
p138
aS'warfarin "thromboxane a2"'
p139
aS'warfarin "trans-p-menth-2-ene-1,4-diol"'
p140
aS'warfarin "diethylstilbesterol"'
p141
aS'warfarin "7-epi-12-hydroxyjasmonic acid glucoside"'
p142
aS'warfarin "(-)-quinic acid"'
p143
aS'warfarin "ferulic acid"'
p144
aS'warfarin "[12]-shogaol"'
p145
aS'warfarin "kaempferol 3-gluco-xyloside"'
p146
aS'warfarin "silicic acid"'
p147
aS'warfarin "silibinin"'
p148
aS'warfarin "s-methyl 2-propene-1-sulfinothioate"'
p149
aS'warfarin "carbonate"'
p150
aS'warfarin "baicalein"'
p151
aS'warfarin "ellagic acid 2-(6-glucosylglucoside)"'
p152
aS'warfarin "hesperidin"'
p153
aS'warfarin "n-acetylneuraminic acid"'
p154
aS'warfarin "phospholipase"'
p155
aS'warfarin "1-phenyl-1,3-docosanedione"'
p156
aS'warfarin "8-hydroxy-2-methoxy-6-methyl-1,4-naphthoquinone"'
p157
aS'warfarin "chlorohydrin"'
p158
aS'warfarin "6-epi-7-isocucurbic acid glucoside"'
p159
aS'warfarin "cyanide"'
p160
aS'warfarin "1alpha,15-dihydroxymarasmene"'
p161
aS'warfarin "thallium"'
p162
aS'warfarin "3,3\'-digalloylprodelphinidin b1"'
p163
aS'warfarin "fumarate"'
p164
aS'warfarin "propanoic acid"'
p165
a.