(lp0
S'digoxin "1,8-cineole"'
p1
aS'digoxin "carbamoyl-phosphate"'
p2
aS'digoxin "benzeneacetonitrile"'
p3
aS'digoxin "l-ascorbic acid"'
p4
aS'digoxin "quercetin 3-(2g-rhamnosylgentiobioside)"'
p5
aS'digoxin "diacylglycerol"'
p6
aS'digoxin "kaempferol 3-sophoroside-rhamnoside"'
p7
aS'digoxin "(-)-borneol"'
p8
aS'digoxin "cytosine"'
p9
aS'digoxin "l-(-)-phenylalanine"'
p10
aS'digoxin "3-(4-methylphenyl)-pyridine"'
p11
aS'digoxin "l-tryptophan"'
p12
aS'digoxin "cardiolipin"'
p13
aS'digoxin "4-hydroxy-3-prenylbenzoic acid glucoside"'
p14
aS'digoxin "tyramine"'
p15
aS'digoxin "m1"'
p16
aS'digoxin "2,10-bisaboladiene-1,4-diol"'
p17
aS'digoxin "chinese tannin"'
p18
aS'digoxin "4alpha,5alpha-epoxy-11-eudesmen-3a-ol"'
p19
aS'digoxin "hex-trans-2-enyl hexanoate"'
p20
aS'digoxin "2-methyl-1,5-dinitro-3-nitrosobenzene"'
p21
aS'digoxin "5\',8-dihydroxy-3\',4\',7-trimethoxyflavan"'
p22
aS'digoxin "epigallocatechin 3,4\'-digallate"'
p23
aS'digoxin "hydrogen peroxide (h2o2)"'
p24
aS'digoxin "polyamines"'
p25
aS'digoxin "citral"'
p26
aS'digoxin "hex-cis-3-en-1-ol phenylacetate"'
p27
aS'digoxin "5-aminolevulinic acid"'
p28
aS'digoxin "5-\xce\xb2-pregnan-3,20 dione"'
p29
aS'digoxin "epigallocatechin 3-(3-methylgallate)"'
p30
aS'digoxin "notoginsenoside r1"'
p31
aS'digoxin "isopentyl isopentanoate"'
p32
aS'digoxin "psoralen"'
p33
aS'digoxin "kaempferol 3-o-alpha-l-rhamnoside-beta-d-glucosyl"'
p34
aS'digoxin "l-lactic acid"'
p35
aS'digoxin "propionylcarnitine"'
p36
aS'digoxin "disulfides"'
p37
aS'digoxin "phosphoric acid"'
p38
aS'digoxin "trans-1,10-heptadecadiene-5,7-diyn-3-ol"'
p39
aS'digoxin "isothiocyanates"'
p40
aS'digoxin "tin"'
p41
aS'digoxin "limonene"'
p42
aS'digoxin "iron oxide"'
p43
aS'digoxin "acidissiminol epoxide"'
p44
aS'digoxin "artomunoxanthentrione epoxide"'
p45
aS'digoxin "benzyl senevol"'
p46
aS'digoxin "chlorophyll"'
p47
aS'digoxin "diosmetin 7-neohesperidoside"'
p48
aS'digoxin "phosphofructokinase"'
p49
aS'digoxin "quercetin 3-(6\'\'\'\'-caffeylsophorotrioside)"'
p50
aS'digoxin "aniline"'
p51
aS'digoxin "chlorogenic acid"'
p52
aS'digoxin "bupropion"'
p53
aS'digoxin "glycerol"'
p54
aS'digoxin "citronellal"'
p55
aS'digoxin "dipentene o-diphenollactone"'
p56
aS'digoxin "quercetin 3-(2-galloylglucoside)"'
p57
aS'digoxin "4,11,13,15-tetrahydroridentin b"'
p58
aS'digoxin "(all-e)-6\'-apo-y-caroten-6\'-al"'
p59
aS'digoxin "mn2+"'
p60
aS'digoxin "quercetin 3-(2-glucosylrhamnoside)"'
p61
aS'digoxin "l-iditol"'
p62
aS'digoxin "naringin 6\'\'-rhamnoside"'
p63
aS'digoxin "apigenin 5-[4\'\'-rhamnosyl-6\'\'-acetylglucoside]"'
p64
aS'digoxin "leukotriene-c4"'
p65
aS'digoxin "curcumin"'
p66
aS'digoxin "bisulfite"'
p67
aS'digoxin "7alpha,16beta-17-trihydroxy"'
p68
aS'digoxin "hex-cis-3-en-1-ol hexanoate"'
p69
aS'digoxin "heteroside"'
p70
aS'digoxin "myristate"'
p71
aS'digoxin "kaempferol 3-o-rhamnodiglucoside"'
p72
aS'digoxin "n-butanol"'
p73
aS'digoxin "glutathione disulfide"'
p74
aS'digoxin "pyridoxal"'
p75
aS'digoxin "terpinolene"'
p76
aS'digoxin "glucosidase"'
p77
aS'digoxin "monoterpenes"'
p78
aS'digoxin "cucurbitacin i"'
p79
aS'digoxin "enterolactone"'
p80
aS'digoxin "pheophorbide a"'
p81
aS'digoxin "isodulcitol"'
p82
aS'digoxin "naringin"'
p83
aS'digoxin "kaempferol 3-o-glucosyl-rhamnosyl-galactoside"'
p84
aS'digoxin "1,3,11(13)-eudesmatrien-12-oic acid"'
p85
aS'digoxin "styrene"'
p86
aS'digoxin "(r)-limonene"'
p87
aS'digoxin "cyanocobalamin"'
p88
aS'digoxin "ketones"'
p89
aS'digoxin "synergistic antifungal protein"'
p90
aS'digoxin "1-methyl 2-galloylgalactarate"'
p91
aS'digoxin "lactose"'
p92
aS'digoxin "guanosine"'
p93
aS'digoxin "vitamin e"'
p94
aS'digoxin "protoporphyrin ix"'
p95
aS'digoxin "paraffin wax"'
p96
aS'digoxin "acetone"'
p97
aS'digoxin "methylether"'
p98
aS'digoxin "n-(2r-hydroxydocosanoyl)-2s-amino-1,3s,4r-octadecanetriol"'
p99
aS'digoxin "formate"'
p100
aS'digoxin "2a-hydroxyoleanolic acid methyl ester"'
p101
aS'digoxin "cincassiol d4"'
p102
aS'digoxin "latex"'
p103
aS'digoxin "cincassiol d2"'
p104
aS'digoxin "ethyl carbamate"'
p105
aS'digoxin "dcmp"'
p106
aS'digoxin "cincassiol c3"'
p107
aS'digoxin "d-glucose"'
p108
aS'digoxin "crassostrea secocarotenoid"'
p109
aS'digoxin "alpha-pinene"'
p110
aS'digoxin "sugars"'
p111
aS'digoxin "kaempferol 3-glucosylxyloside"'
p112
aS'digoxin "hebevinoside xii"'
p113
aS'digoxin "fe3+"'
p114
aS'digoxin "4\',5,6,7,8-pentahydroxy-3\'-methoxyflavone"'
p115
aS'digoxin "hebevinoside xiv"'
p116
aS'digoxin "3-epigibberellin a1"'
p117
aS'digoxin "mercury"'
p118
aS'digoxin "(2r)-1-o-beta-d-galactopyranosylglycerol"'
p119
aS'digoxin "epigallocatechin 3-(4-methylgallate)"'
p120
aS'digoxin "nicotinic acid"'
p121
aS'digoxin "pyrophosphate"'
p122
aS'digoxin "phosvitin"'
p123
aS'digoxin "myo-inositol"'
p124
aS'digoxin "2\',4\',5,7-tetrahydroxy-8-prenylisoflavone"'
p125
aS'digoxin "fluorene"'
p126
aS'digoxin "d-glucaric acid"'
p127
aS'digoxin "strontium"'
p128
aS'digoxin "(r)-11,12,13-trinor-1(5),6,9-guaiatrien-8-one"'
p129
a.