(lp0
S'statin "okra"'
p1
aS'statin "fig"'
p2
aS'statin "lard"'
p3
aS'statin "gin"'
p4
aS'statin "miso"'
p5
aS'statin "sorghum"'
p6
aS'statin "kale"'
p7
aS'statin "animal foods"'
p8
aS'statin "alfalfa"'
p9
aS'statin "sherry"'
p10
aS'statin "turbot"'
p11
aS'statin "rainbow trout"'
p12
aS'statin "other fish product"'
p13
aS'statin "lotus"'
p14
aS'statin "liquor"'
p15
aS'statin "almond"'
p16
aS'statin "ginger"'
p17
aS'statin "spinach"'
p18
aS'statin "amaranth"'
p19
aS'statin "whey"'
p20
aS'statin "papaya"'
p21
aS'statin "capers"'
p22
aS'statin "cheese"'
p23
aS'statin "pulses"'
p24
aS'statin "common ling"'
p25
aS'statin "banana"'
p26
aS'statin "mustard"'
p27
aS'statin "snail"'
p28
aS'statin "cabbage"'
p29
aS'statin "milkshake"'
p30
aS'statin "milk (other mammals)"'
p31
aS'statin "dill"'
p32
aS'statin "apple"'
p33
aS'statin "ginseng"'
p34
aS'statin "deer"'
p35
aS'statin "cisco"'
p36
aS'statin "horse"'
p37
aS'statin "elk"'
p38
aS'statin "bitter gourd"'
p39
aS'statin "pate"'
p40
aS'statin "soy bean"'
p41
aS'statin "hamburger"'
p42
aS'statin "soft drink"'
p43
aS'statin "canola"'
p44
aS'statin "malabar plum"'
p45
aS'statin "quail"'
p46
aS'statin "fruit juice"'
p47
aS'statin "other fruit product"'
p48
aS'statin "tallow"'
p49
aS'statin "mango"'
p50
aS'statin "guava"'
p51
aS'statin "liquorice"'
p52
aS'statin "black chokeberry"'
p53
aS'statin "yam"'
p54
aS'statin "vinegar"'
p55
aS'statin "borage"'
p56
aS'statin "allium (onion)"'
p57
aS'statin "watercress"'
p58
aS'statin "shrimp"'
p59
aS'statin "cinnamon"'
p60
aS'statin "eggplant"'
p61
aS'statin "whiting"'
p62
aS'statin "radish"'
p63
aS'statin "chickpea"'
p64
aS'statin "lime"'
p65
aS'statin "peach"'
p66
aS'statin "shiitake"'
p67
aS'statin "alcoholic beverages"'
p68
aS'statin "chives"'
p69
aS'statin "relish"'
p70
aS'statin "pomegranate"'
p71
aS'statin "dock"'
p72
aS'statin "spirit"'
p73
aS'statin "kiwi"'
p74
aS'statin "cauliflower"'
p75
aS'statin "sesame"'
p76
aS'statin "strawberry"'
p77
aS'statin "malus (crab apple)"'
p78
aS'statin "rosemary"'
p79
aS'statin "dripping"'
p80
aS'statin "atlantic cod"'
p81
aS'statin "cassava"'
p82
aS'statin "taro"'
p83
aS'statin "sunflower"'
p84
aS'statin "breakfast cereal"'
p85
aS'statin "triticale"'
p86
aS'statin "bayberry"'
p87
aS'statin "pectin"'
p88
aS'statin "pudding"'
p89
aS'statin "cowpea"'
p90
aS'statin "flour"'
p91
aS'statin "beaver"'
p92
aS'statin "opossum"'
p93
aS'statin "other meat product"'
p94
aS'statin "dried milk"'
p95
aS'statin "butter"'
p96
aS'statin "rubus (blackberry, raspberry)"'
p97
aS'statin "columbidae (dove, pigeon)"'
p98
aS'statin "sake"'
p99
aS'statin "fenugreek"'
p100
aS'statin "topping"'
p101
aS'statin "squirrel"'
p102
aS'statin "nance"'
p103
aS'statin "other sandwich"'
p104
aS'statin "milk (human)"'
p105
aS'statin "millet"'
p106
aS'statin "grape wine"'
p107
aS'statin "oil palm"'
p108
aS'statin "chestnut"'
p109
aS'statin "chocolate"'
p110
aS'statin "salad"'
p111
aS'statin "potato"'
p112
aS'statin "oyster mushroom"'
p113
aS'statin "flatfish"'
p114
aS'statin "yogurt"'
p115
aS'statin "sweet potato"'
p116
aS'statin "pheasant"'
p117
aS'statin "soy yogurt"'
p118
aS'statin "pie"'
p119
aS'statin "common wheat"'
p120
aS'statin "honey"'
p121
aS'statin "peanut"'
p122
aS'statin "catfish"'
p123
aS'statin "sturgeon"'
p124
aS'statin "angelica"'
p125
aS'statin "grape"'
p126
aS'statin "roselle"'
p127
aS'statin "barley"'
p128
aS'statin "lemon"'
p129
aS'statin "spelt"'
p130
aS'statin "cereals and cereal products"'
p131
aS'statin "horseradish"'
p132
aS'statin "red rice"'
p133
aS'statin "coffee and coffee products"'
p134
aS'statin "thistle"'
p135
aS'statin "tamarind"'
p136
aS'statin "cream"'
p137
aS'statin "mulberry"'
p138
aS'statin "spirulina"'
p139
aS'statin "other vegetable product"'
p140
aS'statin "flaxseed"'
p141
aS'statin "vitis vinifera"'
p142
aS'statin "morus"'
p143
aS'statin "basella alba"'
p144
aS'statin "vaccinium deliciosum"'
p145
aS'statin "bivalvia"'
p146
aS'statin "rubus"'
p147
aS'statin "vaccinium macrocarpon"'
p148
aS'statin "cynara scolymus"'
p149
aS'statin "ananas comosus"'
p150
aS'statin "citrus sinensis"'
p151
aS'statin "manihot esculenta"'
p152
aS'statin "columbidae"'
p153
aS'statin "allium"'
p154
aS'statin "gossypium"'
p155
aS'statin "lagenaria siceraria"'
p156
aS'statin "columba"'
p157
aS'statin "carica papaya"'
p158
aS'statin "sus scrofa domestica"'
p159
aS'statin "spinacia oleracea"'
p160
aS'statin "vitis"'
p161
aS'statin "ipomoea batatas"'
p162
aS'statin "hordeum vulgare"'
p163
aS'statin "allium sativum"'
p164
aS'statin "brassica oleracea"'
p165
aS'statin "oncorhynchus mykiss"'
p166
aS'statin "zea mays"'
p167
aS'statin "solanum melongena"'
p168
aS'statin "sciuridae"'
p169
aS'statin "cinnamomum"'
p170
aS'statin "agaricus bisporus"'
p171
aS'statin "oryza sativa"'
p172
aS'statin "glycine max"'
p173
aS'statin "salvia officinalis"'
p174
aS'statin "borago officinalis"'
p175
aS'statin "curcuma longa"'
p176
aS'statin "solanum tuberosum"'
p177
aS'statin "oncorhynchus"'
p178
aS'statin "pinus"'
p179
aS'statin "quercus"'
p180
aS'statin "moringa oleifera"'
p181
aS'statin "gallus gallus"'
p182
aS'statin "amaranthus"'
p183
aS'statin "laminaria"'
p184
aS'statin "oryctolagus"'
p185
aS'statin "linum usitatissimum"'
p186
aS'statin "hibiscus sabbariffa"'
p187
aS'statin "diospyros"'
p188
aS'statin "prunus persica"'
p189
aS'statin "pleurotus ostreatus"'
p190
aS'statin "malus"'
p191
aS'statin "cydonia oblonga"'
p192
aS'statin "zingiber officinale"'
p193
aS'statin "prunus"'
p194
aS'statin "myrica"'
p195
aS'statin "panax"'
p196
aS'statin "spirulina"'
p197
aS'statin "capsicum"'
p198
aS'statin "phaseolus vulgaris"'
p199
aS'statin "triticum"'
p200
aS'statin "sus scrofa"'
p201
aS'statin "medicago sativa"'
p202
aS'statin "camellia sinensis"'
p203
aS'statin "dioscorea"'
p204
aS'statin "eugenia"'
p205
aS'statin "vaccinium"'
p206
aS'statin "hippophae rhamnoides"'
p207
aS'statin "abelmoschus esculentus"'
p208
aS'statin "triticum aestivum"'
p209
aS'statin "morus"'
p210
aS'statin "b. alba"'
p211
aS'statin "bivalvia"'
p212
aS'statin "rubus"'
p213
aS'statin "eugenia"'
p214
aS'statin "p. ostreatus"'
p215
aS'statin "columbidae"'
p216
aS'statin "allium"'
p217
aS'statin "g. biloba"'
p218
aS'statin "malus"'
p219
aS'statin "gossypium"'
p220
aS'statin "columba"'
p221
aS'statin "c. papaya"'
p222
aS'statin "vitis"'
p223
aS'statin "h. sabdariffa"'
p224
aS'statin "a. fimbria"'
p225
aS'statin "sciuridae"'
p226
aS'statin "cinnamomum"'
p227
aS'statin "vaccinium"'
p228
aS'statin "a. bisporus"'
p229
aS'statin "oncorhynchus"'
p230
aS'statin "pinus"'
p231
aS'statin "quercus"'
p232
aS'statin "m. oleifera"'
p233
aS'statin "amaranthus"'
p234
aS'statin "laminaria"'
p235
aS'statin "oryctolagus"'
p236
aS'statin "m. officinalis"'
p237
aS'statin "diospyros"'
p238
aS'statin "m. x"'
p239
aS'statin "c. x"'
p240
aS'statin "prunus"'
p241
aS'statin "o. x"'
p242
aS'statin "myrica"'
p243
aS'statin "panax"'
p244
aS'statin "capsicum"'
p245
aS'statin "triticum"'
p246
aS'statin "m. x"'
p247
aS'statin "p. melanocarpa"'
p248
aS'statin "dioscorea"'
p249
aS'statin "spirulina"'
p250
aS'statin "1,4-dimethylpyrrolo[1,2-a]pyrazine"'
p251
aS'statin "5-hydroxycapsanthin-3,6-epoxide"'
p252
aS'statin "ellagic acid acetyl-arabinoside"'
p253
aS'statin "2\'-deoxyinosine"'
p254
aS'statin "6beta,7beta-dihydroxykaurenoic acid"'
p255
aS'statin "stigmastanol"'
p256
aS'statin "auxin"'
p257
aS'statin "octanoic acid"'
p258
aS'statin "kaempferol 3-feruloyl-triglucoside"'
p259
aS'statin "hexadecanedioic acid"'
p260
aS'statin "delta-6,7-octadecanoic acid"'
p261
aS'statin "aflatoxin"'
p262
aS'statin "(23r)-acetoxytomatine"'
p263
aS'statin "ampicillin"'
p264
aS'statin "1,5,5,9-tetramethyl-bicyclo[4.3.0]-non-8-en-7-one"'
p265
aS'statin "trans-zeatin"'
p266
aS'statin "oxalic acid"'
p267
aS'statin "lignans"'
p268
aS'statin "flavan-3-ol"'
p269
aS'statin "cyanidin 3-(4-acetylglucoside)"'
p270
aS'statin "vanillin"'
p271
aS'statin "ash"'
p272
aS'statin "epigallocatechin 3-gallate"'
p273
aS'statin "acetophenone"'
p274
aS'statin "mevalonate-5-phosphate"'
p275
aS'statin "cyanidin 3-glucogalactoside"'
p276
aS'statin "peonidin 3-(6\'\'-caffeoyl-glucoside)"'
p277
aS'statin "peonidin 3-glucoside"'
p278
aS'statin "(r)-apiumetin glucoside"'
p279
aS'statin "benzyl ethyl ether"'
p280
aS'statin "uridine diphosphate"'
p281
aS'statin "(-)-jasmonate"'
p282
aS'statin "2-methylbutanoic acid"'
p283
aS'statin "(r)-mevalonate"'
p284
aS'statin "hex-cis-3-en-1-ol isobutyrate"'
p285
aS'statin "cysteinylglycine"'
p286
aS'statin "ruthenium"'
p287
aS'statin "(-)-menthol"'
p288
aS'statin "l-phenylalanine"'
p289
aS'statin "aloe emodin w-acetate"'
p290
aS'statin "lysolecithin"'
p291
aS'statin "1,8-cineole"'
p292
aS'statin "abscisic acid"'
p293
aS'statin "capsicoside a"'
p294
aS'statin "4-methylsulfoxidebuten-(3)-yl cyanide"'
p295
aS'statin "l-ascorbic acid"'
p296
aS'statin "kaempferol 3-sophoroside-rhamnoside"'
p297
aS'statin "steviol"'
p298
aS'statin "isopropylamine"'
p299
aS'statin "ubiquinol-10"'
p300
aS'statin "cyanidin 3-(p-coumaroylferuloylglucoside)"'
p301
aS'statin "alpha-farnesene"'
p302
aS'statin "proanthocyanidins"'
p303
aS'statin "l-(-)-phenylalanine"'
p304
aS'statin "alpha-carotene"'
p305
aS'statin "ethyl methyl amine"'
p306
aS'statin "vanillic acid"'
p307
aS'statin "lophenol"'
p308
aS'statin "cyanidin 3-(arabinosylgalactoside)"'
p309
aS'statin "l-tryptophan"'
p310
aS'statin "cardiolipin"'
p311
aS'statin "3-methylglutaconyl-coa"'
p312
aS'statin "peonidin 3-[4-hydroxycinnamoyl-b-d-glucopyranoside]"'
p313
aS'statin "tyramine"'
p314
aS'statin "glycyrrhiza triterpene"'
p315
aS'statin "chinese tannin"'
p316
aS'statin "kaempferol 3-(2g-rhamnosylgentiobioside)"'
p317
aS'statin "4alpha,5alpha-epoxy-11-eudesmen-3a-ol"'
p318
aS'statin "(2e)-piperamide-c5:1"'
p319
aS'statin "trimethylamine"'
p320
aS'statin "hex-trans-2-enyl hexanoate"'
p321
aS'statin "2-methyl-1,5-dinitro-3-nitrosobenzene"'
p322
aS'statin "5\',8-dihydroxy-3\',4\',7-trimethoxyflavan"'
p323
aS'statin "epigallocatechin 3,4\'-digallate"'
p324
aS'statin "hydrogen peroxide (h2o2)"'
p325
aS'statin "pc(p-16:0/22:0)"'
p326
aS'statin "3-methylcrotonyl-coa"'
p327
a.