(lp0
S'monoamine oxidase  "avocado"'
p1
aS'monoamine oxidase  "fig"'
p2
aS'monoamine oxidase  "lard"'
p3
aS'monoamine oxidase  "polar bear"'
p4
aS'monoamine oxidase  "cichlidae (tilapia)"'
p5
aS'monoamine oxidase  "miso"'
p6
aS'monoamine oxidase  "burdock"'
p7
aS'monoamine oxidase  "whitefish"'
p8
aS'monoamine oxidase  "poppy"'
p9
aS'monoamine oxidase  "kale"'
p10
aS'monoamine oxidase  "ringed seal"'
p11
aS'monoamine oxidase  "sherry"'
p12
aS'monoamine oxidase  "red algae"'
p13
aS'monoamine oxidase  "common grape"'
p14
aS'monoamine oxidase  "rainbow trout"'
p15
aS'monoamine oxidase  "other fish product"'
p16
aS'monoamine oxidase  "lotus"'
p17
aS'monoamine oxidase  "liquor"'
p18
aS'monoamine oxidase  "ginger"'
p19
aS'monoamine oxidase  "chum salmon"'
p20
aS'monoamine oxidase  "whey"'
p21
aS'monoamine oxidase  "leek"'
p22
aS'monoamine oxidase  "canada blueberry"'
p23
aS'monoamine oxidase  "opium poppy"'
p24
aS'monoamine oxidase  "other bread"'
p25
aS'monoamine oxidase  "tofu"'
p26
aS'monoamine oxidase  "oat"'
p27
aS'monoamine oxidase  "banana"'
p28
aS'monoamine oxidase  "pizza"'
p29
aS'monoamine oxidase  "mushrooms"'
p30
aS'monoamine oxidase  "mustard"'
p31
aS'monoamine oxidase  "snail"'
p32
aS'monoamine oxidase  "cabbage"'
p33
aS'monoamine oxidase  "agar"'
p34
aS'monoamine oxidase  "persimmon"'
p35
aS'monoamine oxidase  "milk (other mammals)"'
p36
aS'monoamine oxidase  "dill"'
p37
aS'monoamine oxidase  "ginseng"'
p38
aS'monoamine oxidase  "deer"'
p39
aS'monoamine oxidase  "chewing gum"'
p40
aS'monoamine oxidase  "casein"'
p41
aS'monoamine oxidase  "horse"'
p42
aS'monoamine oxidase  "elk"'
p43
aS'monoamine oxidase  "common carp"'
p44
aS'monoamine oxidase  "pate"'
p45
aS'monoamine oxidase  "soy bean"'
p46
aS'monoamine oxidase  "hamburger"'
p47
aS'monoamine oxidase  "soft drink"'
p48
aS'monoamine oxidase  "turmeric"'
p49
aS'monoamine oxidase  "coconut"'
p50
aS'monoamine oxidase  "canola"'
p51
aS'monoamine oxidase  "squid"'
p52
aS'monoamine oxidase  "seatrout"'
p53
aS'monoamine oxidase  "quail"'
p54
aS'monoamine oxidase  "wheat"'
p55
aS'monoamine oxidase  "skipjack tuna"'
p56
aS'monoamine oxidase  "sour cherry"'
p57
aS'monoamine oxidase  "nutmeg"'
p58
aS'monoamine oxidase  "butternut"'
p59
aS'monoamine oxidase  "liquorice"'
p60
aS'monoamine oxidase  "yam"'
p61
aS'monoamine oxidase  "cocktail"'
p62
aS'monoamine oxidase  "garlic"'
p63
aS'monoamine oxidase  "borage"'
p64
aS'monoamine oxidase  "shrimp"'
p65
aS'monoamine oxidase  "milk and milk products"'
p66
aS'monoamine oxidase  "cinnamon"'
p67
aS'monoamine oxidase  "eggplant"'
p68
aS'monoamine oxidase  "radish"'
p69
aS'monoamine oxidase  "sausage"'
p70
aS'monoamine oxidase  "saffron"'
p71
aS'monoamine oxidase  "crab"'
p72
aS'monoamine oxidase  "pineappple sage"'
p73
aS'monoamine oxidase  "pomegranate"'
p74
aS'monoamine oxidase  "dock"'
p75
aS'monoamine oxidase  "spirit"'
p76
aS'monoamine oxidase  "soy sauce"'
p77
aS'monoamine oxidase  "sesame"'
p78
aS'monoamine oxidase  "rosemary"'
p79
aS'monoamine oxidase  "scallop"'
p80
aS'monoamine oxidase  "sunflower"'
p81
aS'monoamine oxidase  "spearmint"'
p82
aS'monoamine oxidase  "atlantic croaker"'
p83
aS'monoamine oxidase  "crayfish"'
p84
aS'monoamine oxidase  "linden"'
p85
aS'monoamine oxidase  "port wine"'
p86
aS'monoamine oxidase  "pudding"'
p87
aS'monoamine oxidase  "flour"'
p88
aS'monoamine oxidase  "beaver"'
p89
aS'monoamine oxidase  "margarine"'
p90
aS'monoamine oxidase  "opossum"'
p91
aS'monoamine oxidase  "other meat product"'
p92
aS'monoamine oxidase  "shallot"'
p93
aS'monoamine oxidase  "syrup"'
p94
aS'monoamine oxidase  "cucumber"'
p95
aS'monoamine oxidase  "berry wine"'
p96
aS'monoamine oxidase  "butter"'
p97
aS'monoamine oxidase  "evening primrose"'
p98
aS'monoamine oxidase  "mentha (mint)"'
p99
aS'monoamine oxidase  "fenugreek"'
p100
aS'monoamine oxidase  "bean"'
p101
aS'monoamine oxidase  "whisky"'
p102
aS'monoamine oxidase  "milk (human)"'
p103
aS'monoamine oxidase  "millet"'
p104
aS'monoamine oxidase  "nuts"'
p105
aS'monoamine oxidase  "pomes"'
p106
aS'monoamine oxidase  "eggs"'
p107
aS'monoamine oxidase  "chestnut"'
p108
aS'monoamine oxidase  "chocolate"'
p109
aS'monoamine oxidase  "vodka"'
p110
aS'monoamine oxidase  "cocoa and cocoa products"'
p111
aS'monoamine oxidase  "pheasant"'
p112
aS'monoamine oxidase  "soft-necked garlic"'
p113
aS'monoamine oxidase  "honey"'
p114
aS'monoamine oxidase  "peanut"'
p115
aS'monoamine oxidase  "walnut"'
p116
aS'monoamine oxidase  "grapefruit"'
p117
aS'monoamine oxidase  "catfish"'
p118
aS'monoamine oxidase  "coffee"'
p119
aS'monoamine oxidase  "citrus"'
p120
aS'monoamine oxidase  "sea cucumber"'
p121
aS'monoamine oxidase  "atlantic salmon"'
p122
aS'monoamine oxidase  "other animal fat"'
p123
aS'monoamine oxidase  "black bear"'
p124
aS'monoamine oxidase  "roe"'
p125
aS'monoamine oxidase  "sturgeon"'
p126
aS'monoamine oxidase  "rape"'
p127
aS'monoamine oxidase  "angelica"'
p128
aS'monoamine oxidase  "grape"'
p129
aS'monoamine oxidase  "natto"'
p130
aS'monoamine oxidase  "pollock"'
p131
aS'monoamine oxidase  "sauce"'
p132
aS'monoamine oxidase  "lemon"'
p133
aS'monoamine oxidase  "broad bean"'
p134
aS'monoamine oxidase  "mollusks"'
p135
aS'monoamine oxidase  "asparagus"'
p136
aS'monoamine oxidase  "coffee and coffee products"'
p137
aS'monoamine oxidase  "other candy"'
p138
aS'monoamine oxidase  "gelatin"'
p139
aS'monoamine oxidase  "rye"'
p140
aS'monoamine oxidase  "bagel"'
p141
aS'monoamine oxidase  "kelp"'
p142
aS'monoamine oxidase  "pacific oyster"'
p143
aS'monoamine oxidase  "loquat"'
p144
aS'monoamine oxidase  "spirulina"'
p145
aS'monoamine oxidase  "other vegetable product"'
p146
aS'monoamine oxidase  "shark"'
p147
aS'monoamine oxidase  "pot marjoram"'
p148
aS'monoamine oxidase  "vitis vinifera"'
p149
aS'monoamine oxidase  "morus"'
p150
aS'monoamine oxidase  "vaccinium deliciosum"'
p151
aS'monoamine oxidase  "bivalvia"'
p152
aS'monoamine oxidase  "citrus maxima"'
p153
aS'monoamine oxidase  "micropogonias undulatus"'
p154
aS'monoamine oxidase  "nelumbo"'
p155
aS'monoamine oxidase  "vigna radiata"'
p156
aS'monoamine oxidase  "citrus sinensis"'
p157
aS'monoamine oxidase  "nelumbo nucifera"'
p158
aS'monoamine oxidase  "opuntia"'
p159
aS'monoamine oxidase  "apium graveolens"'
p160
aS'monoamine oxidase  "cyprinus carpio"'
p161
aS'monoamine oxidase  "allium"'
p162
aS'monoamine oxidase  "perciformes"'
p163
aS'monoamine oxidase  "spinacia oleracea"'
p164
aS'monoamine oxidase  "vitis"'
p165
aS'monoamine oxidase  "nephropidae"'
p166
aS'monoamine oxidase  "cucumis sativus"'
p167
aS'monoamine oxidase  "oncorhynchus keta"'
p168
aS'monoamine oxidase  "cyathea"'
p169
aS'monoamine oxidase  "lathyrus sativus"'
p170
aS'monoamine oxidase  "allium sativum"'
p171
aS'monoamine oxidase  "raphanus sativus"'
p172
aS'monoamine oxidase  "daucus carota"'
p173
aS'monoamine oxidase  "oncorhynchus mykiss"'
p174
aS'monoamine oxidase  "citrus reticulata"'
p175
aS'monoamine oxidase  "zea mays"'
p176
aS'monoamine oxidase  "crassostrea gigas"'
p177
aS'monoamine oxidase  "crocus sativus"'
p178
aS'monoamine oxidase  "ranidae"'
p179
aS'monoamine oxidase  "hyssopus officinalis"'
p180
aS'monoamine oxidase  "esox lucius"'
p181
aS'monoamine oxidase  "ursus maritimus"'
p182
aS'monoamine oxidase  "myristica fragrans"'
p183
aS'monoamine oxidase  "borago officinalis"'
p184
aS'monoamine oxidase  "curcuma longa"'
p185
aS'monoamine oxidase  "sambucus"'
p186
aS'monoamine oxidase  "oncorhynchus"'
p187
aS'monoamine oxidase  "pinus"'
p188
aS'monoamine oxidase  "coregonus"'
p189
aS'monoamine oxidase  "punica granatum"'
p190
aS'monoamine oxidase  "moringa oleifera"'
p191
aS'monoamine oxidase  "brachyura"'
p192
aS'monoamine oxidase  "pectinidae"'
p193
aS'monoamine oxidase  "gallus gallus"'
p194
aS'monoamine oxidase  "ostreidae"'
p195
aS'monoamine oxidase  "lens culinaris"'
p196
aS'monoamine oxidase  "laminaria"'
p197
aS'monoamine oxidase  "hibiscus sabbariffa"'
p198
aS'monoamine oxidase  "piper nigrum"'
p199
aS'monoamine oxidase  "melissa officinalis"'
p200
aS'monoamine oxidase  "trigonella foenum-graecum"'
p201
aS'monoamine oxidase  "diospyros"'
p202
aS'monoamine oxidase  "mentha x piperita"'
p203
aS'monoamine oxidase  "salmo salar"'
p204
aS'monoamine oxidase  "mentha"'
p205
aS'monoamine oxidase  "ovis aries"'
p206
aS'monoamine oxidase  "cynoscion"'
p207
aS'monoamine oxidase  "gastropoda"'
p208
aS'monoamine oxidase  "papaver"'
p209
aS'monoamine oxidase  "salmonidae"'
p210
aS'monoamine oxidase  "zingiber officinale"'
p211
aS'monoamine oxidase  "prunus"'
p212
aS'monoamine oxidase  "pisum sativum"'
p213
aS'monoamine oxidase  "panax"'
p214
aS'monoamine oxidase  "spirulina"'
p215
aS'monoamine oxidase  "sambucus nigra"'
p216
aS'monoamine oxidase  "cetacea"'
p217
aS'monoamine oxidase  "mytilus edulis"'
p218
aS'monoamine oxidase  "triticum"'
p219
aS'monoamine oxidase  "rosmarinus officinalis"'
p220
aS'monoamine oxidase  "sus scrofa"'
p221
aS'monoamine oxidase  "camellia sinensis"'
p222
aS'monoamine oxidase  "octopus vulgaris"'
p223
aS'monoamine oxidase  "juglans"'
p224
aS'monoamine oxidase  "katsuwonus pelamis"'
p225
aS'monoamine oxidase  "prunus cerasus"'
p226
aS'monoamine oxidase  "angelica keiskei"'
p227
aS'monoamine oxidase  "hippophae rhamnoides"'
p228
aS'monoamine oxidase  "mentha aquatica"'
p229
aS'monoamine oxidase  "morus"'
p230
aS'monoamine oxidase  "bivalvia"'
p231
aS'monoamine oxidase  "nelumbo"'
p232
aS'monoamine oxidase  "c. sinensis"'
p233
aS'monoamine oxidase  "n. nucifera"'
p234
aS'monoamine oxidase  "opuntia"'
p235
aS'monoamine oxidase  "a. graveolens"'
p236
aS'monoamine oxidase  "allium"'
p237
aS'monoamine oxidase  "perciformes"'
p238
aS'monoamine oxidase  "a. graveolens"'
p239
aS'monoamine oxidase  "f. x"'
p240
aS'monoamine oxidase  "vitis"'
p241
aS'monoamine oxidase  "nephropidae"'
p242
aS'monoamine oxidase  "cyathea"'
p243
aS'monoamine oxidase  "a. fimbria"'
p244
aS'monoamine oxidase  "s. nigra"'
p245
aS'monoamine oxidase  "ranidae"'
p246
aS'monoamine oxidase  "e. lucius"'
p247
aS'monoamine oxidase  "mentha"'
p248
aS'monoamine oxidase  "s. officinalis"'
p249
aS'monoamine oxidase  "c. longa"'
p250
aS'monoamine oxidase  "sambucus"'
p251
aS'monoamine oxidase  "oncorhynchus"'
p252
aS'monoamine oxidase  "pinus"'
p253
aS'monoamine oxidase  "coregonus"'
p254
aS'monoamine oxidase  "a. graveolens"'
p255
aS'monoamine oxidase  "m. oleifera"'
p256
aS'monoamine oxidase  "brachyura"'
p257
aS'monoamine oxidase  "cynoscion"'
p258
aS'monoamine oxidase  "ostreidae"'
p259
aS'monoamine oxidase  "laminaria"'
p260
aS'monoamine oxidase  "a. graveolens"'
p261
aS'monoamine oxidase  "diospyros"'
p262
aS'monoamine oxidase  "m. x"'
p263
aS'monoamine oxidase  "s. melongena"'
p264
aS'monoamine oxidase  "pectinidae"'
p265
aS'monoamine oxidase  "gastropoda"'
p266
aS'monoamine oxidase  "a. keiskei"'
p267
aS'monoamine oxidase  "papaver"'
p268
aS'monoamine oxidase  "salmonidae"'
p269
aS'monoamine oxidase  "z. officinale"'
p270
aS'monoamine oxidase  "prunus"'
p271
aS'monoamine oxidase  "o. x"'
p272
aS'monoamine oxidase  "panax"'
p273
aS'monoamine oxidase  "cetacea"'
p274
aS'monoamine oxidase  "triticum"'
p275
aS'monoamine oxidase  "m. x"'
p276
aS'monoamine oxidase  "a. graveolens"'
p277
aS'monoamine oxidase  "c. sinensis"'
p278
aS'monoamine oxidase  "juglans"'
p279
aS'monoamine oxidase  "spirulina"'
p280
aS'monoamine oxidase  "m. aquatica"'
p281
aS'monoamine oxidase  "isorhamnetin 3-(2g-apiosylrutinoside)"'
p282
aS'monoamine oxidase  "2(3)-benzoxazolinone"'
p283
aS'monoamine oxidase  "formononetin"'
p284
aS'monoamine oxidase  "ellagic acid acetyl-arabinoside"'
p285
aS'monoamine oxidase  "3,5,6-trihydroxy-5-(hydroxymethyl)-2-methoxy-2-cyclohexen-1-one"'
p286
aS'monoamine oxidase  "5-hydroxyindoleacetaldehyde"'
p287
aS'monoamine oxidase  "umecyanin"'
p288
aS'monoamine oxidase  "resins"'
p289
aS'monoamine oxidase  "octanoic acid"'
p290
aS'monoamine oxidase  "prostaglandin e-1"'
p291
aS'monoamine oxidase  "kaempferol 3-feruloyl-triglucoside"'
p292
aS'monoamine oxidase  "ginsenoside m7cd"'
p293
aS'monoamine oxidase  "arecaidine"'
p294
aS'monoamine oxidase  "hexadecanedioic acid"'
p295
aS'monoamine oxidase  "lf"'
p296
aS'monoamine oxidase  "estrone"'
p297
aS'monoamine oxidase  "delta-6,7-octadecanoic acid"'
p298
aS'monoamine oxidase  "d-ribose"'
p299
aS'monoamine oxidase  "(6z,9z)-6,9-pentadecadien-2-one"'
p300
aS'monoamine oxidase  "aflatoxin"'
p301
aS'monoamine oxidase  "luteolin 7-(6\'\'-apiosylglucoside)"'
p302
aS'monoamine oxidase  "isorhamnetin 3-o-b-d-glucofuranoside 4\'-o-a-l-rhamnopyranoside"'
p303
aS'monoamine oxidase  "2-(1-methylethyl)-4-propylthiazole"'
p304
aS'monoamine oxidase  "isorhamnetin 3-vicianoside"'
p305
aS'monoamine oxidase  "ampicillin"'
p306
aS'monoamine oxidase  "oxalic acid"'
p307
aS'monoamine oxidase  "lignans"'
p308
aS'monoamine oxidase  "cyanidin 3-(4-acetylglucoside)"'
p309
aS'monoamine oxidase  "vanillin"'
p310
aS'monoamine oxidase  "ash"'
p311
aS'monoamine oxidase  "3-methylidene-4-oxopentyl angelate"'
p312
aS'monoamine oxidase  "carvone oxide"'
p313
aS'monoamine oxidase  "epigallocatechin 3-gallate"'
p314
aS'monoamine oxidase  "acetophenone"'
p315
aS'monoamine oxidase  "bisdemethoxycurcumin"'
p316
aS'monoamine oxidase  "cyanidin 3-glucogalactoside"'
p317
aS'monoamine oxidase  "n-methoxyspirobrassinol methyl ether"'
p318
aS'monoamine oxidase  "(r)-apiumetin glucoside"'
p319
aS'monoamine oxidase  "benzyl ethyl ether"'
p320
aS'monoamine oxidase  "protoporphyrin"'
p321
aS'monoamine oxidase  "2-pyrrolidinone"'
p322
aS'monoamine oxidase  "ruthenium"'
p323
aS'monoamine oxidase  "l-phenylalanine"'
p324
aS'monoamine oxidase  "aloe emodin w-acetate"'
p325
aS'monoamine oxidase  "lysolecithin"'
p326
aS'monoamine oxidase  "1-phenyl-1,3-pentadecanedione"'
p327
aS'monoamine oxidase  "1,8-cineole"'
p328
aS'monoamine oxidase  "abscisic acid"'
p329
aS'monoamine oxidase  "malvin"'
p330
aS'monoamine oxidase  "n-isobutyl-11-(3,4-methylenedioxyphenyl)-undeca-trans-2-trans-4-trans-10-trienamide"'
p331
aS'monoamine oxidase  "juglone"'
p332
aS'monoamine oxidase  "4-methylsulfoxidebuten-(3)-yl cyanide"'
p333
aS'monoamine oxidase  "l-ascorbic acid"'
p334
aS'monoamine oxidase  "diacylglycerol"'
p335
aS'monoamine oxidase  "kaempferol 3-sophoroside-rhamnoside"'
p336
aS'monoamine oxidase  "(-)-maackiain"'
p337
aS'monoamine oxidase  "isopropylamine"'
p338
aS'monoamine oxidase  "cyanidin 3-(p-coumaroylferuloylglucoside)"'
p339
aS'monoamine oxidase  "proanthocyanidins"'
p340
aS'monoamine oxidase  "xanthomicrol"'
p341
aS'monoamine oxidase  "cytosine"'
p342
aS'monoamine oxidase  "l-(-)-phenylalanine"'
p343
aS'monoamine oxidase  "gentisin"'
p344
aS'monoamine oxidase  "tangeritin"'
p345
aS'monoamine oxidase  "vanillic acid"'
p346
aS'monoamine oxidase  "3-(4-methylphenyl)-pyridine"'
p347
aS'monoamine oxidase  "cyanidin 3-(arabinosylgalactoside)"'
p348
aS'monoamine oxidase  "ampeloside bs1"'
p349
aS'monoamine oxidase  "2-methyl-3-furanthiol"'
p350
aS'monoamine oxidase  "cardiolipin"'
p351
aS'monoamine oxidase  "4-hydroxy-3-prenylbenzoic acid glucoside"'
p352
aS'monoamine oxidase  "porphobilinogen"'
p353
aS'monoamine oxidase  "neophytadiene"'
p354
aS'monoamine oxidase  "5,7-megastigmadien-9-ol glucoside"'
p355
aS'monoamine oxidase  "glycyrrhiza triterpene"'
p356
aS'monoamine oxidase  "tricin"'
p357
aS'monoamine oxidase  "2-methylquinoline"'
p358
aS'monoamine oxidase  "chinese tannin"'
p359
aS'monoamine oxidase  "kaempferol 3-(2g-rhamnosylgentiobioside)"'
p360
aS'monoamine oxidase  "ginsenoside m6-bc"'
p361
aS'monoamine oxidase  "trimethylamine"'
p362
aS'monoamine oxidase  "tetrahydrocurcumin"'
p363
aS'monoamine oxidase  "2-methyl-1,5-dinitro-3-nitrosobenzene"'
p364
aS'monoamine oxidase  "5\',8-dihydroxy-3\',4\',7-trimethoxyflavan"'
p365
aS'monoamine oxidase  "epigallocatechin 3,4\'-digallate"'
p366
aS'monoamine oxidase  "farnesylacetone"'
p367
aS'monoamine oxidase  "1,4-naphthoquinone"'
p368
aS'monoamine oxidase  "n-methylbenzylamine"'
p369
aS'monoamine oxidase  "dihydrofuran i"'
p370
aS'monoamine oxidase  "5-aminolevulinic acid"'
p371
aS'monoamine oxidase  "5-\xce\xb2-pregnan-3,20 dione"'
p372
aS'monoamine oxidase  "epigallocatechin 3-(3-methylgallate)"'
p373
aS'monoamine oxidase  "1-chloro-2,4-dinitrobenzene"'
p374
aS'monoamine oxidase  "silica"'
p375
aS'monoamine oxidase  "psoralen"'
p376
aS'monoamine oxidase  "kaempferol 3-o-alpha-l-rhamnoside-beta-d-glucosyl"'
p377
aS'monoamine oxidase  "4-hydroxyphenylacetaldehyde"'
p378
aS'monoamine oxidase  "ethanamine"'
p379
aS'monoamine oxidase  "5-oxoheptyl glucosinolate"'
p380
aS'monoamine oxidase  "beta-glucan"'
p381
aS'monoamine oxidase  "decanoate"'
p382
aS'monoamine oxidase  "disulfides"'
p383
aS'monoamine oxidase  "phosphoric acid"'
p384
aS'monoamine oxidase  "trans-1,10-heptadecadiene-5,7-diyn-3-ol"'
p385
aS'monoamine oxidase  "isothiocyanates"'
p386
aS'monoamine oxidase  "alternariol"'
p387
aS'monoamine oxidase  "rubidium"'
p388
aS'monoamine oxidase  "tin"'
p389
aS'monoamine oxidase  "1,3-diaminopropane"'
p390
aS'monoamine oxidase  "iron oxide"'
p391
aS'monoamine oxidase  "acidissiminol epoxide"'
p392
aS'monoamine oxidase  "phosphoglucomutase"'
p393
aS'monoamine oxidase  "artomunoxanthentrione epoxide"'
p394
aS'monoamine oxidase  "molybdenum"'
p395
aS'monoamine oxidase  "utp"'
p396
aS'monoamine oxidase  "butin"'
p397
aS'monoamine oxidase  "quercitrin"'
p398
aS'monoamine oxidase  "1-phenyl-1,3-hexadecanedione"'
p399
aS'monoamine oxidase  "chlorophyll"'
p400
aS'monoamine oxidase  "liquiritin"'
p401
aS'monoamine oxidase  "ascorbigen"'
p402
aS'monoamine oxidase  "phosphofructokinase"'
p403
aS'monoamine oxidase  "chlorogenic acid"'
p404
aS'monoamine oxidase  "ranupenin 3-rutinoside"'
p405
aS'monoamine oxidase  "propane-1,3-diamine"'
p406
aS'monoamine oxidase  "pentoses"'
p407
aS'monoamine oxidase  "mn2+"'
p408
aS'monoamine oxidase  "l-iditol"'
p409
aS'monoamine oxidase  "naringin 6\'\'-rhamnoside"'
p410
aS'monoamine oxidase  "pentane"'
p411
aS'monoamine oxidase  "apigenin 5-[4\'\'-rhamnosyl-6\'\'-acetylglucoside]"'
p412
aS'monoamine oxidase  "2,5-dimethylthiazole"'
p413
aS'monoamine oxidase  "isorhamnetin 3-rhamnosylgalactoside"'
p414
aS'monoamine oxidase  "thymidine"'
p415
aS'monoamine oxidase  "bisulfite"'
p416
aS'monoamine oxidase  "7alpha,16beta-17-trihydroxy"'
p417
aS'monoamine oxidase  "1-phenyl-1,3-heptadecanedione"'
p418
aS'monoamine oxidase  "myristate"'
p419
aS'monoamine oxidase  "hydroxycinnamic acid"'
p420
aS'monoamine oxidase  "11b-hydroxygibberellin a7"'
p421
aS'monoamine oxidase  "cinchonidine"'
p422
aS'monoamine oxidase  "kaempferol 3-o-rhamnodiglucoside"'
p423
aS'monoamine oxidase  "n-butanol"'
p424
aS'monoamine oxidase  "glutathione disulfide"'
p425
aS'monoamine oxidase  "pterostilbene"'
p426
aS'monoamine oxidase  "monoterpenes"'
p427
aS'monoamine oxidase  "vanillyl caproylamide"'
p428
aS'monoamine oxidase  "enterolactone"'
p429
aS'monoamine oxidase  "aromadendrin"'
p430
aS'monoamine oxidase  "soja hispidasaponin c"'
p431
aS'monoamine oxidase  "(9z)-12-oxo-dodec-9-enoate"'
p432
aS'monoamine oxidase  "2,3-dihydroxy-2,4-cyclopentadien-1-one"'
p433
aS'monoamine oxidase  "daidzin"'
p434
aS'monoamine oxidase  "1-(4-hydroxy-3-methoxyphenyl)-3,5-diacetoxyoctane"'
p435
aS'monoamine oxidase  "germacrene"'
p436
aS'monoamine oxidase  "naringin"'
p437
aS'monoamine oxidase  "kaempferol 3-o-glucosyl-rhamnosyl-galactoside"'
p438
aS'monoamine oxidase  "galactan"'
p439
aS'monoamine oxidase  "1,3,11(13)-eudesmatrien-12-oic acid"'
p440
aS'monoamine oxidase  "pelargonidin 3-beta-d-glucosyl-rutinoside"'
p441
aS'monoamine oxidase  "selenomethionine"'
p442
aS'monoamine oxidase  "octadecenoic acid"'
p443
aS'monoamine oxidase  "luteolin 7-disulfoglucoside"'
p444
aS'monoamine oxidase  "tryptophol"'
p445
aS'monoamine oxidase  "lactose"'
p446
aS'monoamine oxidase  "cyanidin 3-glucoside"'
p447
aS'monoamine oxidase  "protoporphyrin ix"'
p448
aS'monoamine oxidase  "5\'-deoxyadenosine"'
p449
aS'monoamine oxidase  "safrole"'
p450
aS'monoamine oxidase  "n-(2r-hydroxydocosanoyl)-2s-amino-1,3s,4r-octadecanetriol"'
p451
aS'monoamine oxidase  "latex"'
p452
aS'monoamine oxidase  "vitexin cinnamate"'
p453
aS'monoamine oxidase  "apigenin 7-o-(6\'\'-malonyl-apiosyl-glucoside)"'
p454
aS'monoamine oxidase  "trifolirhizin"'
p455
aS'monoamine oxidase  "s-methyl methanesulfinothioate"'
p456
aS'monoamine oxidase  "cytidine"'
p457
aS'monoamine oxidase  "1-phenyl-1,3-nonadecanedione"'
p458
aS'monoamine oxidase  "d-glucose"'
p459
aS'monoamine oxidase  "crassostrea secocarotenoid"'
p460
aS'monoamine oxidase  "sugars"'
p461
aS'monoamine oxidase  "hydroxytyrosol"'
p462
aS'monoamine oxidase  "kaempferol 3-glucosylxyloside"'
p463
aS'monoamine oxidase  "tricin 7-glucuronoside"'
p464
aS'monoamine oxidase  "biotin"'
p465
aS'monoamine oxidase  "hebevinoside xii"'
p466
aS'monoamine oxidase  "n-methylaniline"'
p467
aS'monoamine oxidase  "isorhamnetin 3-arabino-glucoside"'
p468
aS'monoamine oxidase  "fe3+"'
p469
aS'monoamine oxidase  "hebevinoside xiv"'
p470
aS'monoamine oxidase  "beta-galactosidase"'
p471
aS'monoamine oxidase  "allyl alcohol"'
p472
aS'monoamine oxidase  "2-hydroxyphenylacetic acid"'
p473
aS'monoamine oxidase  "harmalol"'
p474
aS'monoamine oxidase  "zn2+"'
p475
aS'monoamine oxidase  "anthranilate"'
p476
aS'monoamine oxidase  "2-aminoethanol"'
p477
aS'monoamine oxidase  "luteolin"'
p478
aS'monoamine oxidase  "epigallocatechin 3-(4-methylgallate)"'
p479
aS'monoamine oxidase  "5-(methylthio)-pentanonitrile"'
p480
aS'monoamine oxidase  "myo-inositol"'
p481
aS'monoamine oxidase  "fluorene"'
p482
aS'monoamine oxidase  "hydrogen sulfide (h2s)"'
p483
aS'monoamine oxidase  "strontium"'
p484
aS'monoamine oxidase  "(r)-11,12,13-trinor-1(5),6,9-guaiatrien-8-one"'
p485
aS'monoamine oxidase  "pyrazines"'
p486
aS'monoamine oxidase  "s-adenosyl-l-homocysteine"'
p487
aS'monoamine oxidase  "isoliquiritigenin"'
p488
aS'monoamine oxidase  "4-hydroxybenzoic acid"'
p489
aS'monoamine oxidase  "platinum"'
p490
aS'monoamine oxidase  "1-phenyl-1,3-octadecanedione"'
p491
aS'monoamine oxidase  "n-nitrosodimethylamine"'
p492
aS'monoamine oxidase  "thromboxane a2"'
p493
aS'monoamine oxidase  "2-methyl-3-(methylthio)furan"'
p494
aS'monoamine oxidase  "dihydromethysticin"'
p495
aS'monoamine oxidase  "7-epi-12-hydroxyjasmonic acid glucoside"'
p496
aS'monoamine oxidase  "ferulic acid"'
p497
aS'monoamine oxidase  "tetramethylpyrazine"'
p498
aS'monoamine oxidase  "kaempferol 3-gluco-xyloside"'
p499
aS'monoamine oxidase  "17alpha-ethynylestradiol"'
p500
aS'monoamine oxidase  "opc"'
p501
aS'monoamine oxidase  "anthocyanidins"'
p502
aS'monoamine oxidase  "2-phenylethanol"'
p503
aS'monoamine oxidase  "resin"'
p504
aS'monoamine oxidase  "silicic acid"'
p505
aS'monoamine oxidase  "hydrogen sulfite"'
p506
aS'monoamine oxidase  "2-propanol"'
p507
aS'monoamine oxidase  "(s)-salsolinol"'
p508
aS'monoamine oxidase  "s-methyl 2-propene-1-sulfinothioate"'
p509
aS'monoamine oxidase  "baicalein"'
p510
aS'monoamine oxidase  "ellagic acid 2-(6-glucosylglucoside)"'
p511
aS'monoamine oxidase  "hesperidin"'
p512
aS'monoamine oxidase  "rhein"'
p513
aS'monoamine oxidase  "n-acetylneuraminic acid"'
p514
aS'monoamine oxidase  "1-phenyl-1,3-docosanedione"'
p515
aS'monoamine oxidase  "gossypol"'
p516
aS'monoamine oxidase  "\xce\xb5,\xce\xb5-carotene-3-diol"'
p517
aS'monoamine oxidase  "8-hydroxy-2-methoxy-6-methyl-1,4-naphthoquinone"'
p518
aS'monoamine oxidase  "chlorohydrin"'
p519
aS'monoamine oxidase  "6-epi-7-isocucurbic acid glucoside"'
p520
aS'monoamine oxidase  "15-hete"'
p521
aS'monoamine oxidase  "guineensine"'
p522
aS'monoamine oxidase  "allantoin"'
p523
aS'monoamine oxidase  "oleic acid"'
p524
aS'monoamine oxidase  "xylitol"'
p525
aS'monoamine oxidase  "3-ethylfuran"'
p526
aS'monoamine oxidase  "thallium"'
p527
aS'monoamine oxidase  "3,3\'-digalloylprodelphinidin b1"'
p528
aS'monoamine oxidase  "acetylcholine(1+)"'
p529
aS'monoamine oxidase  "uricase"'
p530
aS'monoamine oxidase  "pelargonidin 3-o-\xce\xb2-d-p-coumaroylglucoside"'
p531
aS'monoamine oxidase  "propanoic acid"'
p532
aS'monoamine oxidase  "lignin"'
p533
aS'monoamine oxidase  "homoserine"'
p534
aS'monoamine oxidase  "rhapontin"'
p535
aS'monoamine oxidase  "cyclohexanol"'
p536
aS'monoamine oxidase  "crocetin"'
p537
aS'monoamine oxidase  "l-malic acid"'
p538
aS'monoamine oxidase  "8-c-ascorbylepigallocatechin 3-gallate"'
p539
aS'monoamine oxidase  "n-isobutyl-13-(3,4-methylenedioxyphenyl)-trideca-trans-2-trans-4-trans-12-trienamide"'
p540
aS'monoamine oxidase  "l-lysine"'
p541
aS'monoamine oxidase  "apigenin 5-[4\'\'-rhamnosylglucoside]"'
p542
aS'monoamine oxidase  "bergapten"'
p543
aS'monoamine oxidase  "titanium"'
p544
aS'monoamine oxidase  "cyanidin 3-rhamnosyl-glucosyl-glucoside"'
p545
aS'monoamine oxidase  "cyanidin 3-(feruloylxylosylglucosylgalactoside)"'
p546
aS'monoamine oxidase  "n-(2r-hydroxyhexacosanoyl)-2s-amino-1,3s,4r-octadecanetriol"'
p547
aS'monoamine oxidase  "ceramide"'
p548
aS'monoamine oxidase  "pc(14:0/24:0)"'
p549
aS'monoamine oxidase  "glycolipids"'
p550
aS'monoamine oxidase  "peroxiredoxin-(s-hydroxy-s-oxocysteine)"'
p551
aS'monoamine oxidase  "dehydroascorbic acid"'
p552
aS'monoamine oxidase  "3,6-dimethyl-7-oxo-octanoic acid ethyl ester"'
p553
aS'monoamine oxidase  "fisetin"'
p554
aS'monoamine oxidase  "rhapontigenin"'
p555
aS'monoamine oxidase  "glucobrassicin"'
p556
aS'monoamine oxidase  "3-oxododecanoic acid glycerides"'
p557
aS'monoamine oxidase  "hordenine"'
p558
aS'monoamine oxidase  "nitrogenase"'
p559
aS'monoamine oxidase  "geraniol"'
p560
aS'monoamine oxidase  "n,n-dimethylformamide"'
p561
aS'monoamine oxidase  "methylguanidine"'
p562
aS'monoamine oxidase  "tetrahydroharmol"'
p563
aS'monoamine oxidase  "biochanin-a"'
p564
aS'monoamine oxidase  "uranium"'
p565
aS'monoamine oxidase  "auraptene"'
p566
aS'monoamine oxidase  "4-hydroxyderricin"'
p567
aS'monoamine oxidase  "biochanin a"'
p568
aS'monoamine oxidase  "dodecanoic acid"'
p569
aS'monoamine oxidase  "theobromine"'
p570
aS'monoamine oxidase  "meso-2,2\'-iminobispropanoic acid"'
p571
aS'monoamine oxidase  "5\',5\'\'\'-diadenosine triphosphate"'
p572
aS'monoamine oxidase  "benzyl alcohol 6-o-l-arabinofuranosyl-beta-d-glucopyranoside"'
p573
aS'monoamine oxidase  "capsaicin"'
p574
aS'monoamine oxidase  "cis-2,5-diethyl-tetrahydrofuran"'
p575
aS'monoamine oxidase  "integrin"'
p576
aS'monoamine oxidase  "4-hydroxyferuloxyl methane"'
p577
aS'monoamine oxidase  "piperitenone"'
p578
aS'monoamine oxidase  "sinapoyl 8-d-galactosyl 6-c-arabinosyl-apigenin"'
p579
aS'monoamine oxidase  "isorhamnetin 3,7-beta-d-diglucoside"'
p580
aS'monoamine oxidase  "(9e)-valenciaxanthin"'
p581
aS'monoamine oxidase  "kaempferol 3-(2g-apiosylrobinobioside)"'
p582
aS'monoamine oxidase  "scopoletin"'
p583
aS'monoamine oxidase  "eremopetasitenin c2"'
p584
aS'monoamine oxidase  "benzophenone"'
p585
aS'monoamine oxidase  "cmp"'
p586
aS'monoamine oxidase  "formononetin 7-(6\'\'-methylmalonylglucoside)"'
p587
aS'monoamine oxidase  "sapogenins"'
p588
aS'monoamine oxidase  "toluidine"'
p589
aS'monoamine oxidase  "7\',8\'-dihydro-8\'-hydroxycitraniaxanthin"'
p590
aS'monoamine oxidase  "1-propanol"'
p591
aS'monoamine oxidase  "sanguinarine"'
p592
aS'monoamine oxidase  "ubiquinone 100"'
p593
aS'monoamine oxidase  "xanthoangelol"'
p594
aS'monoamine oxidase  "isopropyl benzoate"'
p595
aS'monoamine oxidase  "7-(4-hydroxy-3-methoxyphenyl)-5-methoxy-1-phenyl-3-heptanone"'
p596
aS'monoamine oxidase  "pyrazine"'
p597
aS'monoamine oxidase  "cyclo(glycylleucylvalylleucylprolylseryl)"'
p598
aS'monoamine oxidase  "liquiritigenin"'
p599
aS'monoamine oxidase  "s-methyl hexanethioate"'
p600
aS'monoamine oxidase  "methyl phenyl disulfide"'
p601
aS'monoamine oxidase  "dihydrokaempferol"'
p602
aS'monoamine oxidase  "kaempferol 3-rhamno-glucoside"'
p603
aS'monoamine oxidase  "kaempferol"'
p604
aS'monoamine oxidase  "2-aminoadipic acid"'
p605
aS'monoamine oxidase  "ubiquinone 10"'
p606
aS'monoamine oxidase  "3,4-dihydro-2,2,5,7,8-pentamethyl-2h-1-benzopyran-6-ol"'
p607
aS'monoamine oxidase  "sulfides"'
p608
aS'monoamine oxidase  "crotonyl-coa"'
p609
aS'monoamine oxidase  "thebaine"'
p610
aS'monoamine oxidase  "6-(gamma,gamma-dimethylallyl-amino)-purine"'
p611
aS'monoamine oxidase  "beta-methylthiopropionic acid ethyl ester"'
p612
aS'monoamine oxidase  "l-homocysteine"'
p613
aS'monoamine oxidase  "(s)-nicotine"'
p614
aS'monoamine oxidase  "lysophosphatidylserine"'
p615
aS'monoamine oxidase  "1-phenyl-1,3-eicosanedione"'
p616
aS'monoamine oxidase  "mevalonic acid"'
p617
aS'monoamine oxidase  "arsenic"'
p618
aS'monoamine oxidase  "cyclo(glycylglycylleucylleucylleucylprolylprolylphenylalanyl)"'
p619
aS'monoamine oxidase  "acetic acid hex-cis-3-enyl ester"'
p620
aS'monoamine oxidase  "amygdalin"'
p621
aS'monoamine oxidase  "isoquercitrin"'
p622
aS'monoamine oxidase  "pentylamine"'
p623
aS'monoamine oxidase  "aflatoxin b1"'
p624
aS'monoamine oxidase  "propene"'
p625
aS'monoamine oxidase  "cyanidin 3-o-alpha-l-galactoside"'
p626
aS'monoamine oxidase  "hyperforin"'
p627
aS'monoamine oxidase  "beta-sitosterol"'
p628
aS'monoamine oxidase  "6-prenylnaringenin"'
p629
aS'monoamine oxidase  "carvone"'
p630
aS'monoamine oxidase  "uracil"'
p631
aS'monoamine oxidase  "licorice glycoside d2"'
p632
aS'monoamine oxidase  "licorice glycoside d1"'
p633
aS'monoamine oxidase  "inulin"'
p634
aS'monoamine oxidase  "7-epizucchini factor a"'
p635
aS'monoamine oxidase  "octanoate"'
p636
aS'monoamine oxidase  "saturated fatty acids"'
p637
aS'monoamine oxidase  "cerebroside"'
p638
aS'monoamine oxidase  "cyanidin 3-(malonylxyloside)"'
p639
aS'monoamine oxidase  "n-(2r-hydroxypentacosanoyl)-2s-amino-1,3s,4r-octadecanetriol"'
p640
aS'monoamine oxidase  "2h-1-benzopyran-2-one"'
p641
aS'monoamine oxidase  "cyclopentanol"'
p642
aS'monoamine oxidase  "prostaglandin e-2"'
p643
aS'monoamine oxidase  "benzoic acid"'
p644
aS'monoamine oxidase  "calmodulin"'
p645
aS'monoamine oxidase  "procyanidin"'
p646
aS'monoamine oxidase  "gamma-guanidinobutyric acid"'
p647
aS'monoamine oxidase  "diethylamine"'
p648
aS'monoamine oxidase  "(-)-piperitenone oxide"'
p649
aS'monoamine oxidase  "sativoside b1"'
p650
aS'monoamine oxidase  "pentadecane"'
p651
aS'monoamine oxidase  "l-serine"'
p652
aS'monoamine oxidase  "3-methylamyl angelate"'
p653
aS'monoamine oxidase  "kaempferol 3-(2\'\'\'-caffeoylsophoroside) 7-cellobioside"'
p654
aS'monoamine oxidase  "cyanidin 3-(2-caffeoylglucosylrutinoside)"'
p655
aS'monoamine oxidase  "petunin"'
p656
aS'monoamine oxidase  "anthracene"'
p657
aS'monoamine oxidase  "lupeol"'
p658
aS'monoamine oxidase  "benzothiazole"'
p659
aS'monoamine oxidase  "lignan"'
p660
aS'monoamine oxidase  "gladiatoside b3"'
p661
aS'monoamine oxidase  "gladiatoside b1"'
p662
aS'monoamine oxidase  "amylose"'
p663
aS'monoamine oxidase  "kaempferol 7-arabinoside"'
p664
aS'monoamine oxidase  "pyrrolidine carboxylic acid"'
p665
aS'monoamine oxidase  "cholate"'
p666
aS'monoamine oxidase  "cytarabine"'
p667
aS'monoamine oxidase  "maclurin"'
p668
aS'monoamine oxidase  "carotenoids"'
p669
aS'monoamine oxidase  "\xce\xb2-alanine"'
p670
aS'monoamine oxidase  "ethanolamine"'
p671
aS'monoamine oxidase  "isoeugenol"'
p672
aS'monoamine oxidase  "tetrahydro-6-(2-hydroxy-16,19-dimethylhexacosyl)-4-methyl-2h-pyran-2-one"'
p673
aS'monoamine oxidase  "variacin"'
p674
aS'monoamine oxidase  "methyl 7-epi-12-hydroxyjasmonate glucoside"'
p675
aS'monoamine oxidase  "tocopherols"'
p676
aS'monoamine oxidase  "dihydroxyacetone phosphate"'
p677
aS'monoamine oxidase  "cerium"'
p678
aS'monoamine oxidase  "vitexin"'
p679
aS'monoamine oxidase  "trans-p-menthane-1,8-diol"'
p680
aS'monoamine oxidase  "elemicin"'
p681
aS'monoamine oxidase  "cesium"'
p682
aS'monoamine oxidase  "propyl propionate"'
p683
aS'monoamine oxidase  "1-phenylethanol"'
p684
aS'monoamine oxidase  "indole-3-acetamide"'
p685
aS'monoamine oxidase  "elaidic acid"'
p686
aS'monoamine oxidase  "cyanidin 3-feruloylglucoside"'
p687
aS'monoamine oxidase  "3alpha,15-dihydroxymarasmene"'
p688
aS'monoamine oxidase  "cyclo(alanylalanylglycylleucylprolyltryptophylleucylisoleucyl)"'
p689
aS'monoamine oxidase  "yangonin"'
p690
aS'monoamine oxidase  "1,4-naphtoquinone"'
p691
aS'monoamine oxidase  "retinol"'
p692
aS'monoamine oxidase  "vitexin 2\'\'-xyloside"'
p693
aS'monoamine oxidase  "shikimic acid"'
p694
aS'monoamine oxidase  "cyanidin 3-o-(6\'\'-acetyl-arabinoside)"'
p695
aS'monoamine oxidase  "hydroquinone"'
p696
aS'monoamine oxidase  "isoliquiritin"'
p697
aS'monoamine oxidase  "dimethylamine"'
p698
aS'monoamine oxidase  "benzoxazole"'
p699
aS'monoamine oxidase  "globulol"'
p700
aS'monoamine oxidase  "hebevinoside xiii"'
p701
aS'monoamine oxidase  "alkanes"'
p702
aS'monoamine oxidase  "glabrene"'
p703
aS'monoamine oxidase  "chrysoeriol"'
p704
aS'monoamine oxidase  "harmalan"'
p705
aS'monoamine oxidase  "phosphoribosyl formamidocarboxamide"'
p706
aS'monoamine oxidase  "[6]-shogaol"'
p707
aS'monoamine oxidase  "malonyl coa"'
p708
aS'monoamine oxidase  "trigonelline"'
p709
aS'monoamine oxidase  "turmerone"'
p710
aS'monoamine oxidase  "aminoacetone"'
p711
aS'monoamine oxidase  "spathulenol"'
p712
aS'monoamine oxidase  "s-methyl 4-methylpentanethioate"'
p713
aS'monoamine oxidase  "5-megastigmen-7-yne-3,9-diol"'
p714
aS'monoamine oxidase  "ent-epigallocatechin 3-gallate"'
p715
aS'monoamine oxidase  "(24s)-24-methyl-25-dehydrocholesterol"'
p716
aS'monoamine oxidase  "gallic acid"'
p717
aS'monoamine oxidase  "ellagic acid"'
p718
aS'monoamine oxidase  "1-(3-aminopropyl)-pyrrolinium"'
p719
aS'monoamine oxidase  "licorice glycoside a"'
p720
aS'monoamine oxidase  "5-octyl-cyclopenta-1,3-dione"'
p721
aS'monoamine oxidase  "amino adipic acid"'
p722
aS'monoamine oxidase  "octane"'
p723
aS'monoamine oxidase  "glyoxylic acid"'
p724
aS'monoamine oxidase  "lysophosphatidylethanolamine"'
p725
aS'monoamine oxidase  "2,4-dinitrophenylhydrazone"'
p726
aS'monoamine oxidase  "punigluconin"'
p727
aS'monoamine oxidase  "7\',8\'-dihydro-8\'-hydroxyreticulataxanthin"'
p728
aS'monoamine oxidase  "kaempferol 3-(3r-glucosylrutinoside)"'
p729
aS'monoamine oxidase  "diaminopropane"'
p730
aS'monoamine oxidase  "uridine"'
p731
aS'monoamine oxidase  "4-hydroxy-3,5,5-trimethylcyclohexan-1-on-2-ene"'
p732
a.