(lp0
S'statin "1-propenyl-2-hydroxy-5-methoxybenzene-2-(2-methylbutyrate)"'
p1
aS'statin "5-\xce\xb2-pregnan-3,20 dione"'
p2
aS'statin "epigallocatechin 3-(3-methylgallate)"'
p3
aS'statin "psoralen"'
p4
aS'statin "kaempferol 3-o-alpha-l-rhamnoside-beta-d-glucosyl"'
p5
aS'statin "l-lactic acid"'
p6
aS'statin "ethanamine"'
p7
aS'statin "prostaglandin f-1-alpha"'
p8
aS'statin "beta-glucan"'
p9
aS'statin "pc(22:0/p-16:0)"'
p10
aS'statin "trans-1,10-heptadecadiene-5,7-diyn-3-ol"'
p11
aS'statin "isothiocyanates"'
p12
aS'statin "alternariol"'
p13
aS'statin "rubidium"'
p14
aS'statin "thial-1-propene-1-thiol s-oxide"'
p15
aS'statin "cytokinin b"'
p16
aS'statin "molybdenum"'
p17
aS'statin "utp"'
p18
aS'statin "p-coumaric acid"'
p19
aS'statin "3\',4\',5\',7,8-pentamethoxyflavan"'
p20
aS'statin "quercitrin"'
p21
aS'statin "chlorophyll"'
p22
aS'statin "pipernonaline"'
p23
aS'statin "phosphofructokinase"'
p24
aS'statin "(+)-secoisolariciresinol"'
p25
aS'statin "aniline"'
p26
aS'statin "chlorogenic acid"'
p27
aS'statin "bupropion"'
p28
aS'statin "lucidenic acid i"'
p29
aS'statin "lucidenic acid j"'
p30
aS'statin "[10]-dehydrogingerdione"'
p31
aS'statin "formaldehyde"'
p32
aS'statin "bixin aldehyde"'
p33
aS'statin "(all-e)-6\'-apo-y-caroten-6\'-al"'
p34
aS'statin "mn2+"'
p35
aS'statin "apigenin 5-[4\'\'-rhamnosyl-6\'\'-acetylglucoside]"'
p36
aS'statin "2,5-dimethylthiazole"'
p37
aS'statin "leukotriene-c4"'
p38
aS'statin "docusate sodium"'
p39
aS'statin "bisulfite"'
p40
aS'statin "laurate"'
p41
aS'statin "chloroform"'
p42
aS'statin "hex-cis-3-en-1-ol hexanoate"'
p43
aS'statin "hydroxycinnamic acid"'
p44
aS'statin "11b-hydroxygibberellin a7"'
p45
aS'statin "kaempferol 3-o-rhamnodiglucoside"'
p46
aS'statin "2(or 3)-methylindole"'
p47
aS'statin "n-butanol"'
p48
aS'statin "glutathione disulfide"'
p49
aS'statin "sulforaphane"'
p50
aS'statin "pterostilbene"'
p51
aS'statin "ajoene"'
p52
aS'statin "pyridoxal"'
p53
aS'statin "(3beta,5alpha)-3-hydroxypregn-16-en-20-one"'
p54
aS'statin "vanillyl caproylamide"'
p55
aS'statin "enterolactone"'
p56
aS'statin "soja hispidasaponin c"'
p57
aS'statin "2,3-dihydroxy-2,4-cyclopentadien-1-one"'
p58
aS'statin "pyrroline"'
p59
aS'statin "isodulcitol"'
p60
aS'statin "daidzin"'
p61
aS'statin "kaempferol 3-o-glucosyl-rhamnosyl-galactoside"'
p62
aS'statin "styrene"'
p63
aS'statin "2,3-dihydroxy-2-methylbutanoic acid"'
p64
aS'statin "tantalum"'
p65
aS'statin "luteolin 7-disulfoglucoside"'
p66
aS'statin "beta-cryptoxanthin"'
p67
aS'statin "zymosterol"'
p68
aS'statin "ethyl icosapentate"'
p69
aS'statin "cyanidin 3-glucoside"'
p70
aS'statin "protoporphyrin ix"'
p71
aS'statin "2-c-hydroxymethyl-d-erythrono-1,4-lactone"'
p72
aS'statin "methylether"'
p73
aS'statin "n-(2r-hydroxydocosanoyl)-2s-amino-1,3s,4r-octadecanetriol"'
p74
aS'statin "formate"'
p75
aS'statin "pentadecanoic acid"'
p76
aS'statin "phloroacetophenone"'
p77
aS'statin "glutaric acid"'
p78
aS'statin "cincassiol d4"'
p79
aS'statin "latex"'
p80
aS'statin "n-butyl acetate"'
p81
aS'statin "ethyl carbamate"'
p82
aS'statin "behenate"'
p83
aS'statin "hydrogen carbonate"'
p84
aS'statin "nerol"'
p85
aS'statin "dcmp"'
p86
aS'statin "peonidin 3-rhamnosyl-glucosyl-glucoside"'
p87
aS'statin "s-methyl methanesulfinothioate"'
p88
aS'statin "cytidine"'
p89
aS'statin "hydroxytyrosol"'
p90
aS'statin "kaempferol 3-glucosylxyloside"'
p91
aS'statin "polyisoprene"'
p92
aS'statin "pentosan polysulfate"'
p93
aS'statin "hebevinoside xii"'
p94
aS'statin "4\',5,6,7,8-pentahydroxy-3\'-methoxyflavone"'
p95
aS'statin "hebevinoside xiv"'
p96
aS'statin "allyl alcohol"'
p97
aS'statin "zn2+"'
p98
aS'statin "anthranilate"'
p99
aS'statin "citrullin"'
p100
aS'statin "(2r)-1-o-beta-d-galactopyranosylglycerol"'
p101
aS'statin "luteolin"'
p102
aS'statin "epigallocatechin 3-(4-methylgallate)"'
p103
aS'statin "cis-lutein-5,6-epoxide"'
p104
aS'statin "5-(methylthio)-pentanonitrile"'
p105
aS'statin "myo-inositol"'
p106
aS'statin "2\',4\',5,7-tetrahydroxy-8-prenylisoflavone"'
p107
aS'statin "p-menthan-trans-2,5-diol"'
p108
aS'statin "hydrogen sulfide (h2s)"'
p109
aS'statin "orotate"'
p110
aS'statin "strontium"'
p111
aS'statin "2-cis,4-trans-xanthoxin"'
p112
aS'statin "4-hydroxybenzoic acid"'
p113
aS'statin "platinum"'
p114
aS'statin "1-undecanol"'
p115
aS'statin "zymostenol"'
p116
aS'statin "peonidin"'
p117
aS'statin "cycloartenol"'
p118
aS'statin "(-)-quinic acid"'
p119
aS'statin "punicalagin"'
p120
aS'statin "\xce\xb2-cryptoxanthin"'
p121
aS'statin "ferulic acid"'
p122
aS'statin "olomoucine"'
p123
aS'statin "2h-1,4-benzoxazin-3(4h)-one"'
p124
aS'statin "kaempferol 3-gluco-xyloside"'
p125
aS'statin "17alpha-ethynylestradiol"'
p126
aS'statin "opc"'
p127
aS'statin "3\'\',4\'\'-diacetylafzelin"'
p128
aS'statin "6,7-dimethyoxy coumarin"'
p129
aS'statin "hypoxanthine"'
p130
aS'statin "2-propanol"'
p131
aS'statin "intermedine"'
p132
aS'statin "s-methyl 2-propene-1-sulfinothioate"'
p133
aS'statin "beta-amyrin"'
p134
aS'statin "hesperidin"'
p135
aS'statin "rhein"'
p136
aS'statin "n-acetylneuraminic acid"'
p137
aS'statin "benzylamine"'
p138
aS'statin "chlorohydrin"'
p139
aS'statin "nobiletin"'
p140
aS'statin "allantoin"'
p141
aS'statin "hexadecane"'
p142
aS'statin "cyanide"'
p143
aS'statin "d-glucitol"'
p144
aS'statin "acetylcholine(1+)"'
p145
aS'statin "hexacosanoic acid"'
p146
aS'statin "betulin"'
p147
aS'statin "\xce\xb1-linolenate"'
p148
aS'statin "capsidiol"'
p149
aS'statin "hydroxysintaxanthin 5,6-epoxide"'
p150
aS'statin "uricase"'
p151
aS'statin "gibberellin a34-catabolite"'
p152
aS'statin "1,3-dimethylpyrrolo[1,2-a]pyrazine"'
p153
aS'statin "stearoyl-coa"'
p154
aS'statin "2\',3,4\',5-tetrahydroxy-4-prenylstilbene"'
p155
aS'statin "lignin"'
p156
aS'statin "fluorine"'
p157
aS'statin "cyclohexanol"'
p158
aS'statin "linalool"'
p159
aS'statin "8-c-ascorbylepigallocatechin 3-gallate"'
p160
aS'statin "chitinase"'
p161
aS'statin "dihydrobenzofuran"'
p162
aS'statin "wax"'
p163
aS'statin "l-lysine"'
p164
aS'statin "apigenin 5-[4\'\'-rhamnosylglucoside]"'
p165
aS'statin "bergapten"'
p166
aS'statin "cyanidin 3-rhamnosyl-glucosyl-glucoside"'
p167
aS'statin "cyanidin 3-(feruloylxylosylglucosylgalactoside)"'
p168
aS'statin "delta-7,8-octadecanoic acid"'
p169
aS'statin "n-(2r-hydroxyhexacosanoyl)-2s-amino-1,3s,4r-octadecanetriol"'
p170
aS'statin "purine"'
p171
aS'statin "glycolipids"'
p172
aS'statin "peroxiredoxin-(s-hydroxy-s-oxocysteine)"'
p173
aS'statin "beta-amyrin acetate"'
p174
aS'statin "phosphatidylethanolamine"'
p175
aS'statin "caprolactam"'
p176
aS'statin "dehydroascorbic acid"'
p177
aS'statin "guanidine"'
p178
aS'statin "d-xylulose 5-phosphate"'
p179
aS'statin "fisetin"'
p180
aS'statin "oleuropein"'
p181
aS'statin "tuberin"'
p182
aS'statin "5-hete"'
p183
aS'statin "beta-phenylethanol 6-beta-d-arabinofuranosyl-beta-d-glucopyranoside"'
p184
aS'statin "(5alpha,14alpha)-14-methylcholestan-3-one"'
p185
aS'statin "4\'-phosphopantetheine"'
p186
aS'statin "zein"'
p187
aS'statin "ochratoxin a"'
p188
aS'statin "mannan"'
p189
aS'statin "propyl gallate"'
p190
aS'statin "methacrylic acid"'
p191
aS'statin "(+)-sesamin"'
p192
aS'statin "4-propan-2-ol-2-yl toluene"'
p193
aS'statin "cotinine"'
p194
aS'statin "piperine"'
p195
aS'statin "palmitoleic acid"'
p196
aS'statin "gamma-l-glutamyl-s-(2-carboxy-beta-methyl-ethyl)-cysteinyl-glycine"'
p197
aS'statin "capsaicin"'
p198
aS'statin "pc(16:0/p-16:0)"'
p199
aS'statin "delta-sitosterol"'
p200
aS'statin "4-hydroxyferuloxyl methane"'
p201
aS'statin "kaempferol 3-(2g-apiosylrobinobioside)"'
p202
aS'statin "4-(3-hydroxy-7-phenyl-6-heptenyl)-1,2-benzenediol"'
p203
aS'statin "benzophenone"'
p204
aS'statin "cmp"'
p205
aS'statin "fumaric acid"'
p206
aS'statin "gliadin"'
p207
aS'statin "(s)-argpyrimidine"'
p208
aS'statin "d-galactose"'
p209
aS'statin "coproporphyrin iii"'
p210
aS'statin "toluidine"'
p211
aS'statin "1-propanol"'
p212
aS'statin "isopropyl benzoate"'
p213
aS'statin "pyrazine"'
p214
a.