(lp0
S'monoamine oxidase inhibitor "avocado"'
p1
aS'monoamine oxidase inhibitor "fig"'
p2
aS'monoamine oxidase inhibitor "cichlidae (tilapia)"'
p3
aS'monoamine oxidase inhibitor "miso"'
p4
aS'monoamine oxidase inhibitor "whitefish"'
p5
aS'monoamine oxidase inhibitor "poppy"'
p6
aS'monoamine oxidase inhibitor "channel catfish"'
p7
aS'monoamine oxidase inhibitor "kale"'
p8
aS'monoamine oxidase inhibitor "fennel"'
p9
aS'monoamine oxidase inhibitor "alfalfa"'
p10
aS'monoamine oxidase inhibitor "ringed seal"'
p11
aS'monoamine oxidase inhibitor "chicory"'
p12
aS'monoamine oxidase inhibitor "sherry"'
p13
aS'monoamine oxidase inhibitor "snapper"'
p14
aS'monoamine oxidase inhibitor "red algae"'
p15
aS'monoamine oxidase inhibitor "common grape"'
p16
aS'monoamine oxidase inhibitor "rainbow trout"'
p17
aS'monoamine oxidase inhibitor "other fish product"'
p18
aS'monoamine oxidase inhibitor "liquor"'
p19
aS'monoamine oxidase inhibitor "almond"'
p20
aS'monoamine oxidase inhibitor "ginger"'
p21
aS'monoamine oxidase inhibitor "lettuce"'
p22
aS'monoamine oxidase inhibitor "chum salmon"'
p23
aS'monoamine oxidase inhibitor "spinach"'
p24
aS'monoamine oxidase inhibitor "amaranth"'
p25
aS'monoamine oxidase inhibitor "leek"'
p26
aS'monoamine oxidase inhibitor "corn"'
p27
aS'monoamine oxidase inhibitor "opium poppy"'
p28
aS'monoamine oxidase inhibitor "other bread"'
p29
aS'monoamine oxidase inhibitor "tofu"'
p30
aS'monoamine oxidase inhibitor "oat"'
p31
aS'monoamine oxidase inhibitor "tunicate"'
p32
aS'monoamine oxidase inhibitor "banana"'
p33
aS'monoamine oxidase inhibitor "pizza"'
p34
aS'monoamine oxidase inhibitor "mushrooms"'
p35
aS'monoamine oxidase inhibitor "mustard"'
p36
aS'monoamine oxidase inhibitor "cabbage"'
p37
aS'monoamine oxidase inhibitor "milk (other mammals)"'
p38
aS'monoamine oxidase inhibitor "ginseng"'
p39
aS'monoamine oxidase inhibitor "deer"'
p40
aS'monoamine oxidase inhibitor "chewing gum"'
p41
aS'monoamine oxidase inhibitor "casein"'
p42
aS'monoamine oxidase inhibitor "horse"'
p43
aS'monoamine oxidase inhibitor "pate"'
p44
aS'monoamine oxidase inhibitor "anise"'
p45
aS'monoamine oxidase inhibitor "soy bean"'
p46
aS'monoamine oxidase inhibitor "hamburger"'
p47
aS'monoamine oxidase inhibitor "turmeric"'
p48
aS'monoamine oxidase inhibitor "canola"'
p49
aS'monoamine oxidase inhibitor "squid"'
p50
aS'monoamine oxidase inhibitor "quail"'
p51
aS'monoamine oxidase inhibitor "wheat"'
p52
aS'monoamine oxidase inhibitor "skipjack tuna"'
p53
aS'monoamine oxidase inhibitor "other fruit product"'
p54
aS'monoamine oxidase inhibitor "nutmeg"'
p55
aS'monoamine oxidase inhibitor "wakame"'
p56
aS'monoamine oxidase inhibitor "liquorice"'
p57
aS'monoamine oxidase inhibitor "yam"'
p58
aS'monoamine oxidase inhibitor "popcorn"'
p59
aS'monoamine oxidase inhibitor "cocktail"'
p60
aS'monoamine oxidase inhibitor "vinegar"'
p61
aS'monoamine oxidase inhibitor "garlic"'
p62
aS'monoamine oxidase inhibitor "borage"'
p63
aS'monoamine oxidase inhibitor "allium (onion)"'
p64
aS'monoamine oxidase inhibitor "shrimp"'
p65
aS'monoamine oxidase inhibitor "milk and milk products"'
p66
aS'monoamine oxidase inhibitor "whiting"'
p67
aS'monoamine oxidase inhibitor "marine mussel"'
p68
aS'monoamine oxidase inhibitor "radish"'
p69
aS'monoamine oxidase inhibitor "lime"'
p70
aS'monoamine oxidase inhibitor "sausage"'
p71
aS'monoamine oxidase inhibitor "saffron"'
p72
aS'monoamine oxidase inhibitor "crab"'
p73
aS'monoamine oxidase inhibitor "pineappple sage"'
p74
aS'monoamine oxidase inhibitor "pomegranate"'
p75
aS'monoamine oxidase inhibitor "dock"'
p76
aS'monoamine oxidase inhibitor "spirit"'
p77
aS'monoamine oxidase inhibitor "cauliflower"'
p78
aS'monoamine oxidase inhibitor "soy sauce"'
p79
aS'monoamine oxidase inhibitor "sesame"'
p80
aS'monoamine oxidase inhibitor "strawberry"'
p81
aS'monoamine oxidase inhibitor "coffee mocha"'
p82
aS'monoamine oxidase inhibitor "rosemary"'
p83
aS'monoamine oxidase inhibitor "star anise"'
p84
aS'monoamine oxidase inhibitor "teff"'
p85
aS'monoamine oxidase inhibitor "scallop"'
p86
aS'monoamine oxidase inhibitor "dandelion"'
p87
aS'monoamine oxidase inhibitor "spearmint"'
p88
aS'monoamine oxidase inhibitor "atlantic croaker"'
p89
aS'monoamine oxidase inhibitor "crayfish"'
p90
aS'monoamine oxidase inhibitor "grouper"'
p91
aS'monoamine oxidase inhibitor "pectin"'
p92
aS'monoamine oxidase inhibitor "port wine"'
p93
aS'monoamine oxidase inhibitor "flour"'
p94
aS'monoamine oxidase inhibitor "other meat product"'
p95
aS'monoamine oxidase inhibitor "shallot"'
p96
aS'monoamine oxidase inhibitor "syrup"'
p97
aS'monoamine oxidase inhibitor "cucumber"'
p98
aS'monoamine oxidase inhibitor "anguilliformes (eel)"'
p99
aS'monoamine oxidase inhibitor "milk substitute"'
p100
aS'monoamine oxidase inhibitor "vanilla"'
p101
aS'monoamine oxidase inhibitor "berry wine"'
p102
aS'monoamine oxidase inhibitor "butter"'
p103
aS'monoamine oxidase inhibitor "evening primrose"'
p104
aS'monoamine oxidase inhibitor "mentha (mint)"'
p105
aS'monoamine oxidase inhibitor "fenugreek"'
p106
aS'monoamine oxidase inhibitor "bean"'
p107
aS'monoamine oxidase inhibitor "whisky"'
p108
aS'monoamine oxidase inhibitor "nance"'
p109
aS'monoamine oxidase inhibitor "cumin"'
p110
aS'monoamine oxidase inhibitor "milk (human)"'
p111
aS'monoamine oxidase inhibitor "mallard duck"'
p112
aS'monoamine oxidase inhibitor "millet"'
p113
aS'monoamine oxidase inhibitor "nuts"'
p114
aS'monoamine oxidase inhibitor "chia"'
p115
aS'monoamine oxidase inhibitor "chestnut"'
p116
aS'monoamine oxidase inhibitor "chocolate"'
p117
aS'monoamine oxidase inhibitor "cocoa and cocoa products"'
p118
aS'monoamine oxidase inhibitor "pheasant"'
p119
aS'monoamine oxidase inhibitor "soft-necked garlic"'
p120
aS'monoamine oxidase inhibitor "honey"'
p121
aS'monoamine oxidase inhibitor "peanut"'
p122
aS'monoamine oxidase inhibitor "walnut"'
p123
aS'monoamine oxidase inhibitor "grapefruit"'
p124
aS'monoamine oxidase inhibitor "catfish"'
p125
aS'monoamine oxidase inhibitor "citrus"'
p126
aS'monoamine oxidase inhibitor "atlantic salmon"'
p127
aS'monoamine oxidase inhibitor "black bear"'
p128
aS'monoamine oxidase inhibitor "roe"'
p129
aS'monoamine oxidase inhibitor "sturgeon"'
p130
aS'monoamine oxidase inhibitor "rape"'
p131
aS'monoamine oxidase inhibitor "angelica"'
p132
aS'monoamine oxidase inhibitor "grape"'
p133
aS'monoamine oxidase inhibitor "natto"'
p134
aS'monoamine oxidase inhibitor "pollock"'
p135
aS'monoamine oxidase inhibitor "barley"'
p136
aS'monoamine oxidase inhibitor "sauce"'
p137
aS'monoamine oxidase inhibitor "crustaceans"'
p138
aS'monoamine oxidase inhibitor "broad bean"'
p139
aS'monoamine oxidase inhibitor "mollusks"'
p140
aS'monoamine oxidase inhibitor "asparagus"'
p141
aS'monoamine oxidase inhibitor "coffee and coffee products"'
p142
aS'monoamine oxidase inhibitor "other candy"'
p143
aS'monoamine oxidase inhibitor "gelatin"'
p144
aS'monoamine oxidase inhibitor "tamarind"'
p145
aS'monoamine oxidase inhibitor "cream"'
p146
aS'monoamine oxidase inhibitor "rye"'
p147
aS'monoamine oxidase inhibitor "kelp"'
p148
aS'monoamine oxidase inhibitor "loquat"'
p149
aS'monoamine oxidase inhibitor "other vegetable product"'
p150
aS'monoamine oxidase inhibitor "pot marjoram"'
p151
aS'monoamine oxidase inhibitor "vitis vinifera"'
p152
aS'monoamine oxidase inhibitor "morus"'
p153
aS'monoamine oxidase inhibitor "vaccinium deliciosum"'
p154
aS'monoamine oxidase inhibitor "bivalvia"'
p155
aS'monoamine oxidase inhibitor "nelumbo"'
p156
aS'monoamine oxidase inhibitor "nelumbo nucifera"'
p157
aS'monoamine oxidase inhibitor "opuntia"'
p158
aS'monoamine oxidase inhibitor "bubalus bubalis"'
p159
aS'monoamine oxidase inhibitor "apium graveolens"'
p160
aS'monoamine oxidase inhibitor "cyprinus carpio"'
p161
aS'monoamine oxidase inhibitor "phytolacca americana"'
p162
aS'monoamine oxidase inhibitor "allium"'
p163
aS'monoamine oxidase inhibitor "ictalurus punctatus"'
p164
aS'monoamine oxidase inhibitor "gossypium"'
p165
aS'monoamine oxidase inhibitor "perciformes"'
p166
aS'monoamine oxidase inhibitor "columba"'
p167
aS'monoamine oxidase inhibitor "spinacia oleracea"'
p168
aS'monoamine oxidase inhibitor "vitis"'
p169
aS'monoamine oxidase inhibitor "cucumis sativus"'
p170
aS'monoamine oxidase inhibitor "oncorhynchus keta"'
p171
aS'monoamine oxidase inhibitor "lathyrus sativus"'
p172
aS'monoamine oxidase inhibitor "allium sativum"'
p173
aS'monoamine oxidase inhibitor "raphanus sativus"'
p174
aS'monoamine oxidase inhibitor "daucus carota"'
p175
aS'monoamine oxidase inhibitor "oncorhynchus mykiss"'
p176
aS'monoamine oxidase inhibitor "zea mays"'
p177
aS'monoamine oxidase inhibitor "crassostrea gigas"'
p178
aS'monoamine oxidase inhibitor "crocus sativus"'
p179
aS'monoamine oxidase inhibitor "gadus"'
p180
aS'monoamine oxidase inhibitor "sciuridae"'
p181
aS'monoamine oxidase inhibitor "ranidae"'
p182
aS'monoamine oxidase inhibitor "esox lucius"'
p183
aS'monoamine oxidase inhibitor "myristica fragrans"'
p184
aS'monoamine oxidase inhibitor "ursus americanus"'
p185
aS'monoamine oxidase inhibitor "glycine max"'
p186
aS'monoamine oxidase inhibitor "borago officinalis"'
p187
aS'monoamine oxidase inhibitor "curcuma longa"'
p188
aS'monoamine oxidase inhibitor "undaria pinnatifida"'
p189
aS'monoamine oxidase inhibitor "sambucus"'
p190
aS'monoamine oxidase inhibitor "oncorhynchus"'
p191
aS'monoamine oxidase inhibitor "pinus"'
p192
aS'monoamine oxidase inhibitor "coregonus"'
p193
aS'monoamine oxidase inhibitor "punica granatum"'
p194
aS'monoamine oxidase inhibitor "allium cepa"'
p195
aS'monoamine oxidase inhibitor "brassica rapa"'
p196
aS'monoamine oxidase inhibitor "moringa oleifera"'
p197
aS'monoamine oxidase inhibitor "brachyura"'
p198
aS'monoamine oxidase inhibitor "pectinidae"'
p199
aS'monoamine oxidase inhibitor "vanilla"'
p200
aS'monoamine oxidase inhibitor "lens culinaris"'
p201
aS'monoamine oxidase inhibitor "anguilla"'
p202
aS'monoamine oxidase inhibitor "hibiscus sabbariffa"'
p203
aS'monoamine oxidase inhibitor "piper nigrum"'
p204
aS'monoamine oxidase inhibitor "melissa officinalis"'
p205
aS'monoamine oxidase inhibitor "trigonella foenum-graecum"'
p206
aS'monoamine oxidase inhibitor "diospyros"'
p207
aS'monoamine oxidase inhibitor "mentha x piperita"'
p208
aS'monoamine oxidase inhibitor "salmo salar"'
p209
aS'monoamine oxidase inhibitor "mentha"'
p210
aS'monoamine oxidase inhibitor "ovis aries"'
p211
aS'monoamine oxidase inhibitor "gastropoda"'
p212
aS'monoamine oxidase inhibitor "papaver"'
p213
aS'monoamine oxidase inhibitor "salmonidae"'
p214
aS'monoamine oxidase inhibitor "zingiber officinale"'
p215
aS'monoamine oxidase inhibitor "prunus"'
p216
aS'monoamine oxidase inhibitor "epinephelus"'
p217
aS'monoamine oxidase inhibitor "pisum sativum"'
p218
aS'monoamine oxidase inhibitor "panax"'
p219
aS'monoamine oxidase inhibitor "prunus dulcis"'
p220
aS'monoamine oxidase inhibitor "coffea"'
p221
aS'monoamine oxidase inhibitor "sambucus nigra"'
p222
aS'monoamine oxidase inhibitor "capsicum"'
p223
aS'monoamine oxidase inhibitor "mytilus edulis"'
p224
aS'monoamine oxidase inhibitor "phaseolus vulgaris"'
p225
aS'monoamine oxidase inhibitor "triticum"'
p226
aS'monoamine oxidase inhibitor "rosmarinus officinalis"'
p227
aS'monoamine oxidase inhibitor "gadus morhua"'
p228
aS'monoamine oxidase inhibitor "sus scrofa"'
p229
aS'monoamine oxidase inhibitor "camellia sinensis"'
p230
aS'monoamine oxidase inhibitor "bos taurus"'
p231
aS'monoamine oxidase inhibitor "juglans"'
p232
aS'monoamine oxidase inhibitor "katsuwonus pelamis"'
p233
aS'monoamine oxidase inhibitor "angelica keiskei"'
p234
aS'monoamine oxidase inhibitor "anas platyrhynchos"'
p235
aS'monoamine oxidase inhibitor "mentha aquatica"'
p236
aS'monoamine oxidase inhibitor "taraxacum officinale"'
p237
aS'monoamine oxidase inhibitor "morus"'
p238
aS'monoamine oxidase inhibitor "bivalvia"'
p239
aS'monoamine oxidase inhibitor "nelumbo"'
p240
aS'monoamine oxidase inhibitor "opuntia"'
p241
aS'monoamine oxidase inhibitor "c. carpio"'
p242
aS'monoamine oxidase inhibitor "w. japonica"'
p243
aS'monoamine oxidase inhibitor "allium"'
p244
aS'monoamine oxidase inhibitor "gossypium"'
p245
aS'monoamine oxidase inhibitor "perciformes"'
p246
aS'monoamine oxidase inhibitor "columba"'
p247
aS'monoamine oxidase inhibitor "f. x"'
p248
aS'monoamine oxidase inhibitor "vitis"'
p249
aS'monoamine oxidase inhibitor "a. fimbria"'
p250
aS'monoamine oxidase inhibitor "gadus"'
p251
aS'monoamine oxidase inhibitor "s. nigra"'
p252
aS'monoamine oxidase inhibitor "sciuridae"'
p253
aS'monoamine oxidase inhibitor "ranidae"'
p254
aS'monoamine oxidase inhibitor "e. lucius"'
p255
aS'monoamine oxidase inhibitor "mentha"'
p256
aS'monoamine oxidase inhibitor "s. officinalis"'
p257
aS'monoamine oxidase inhibitor "sambucus"'
p258
aS'monoamine oxidase inhibitor "oncorhynchus"'
p259
aS'monoamine oxidase inhibitor "pinus"'
p260
aS'monoamine oxidase inhibitor "coregonus"'
p261
aS'monoamine oxidase inhibitor "m. oleifera"'
p262
aS'monoamine oxidase inhibitor "brachyura"'
p263
aS'monoamine oxidase inhibitor "vanilla"'
p264
aS'monoamine oxidase inhibitor "anguilla"'
p265
aS'monoamine oxidase inhibitor "diospyros"'
p266
aS'monoamine oxidase inhibitor "m. x"'
p267
aS'monoamine oxidase inhibitor "pectinidae"'
p268
aS'monoamine oxidase inhibitor "gastropoda"'
p269
aS'monoamine oxidase inhibitor "a. keiskei"'
p270
aS'monoamine oxidase inhibitor "papaver"'
p271
aS'monoamine oxidase inhibitor "salmonidae"'
p272
aS'monoamine oxidase inhibitor "prunus"'
p273
aS'monoamine oxidase inhibitor "epinephelus"'
p274
aS'monoamine oxidase inhibitor "o. x"'
p275
aS'monoamine oxidase inhibitor "panax"'
p276
aS'monoamine oxidase inhibitor "coffea"'
p277
aS'monoamine oxidase inhibitor "capsicum"'
p278
aS'monoamine oxidase inhibitor "triticum"'
p279
aS'monoamine oxidase inhibitor "m. x"'
p280
aS'monoamine oxidase inhibitor "juglans"'
p281
aS'monoamine oxidase inhibitor "m. aquatica"'
p282
aS'monoamine oxidase inhibitor "isorhamnetin 3-(2g-apiosylrutinoside)"'
p283
aS'monoamine oxidase inhibitor "2(3)-benzoxazolinone"'
p284
aS'monoamine oxidase inhibitor "sp1"'
p285
aS'monoamine oxidase inhibitor "formononetin"'
p286
aS'monoamine oxidase inhibitor "ellagic acid acetyl-arabinoside"'
p287
aS'monoamine oxidase inhibitor "3,5,6-trihydroxy-5-(hydroxymethyl)-2-methoxy-2-cyclohexen-1-one"'
p288
aS'monoamine oxidase inhibitor "5-hydroxyindoleacetaldehyde"'
p289
aS'monoamine oxidase inhibitor "resins"'
p290
aS'monoamine oxidase inhibitor "octanoic acid"'
p291
aS'monoamine oxidase inhibitor "prostaglandin e-1"'
p292
aS'monoamine oxidase inhibitor "kaempferol 3-feruloyl-triglucoside"'
p293
aS'monoamine oxidase inhibitor "ginsenoside m7cd"'
p294
aS'monoamine oxidase inhibitor "arecaidine"'
p295
aS'monoamine oxidase inhibitor "lf"'
p296
aS'monoamine oxidase inhibitor "estrone"'
p297
aS'monoamine oxidase inhibitor "d-ribose"'
p298
aS'monoamine oxidase inhibitor "(6z,9z)-6,9-pentadecadien-2-one"'
p299
aS'monoamine oxidase inhibitor "aflatoxin"'
p300
aS'monoamine oxidase inhibitor "luteolin 7-(6\'\'-apiosylglucoside)"'
p301
aS'monoamine oxidase inhibitor "isorhamnetin 3-o-b-d-glucofuranoside 4\'-o-a-l-rhamnopyranoside"'
p302
aS'monoamine oxidase inhibitor "2-(1-methylethyl)-4-propylthiazole"'
p303
aS'monoamine oxidase inhibitor "isorhamnetin 3-vicianoside"'
p304
aS'monoamine oxidase inhibitor "oxalic acid"'
p305
aS'monoamine oxidase inhibitor "lignans"'
p306
aS'monoamine oxidase inhibitor "cyanidin 3-(4-acetylglucoside)"'
p307
aS'monoamine oxidase inhibitor "vanillin"'
p308
aS'monoamine oxidase inhibitor "3-methylidene-4-oxopentyl angelate"'
p309
aS'monoamine oxidase inhibitor "carvone oxide"'
p310
aS'monoamine oxidase inhibitor "epigallocatechin 3-gallate"'
p311
aS'monoamine oxidase inhibitor "acetophenone"'
p312
aS'monoamine oxidase inhibitor "bisdemethoxycurcumin"'
p313
aS'monoamine oxidase inhibitor "cyanidin 3-glucogalactoside"'
p314
aS'monoamine oxidase inhibitor "(r)-apiumetin glucoside"'
p315
aS'monoamine oxidase inhibitor "benzyl ethyl ether"'
p316
aS'monoamine oxidase inhibitor "uridine diphosphate"'
p317
aS'monoamine oxidase inhibitor "protoporphyrin"'
p318
aS'monoamine oxidase inhibitor "2-pyrrolidinone"'
p319
aS'monoamine oxidase inhibitor "o-phospho-l-homoserine"'
p320
aS'monoamine oxidase inhibitor "ruthenium"'
p321
aS'monoamine oxidase inhibitor "aloe emodin w-acetate"'
p322
aS'monoamine oxidase inhibitor "lysolecithin"'
p323
aS'monoamine oxidase inhibitor "1-phenyl-1,3-pentadecanedione"'
p324
aS'monoamine oxidase inhibitor "decanoic acid"'
p325
aS'monoamine oxidase inhibitor "7-hydroxy-2,5-dimethyl-4h-1-benzopyran-4-one"'
p326
aS'monoamine oxidase inhibitor "n-isobutyl-11-(3,4-methylenedioxyphenyl)-undeca-trans-2-trans-4-trans-10-trienamide"'
p327
aS'monoamine oxidase inhibitor "4-methylsulfoxidebuten-(3)-yl cyanide"'
p328
aS'monoamine oxidase inhibitor "l-ascorbic acid"'
p329
aS'monoamine oxidase inhibitor "diacylglycerol"'
p330
aS'monoamine oxidase inhibitor "kaempferol 3-sophoroside-rhamnoside"'
p331
aS'monoamine oxidase inhibitor "(-)-maackiain"'
p332
aS'monoamine oxidase inhibitor "isopropylamine"'
p333
aS'monoamine oxidase inhibitor "cyanidin 3-(p-coumaroylferuloylglucoside)"'
p334
aS'monoamine oxidase inhibitor "proanthocyanidins"'
p335
aS'monoamine oxidase inhibitor "xanthomicrol"'
p336
aS'monoamine oxidase inhibitor "cytosine"'
p337
aS'monoamine oxidase inhibitor "2-butenoic acid methyl ester"'
p338
aS'monoamine oxidase inhibitor "vanillic acid"'
p339
aS'monoamine oxidase inhibitor "3-(4-methylphenyl)-pyridine"'
p340
aS'monoamine oxidase inhibitor "cyanidin 3-(arabinosylgalactoside)"'
p341
aS'monoamine oxidase inhibitor "ampeloside bs1"'
p342
aS'monoamine oxidase inhibitor "humulene-1,2-oxide"'
p343
aS'monoamine oxidase inhibitor "4-hydroxy-3-prenylbenzoic acid glucoside"'
p344
aS'monoamine oxidase inhibitor "porphobilinogen"'
p345
aS'monoamine oxidase inhibitor "neophytadiene"'
p346
aS'monoamine oxidase inhibitor "5,7-megastigmadien-9-ol glucoside"'
p347
aS'monoamine oxidase inhibitor "glycyrrhiza triterpene"'
p348
aS'monoamine oxidase inhibitor "tricin"'
p349
aS'monoamine oxidase inhibitor "carnitine"'
p350
aS'monoamine oxidase inhibitor "2-methylquinoline"'
p351
aS'monoamine oxidase inhibitor "kaempferol 3-(2g-rhamnosylgentiobioside)"'
p352
aS'monoamine oxidase inhibitor "ginsenoside m6-bc"'
p353
aS'monoamine oxidase inhibitor "trimethylamine"'
p354
aS'monoamine oxidase inhibitor "tetrahydrocurcumin"'
p355
aS'monoamine oxidase inhibitor "asimilobine"'
p356
aS'monoamine oxidase inhibitor "2-methyl-1,5-dinitro-3-nitrosobenzene"'
p357
aS'monoamine oxidase inhibitor "cis-limonene-1,2-oxide"'
p358
aS'monoamine oxidase inhibitor "5\',8-dihydroxy-3\',4\',7-trimethoxyflavan"'
p359
aS'monoamine oxidase inhibitor "epigallocatechin 3,4\'-digallate"'
p360
aS'monoamine oxidase inhibitor "farnesylacetone"'
p361
aS'monoamine oxidase inhibitor "1,4-naphthoquinone"'
p362
aS'monoamine oxidase inhibitor "n-methylbenzylamine"'
p363
aS'monoamine oxidase inhibitor "dihydrofuran i"'
p364
aS'monoamine oxidase inhibitor "5-aminolevulinic acid"'
p365
aS'monoamine oxidase inhibitor "5-\xce\xb2-pregnan-3,20 dione"'
p366
aS'monoamine oxidase inhibitor "epigallocatechin 3-(3-methylgallate)"'
p367
aS'monoamine oxidase inhibitor "1-chloro-2,4-dinitrobenzene"'
p368
aS'monoamine oxidase inhibitor "psoralen"'
p369
aS'monoamine oxidase inhibitor "kaempferol 3-o-alpha-l-rhamnoside-beta-d-glucosyl"'
p370
aS'monoamine oxidase inhibitor "4-hydroxyphenylacetaldehyde"'
p371
aS'monoamine oxidase inhibitor "ethanamine"'
p372
aS'monoamine oxidase inhibitor "decanoate"'
p373
aS'monoamine oxidase inhibitor "phosphoric acid"'
p374
aS'monoamine oxidase inhibitor "trans-1,10-heptadecadiene-5,7-diyn-3-ol"'
p375
aS'monoamine oxidase inhibitor "isothiocyanates"'
p376
aS'monoamine oxidase inhibitor "alternariol"'
p377
aS'monoamine oxidase inhibitor "tin"'
p378
aS'monoamine oxidase inhibitor "1,3-diaminopropane"'
p379
aS'monoamine oxidase inhibitor "iron oxide"'
p380
aS'monoamine oxidase inhibitor "molybdenum"'
p381
aS'monoamine oxidase inhibitor "utp"'
p382
aS'monoamine oxidase inhibitor "butin"'
p383
aS'monoamine oxidase inhibitor "3\',4\',5\',7,8-pentamethoxyflavan"'
p384
aS'monoamine oxidase inhibitor "quercitrin"'
p385
aS'monoamine oxidase inhibitor "1-phenyl-1,3-hexadecanedione"'
p386
aS'monoamine oxidase inhibitor "chlorophyll"'
p387
aS'monoamine oxidase inhibitor "liquiritin"'
p388
aS'monoamine oxidase inhibitor "8,13-abietadien-18-al"'
p389
aS'monoamine oxidase inhibitor "s-propyl 2-propene-1-sulfinothioate"'
p390
aS'monoamine oxidase inhibitor "chlorogenic acid"'
p391
aS'monoamine oxidase inhibitor "ranupenin 3-rutinoside"'
p392
aS'monoamine oxidase inhibitor "propane-1,3-diamine"'
p393
aS'monoamine oxidase inhibitor "mn2+"'
p394
aS'monoamine oxidase inhibitor "naringin 6\'\'-rhamnoside"'
p395
aS'monoamine oxidase inhibitor "pentane"'
p396
aS'monoamine oxidase inhibitor "apigenin 5-[4\'\'-rhamnosyl-6\'\'-acetylglucoside]"'
p397
aS'monoamine oxidase inhibitor "1,2,3,4-tetrahydro-b-carboline-1,3-dicarboxylic acid"'
p398
aS'monoamine oxidase inhibitor "2,5-dimethylthiazole"'
p399
aS'monoamine oxidase inhibitor "isorhamnetin 3-rhamnosylgalactoside"'
p400
aS'monoamine oxidase inhibitor "bisulfite"'
p401
aS'monoamine oxidase inhibitor "7alpha,16beta-17-trihydroxy"'
p402
aS'monoamine oxidase inhibitor "1-phenyl-1,3-heptadecanedione"'
p403
aS'monoamine oxidase inhibitor "myristate"'
p404
aS'monoamine oxidase inhibitor "hydroxycinnamic acid"'
p405
aS'monoamine oxidase inhibitor "11b-hydroxygibberellin a7"'
p406
aS'monoamine oxidase inhibitor "cinchonidine"'
p407
aS'monoamine oxidase inhibitor "kaempferol 3-o-rhamnodiglucoside"'
p408
aS'monoamine oxidase inhibitor "pterostilbene"'
p409
aS'monoamine oxidase inhibitor "(3beta,5alpha)-3-hydroxypregn-16-en-20-one"'
p410
aS'monoamine oxidase inhibitor "glucosidase"'
p411
aS'monoamine oxidase inhibitor "monoterpenes"'
p412
aS'monoamine oxidase inhibitor "vanillyl caproylamide"'
p413
aS'monoamine oxidase inhibitor "enterolactone"'
p414
aS'monoamine oxidase inhibitor "aromadendrin"'
p415
aS'monoamine oxidase inhibitor "soja hispidasaponin c"'
p416
aS'monoamine oxidase inhibitor "(9z)-12-oxo-dodec-9-enoate"'
p417
aS'monoamine oxidase inhibitor "2,3-dihydroxy-2,4-cyclopentadien-1-one"'
p418
aS'monoamine oxidase inhibitor "pyrroline"'
p419
aS'monoamine oxidase inhibitor "daidzin"'
p420
aS'monoamine oxidase inhibitor "1-(4-hydroxy-3-methoxyphenyl)-3,5-diacetoxyoctane"'
p421
aS'monoamine oxidase inhibitor "germacrene"'
p422
aS'monoamine oxidase inhibitor "naringin"'
p423
aS'monoamine oxidase inhibitor "kaempferol 3-o-glucosyl-rhamnosyl-galactoside"'
p424
aS'monoamine oxidase inhibitor "galactan"'
p425
aS'monoamine oxidase inhibitor "1,3,11(13)-eudesmatrien-12-oic acid"'
p426
aS'monoamine oxidase inhibitor "styrene"'
p427
aS'monoamine oxidase inhibitor "selenomethionine"'
p428
aS'monoamine oxidase inhibitor "synergistic antifungal protein"'
p429
aS'monoamine oxidase inhibitor "octadecenoic acid"'
p430
aS'monoamine oxidase inhibitor "luteolin 7-disulfoglucoside"'
p431
aS'monoamine oxidase inhibitor "tryptophol"'
p432
aS'monoamine oxidase inhibitor "lactose"'
p433
aS'monoamine oxidase inhibitor "cyanidin 3-glucoside"'
p434
aS'monoamine oxidase inhibitor "protoporphyrin ix"'
p435
aS'monoamine oxidase inhibitor "5\'-deoxyadenosine"'
p436
aS'monoamine oxidase inhibitor "methylether"'
p437
aS'monoamine oxidase inhibitor "n-(2r-hydroxydocosanoyl)-2s-amino-1,3s,4r-octadecanetriol"'
p438
aS'monoamine oxidase inhibitor "2-amino-3,4-dimethylimidazo[4,5-f]quinoline"'
p439
aS'monoamine oxidase inhibitor "glutaric acid"'
p440
aS'monoamine oxidase inhibitor "dihydrolipoamide"'
p441
aS'monoamine oxidase inhibitor "cincassiol d4"'
p442
aS'monoamine oxidase inhibitor "latex"'
p443
aS'monoamine oxidase inhibitor "s-propyl 1-propanesulfinothioate"'
p444
aS'monoamine oxidase inhibitor "apigenin 7-o-(6\'\'-malonyl-apiosyl-glucoside)"'
p445
aS'monoamine oxidase inhibitor "trifolirhizin"'
p446
aS'monoamine oxidase inhibitor "cytidine"'
p447
aS'monoamine oxidase inhibitor "1-phenyl-1,3-nonadecanedione"'
p448
aS'monoamine oxidase inhibitor "crassostrea secocarotenoid"'
p449
aS'monoamine oxidase inhibitor "sugars"'
p450
aS'monoamine oxidase inhibitor "hydroxytyrosol"'
p451
aS'monoamine oxidase inhibitor "3\'-(2\'\'-galloylglucosyl)-phloroacetophenone"'
p452
aS'monoamine oxidase inhibitor "kaempferol 3-glucosylxyloside"'
p453
aS'monoamine oxidase inhibitor "phloretin"'
p454
aS'monoamine oxidase inhibitor "tricin 7-glucuronoside"'
p455
aS'monoamine oxidase inhibitor "biotin"'
p456
aS'monoamine oxidase inhibitor "hebevinoside xii"'
p457
aS'monoamine oxidase inhibitor "n-methylaniline"'
p458
aS'monoamine oxidase inhibitor "isorhamnetin 3-arabino-glucoside"'
p459
aS'monoamine oxidase inhibitor "fe3+"'
p460
aS'monoamine oxidase inhibitor "ytterbium"'
p461
aS'monoamine oxidase inhibitor "hebevinoside xiv"'
p462
aS'monoamine oxidase inhibitor "aflatoxin m1"'
p463
aS'monoamine oxidase inhibitor "lormetazepam"'
p464
aS'monoamine oxidase inhibitor "beta-galactosidase"'
p465
aS'monoamine oxidase inhibitor "allyl alcohol"'
p466
aS'monoamine oxidase inhibitor "2-hydroxyphenylacetic acid"'
p467
aS'monoamine oxidase inhibitor "zn2+"'
p468
aS'monoamine oxidase inhibitor "anthranilate"'
p469
aS'monoamine oxidase inhibitor "2-aminoethanol"'
p470
aS'monoamine oxidase inhibitor "luteolin"'
p471
aS'monoamine oxidase inhibitor "epigallocatechin 3-(4-methylgallate)"'
p472
aS'monoamine oxidase inhibitor "pyrophosphate"'
p473
aS'monoamine oxidase inhibitor "5-(methylthio)-pentanonitrile"'
p474
aS'monoamine oxidase inhibitor "myo-inositol"'
p475
aS'monoamine oxidase inhibitor "p-menthan-trans-2,5-diol"'
p476
aS'monoamine oxidase inhibitor "hydrogen sulfide (h2s)"'
p477
aS'monoamine oxidase inhibitor "strontium"'
p478
aS'monoamine oxidase inhibitor "(r)-11,12,13-trinor-1(5),6,9-guaiatrien-8-one"'
p479
aS'monoamine oxidase inhibitor "(r)-menthofuran"'
p480
aS'monoamine oxidase inhibitor "s-adenosyl-l-homocysteine"'
p481
aS'monoamine oxidase inhibitor "isoliquiritigenin"'
p482
aS'monoamine oxidase inhibitor "4-hydroxybenzoic acid"'
p483
aS'monoamine oxidase inhibitor "platinum"'
p484
aS'monoamine oxidase inhibitor "1-phenyl-1,3-octadecanedione"'
p485
aS'monoamine oxidase inhibitor "n-nitrosodimethylamine"'
p486
aS'monoamine oxidase inhibitor "desmosine"'
p487
aS'monoamine oxidase inhibitor "dihydromethysticin"'
p488
aS'monoamine oxidase inhibitor "7-epi-12-hydroxyjasmonic acid glucoside"'
p489
aS'monoamine oxidase inhibitor "ferulic acid"'
p490
aS'monoamine oxidase inhibitor "kaempferol 3-gluco-xyloside"'
p491
aS'monoamine oxidase inhibitor "anthocyanidins"'
p492
aS'monoamine oxidase inhibitor "2-phenylethanol"'
p493
aS'monoamine oxidase inhibitor "hypoxanthine"'
p494
aS'monoamine oxidase inhibitor "2-propanol"'
p495
aS'monoamine oxidase inhibitor "(s)-salsolinol"'
p496
aS'monoamine oxidase inhibitor "baicalein"'
p497
aS'monoamine oxidase inhibitor "ellagic acid 2-(6-glucosylglucoside)"'
p498
aS'monoamine oxidase inhibitor "hesperidin"'
p499
aS'monoamine oxidase inhibitor "rhein"'
p500
aS'monoamine oxidase inhibitor "1-phenyl-1,3-docosanedione"'
p501
aS'monoamine oxidase inhibitor "gossypol"'
p502
aS'monoamine oxidase inhibitor "2\',2\'-dimethyl(pyrano-5\',6\':3:4)-1,5-dihydroxy-6-methoxy-10-methylacridone"'
p503
aS'monoamine oxidase inhibitor "8-hydroxy-2-methoxy-6-methyl-1,4-naphthoquinone"'
p504
aS'monoamine oxidase inhibitor "chlorohydrin"'
p505
aS'monoamine oxidase inhibitor "6-epi-7-isocucurbic acid glucoside"'
p506
aS'monoamine oxidase inhibitor "15-hete"'
p507
aS'monoamine oxidase inhibitor "guineensine"'
p508
aS'monoamine oxidase inhibitor "allantoin"'
p509
aS'monoamine oxidase inhibitor "oleic acid"'
p510
aS'monoamine oxidase inhibitor "xylitol"'
p511
aS'monoamine oxidase inhibitor "phosphoadenosine-5\'-phosphosulfate"'
p512
aS'monoamine oxidase inhibitor "thallium"'
p513
aS'monoamine oxidase inhibitor "3,3\'-digalloylprodelphinidin b1"'
p514
aS'monoamine oxidase inhibitor "betulin"'
p515
aS'monoamine oxidase inhibitor "gentisic acid"'
p516
aS'monoamine oxidase inhibitor "uricase"'
p517
aS'monoamine oxidase inhibitor "propanoic acid"'
p518
aS'monoamine oxidase inhibitor "3-(3,4-dihydroxybenzyl)-7-hydroxy-5-methoxy-4-chromanone"'
p519
aS'monoamine oxidase inhibitor "lignin"'
p520
aS'monoamine oxidase inhibitor "homoserine"'
p521
aS'monoamine oxidase inhibitor "rhapontin"'
p522
aS'monoamine oxidase inhibitor "l-(-)-homoserine"'
p523
aS'monoamine oxidase inhibitor "cyclohexanol"'
p524
aS'monoamine oxidase inhibitor "l-malic acid"'
p525
aS'monoamine oxidase inhibitor "8-c-ascorbylepigallocatechin 3-gallate"'
p526
aS'monoamine oxidase inhibitor "n-heptane"'
p527
aS'monoamine oxidase inhibitor "n-isobutyl-13-(3,4-methylenedioxyphenyl)-trideca-trans-2-trans-4-trans-12-trienamide"'
p528
aS'monoamine oxidase inhibitor "dihydrobenzofuran"'
p529
aS'monoamine oxidase inhibitor "l-lysine"'
p530
aS'monoamine oxidase inhibitor "apigenin 5-[4\'\'-rhamnosylglucoside]"'
p531
aS'monoamine oxidase inhibitor "bergapten"'
p532
aS'monoamine oxidase inhibitor "titanium"'
p533
aS'monoamine oxidase inhibitor "cyanidin 3-rhamnosyl-glucosyl-glucoside"'
p534
aS'monoamine oxidase inhibitor "8,10-heptacosanedione"'
p535
aS'monoamine oxidase inhibitor "cyanidin 3-(feruloylxylosylglucosylgalactoside)"'
p536
aS'monoamine oxidase inhibitor "n-(2r-hydroxyhexacosanoyl)-2s-amino-1,3s,4r-octadecanetriol"'
p537
aS'monoamine oxidase inhibitor "purine"'
p538
aS'monoamine oxidase inhibitor "ceramide"'
p539
aS'monoamine oxidase inhibitor "pc(14:0/24:0)"'
p540
aS'monoamine oxidase inhibitor "glycolipids"'
p541
aS'monoamine oxidase inhibitor "peroxiredoxin-(s-hydroxy-s-oxocysteine)"'
p542
aS'monoamine oxidase inhibitor "phosphatidylethanolamine"'
p543
aS'monoamine oxidase inhibitor "caprolactam"'
p544
aS'monoamine oxidase inhibitor "dehydroascorbic acid"'
p545
aS'monoamine oxidase inhibitor "fisetin"'
p546
aS'monoamine oxidase inhibitor "rhapontigenin"'
p547
aS'monoamine oxidase inhibitor "3-oxododecanoic acid glycerides"'
p548
aS'monoamine oxidase inhibitor "loliolide"'
p549
aS'monoamine oxidase inhibitor "hordenine"'
p550
aS'monoamine oxidase inhibitor "nitrogenase"'
p551
aS'monoamine oxidase inhibitor "geraniol"'
p552
aS'monoamine oxidase inhibitor "n,n-dimethylformamide"'
p553
aS'monoamine oxidase inhibitor "4-hydroxyphenylacetic acid"'
p554
aS'monoamine oxidase inhibitor "methylguanidine"'
p555
aS'monoamine oxidase inhibitor "o-phosphohomoserine"'
p556
aS'monoamine oxidase inhibitor "tetrahydroharmol"'
p557
aS'monoamine oxidase inhibitor "biochanin-a"'
p558
aS'monoamine oxidase inhibitor "auraptene"'
p559
aS'monoamine oxidase inhibitor "4-hydroxyderricin"'
p560
aS'monoamine oxidase inhibitor "biochanin a"'
p561
aS'monoamine oxidase inhibitor "mannan"'
p562
aS'monoamine oxidase inhibitor "dodecanoic acid"'
p563
aS'monoamine oxidase inhibitor "theobromine"'
p564
aS'monoamine oxidase inhibitor "5\',5\'\'\'-diadenosine triphosphate"'
p565
aS'monoamine oxidase inhibitor "methacrylic acid"'
p566
aS'monoamine oxidase inhibitor "cotinine"'
p567
aS'monoamine oxidase inhibitor "benzyl alcohol 6-o-l-arabinofuranosyl-beta-d-glucopyranoside"'
p568
aS'monoamine oxidase inhibitor "piperine"'
p569
aS'monoamine oxidase inhibitor "capsaicin"'
p570
aS'monoamine oxidase inhibitor "(+)-pinoresinol"'
p571
aS'monoamine oxidase inhibitor "cis-2,5-diethyl-tetrahydrofuran"'
p572
aS'monoamine oxidase inhibitor "integrin"'
p573
aS'monoamine oxidase inhibitor "4-hydroxyferuloxyl methane"'
p574
aS'monoamine oxidase inhibitor "piperitenone"'
p575
aS'monoamine oxidase inhibitor "sinapoyl 8-d-galactosyl 6-c-arabinosyl-apigenin"'
p576
aS'monoamine oxidase inhibitor "isorhamnetin 3,7-beta-d-diglucoside"'
p577
aS'monoamine oxidase inhibitor "(9e)-valenciaxanthin"'
p578
aS'monoamine oxidase inhibitor "kaempferol 3-(2g-apiosylrobinobioside)"'
p579
aS'monoamine oxidase inhibitor "scopoletin"'
p580
aS'monoamine oxidase inhibitor "benzophenone"'
p581
aS'monoamine oxidase inhibitor "cmp"'
p582
aS'monoamine oxidase inhibitor "fumaric acid"'
p583
aS'monoamine oxidase inhibitor "formononetin 7-(6\'\'-methylmalonylglucoside)"'
p584
aS'monoamine oxidase inhibitor "pc(16:0/22:0)"'
p585
aS'monoamine oxidase inhibitor "d-galactose"'
p586
aS'monoamine oxidase inhibitor "7\',8\'-dihydro-8\'-hydroxycitraniaxanthin"'
p587
aS'monoamine oxidase inhibitor "1-propanol"'
p588
aS'monoamine oxidase inhibitor "xylan"'
p589
aS'monoamine oxidase inhibitor "sanguinarine"'
p590
aS'monoamine oxidase inhibitor "ubiquinone 100"'
p591
aS'monoamine oxidase inhibitor "xanthoangelol"'
p592
aS'monoamine oxidase inhibitor "isopropyl benzoate"'
p593
aS'monoamine oxidase inhibitor "7-(4-hydroxy-3-methoxyphenyl)-5-methoxy-1-phenyl-3-heptanone"'
p594
aS'monoamine oxidase inhibitor "pyrazine"'
p595
aS'monoamine oxidase inhibitor "liquiritigenin"'
p596
aS'monoamine oxidase inhibitor "2\'-hydroxy-3\',4\',5\',7,8-pentamethoxyflavan"'
p597
aS'monoamine oxidase inhibitor "methyl phenyl disulfide"'
p598
aS'monoamine oxidase inhibitor "dihydrokaempferol"'
p599
aS'monoamine oxidase inhibitor "kaempferol 3-rhamno-glucoside"'
p600
aS'monoamine oxidase inhibitor "kaempferol"'
p601
aS'monoamine oxidase inhibitor "ornithine"'
p602
aS'monoamine oxidase inhibitor "2-aminoadipic acid"'
p603
aS'monoamine oxidase inhibitor "ubiquinone 10"'
p604
aS'monoamine oxidase inhibitor "3,4-dihydro-2,2,5,7,8-pentamethyl-2h-1-benzopyran-6-ol"'
p605
aS'monoamine oxidase inhibitor "sulfides"'
p606
aS'monoamine oxidase inhibitor "thebaine"'
p607
aS'monoamine oxidase inhibitor "diosgenin"'
p608
aS'monoamine oxidase inhibitor "6-(gamma,gamma-dimethylallyl-amino)-purine"'
p609
aS'monoamine oxidase inhibitor "l-homocysteine"'
p610
aS'monoamine oxidase inhibitor "(s)-nicotine"'
p611
aS'monoamine oxidase inhibitor "lysophosphatidylserine"'
p612
aS'monoamine oxidase inhibitor "1-phenyl-1,3-eicosanedione"'
p613
aS'monoamine oxidase inhibitor "mevalonic acid"'
p614
aS'monoamine oxidase inhibitor "arsenic"'
p615
aS'monoamine oxidase inhibitor "sesquiterpenes"'
p616
aS'monoamine oxidase inhibitor "l-fucose"'
p617
aS'monoamine oxidase inhibitor "acetic acid hex-cis-3-enyl ester"'
p618
aS'monoamine oxidase inhibitor "amygdalin"'
p619
aS'monoamine oxidase inhibitor "isoquercitrin"'
p620
aS'monoamine oxidase inhibitor "pentylamine"'
p621
a.