(lp0
S'antihistamine "heptanoic acid"'
p1
aS'antihistamine "phthalic acid"'
p2
aS'antihistamine "xi-3-hydroxy-5-phenylpentanoic acid o-beta-d-glucopyranoside"'
p3
aS'antihistamine "l-tyrosine"'
p4
aS'antihistamine "apigenin"'
p5
aS'antihistamine "(e)-10,11-dihydro-alpha-atlantone"'
p6
aS'antihistamine "alpha-linolenic acid"'
p7
aS'antihistamine "2\'\'-o-alpha-rhamnosyl-6-c-(6-deoxo-xylo-hexos-4-ulosyl)-apigenin"'
p8
aS'antihistamine "ethyl oleate"'
p9
aS'antihistamine "propanoate"'
p10
aS'antihistamine "3\'\',4\'\'-diacetylcosmosiin"'
p11
aS'antihistamine "oxalate"'
p12
aS'antihistamine "kaempferol 3-o-alpha-l-galactoside"'
p13
aS'antihistamine "apigenin 7-digalacturonoside"'
p14
aS'antihistamine "arctic acid c"'
p15
aS'antihistamine "6,7-dihydro-5-methyl-5h-cyclopenta[b]pyrazine"'
p16
aS'antihistamine "5-(methylthio)-2,3-dioxopentyl phosphate"'
p17
aS'antihistamine "isoquercitrin 4\'\'-rhamnoside"'
p18
aS'antihistamine "apigenin 7-arabinoside"'
p19
aS'antihistamine "dextrin"'
p20
aS'antihistamine "menadione"'
p21
aS'antihistamine "cu2+"'
p22
aS'antihistamine "azulene"'
p23
aS'antihistamine "beta-carotene"'
p24
aS'antihistamine "di-n-propylamine"'
p25
aS'antihistamine "hippuric acid"'
p26
aS'antihistamine "5-hydroxy-l-tryptophan"'
p27
aS'antihistamine "indole-3-acetic acid cellulosiglucan"'
p28
aS'antihistamine "d-fructose"'
p29
aS'antihistamine "l-aspartic acid"'
p30
aS'antihistamine "ethyl 7-epi-12-hydroxyjasmonate glucoside"'
p31
aS'antihistamine "ethyl acrylate"'
p32
aS'antihistamine "mfa"'
p33
aS'antihistamine "\xce\xb2-tocopherol"'
p34
aS'antihistamine "neuraminic-acid"'
p35
aS'antihistamine "n-carbamoyl-2-amino-2-(4-hydroxyphenyl)acetic acid"'
p36
aS'antihistamine "dimethyl peroxide"'
p37
aS'antihistamine "2-methoxy-4-vinylphenol"'
p38
aS'antihistamine "okadaic acid"'
p39
aS'antihistamine "agavasaponin c\'"'
p40
aS'antihistamine "quercetin 3-(6\'\'\'\'-ferulylsophorotrioside)"'
p41
aS'antihistamine "4,6-heptadiyne-1,3-diol"'
p42
aS'antihistamine "bentonite"'
p43
aS'antihistamine "thio-molybdenum cofactor"'
p44
aS'antihistamine "betaine"'
p45
aS'antihistamine "azi"'
p46
aS'antihistamine "thymine"'
p47
aS'antihistamine "piperenol a triacetate"'
p48
aS'antihistamine "epicatechin 3-gallate"'
p49
aS'antihistamine "anethole"'
p50
aS'antihistamine "d-myo-inositol (3,4,6)-trisphosphate"'
p51
aS'antihistamine "raffinose"'
p52
aS'antihistamine "(6e)-piperamide-c7:1"'
p53
aS'antihistamine "myoglobin"'
p54
aS'antihistamine "prostaglandin b-2"'
p55
aS'antihistamine "sphingosine"'
p56
aS'antihistamine "3,4-dihydroxyphenylglycol"'
p57
aS'antihistamine "fe2+"'
p58
aS'antihistamine "\xce\xb1-d-glucose"'
p59
aS'antihistamine "1,7,7-trimethyltricyclo[2.2.1.02,6]heptane"'
p60
aS'antihistamine "3beta,6beta-dihydroxynortropane"'
p61
aS'antihistamine "7-(4-hydroxyphenyl)-1-phenyl-4-hepten-3-one"'
p62
aS'antihistamine "urocanic acid"'
p63
aS'antihistamine "3-hydroxyanthranilic acid"'
p64
aS'antihistamine "2-amino-3,4-dihydroxypentanedioic acid"'
p65
aS'antihistamine "haem"'
p66
aS'antihistamine "(s)-3-methylthiohexyl hexanoate"'
p67
aS'antihistamine "pyridoxal 5\'-phosphate"'
p68
aS'antihistamine "2-(2-carboxy-4-methylthiazol-5-yl)ethyl phosphate"'
p69
aS'antihistamine "formamide"'
p70
aS'antihistamine "apigenin 8-c-rhamnosyl-glucoside"'
p71
aS'antihistamine "prostaglandin f-2-alpha"'
p72
aS'antihistamine "isosafrole"'
p73
aS'antihistamine "citicoline"'
p74
aS'antihistamine "l-kynurenine"'
p75
aS'antihistamine "oleanolic acid"'
p76
aS'antihistamine "diacetyl"'
p77
aS'antihistamine "ginsenoside rb1"'
p78
aS'antihistamine "gamma-mangostin"'
p79
aS'antihistamine "2\'\',6\'\'-diacetylisoorientin"'
p80
aS'antihistamine "carbadox"'
p81
aS'antihistamine "protopanaxadiol"'
p82
aS'antihistamine "xanthophylls"'
p83
aS'antihistamine "25,27-dihydro-4,7-didehydro-7-deoxyphysalin a"'
p84
aS'antihistamine "kaempferol 3-(2g-glucosylgentiobioside)"'
p85
aS'antihistamine "l-glutamic acid"'
p86
aS'antihistamine "diphenylamine"'
p87
aS'antihistamine "squalene"'
p88
aS'antihistamine "dihydrocapsaicin"'
p89
aS'antihistamine "hydrogen cyanide"'
p90
aS'antihistamine "glycyrrhizin"'
p91
aS'antihistamine "uridine diphosphate glucuronic acid"'
p92
aS'antihistamine "3,3\',4\',7,8-pentamethylgossypetin"'
p93
aS'antihistamine "galactosamine"'
p94
aS'antihistamine "methoxyl"'
p95
aS'antihistamine "heterodendrin"'
p96
aS'antihistamine "d-mannitol"'
p97
aS'antihistamine "zirconium"'
p98
aS'antihistamine "(-)-trans-2,5-diethyltetrahydrofuran"'
p99
aS'antihistamine "ctp"'
p100
aS'antihistamine "eicosapentaenoic acid"'
p101
aS'antihistamine "3-hydroxy-1,10-bisaboladien-9-one"'
p102
aS'antihistamine "kaempferol 3-coumaroyl-triglucoside"'
p103
aS'antihistamine "luteolin 7-rhamnosylglucoside"'
p104
aS'antihistamine "2-isopropyl-3,5-dimethoxy-6-methylpyrazine"'
p105
aS'antihistamine "pyridoxamine 5\'-phosphate"'
p106
aS'antihistamine "masticadienolic acid"'
p107
aS'antihistamine "kaempferol 3-o-rhamnosyl-rhamnosyl-glucoside"'
p108
aS'antihistamine "coenzyme a"'
p109
aS'antihistamine "stearate"'
p110
aS'antihistamine "hydroxamic acid"'
p111
aS'antihistamine "propanolamine"'
p112
aS'antihistamine "thiamine hydrochloride"'
p113
aS'antihistamine "ubiquinone 9"'
p114
aS'antihistamine "6-hydroxymelatonin"'
p115
aS'antihistamine "terpene"'
p116
aS'antihistamine "benzoyl-coa"'
p117
aS'antihistamine "(-)-gossypol"'
p118
aS'antihistamine "mangiferin 6\'-gallate"'
p119
aS'antihistamine "apigenin 6-c-glucosyl-o-arabinoside"'
p120
aS'antihistamine "oxybenzoic acid"'
p121
aS'antihistamine "anthocyanins"'
p122
aS'antihistamine "1-deoxy-l-glycero-tetrulose 4-phosphate"'
p123
aS'antihistamine "calsequestrin"'
p124
aS'antihistamine "tartaric acid"'
p125
aS'antihistamine "harmaline"'
p126
aS'antihistamine "heptanoate"'
p127
aS'antihistamine "aminoadipic acid"'
p128
aS'antihistamine "curcumin 4\'-o-\xce\xb2-d-gentiobiosyl 4\'\'-o-\xce\xb2-d-glucoside"'
p129
aS'antihistamine "vanadium"'
p130
aS'antihistamine "galactosyl erythro-5-hydroxy-l-lysine"'
p131
aS'antihistamine "palladium"'
p132
aS'antihistamine "d-fructose 6-phosphate"'
p133
aS'antihistamine "pisatin"'
p134
aS'antihistamine "eugenol"'
p135
aS'antihistamine "arabinogalactan"'
p136
aS'antihistamine "(s)-2,3-dihydro-5-hydroxy-2-methyl-1,4-naphthoquinone"'
p137
aS'antihistamine "l-homoserine"'
p138
aS'antihistamine "luteolin 7-glucuronylglucoside"'
p139
aS'antihistamine "6,7-dihydro-2-methyl-5h-cyclopenta[b]pyrazine"'
p140
aS'antihistamine "apigenin 7-glucuronosyl-glucoside"'
p141
aS'antihistamine "antimony"'
p142
aS'antihistamine "5alpha-stigmastan-3,6-dione"'
p143
aS'antihistamine "quercetin 3-(2-caffeoylglucuronoside)"'
p144
aS'antihistamine "phenylacetic acid"'
p145
aS'antihistamine "epicatechin"'
p146
aS'antihistamine "leukotriene a4"'
p147
aS'antihistamine "momordin"'
p148
aS'antihistamine "harman"'
p149
aS'antihistamine "estriol"'
p150
aS'antihistamine "17\xce\xb2-estradiol"'
p151
aS'antihistamine "3,4,5-trimethoxyphenyl 2,6-digalloylglucoside"'
p152
aS'antihistamine "methyl nicotinate"'
p153
aS'antihistamine "arecoline"'
p154
aS'antihistamine "agmatine"'
p155
aS'antihistamine "ethyl gallate"'
p156
aS'antihistamine "1-hydroxy-3,5-dimethoxy-2-prenylxanthone"'
p157
aS'antihistamine "quinolinic acid"'
p158
aS'antihistamine "alpha-lipoic acid"'
p159
aS'antihistamine "tomatine"'
p160
aS'antihistamine "caffeic acid"'
p161
aS'antihistamine "sulfite"'
p162
aS'antihistamine "cdp-choline"'
p163
aS'antihistamine "glaucine"'
p164
aS'antihistamine "domoic acid"'
p165
aS'antihistamine "kaempferol 3-(2\'\'-rhamnosylrutinoside)"'
p166
aS'antihistamine "2\'\',3\'\'-diacetylcosmosiin"'
p167
aS'antihistamine "campest-4-en-3,6-dione"'
p168
aS'antihistamine "7\',9\'-cis-lycopene"'
p169
aS'antihistamine "selenite"'
p170
aS'antihistamine "dihydroxyferuloyl-sinapoyl spermidine"'
p171
aS'antihistamine "3\',4\',5,7,8-pentamethoxyflavanone"'
p172
aS'antihistamine "methyl salicylate"'
p173
aS'antihistamine "kaempferol 3-(2\'\'\'-feruloylsophoroside) 7-cellobioside"'
p174
aS'antihistamine "3-epioleanolic acid"'
p175
aS'antihistamine "putrescine"'
p176
aS'antihistamine "ergosterol"'
p177
aS'antihistamine "l-(+)-homoserine"'
p178
aS'antihistamine "dihydrobutylidene phthalide"'
p179
aS'antihistamine "farnesol"'
p180
aS'antihistamine "(+)-pulegone"'
p181
aS'antihistamine "germanicol"'
p182
aS'antihistamine "d-glucuronic acid"'
p183
aS'antihistamine "acetyl-coa"'
p184
aS'antihistamine "cyclohexane"'
p185
aS'antihistamine "hemin"'
p186
aS'antihistamine "nicotinate"'
p187
aS'antihistamine "quercetin 3-(6\'\'\'\'-sinapylsophorotrioside)"'
p188
aS'antihistamine "europium"'
p189
aS'antihistamine "selenium"'
p190
aS'antihistamine "benzyl acetate"'
p191
aS'antihistamine "imidazole acetaldehyde"'
p192
aS'antihistamine "kaempferol 7-rhamnofuranoside"'
p193
aS'antihistamine "scordinine b-3"'
p194
aS'antihistamine "casticin"'
p195
aS'antihistamine "alpha-mangostin"'
p196
aS'antihistamine "3-hydroxy-4,5-dimethyl-2-furanone"'
p197
aS'antihistamine "benzofuran"'
p198
aS'antihistamine "osmium"'
p199
aS'antihistamine "methyl helianthenoate a glucoside"'
p200
aS'antihistamine "1-butanol"'
p201
aS'antihistamine "invert sugar"'
p202
aS'antihistamine "beta-d-(1->3)-glucan"'
p203
aS'antihistamine "beta-lactoglobulin"'
p204
aS'antihistamine "glycolaldehyde"'
p205
aS'antihistamine "ergocalciferol"'
p206
aS'antihistamine "inosine"'
p207
aS'antihistamine "rosmarinic acid"'
p208
aS'antihistamine "ent-16a-hydro-6a,7a,17-trihydroxy-19-kauranoic acid"'
p209
aS'antihistamine "linalool 3-(6\'\'-apiosylglucoside)"'
p210
aS'antihistamine "hexanoic acid"'
p211
aS'antihistamine "gallium"'
p212
aS'antihistamine "anisic acid"'
p213
aS'antihistamine "xylene"'
p214
aS'antihistamine "histidinol"'
p215
aS'antihistamine "nonivamide"'
p216
aS'antihistamine "luteolin 6-c-glucosyl-o-arabinoside"'
p217
aS'antihistamine "3,5,5-trimethylcyclohexa-1,4-dione"'
p218
aS'antihistamine "cd2+"'
p219
aS'antihistamine "glucosyl passiflorate"'
p220
aS'antihistamine "hydantoin"'
p221
aS'antihistamine "gamma-butyrolactone"'
p222
aS'antihistamine "pyruvic acid"'
p223
aS'antihistamine "carbonic acid"'
p224
aS'antihistamine "n-acetylglucosamine"'
p225
aS'antihistamine "2,3-butanediol"'
p226
aS'antihistamine "acetoacetate"'
p227
aS'antihistamine "apiosylglucosyl 4-hydroxybenzoate"'
p228
aS'antihistamine "2\'\',3\'\'-di-o-p-coumaroylafzelin"'
p229
aS'antihistamine "phosphoenolpyruvate"'
p230
aS'antihistamine "3-(4-hydroxyphenyl)-3-hydroxy-propionyl-coa"'
p231
aS'antihistamine "n-acetylhistamine"'
p232
aS'antihistamine "kaempferol 3-o-rhamnosyl-rutinoside"'
p233
aS'antihistamine "solanidine"'
p234
aS'antihistamine "2\',4\',5,7,8-pentahydroxyisoflavone"'
p235
aS'antihistamine "dimethyl benzofuran"'
p236
aS'antihistamine "mangiferin"'
p237
aS'antihistamine "guanosine diphosphate"'
p238
aS'antihistamine "chrysoeriol 7-disulfoglucoside"'
p239
aS'antihistamine "lutein"'
p240
aS'antihistamine "kaempferol 3-gluco-rhamnoside"'
p241
aS'antihistamine "phenethyl 6-galloylglucoside"'
p242
aS'antihistamine "kaempferol 7-o-beta-d-glucoside-o-alpha-l-rhamnosyl"'
p243
aS'antihistamine "resveratrol"'
p244
aS'antihistamine "alpha-amylase"'
p245
aS'antihistamine "safranal"'
p246
aS'antihistamine "quercetin 3-(2\'\'-acetylrutinoside)"'
p247
aS'antihistamine "methylamine"'
p248
aS'antihistamine "d-myo-inositol (1,2,3) trisphosphate"'
p249
aS'antihistamine "n-[(4-hydroxyphenyl)methyl]ethoxycarbothioamide 4\'-(tri-acetylrhamnoside)"'
p250
aS'antihistamine "n,n-dimethylaniline"'
p251
aS'antihistamine "chrysoeriol 7-triglucuronide"'
p252
aS'antihistamine "gamma-glutamyl-cysteine"'
p253
aS'antihistamine "dutp"'
p254
aS'antihistamine "kaempferol 3-p-coumaroylsophorotrioside"'
p255
aS'antihistamine "(+)-valine"'
p256
aS'antihistamine "1-octanol"'
p257
aS'antihistamine "(+)-taxifolin"'
p258
aS'antihistamine "violet alcohol"'
p259
aS'antihistamine "naphthalene"'
p260
aS'antihistamine "s-adenosyl-l-methionine"'
p261
aS'antihistamine "ajmaline"'
p262
aS'antihistamine "thymidine 5\'-triphosphate"'
p263
aS'antihistamine "pregnenolone"'
p264
aS'antihistamine "1-(r)-phenylethyl beta-d-glucopyranoside"'
p265
aS'antihistamine "alpha-d-glucopyranose"'
p266
aS'antihistamine "naringenin rutinoside-4-beta-d-glucoside"'
p267
aS'antihistamine "haemoglobin"'
p268
aS'antihistamine "neodymium"'
p269
aS'antihistamine "gdp"'
p270
aS'antihistamine "amoxycillin"'
p271
aS'antihistamine "5-(2-methylpropyl)tetrahydro-2-oxo-3-furancarboxylic acid"'
p272
aS'antihistamine "10alpha-4,5-seco-11-eudesmene-4,5-dione"'
p273
aS'antihistamine "2\'\',4\'\'-diacetylafzelin"'
p274
aS'antihistamine "b-chlorogenin 3-[2\'\',4\'\'-dirhamnosylglucoside]"'
p275
aS'antihistamine "unknown 370"'
p276
aS'antihistamine "2-angeloyl-9-(3-methyl-2e-pentenoyl)-2b,9a-dihydroxy-4z,10(14)-oplopadien-3-one"'
p277
aS'antihistamine "kaempferol 3-alpha-d-arabinopyranoside"'
p278
aS'antihistamine "thorium"'
p279
aS'antihistamine "methyl benzoate"'
p280
aS'antihistamine "3,4-epoxy-p-menth-1(7)-ene"'
p281
aS'antihistamine "n-(4-hydroxyphenyl)ethoxycarbothioamide"'
p282
aS'antihistamine "kaempferol 3-feruloylapioside"'
p283
aS'antihistamine "l-leucine"'
p284
aS'antihistamine "solasodine"'
p285
aS'antihistamine "palmidrol"'
p286
aS'antihistamine "4-methoxybenzyl acetate"'
p287
aS'antihistamine "dodecyl acetate"'
p288
aS'antihistamine "l-methionine"'
p289
aS'antihistamine "cdp"'
p290
aS'antihistamine "2,3-dihydro-2,3-dihydroxy-9-phenyl-1h-phenalen-1-one"'
p291
aS'antihistamine "kaempferol 3-o-acetyl-glucoside"'
p292
aS'antihistamine "n-propanol"'
p293
aS'antihistamine "putranjivain a"'
p294
aS'antihistamine "boron"'
p295
aS'antihistamine "2\'\'-o-alpha-rhamnosyl-6-c-(6-deoxo-xylo-hexos-4-ulosyl)-chrysoeriol"'
p296
aS'antihistamine "sterols"'
p297
aS'antihistamine "maltodextrin"'
p298
aS'antihistamine "n-acetyl-l-cysteine"'
p299
aS'antihistamine "palmitate"'
p300
aS'antihistamine "hexosamine"'
p301
aS'antihistamine "alpha-lactose"'
p302
aS'antihistamine "uridine triphosphate"'
p303
aS'antihistamine "riboflavin"'
p304
aS'antihistamine "arsenite"'
p305
a.