(lp0
(lp1
V27925234
p2
aV26507574
p3
aV25908622
p4
aV22318552
p5
aV21770248
p6
aV18060912
p7
aV18058205
p8
aV16420470
p9
aV10531760
p10
aV7626324
p11
aa(lp12
V23680544
p13
aV23315911
p14
aV16828949
p15
aV16082422
p16
aV7620838
p17
aV7504487
p18
aV8461031
p19
aa(lp20
V26908285
p21
aV24145065
p22
aV24096130
p23
aV23657293
p24
aV23076343
p25
aV18365049
p26
aV10857915
p27
aV10331241
p28
aa(lp29
V25757928
p30
aV24594507
p31
aV22675107
p32
aV20030479
p33
aV15644472
p34
aa(lp35
V27542086
p36
aV21962677
p37
aV21334186
p38
aV18817916
p39
aV2488636
p40
aV4015686
p41
aa(lp42
V28218710
p43
aV25312732
p44
aV20556559
p45
aa(lp46
V7237786
p47
aa(lp48
V722713
p49
aa(lp50
V1483836
p51
aa(lp52
V22386259
p53
aa(lp54
V23117658
p55
aV20080373
p56
aV19074529
p57
aV16432273
p58
aV12527338
p59
aa(lp60
V24619917
p61
aa(lp62
V28588690
p63
aV27591379
p64
aV27050329
p65
aV19074529
p66
aV16442130
p67
aa(lp68
V23384552
p69
aa(lp70
V26507574
p71
aa(lp72
V15578876
p73
aV137074
p74
aa(lp75
V27542086
p76
aV21962677
p77
aV21334186
p78
aV18817916
p79
aV2488636
p80
aV4015686
p81
aa(lp82
V22271159
p83
aV19757094
p84
aV9221877
p85
aa(lp86
V23384552
p87
aa(lp88
V21437357
p89
aV10088878
p90
aa(lp91
V7057266
p92
aa(lp93
V4205889
p94
aa(lp95
V26348532
p96
aV26175037
p97
aV24671746
p98
aV19414517
p99
aV14766022
p100
aV11834913
p101
aV11728242
p102
aV11475888
p103
aa(lp104
V16290938
p105
aa(lp106
V26507574
p107
aa(lp108
V27591379
p109
aV27050329
p110
aV19074529
p111
aa(lp112
V28725042
p113
aV14596440
p114
aa(lp115
V25848132
p116
aV25356900
p117
aV17958743
p118
aa(lp119
V12545430
p120
aV11755765
p121
aa(lp122
V20149620
p123
aV2630633
p124
aa(lp125
V16219344
p126
aV15807104
p127
aV12637241
p128
aV8078495
p129
aV3143308
p130
aa(lp131
V28218710
p132
aa(lp133
V25284702
p134
aa(lp135
V21872378
p136
aV18852190
p137
aV11210401
p138
aV966139
p139
aV235256
p140
aa(lp141
V20737064
p142
aV18294668
p143
aV10535755
p144
aV8939773
p145
aV2630633
p146
aV3395132
p147
aV3781349
p148
aV6497379
p149
aV6833262
p150
aV1257593
p151
aV4702571
p152
aa(lp153
V25345427
p154
aV24430725
p155
aV23094794
p156
aV22271159
p157
aV9221877
p158
aa(lp159
V28725042
p160
aa(lp161
V25499135
p162
aa(lp163
V28218710
p164
aa(lp165
V10446371
p166
aa(lp167
V23384552
p168
aV23193816
p169
aV12423514
p170
aV1763520
p171
aa(lp172
V28588690
p173
aV27591379
p174
aV27050329
p175
aV19074529
p176
aV16442130
p177
aa(lp178
V11980386
p179
aa(lp180
V23750918
p181
aV23373529
p182
aV21797258
p183
aV2271712
p184
aa(lp185
V11336843
p186
aV1483836
p187
aV6615442
p188
aa(lp189
V2770053
p190
aV4084561
p191
aV4062432
p192
aV3857611
p193
aV465881
p194
aV4125724
p195
aa(lp196
V20978134
p197
aV20110994
p198
aV20018758
p199
aV17523679
p200
aV16270630
p201
aV9271208
p202
aV4084561
p203
aa(lp204
V25284702
p205
aa(lp206
V11454729
p207
aa(lp208
V7613014
p209
aV5285381
p210
aa(lp211
V17944539
p212
aa(lp213
V7844128
p214
aa(lp215
V27622439
p216
aV21713343
p217
aV9474754
p218
aa(lp219
V22434333
p220
aa(lp221
V16219344
p222
aa(lp223
V722713
p224
aa(lp225
V23073199
p226
aa(lp227
V27626254
p228
aV21400007
p229
aa(lp230
V23117658
p231
aV20080373
p232
aV19074529
p233
aV16432273
p234
aV12527338
p235
aa(lp236
V25172718
p237
aV23073199
p238
aV22434333
p239
aa(lp240
V23073199
p241
aa(lp242
V19757094
p243
aV16322720
p244
aV573373
p245
aV1089039
p246
aa(lp247
V23117658
p248
aV20080373
p249
aV19074529
p250
aV16432273
p251
aV12527338
p252
aa(lp253
V25362608
p254
aa(lp255
V27339635
p256
aV21053991
p257
aV20560926
p258
aV17592002
p259
aV16704557
p260
aV15563178
p261
aV12559675
p262
aV12087878
p263
aV7914075
p264
aV5854428
p265
aa(lp266
V9360981
p267
aa(lp268
V23117658
p269
aV20080373
p270
aV19074529
p271
aV16432273
p272
aV12527338
p273
aa(lp274
V9143352
p275
aa(lp276
V27123553
p277
aV25031079
p278
aV23807811
p279
aV18814316
p280
aV15158792
p281
aa(lp282
V27920275
p283
aV1824172
p284
aa(lp285
V17123596
p286
aV1483836
p287
aV7356538
p288
aa(lp289
V23924605
p290
aV20232881
p291
aV17652830
p292
aa(lp293
V19380237
p294
aV17529891
p295
aV9399124
p296
aV8577178
p297
aV6655019
p298
aV619119
p299
aa(lp300
V12545430
p301
aV11755765
p302
aa(lp303
V722713
p304
aa(lp305
V21720037
p306
aV20570667
p307
aV11285262
p308
aV1483836
p309
aV1700667
p310
aV2937470
p311
aa(lp312
V22434333
p313
aa(lp314
V28588690
p315
aV27591379
p316
aV27050329
p317
aV19074529
p318
aV16442130
p319
aa(lp320
V20617421
p321
aa(lp322
V2770053
p323
aV6773541
p324
aV465069
p325
aa(lp326
V16082422
p327
aV12208892
p328
aa(lp329
V28111103
p330
aV20650733
p331
aV27722966
p332
aV15963007
p333
aV12359135
p334
aV9403289
p335
aa(lp336
V19380237
p337
aa(lp338
V16420470
p339
aa(lp340
V9143352
p341
aa(lp342
V28588690
p343
aV27591379
p344
aV27050329
p345
aV19074529
p346
aV16442130
p347
aa(lp348
V2790016
p349
aV3764083
p350
aa(lp351
V23515512
p352
aa(lp353
V2883283
p354
aV3942599
p355
aV6719405
p356
aa(lp357
V9488549
p358
aV9104903
p359
aa(lp360
V19074529
p361
aa(lp362
V28154262
p363
aV27704551
p364
aV26319638
p365
aV26209072
p366
aV26161939
p367
aV4743122
p368
aa(lp369
V12021227
p370
aV8833911
p371
aa(lp372
V22859904
p373
aV20842518
p374
aV14570069
p375
aV9493600
p376
aa(lp377
V1732719
p378
aa(lp379
V27428755
p380
aV22896727
p381
aV21873815
p382
aV21562657
p383
aV18502701
p384
aV9449565
p385
aV9399124
p386
aV8577178
p387
aV6655019
p388
aV7452487
p389
aV6017839
p390
aa(lp391
V3131970
p392
aV4033629
p393
aa(lp394
V12973797
p395
aa(lp396
V21317627
p397
aa(lp398
V26280206
p399
aV23733735
p400
aV15714567
p401
aV12726839
p402
aV3113404
p403
aV4049474
p404
aa(lp405
V23680544
p406
aV23315911
p407
aV16828949
p408
aV16082422
p409
aV7620838
p410
aV7504487
p411
aV8461031
p412
aa(lp413
V23384552
p414
aa(lp415
V8297331
p416
aV4112446
p417
aa(lp418
V24633035
p419
aV21686472
p420
aV16639344
p421
aV19667530
p422
aV9463793
p423
aV1976072
p424
aa(lp425
V27648983
p426
aV26329625
p427
aV20174755
p428
aV15389233
p429
aV10421279
p430
aV7831650
p431
aV1926063
p432
aV342250
p433
aa(lp434
V28533706
p435
aV25216921
p436
aV20225277
p437
aV12385724
p438
aa(lp439
V3113404
p440
aa(lp441
V23301676
p442
aV18855611
p443
aV11456121
p444
aV9094199
p445
aa(lp446
V11286326
p447
aa(lp448
V722713
p449
aa(lp450
V28160263
p451
aV15834566
p452
aV14572906
p453
aa(lp454
V10418961
p455
aV5518179
p456
aa(lp457
V28588690
p458
aV27591379
p459
aV27050329
p460
aV19074529
p461
aV16442130
p462
aa(lp463
V16027402
p464
aa(lp465
V21125812
p466
aa(lp467
V7867667
p468
aa(lp469
V9354587
p470
aV4020838
p471
aV6423422
p472
aa(lp473
V3745089
p474
aV1195101
p475
aa(lp476
V26552755
p477
aV24484401
p478
aV24230489
p479
aV18698879
p480
aV15900282
p481
aV15651704
p482
aV11902904
p483
aV11251350
p484
aV11096528
p485
aV9361366
p486
aV7429002
p487
aa(lp488
V11755743
p489
aa(lp490
V20018758
p491
aa(lp492
V12377996
p493
aa(lp494
V9668196
p495
aa(lp496
V27537530
p497
aV23094539
p498
aV17368277
p499
aV16235512
p500
aV736986
p501
aV1189231
p502
aV4775477
p503
aV5065668
p504
aa(lp505
V2790016
p506
aa(lp507
V19179800
p508
aV1629291
p509
aa(lp510
V19074529
p511
aa(lp512
V28218710
p513
aa(lp514
V25439172
p515
aV12036392
p516
aV10073863
p517
aV9825949
p518
aV8593127
p519
aV7955780
p520
aV966139
p521
aa(lp522
V21705322
p523
aV14654717
p524
aV9474754
p525
aV24526072
p526
aa(lp527
V25733806
p528
aa(lp529
V6732448
p530
aa(lp531
V16219344
p532
aV15807104
p533
aV8078495
p534
aV3143308
p535
aa(lp536
V8793611
p537
aV8793602
p538
aV7981922
p539
aV4153008
p540
aa(lp541
V27063071
p542
aV21481181
p543
aV21455855
p544
aV20690781
p545
aV19783710
p546
aV18319497
p547
aV16321846
p548
aV14685013
p549
aV4208196
p550
aa(lp551
V27591379
p552
aa(lp553
V722713
p554
aa(lp555
V23680544
p556
aV23315911
p557
aV16828949
p558
aV16082422
p559
aV7620838
p560
aV7504487
p561
aV8461031
p562
aa(lp563
V25597592
p564
aV25288566
p565
aV11464470
p566
aV8799019
p567
aV7634259
p568
aV1342304
p569
aV2151728
p570
aV3324382
p571
aa(lp572
V7057266
p573
aa(lp574
V18288423
p575
aa(lp576
V22271159
p577
aV19757094
p578
aV9221877
p579
aa(lp580
V25172718
p581
aV23073199
p582
aa(lp583
V27462142
p584
aV25172718
p585
aV22434333
p586
aa(lp587
V25733806
p588
aa(lp589
V28588690
p590
aV27591379
p591
aV27050329
p592
aV19074529
p593
aV16442130
p594
aa(lp595
V3984944
p596
aa(lp597
V28250272
p598
aV24670388
p599
aV19934397
p600
aV16442130
p601
aV10895987
p602
aa(lp603
V23301676
p604
aV18855611
p605
aV11456121
p606
aV9094199
p607
aa(lp608
V18847414
p609
aV18180622
p610
aV16362716
p611
aV15571354
p612
aV12092009
p613
aV9188181
p614
aV7719471
p615
aV3113404
p616
aV6183731
p617
aV499421
p618
aa(lp619
V19074529
p620
aa(lp621
V25746367
p622
aV22566187
p623
aV8987162
p624
aV5584289
p625
aa(lp626
V28111103
p627
aV22702966
p628
aa(lp629
V6205441
p630
aa(lp631
V25576831
p632
aV25118676
p633
aV5126906
p634
aa(lp635
V722713
p636
aa(lp637
V20737064
p638
aV18294668
p639
aV10535755
p640
aV8939773
p641
aV2630633
p642
aV3395132
p643
aV3781349
p644
aV6497379
p645
aV6833262
p646
aV1257593
p647
aV4702571
p648
aa(lp649
V6644013
p650
aV1169696
p651
aV1134606
p652
aa(lp653
V22271159
p654
aV19757094
p655
aV9221877
p656
aa(lp657
V16235512
p658
aV6277693
p659
aV6128159
p660
aV1238440
p661
aa(lp662
V23589129
p663
aV21155624
p664
aV8968028
p665
aV8939773
p666
aa(lp667
V16235512
p668
aV12910398
p669
aV11295690
p670
aV9391297
p671
aV8404935
p672
aV2518223
p673
aV1238440
p674
aV1189230
p675
aV4570220
p676
aV13115980
p677
aa(lp678
V28214948
p679
aV23945031
p680
aV16792090
p681
aV12757117
p682
aV2271712
p683
aV3109487
p684
aV6416116
p685
aV6304144
p686
aV7452791
p687
aa(lp688
V27175644
p689
aV26688208
p690
aV24525259
p691
aV24247877
p692
aV21601733
p693
aV16082422
p694
aV12168506
p695
aV12087878
p696
aV10440472
p697
aa(lp698
V22933513
p699
aV19552747
p700
aa.