(lp0
(lp1
V23589925
p2
aa(lp3
V23124792
p4
aV22883353
p5
aV9232210
p6
aV3453427
p7
aV6085032
p8
aV6221709
p9
aV6214234
p10
aV6182175
p11
aV6791225
p12
aV727897
p13
aa(lp14
V28489298
p15
aa(lp16
V11720080
p17
aV10805662
p18
aV7562938
p19
aV6119042
p20
aV13607813
p21
aa(lp22
V15630231
p23
aV15630184
p24
aa(lp25
V20557447
p26
aa(lp27
V11137513
p28
aV1691862
p29
aa(lp30
V27258736
p31
aV22973366
p32
aV18774200
p33
aV12762832
p34
aV10651691
p35
aa(lp36
V25053822
p37
aa(lp38
V12623560
p39
aV10477802
p40
aa(lp41
V24983742
p42
aa(lp43
V26526398
p44
aV16817724
p45
aV14681962
p46
aV7969857
p47
aV3164253
p48
aV3578980
p49
aV3673629
p50
aV6380227
p51
aa(lp52
V19782065
p53
aV1980817
p54
aV2879212
p55
aa(lp56
V27904941
p57
aV17376592
p58
aa(lp59
V18500675
p60
aV16018996
p61
aV15294446
p62
aV1681976
p63
aV2570820
p64
aV3337221
p65
aV3718818
p66
aV4003775
p67
aV6126486
p68
aV242289
p69
aV4398188
p70
aV4382031
p71
aa(lp72
V8102927
p73
aa(lp74
V15829422
p75
aV14684260
p76
aV8848445
p77
aa(lp78
V20623616
p79
aV16168968
p80
aV15862904
p81
aV12393293
p82
aV10518243
p83
aa(lp84
V23590289
p85
aa(lp86
V25700112
p87
aV18451316
p88
aV16141574
p89
aV10096827
p90
aa(lp91
V17553739
p92
aV10704136
p93
aV9483264
p94
aV4260904
p95
aV4394190
p96
aa(lp97
V11156967
p98
aV9131412
p99
aV8907591
p100
aV2977120
p101
aV3437923
p102
aa(lp103
V2581465
p104
aa(lp105
V10701933
p106
aV1368272
p107
aa(lp108
V40556
p109
aa(lp110
V27151911
p111
aV25712660
p112
aa(lp113
V1531411
p114
aa(lp115
V25514492
p116
aV19221726
p117
aV14971719
p118
aV1705101
p119
aV2542167
p120
aa(lp121
V28154308
p122
aV28154306
p123
aV25924535
p124
aV20556962
p125
aa(lp126
V20623616
p127
aV16168968
p128
aV15862904
p129
aV12393293
p130
aV10518243
p131
aa(lp132
V25514492
p133
aV19221726
p134
aV14971719
p135
aV1705101
p136
aV2542167
p137
aa(lp138
V15223308
p139
aa(lp140
V25514492
p141
aV19221726
p142
aV14971719
p143
aV1705101
p144
aV2542167
p145
aa(lp146
V12144742
p147
aV3370759
p148
aa(lp149
V25890690
p150
aV23878024
p151
aV22124880
p152
aV21039758
p153
aV17301733
p154
aV9260034
p155
aa(lp156
V8704936
p157
aV8161610
p158
aV7076743
p159
aV4387882
p160
aa(lp161
V12213057
p162
aV11890901
p163
aV7616243
p164
aa(lp165
V12138693
p166
aV11558161
p167
aa(lp168
V27707425
p169
aV27146978
p170
aV12193739
p171
aa(lp172
V6170749
p173
aa(lp174
V23123711
p175
aV15078342
p176
aa(lp177
V16382196
p178
aa(lp179
V8817642
p180
aV6387510
p181
aa(lp182
V19874025
p183
aa(lp184
V10579688
p185
aV2942146
p186
aV2955560
p187
aa(lp188
V25053822
p189
aa(lp190
V22216448
p191
aV9174969
p192
aV1364164
p193
aV3760090
p194
aV14018677
p195
aa(lp196
V22015589
p197
aa(lp198
V16344854
p199
aa(lp200
V22855946
p201
aa(lp202
V24907546
p203
aV23984531
p204
aV21806678
p205
aV20839212
p206
aV14531466
p207
aV12387308
p208
aV1974304
p209
aV2730388
p210
aV6131955
p211
aV13626732
p212
aa(lp213
V4391559
p214
aa(lp215
V10668041
p216
aa(lp217
V2574029
p218
aa(lp219
V17827869
p220
aV239732
p221
aa(lp222
V16880667
p223
aV6181652
p224
aa(lp225
V25890690
p226
aV23878024
p227
aV22124880
p228
aV21039758
p229
aV17301733
p230
aV9260034
p231
aa(lp232
V25053822
p233
aa(lp234
V23234468
p235
aV22476973
p236
aV19452281
p237
aV19014991
p238
aV9212813
p239
aa(lp240
V24417241
p241
aV21159605
p242
aV11720080
p243
aV9687567
p244
aa(lp245
V3366724
p246
aV6858783
p247
aa(lp248
V2872680
p249
aa(lp250
V9928682
p251
aa(lp252
V10618477
p253
aa(lp254
V3115619
p255
aV4024659
p256
aa(lp257
V20855444
p258
aV19895667
p259
aV12213227
p260
aV9375663
p261
aV8836617
p262
aV8882625
p263
aa(lp264
V27756601
p265
aV26048308
p266
aV12081154
p267
aa(lp268
V9042234
p269
aV4391734
p270
aa(lp271
V19602852
p272
aa(lp273
V11331707
p274
aV9501243
p275
aa(lp276
V14146367
p277
aa(lp278
V22939150
p279
aa(lp280
V16364576
p281
aa(lp282
V20213656
p283
aa(lp284
V28403892
p285
aV15595567
p286
aa(lp287
V18812024
p288
aa(lp289
V1687723
p290
aV1677578
p291
aV6148420
p292
aa(lp293
V20949997
p294
aV20228413
p295
aV16925996
p296
aV9468342
p297
aV6349963
p298
aa(lp299
V23376094
p300
aV21539001
p301
aV19682958
p302
aV3021903
p303
aV6800167
p304
aV4424022
p305
aa(lp306
V25053822
p307
aa(lp308
V16759109
p309
aa(lp310
V1357941
p311
aV1861841
p312
aV6203368
p313
aV172983
p314
aV4135153
p315
aV4147434
p316
aV4126138
p317
aV5982882
p318
aa(lp319
V19275272
p320
aV18663671
p321
aV18585523
p322
aV17898431
p323
aV17284085
p324
aV15626873
p325
aV12913705
p326
aV11601802
p327
aa(lp328
V14510616
p329
aa(lp330
V23157658
p331
aV20479570
p332
aV16457636
p333
aV14596851
p334
aV12061255
p335
aV11558161
p336
aV11063217
p337
aV9131773
p338
aV8887757
p339
aV7591422
p340
aV2435366
p341
aa(lp342
V1977818
p343
aV7129820
p344
aV202690
p345
aa(lp346
V25213055
p347
aV17141480
p348
aV11521173
p349
aV10383922
p350
aV8955867
p351
aV8907591
p352
aV8100527
p353
aV1687584
p354
aV3367105
p355
aV6416920
p356
aV170945
p357
aa(lp358
V7681268
p359
aV3687067
p360
aV3751121
p361
aV2868920
p362
aV479076
p363
aV4871705
p364
aV14908889
p365
aa(lp366
V23892676
p367
aV8105716
p368
aV6614419
p369
aV6182346
p370
aa(lp371
V23364789
p372
aV21691231
p373
aa(lp374
V12432476
p375
aV4395871
p376
aa(lp377
V17133778
p378
aV10990540
p379
aV1681976
p380
aV1675834
p381
aV2223803
p382
aa(lp383
V20972784
p384
aV19879136
p385
aV7903486
p386
aa(lp387
V2872680
p388
aa(lp389
V15630231
p390
aV15630184
p391
aa(lp392
V16404130
p393
aV8907591
p394
aV2058472
p395
aV23536
p396
aV11440
p397
aV4147425
p398
aa(lp399
V10634092
p400
aV9131412
p401
aV8907591
p402
aV7886119
p403
aV1353262
p404
aV2901367
p405
aV6110727
p406
aV577457
p407
aV4148625
p408
aa(lp409
V15233472
p410
aV9865509
p411
aV9833646
p412
aV9825114
p413
aV9655687
p414
aV9131412
p415
aV8955867
p416
aV8907591
p417
aV8016188
p418
aa(lp419
V12182878
p420
aV9178521
p421
aV6309593
p422
aV13489172
p423
aa(lp424
V10215151
p425
aV9698051
p426
aa(lp427
V6387510
p428
aa(lp429
V1185409
p430
aV239546
p431
aa(lp432
V6147056
p433
aV6138034
p434
aa(lp435
V23474847
p436
aV12926980
p437
aV8065777
p438
aV2474349
p439
aV2922411
p440
aV4417901
p441
aV14324236
p442
aa(lp443
V2896230
p444
aa(lp445
V1382876
p446
aa(lp447
V1352821
p448
aa(lp449
V8429241
p450
aa(lp451
V11881980
p452
aV8889686
p453
aV2844310
p454
aV3490237
p455
aV520477
p456
aV943422
p457
aa(lp458
V23134233
p459
aV21903238
p460
aV1872894
p461
aV3401249
p462
aV6112205
p463
aV708209
p464
aa(lp465
V10416826
p466
aa(lp467
V8429241
p468
aa(lp469
V25404166
p470
aV24907546
p471
aV24361550
p472
aV23984531
p473
aV15808899
p474
aV10218824
p475
aV239857
p476
aV4311771
p477
aa(lp478
V8377843
p479
aV13722430
p480
aa(lp481
V28154308
p482
aV19602852
p483
aa(lp484
V9192103
p485
aa(lp486
V24907546
p487
aV23984531
p488
aa(lp489
V22367578
p490
aV19537934
p491
aV18599216
p492
aV14610252
p493
aa(lp494
V25053822
p495
aa(lp496
V26770383
p497
aa(lp498
V9100
p499
aa(lp500
V10465415
p501
aa(lp502
V18789706
p503
aV18619722
p504
aV12081154
p505
aV10429839
p506
aV10383922
p507
aa(lp508
V33829
p509
aV4387833
p510
aV14392587
p511
aV14930284
p512
aa(lp513
V16750932
p514
aV7564165
p515
aV1663088
p516
aV2574029
p517
aV6537895
p518
aV6124981
p519
aa(lp520
V1687723
p521
aV1677578
p522
aV6148420
p523
aa(lp524
V11484418
p525
aV9192103
p526
aV1382876
p527
aV2573996
p528
aV2449149
p529
aV2872680
p530
aV59001
p531
aV4394857
p532
aV4193681
p533
aa(lp534
V8103103
p535
aa(lp536
V4104654
p537
aa(lp538
V25787947
p539
aV25109791
p540
aV17301733
p541
aa(lp542
V9476868
p543
aV1819736
p544
aV1954975
p545
aV2574040
p546
aV2461715
p547
aV3439830
p548
aa(lp549
V9332002
p550
aa(lp551
V20101035
p552
aa(lp553
V1684296
p554
aa(lp555
V17452107
p556
aV17447421
p557
aV9468342
p558
aV8240385
p559
aV1976067
p560
aV8204
p561
aV13935200
p562
aa(lp563
V6309593
p564
aa(lp565
V24288292
p566
aV9925288
p567
aa(lp568
V387491
p569
aa(lp570
V20951716
p571
aa(lp572
V25404166
p573
aV24907546
p574
aV24361550
p575
aV23984531
p576
aV15808899
p577
aV10218824
p578
aV239857
p579
aV4311771
p580
aa(lp581
V8535100
p582
aV1931077
p583
aV3407766
p584
aa(lp585
V6541624
p586
aV4187659
p587
aV4378840
p588
aa(lp589
V10766358
p590
aV10518685
p591
aa(lp592
V22608417
p593
aV11326986
p594
aa(lp595
V16048579
p596
aa(lp597
V1848607
p598
aV488500
p599
aa(lp600
V21237239
p601
aV16649252
p602
aV15627515
p603
aV14526266
p604
aV12755378
p605
aV10771310
p606
aV10604531
p607
aV7915609
p608
aV1635363
p609
aV6309593
p610
aV13535877
p611
aa(lp612
V28039911
p613
aV26301462
p614
aV12650837
p615
aV11108547
p616
aV8937715
p617
aV1359075
p618
aV2992665
p619
aV6682579
p620
aV1195655
p621
aa(lp622
V25417679
p623
aa(lp624
V11890901
p625
aV10812053
p626
aV2156177
p627
aV2824747
p628
aV6475104
p629
aa(lp630
V4405544
p631
aa(lp632
V22042170
p633
aV9865509
p634
aV9833646
p635
aV9825114
p636
aV9655687
p637
aV9131412
p638
aV8955867
p639
aV8907591
p640
aV8016188
p641
aa(lp642
V2482481
p643
aa(lp644
V26219510
p645
aa(lp646
V26219510
p647
aa(lp648
V8008203
p649
aa(lp650
V14971719
p651
aa(lp652
V15630231
p653
aV15630184
p654
aa(lp655
V23380540
p656
aV22002863
p657
aV22216448
p658
aV17515323
p659
aV7952060
p660
aV8104717
p661
aV2283137
p662
aV2751152
p663
aV7391200
p664
aa(lp665
V14351400
p666
aV18119723
p667
aV18115193
p668
aV20343930
p669
aa(lp670
V23732302
p671
aV9698828
p672
aV8040277
p673
aV8012709
p674
aV7689885
p675
aV1937692
p676
aV2542380
p677
aV2459501
p678
aV3597212
p679
aV6200500
p680
aa(lp681
V25875927
p682
aV18433911
p683
aV16141574
p684
aV14648903
p685
aV8289119
p686
aV14110521
p687
aa(lp688
V978414
p689
aa(lp690
V25514492
p691
aV19221726
p692
aV14971719
p693
aV1705101
p694
aV2542167
p695
aa(lp696
V20855444
p697
aV19895667
p698
aV12213227
p699
aV9375663
p700
aV8836617
p701
aV8882625
p702
aa(lp703
V27562995
p704
aV27035465
p705
aV26314567
p706
aV23456759
p707
aV15471044
p708
aa(lp709
V15736192
p710
aa(lp711
V26255886
p712
aV24751945
p713
aV18067547
p714
aa(lp715
V6881518
p716
aa(lp717
V25218489
p718
aV25163982
p719
aV23916824
p720
aa(lp721
V19886753
p722
aa(lp723
V26387685
p724
aV15112328
p725
aV10742540
p726
aV9455995
p727
aV8102528
p728
aV2983041
p729
aV6330765
p730
aV6192241
p731
aV6416920
p732
aV1037267
p733
aa(lp734
V10218824
p735
aV9401725
p736
aa(lp737
V25514492
p738
aV19221726
p739
aV14971719
p740
aV1705101
p741
aV2542167
p742
aa(lp743
V21211106
p744
aV19463907
p745
aV18066536
p746
aV9065813
p747
aV2268174
p748
aV6692368
p749
aV569238
p750
aV3616
p751
aV4260784
p752
aa(lp753
V21750179
p754
aa(lp755
V15761926
p756
aa(lp757
V9089800
p758
aV1978718
p759
aV3407766
p760
aV3000949
p761
aV2868995
p762
aa(lp763
V26921606
p764
aa(lp765
V24875151
p766
aV18483351
p767
aa.