(lp0
(lp1
V21842649
p2
aa(lp3
V23463507
p4
aa(lp5
V7
p6
aa(lp7
V24711053
p8
aa(lp9
V17936865
p10
aa(lp11
V11473412
p12
aa(lp13
V28479197
p14
aV26672339
p15
aV23408379
p16
aV22342978
p17
aV21842649
p18
aV21567414
p19
aV18166108
p20
aV12705395
p21
aV895396
p22
aa(lp23
V6428500
p24
aV6871540
p25
aa(lp26
V26792321
p27
aa(lp28
V16226267
p29
aV10517003
p30
aa(lp31
V12622230
p32
aV10588517
p33
aa(lp34
V27004438
p35
aV25138383
p36
aV6379304
p37
aa(lp38
V28358309
p39
aV26901193
p40
aV20955360
p41
aV19367123
p42
aV17895846
p43
aV17893865
p44
aV14505804
p45
aV12767507
p46
aa(lp47
V26944237
p48
aV17766070
p49
aa(lp50
V26863504
p51
aV21327569
p52
aV20302919
p53
aV16900785
p54
aV16022680
p55
aa(lp56
V21842649
p57
aV21434569
p58
aV21351587
p59
aV19639787
p60
aV15549657
p61
aV7735203
p62
aV2095565
p63
aa(lp64
V27542479
p65
aV24246090
p66
aV21261296
p67
aV16177193
p68
aV7828223
p69
aV6750077
p70
aa(lp71
V26432351
p72
aV4859384
p73
aa(lp74
V24084033
p75
aV23716136
p76
aV17846905
p77
aV10821120
p78
aV9180355
p79
aV8867997
p80
aV8267644
p81
aV4463271
p82
aa(lp83
V27465423
p84
aV26452516
p85
aV20148709
p86
aV17305481
p87
aV14630164
p88
aV10866331
p89
aV9434604
p90
aa(lp91
V26453509
p92
aV21871542
p93
aV18054183
p94
aa(lp95
V17601519
p96
aa(lp97
V18421431
p98
aV10187766
p99
aa(lp100
V26384001
p101
aa(lp102
V28648923
p103
aV3935121
p104
aV6428415
p105
aa(lp106
V26683377
p107
aa(lp108
V17237260
p109
aV15476746
p110
aV9453467
p111
aa(lp112
V14670369
p113
aV9139718
p114
aa(lp115
V9625603
p116
aa(lp117
V20495929
p118
aV20461739
p119
aV17628877
p120
aV16404705
p121
aa(lp122
V15637231
p123
aV15114513
p124
aV3117062
p125
aV6500847
p126
aV869407
p127
aa(lp128
V17045319
p129
aa(lp130
V22847190
p131
aV17045319
p132
aa(lp133
V25504502
p134
aV17827762
p135
aV11717180
p136
aV10064567
p137
aV10027798
p138
aa(lp139
V17045319
p140
aV8287433
p141
aa(lp142
V314790
p143
aa(lp144
V9243527
p145
aa(lp146
V6751386
p147
aa(lp148
V8207671
p149
aa(lp150
V27209705
p151
aV24854569
p152
aV23682780
p153
aV21277970
p154
aV18980260
p155
aV10757425
p156
aa(lp157
V21543072
p158
aV15790114
p159
aV11599361
p160
aV11501917
p161
aV7582795
p162
aV1421228
p163
aa(lp164
V18481011
p165
aa(lp166
V24761673
p167
aV22936325
p168
aV19521919
p169
aV18652350
p170
aV16759005
p171
aV16573002
p172
aV16572998
p173
aV11678672
p174
aV3402040
p175
aa(lp176
V26540436
p177
aV24712088
p178
aV23822670
p179
aV17067756
p180
aV7595942
p181
aV1177669
p182
aa(lp183
V15231000
p184
aV7735203
p185
aa(lp186
V22743574
p187
aV20372878
p188
aV17379772
p189
aV15226383
p190
aa(lp191
V24854569
p192
aV21277970
p193
aV18980260
p194
aV10757425
p195
aa(lp196
V28545384
p197
aV22588049
p198
aa(lp199
V18405417
p200
aV17393145
p201
aV9267659
p202
aV7620719
p203
aa(lp204
V15649425
p205
aa(lp206
V12235232
p207
aa(lp208
V20214504
p209
aV11076619
p210
aV1653028
p211
aV2853671
p212
aV2840781
p213
aV2839261
p214
aV2839260
p215
aV2893721
p216
aa(lp217
V27324742
p218
aV19883244
p219
aV19059680
p220
aV17380258
p221
aV15929069
p222
aV3365279
p223
aa(lp224
V26780950
p225
aV15655816
p226
aV12419529
p227
aa(lp228
V27387399
p229
aV23123264
p230
aV21240840
p231
aV17823873
p232
aa(lp233
V23625413
p234
aa(lp235
V1003411
p236
aV4413630
p237
aa(lp238
V208627
p239
aV1194366
p240
aV162874
p241
aa(lp242
V3423213
p243
aa(lp244
V4055289
p245
aa(lp246
V23017903
p247
aV21208684
p248
aV21104523
p249
aV19507042
p250
aV18666955
p251
aV16132210
p252
aV15334958
p253
aV11052754
p254
aV10563928
p255
aa(lp256
V27090925
p257
aV25985355
p258
aa(lp259
V12697026
p260
aa(lp261
V20455875
p262
aV11914097
p263
aa(lp264
V10730491
p265
aa(lp266
V23684435
p267
aV22182422
p268
aV10432202
p269
aa(lp270
V28626756
p271
aV22568036
p272
aV11446635
p273
aV2117614
p274
aa(lp275
V8786365
p276
aa(lp277
V26883599
p278
aV20455561
p279
aV20199826
p280
aV15998130
p281
aV15679314
p282
aa(lp283
V9380344
p284
aa(lp285
V11094639
p286
aa(lp287
V26232254
p288
aV26116014
p289
aV25307961
p290
aV24831513
p291
aV23266758
p292
aV17429803
p293
aV15605596
p294
aV15196757
p295
aV6667325
p296
aa(lp297
V25962156
p298
aV2785254
p299
aa(lp300
V21126078
p301
aa(lp302
V25861148
p303
aa(lp304
V21855572
p305
aV16288932
p306
aV14985837
p307
aV12133603
p308
aa(lp309
V19074288
p310
aV18356579
p311
aa(lp312
V26023940
p313
aa(lp314
V20837112
p315
aV14693173
p316
aV11437391
p317
aa(lp318
V27081063
p319
aa(lp320
V15997850
p321
aa(lp322
V24838368
p323
aV16928820
p324
aV15476675
p325
aV12748983
p326
aV12725326
p327
aV11459448
p328
aV10969724
p329
aV8879271
p330
aV7621448
p331
aV1578097
p332
aV3054526
p333
aa(lp334
V7573960
p335
aV3456972
p336
aV6121709
p337
aV115757
p338
aV1169977
p339
aa(lp340
V19950196
p341
aa(lp342
V26766930
p343
aV20227468
p344
aV12009315
p345
aa(lp346
V27228227
p347
aV24269959
p348
aV23562631
p349
aV23503849
p350
aV17574359
p351
aV17143540
p352
aV16853825
p353
aV15936523
p354
aV10437654
p355
aa(lp356
V37965
p357
aV697919
p358
aa(lp359
V22894052
p360
aV8110731
p361
aV6540303
p362
aa(lp363
V20450043
p364
aV17824582
p365
aV17176623
p366
aV16142002
p367
aV9696963
p368
aV6636855
p369
aV7097513
p370
aa(lp371
V11669465
p372
aa(lp373
V19969018
p374
aa(lp375
V22248345
p376
aV10413497
p377
aV7918372
p378
aa(lp379
V21556686
p380
aV9388954
p381
aV8594422
p382
aa(lp383
V27542479
p384
aV24813292
p385
aV24144632
p386
aV22514333
p387
aV21720012
p388
aV19333129
p389
aV17121179
p390
aV15701708
p391
aV12579851
p392
aV8140259
p393
aa(lp394
V14994194
p395
aa(lp396
V23983133
p397
aa(lp398
V17253844
p399
aa(lp400
V3992630
p401
aa(lp402
V27991959
p403
aa(lp404
V26920719
p405
aa(lp406
V6773155
p407
aa(lp408
V28254010
p409
aV24660617
p410
aV17637182
p411
aa(lp412
V22157581
p413
aV21796933
p414
aV19321237
p415
aV15946600
p416
aV12197073
p417
aV11201219
p418
aV10920530
p419
aV8857211
p420
aV2080894
p421
aV6209395
p422
aV7100235
p423
aa(lp424
V26930190
p425
aV25219641
p426
aV24750796
p427
aV24427928
p428
aV24326154
p429
aV22595400
p430
aV22422486
p431
aV21880869
p432
aV19908866
p433
aV17685574
p434
aV12615669
p435
aa(lp436
V22260009
p437
aV21156196
p438
aa(lp439
V1258667
p440
aV1055417
p441
aV4530264
p442
aV4215079
p443
aa(lp444
V9549892
p445
aa(lp446
V25446604
p447
aV23822670
p448
aa(lp449
V23519259
p450
aa(lp451
V24269959
p452
aa(lp453
V22885932
p454
aV20562409
p455
aV7588338
p456
aa(lp457
V21842649
p458
aa(lp459
V22873173
p460
aV20460744
p461
aV10657478
p462
aV7954360
p463
aV2380300
p464
aa(lp465
V25162585
p466
aa(lp467
V20053464
p468
aV16823255
p469
aV11016870
p470
aV10340293
p471
aV7482536
p472
aa(lp473
V9061495
p474
aa(lp475
V21409679
p476
aa(lp477
V25099990
p478
aV23643632
p479
aV23435944
p480
aV22729280
p481
aV19483320
p482
aV19096999
p483
aa(lp484
V22349766
p485
aV15102328
p486
aa(lp487
V20079881
p488
aa(lp489
V8035345
p490
aa(lp491
V16499019
p492
aa(lp493
V26849772
p494
aV24463153
p495
aV21348425
p496
aV20085279
p497
aV20006976
p498
aV17487616
p499
aV15702635
p500
aV14597150
p501
aV12785729
p502
aV9461647
p503
aa(lp504
V24761673
p505
aV20556796
p506
aV20026078
p507
aV11784146
p508
aa(lp509
V15757115
p510
aV8458589
p511
aV2107391
p512
aa(lp513
V3490393
p514
aa(lp515
V2860222
p516
aa(lp517
V19359525
p518
aa(lp519
V12409834
p520
aV11752117
p521
aV9507671
p522
aV7495471
p523
aV7702719
p524
aa(lp525
V22210037
p526
aa(lp527
V26474585
p528
aa(lp529
V26032046
p530
aV11755384
p531
aa(lp532
V18500810
p533
aa(lp534
V25906190
p535
aa(lp536
V24798712
p537
aV24230997
p538
aV22342779
p539
aV20570675
p540
aV19576596
p541
aV16104392
p542
aV3010063
p543
aV6820761
p544
aV7242874
p545
aa(lp546
V12643921
p547
aa(lp548
V18842418
p549
aa(lp550
V22174881
p551
aa(lp552
V28135396
p553
aV22566008
p554
aV22050707
p555
aV19954924
p556
aV19799646
p557
aV19626588
p558
aV19074288
p559
aV18813800
p560
aa(lp561
V15468113
p562
aV8252533
p563
aa(lp564
V25866720
p565
aV25028689
p566
aV24902398
p567
aV15272814
p568
aV2997559
p569
aa(lp570
V23518773
p571
aV11101644
p572
aV7886692
p573
aa(lp574
V26471095
p575
aV26093265
p576
aV24486396
p577
aV24135460
p578
aV21420481
p579
aa(lp580
V19459747
p581
aa(lp582
V9311626
p583
aV9169443
p584
aV1991039
p585
aV654312
p586
aa(lp587
V18022734
p588
aV16212923
p589
aa(lp590
V27847239
p591
aV3271647
p592
aV6655731
p593
aV6576719
p594
aa(lp595
V18164170
p596
aV10906321
p597
aa(lp598
V21823481
p599
aV21384439
p600
aV18598048
p601
aV10815016
p602
aa(lp603
V19359525
p604
aa(lp605
g6
aa(lp606
V18783947
p607
aV16928409
p608
aa(lp609
V20890809
p610
aV15679314
p611
aV12400706
p612
aa(lp613
V23111115
p614
aV15947002
p615
aV12100750
p616
aV8120058
p617
aV1445278
p618
aa(lp619
V24463153
p620
aV23056567
p621
aV20390770
p622
aV19481937
p623
aV14994185
p624
aa(lp625
V21939182
p626
aV11295361
p627
aV44389
p628
aa(lp629
V3024026
p630
aV2999397
p631
aa(lp632
V27004438
p633
aV25138383
p634
aV23839972
p635
aV6379304
p636
aa(lp637
V26593037
p638
aV26323141
p639
aV25200133
p640
aV24422393
p641
aV24126061
p642
aV21535527
p643
aV21513709
p644
aa(lp645
V26797293
p646
aV25240588
p647
aV25227714
p648
aV20873555
p649
aV19180956
p650
aV18293434
p651
aV16499021
p652
aV15635171
p653
aV12398905
p654
aV12079000
p655
aa(lp656
V22022384
p657
aV18729182
p658
aV11380153
p659
aa(lp660
V2503508
p661
aa(lp662
V22803368
p663
aV21954553
p664
aV16248550
p665
aa(lp666
V25946557
p667
aa(lp668
V10329669
p669
aV8520206
p670
aa(lp671
V26956857
p672
aa(lp673
V26849772
p674
aV20369276
p675
aV18958424
p676
aV10656413
p677
aa(lp678
V25456078
p679
aa(lp680
V20722631
p681
aa(lp682
g6
aa(lp683
V22868095
p684
aa(lp685
V11408264
p686
aV10329669
p687
aV9809464
p688
aV9335535
p689
aV9380038
p690
aV9155020
p691
aV8879530
p692
aV8520206
p693
aV8948463
p694
aV4084229
p695
aa(lp696
V25776008
p697
aa(lp698
V15284489
p699
aa(lp700
V26626245
p701
aV23126495
p702
aV22674731
p703
aV21108116
p704
aa(lp705
V21811916
p706
aa(lp707
V19445150
p708
aV15368673
p709
aa(lp710
V22698714
p711
aV15368673
p712
aa(lp713
V15541743
p714
aa(lp715
V15541743
p716
aa(lp717
V26093489
p718
aV23918964
p719
aV20657184
p720
aV20088895
p721
aV19846769
p722
aV16524605
p723
aV15479013
p724
aV11087505
p725
aV11536514
p726
aa(lp727
V19445150
p728
aa(lp729
V23525833
p730
aa(lp731
V15368673
p732
aa(lp733
V21059381
p734
aa(lp735
V18622056
p736
aV8095225
p737
aV3363219
p738
aa(lp739
V25151135
p740
aV15782326
p741
aV20291148
p742
aV20291147
p743
aa(lp744
V22224262
p745
aV12672986
p746
aa(lp747
V26132344
p748
aa(lp749
V26322627
p750
aV23126623
p751
aV23106092
p752
aa(lp753
V22568031
p754
aa(lp755
V25864014
p756
aV23838965
p757
aV21905729
p758
aV20878707
p759
aV12672511
p760
aV12005361
p761
aV10820186
p762
aa(lp763
V23945759
p764
aV17425103
p765
aa(lp766
V25863291
p767
aV25239890
p768
aV16215859
p769
aV11754587
p770
aV1532296
p771
aa(lp772
V15647077
p773
aV10442919
p774
aV8136666
p775
aV1321553
p776
aV2131219
p777
aa(lp778
V25392590
p779
aV24704449
p780
aV24692265
p781
aV3765656
p782
aa(lp783
V6611691
p784
aa(lp785
V27027701
p786
aV24055469
p787
aV10481066
p788
aa(lp789
V25906190
p790
aV17980193
p791
aV16701187
p792
aV12373694
p793
aa(lp794
V8380961
p795
aV1986261
p796
aV1832886
p797
aa(lp798
V27826751
p799
aV25675840
p800
aV25200026
p801
aV22405976
p802
aV20041802
p803
aV15963474
p804
aV12925310
p805
aV12720408
p806
aV12452676
p807
aV11958615
p808
aV3683587
p809
aa(lp810
V26373739
p811
aa(lp812
V9042729
p813
aa(lp814
V27324742
p815
aV23106092
p816
aV16791316
p817
aV16613723
p818
aV15026065
p819
aV14761182
p820
aV12220266
p821
aV11836125
p822
aV11206450
p823
aV1560433
p824
aa(lp825
V15153144
p826
aV14579928
p827
aV11750278
p828
aV10984304
p829
aV10715427
p830
aV9829620
p831
aa(lp832
V1057642
p833
aa(lp834
V23892470
p835
aV10212125
p836
aV9920289
p837
aV1908523
p838
aV1929287
p839
aV2332456
p840
aV2496231
p841
aV3365395
p842
aV3109431
p843
aV6411095
p844
aV6407475
p845
aV7193054
p846
aa(lp847
V22115353
p848
aV18940190
p849
aa(lp850
V24711053
p851
aa(lp852
V25611308
p853
aV25061854
p854
aV24134186
p855
aV19254150
p856
aV12653471
p857
aV12231191
p858
aV10083544
p859
aV9885413
p860
aV9378501
p861
aV7716191
p862
aV7921652
p863
aa(lp864
V12809953
p865
aa(lp866
V26286961
p867
aV19426756
p868
aa(lp869
V15740020
p870
aa(lp871
V24040645
p872
aa(lp873
V17365260
p874
aV11280545
p875
aV7672681
p876
aV7763101
p877
aV8512448
p878
aV3206562
p879
aa(lp880
V10782484
p881
aa(lp882
V27130315
p883
aV17644821
p884
aV17042918
p885
aV16855872
p886
aV15206756
p887
aV11271405
p888
aV14230395
p889
aa(lp890
V11600045
p891
aV2778659
p892
aa(lp893
V21287361
p894
aV17059175
p895
aa(lp896
V27046219
p897
aV24830396
p898
aV23047502
p899
aV22589419
p900
aV22519658
p901
aV20509659
p902
aV19066872
p903
aV8830063
p904
aV8556101
p905
aa(lp906
V17766012
p907
aV11741591
p908
aV19722315
p909
aa(lp910
V23058056
p911
aa(lp912
V13785767
p913
aa(lp914
V25537111
p915
aa(lp916
V9741298
p917
aa(lp918
V16580641
p919
aV15240183
p920
aa(lp921
V23462988
p922
aV18776506
p923
aV18029546
p924
aV8110731
p925
aV8243638
p926
aV2127317
p927
aV2613745
p928
aV2443368
p929
aV2581584
p930
aV6264032
p931
aa(lp932
V25537111
p933
aa(lp934
V20552523
p935
aa(lp936
V10708717
p937
aV8566154
p938
aV8035345
p939
aV2514267
p940
aa(lp941
V25456078
p942
aa(lp943
V12132774
p944
aV2648996
p945
aa(lp946
V26550789
p947
aV17510986
p948
aa(lp949
V24619274
p950
aV20847532
p951
aV15740020
p952
aa(lp953
V26616922
p954
aV26084799
p955
aV23627122
p956
aV23488931
p957
aV21061087
p958
aV11052707
p959
aa(lp960
V14616128
p961
aV10731696
p962
aV9348431
p963
aV7682064
p964
aV1596516
p965
aV2176469
p966
aV6432058
p967
aV4334395
p968
aa(lp969
V26783002
p970
aV26625288
p971
aV20355320
p972
aV18031885
p973
aV7700967
p974
aV2095797
p975
aV3378354
p976
aa(lp977
V27032710
p978
aV10815016
p979
aa(lp980
V22368050
p981
aV1277408
p982
aa(lp983
V21842649
p984
aa(lp985
V26483135
p986
aa(lp987
V8288272
p988
aa(lp989
V18719641
p990
aV10780878
p991
aV7784474
p992
aV1492103
p993
aV1491012
p994
aV1808628
p995
aV1674661
p996
aV1650000
p997
aV2903713
p998
aV3625311
p999
aV2424959
p1000
aa(lp1001
V25983037
p1002
aV21954887
p1003
aV16297942
p1004
aV15337461
p1005
aV14988480
p1006
aV11028786
p1007
aV8679111
p1008
aV7805052
p1009
aa(lp1010
V6067663
p1011
aa(lp1012
V14511910
p1013
aV8487757
p1014
aV2306261
p1015
aV2908851
p1016
aV3131970
p1017
aV2941899
p1018
aV6704176
p1019
aV6754320
p1020
aa(lp1021
V15334958
p1022
aa(lp1023
V27130315
p1024
aV21932299
p1025
aV21054933
p1026
aV1949893
p1027
aV7194334
p1028
aV4331500
p1029
aa(lp1030
V23519259
p1031
aa(lp1032
V20837112
p1033
aa(lp1034
V2500271
p1035
aV6132132
p1036
aV830660
p1037
aa(lp1038
V26778479
p1039
aV22247882
p1040
aa(lp1041
V25982303
p1042
aV21219921
p1043
aV15708786
p1044
aV7871897
p1045
aV13822692
p1046
aa(lp1047
V19467316
p1048
aa(lp1049
V25471097
p1050
aV24211328
p1051
aV23770591
p1052
aV15630252
p1053
aV15308586
p1054
aa(lp1055
V10924927
p1056
aV10708717
p1057
aV9469529
p1058
aa(lp1059
V17848282
p1060
aV15906167
p1061
aV9585009
p1062
aV7665012
p1063
aV7971717
p1064
aV8480337
p1065
aV8468657
p1066
aV2056397
p1067
aV3593925
p1068
aV3081748
p1069
aa(lp1070
V26143232
p1071
aV21056645
p1072
aV17397203
p1073
aV16019890
p1074
aV3023332
p1075
aa(lp1076
V27234135
p1077
aV23513467
p1078
aV21440614
p1079
aV20064550
p1080
aV19056479
p1081
aa(lp1082
V24673367
p1083
aV23947936
p1084
aV22582907
p1085
aV21319773
p1086
aa(lp1087
V27402199
p1088
aV26468892
p1089
aa(lp1090
V23750847
p1091
aV22849695
p1092
aV22207656
p1093
aV17603196
p1094
aV16729968
p1095
aV15753395
p1096
aV9643450
p1097
aV3236207
p1098
aV3171886
p1099
aa(lp1100
V27736157
p1101
aa(lp1102
V25097889
p1103
aV24934518
p1104
aV23985493
p1105
aV23678822
p1106
aV23307235
p1107
aV22728247
p1108
aV20218292
p1109
aV17510986
p1110
aV12458473
p1111
aa(lp1112
V21985227
p1113
aV11858749
p1114
aa(lp1115
V15381015
p1116
aa(lp1117
V21205922
p1118
aV14684299
p1119
aa(lp1120
V15921406
p1121
aV5716918
p1122
aV5599150
p1123
aV5220811
p1124
aV13445124
p1125
aV13445116
p1126
aV13328046
p1127
aV13310228
p1128
aa(lp1129
V27274778
p1130
aV20818732
p1131
aV19560175
p1132
aV15740020
p1133
aa(lp1134
V25300031
p1135
aV21791624
p1136
aV15669691
p1137
aV2288224
p1138
aa(lp1139
V17502830
p1140
aV16361298
p1141
aV14535263
p1142
aV14534344
p1143
aV12840091
p1144
aV12840086
p1145
aV12566486
p1146
aV9067278
p1147
aV3109390
p1148
aV2948949
p1149
aa(lp1150
V3356406
p1151
aa(lp1152
V18300493
p1153
aa(lp1154
V6687603
p1155
aa(lp1156
V8403233
p1157
aa(lp1158
V26229448
p1159
aV25245999
p1160
aV20030669
p1161
aV17464165
p1162
aV16511076
p1163
aV11325029
p1164
aV11132249
p1165
aV9510097
p1166
aV8169214
p1167
aV8240383
p1168
aV8511981
p1169
aa(lp1170
V10708717
p1171
aV8566154
p1172
aV8035345
p1173
aa(lp1174
V22150571
p1175
aV22319267
p1176
aV15504671
p1177
aV12683813
p1178
aV9369328
p1179
aV11538327
p1180
aV3836513
p1181
aV11541969
p1182
aV14119857
p1183
aV13000649
p1184
aV14934872
p1185
aa(lp1186
V2677304
p1187
aV2907559
p1188
aV2886616
p1189
aV3936076
p1190
aV6151974
p1191
aa(lp1192
V7480214
p1193
aa(lp1194
V27324742
p1195
aV23106092
p1196
aV16791316
p1197
aV16613723
p1198
aV15026065
p1199
aV14761182
p1200
aV12220266
p1201
aV11836125
p1202
aV11206450
p1203
aV1560433
p1204
aa(lp1205
V26616922
p1206
aV23627122
p1207
aV23488931
p1208
aV21061087
p1209
aV11052707
p1210
aa(lp1211
V25396337
p1212
aV16025143
p1213
aa(lp1214
V15936523
p1215
aa(lp1216
V21342663
p1217
aa(lp1218
V22034990
p1219
aV11041861
p1220
aV1586982
p1221
aV6980023
p1222
aV7082375
p1223
aa(lp1224
V24412788
p1225
aV18404310
p1226
aV14987986
p1227
aV44389
p1228
aa(lp1229
V17713271
p1230
aV869407
p1231
aa(lp1232
V25446604
p1233
aa(lp1234
V28292021
p1235
aV26653796
p1236
aV25686780
p1237
aV25138354
p1238
aV24680612
p1239
aV21853496
p1240
aV18980260
p1241
aV11829631
p1242
aa(lp1243
V16428082
p1244
aV9724250
p1245
aV2328530
p1246
aa(lp1247
V21701830
p1248
aa(lp1249
V18409037
p1250
aV17331331
p1251
aV16651744
p1252
aV16327145
p1253
aV11988854
p1254
aV10588517
p1255
aV10418340
p1256
aV9482162
p1257
aa(lp1258
V25794844
p1259
aV23146035
p1260
aa(lp1261
V18556200
p1262
aV16399627
p1263
aa(lp1264
V26475510
p1265
aV16310374
p1266
aV8840122
p1267
aV8032629
p1268
aV8360673
p1269
aV1323481
p1270
aV2601888
p1271
aV2450272
p1272
aV3300727
p1273
aV1092359
p1274
aV1057224
p1275
aa(lp1276
V11874343
p1277
aV5972068
p1278
aa(lp1279
V20461739
p1280
aa(lp1281
V27375835
p1282
aV25368530
p1283
aV17296274
p1284
aV16964640
p1285
aV14998588
p1286
aV314697
p1287
aa(lp1288
V22618373
p1289
aa(lp1290
V27567587
p1291
aV24459244
p1292
aV19375450
p1293
aV9232838
p1294
aa(lp1295
V8252533
p1296
aa(lp1297
V21910048
p1298
aa(lp1299
V21859259
p1300
aa(lp1301
V2964523
p1302
aa(lp1303
V18628404
p1304
aV17460149
p1305
aa(lp1306
V25396337
p1307
aV16428076
p1308
aV16025143
p1309
aa(lp1310
V27490778
p1311
aa(lp1312
V25145995
p1313
aV20965151
p1314
aV9848673
p1315
aV9434289
p1316
aV9055351
p1317
aa(lp1318
V16434053
p1319
aa(lp1320
V24199562
p1321
aa(lp1322
V27324742
p1323
aV19883244
p1324
aV19059680
p1325
aV17380258
p1326
aV15929069
p1327
aV3365279
p1328
aa(lp1329
V12367674
p1330
aa(lp1331
V10755463
p1332
aa(lp1333
V25675840
p1334
aV20041802
p1335
aV15963474
p1336
aV12925310
p1337
aV12720408
p1338
aV12452676
p1339
aV11958615
p1340
aa(lp1341
V11983509
p1342
aa(lp1343
V24055536
p1344
aV11937513
p1345
aa(lp1346
V20061479
p1347
aa(lp1348
V23668010
p1349
aV22039103
p1350
aV21162002
p1351
aV19326867
p1352
aV17661331
p1353
aV17292619
p1354
aV9346335
p1355
aV1859379
p1356
aa(lp1357
V17827660
p1358
aa(lp1359
V24530873
p1360
aa(lp1361
V12088434
p1362
aV11750278
p1363
aa(lp1364
V25794305
p1365
aV9297548
p1366
aV6449914
p1367
aa(lp1368
V24084033
p1369
aV23716136
p1370
aV17846905
p1371
aV10821120
p1372
aV9180355
p1373
aV8867997
p1374
aV8267644
p1375
aV4463271
p1376
aa(lp1377
V23519259
p1378
aa(lp1379
V14582960
p1380
aa(lp1381
V24898267
p1382
aV17336536
p1383
aa(lp1384
V6162498
p1385
aa(lp1386
V24101372
p1387
aa(lp1388
V25644343
p1389
aa(lp1390
V24652524
p1391
aa(lp1392
V19359525
p1393
aa(lp1394
V9461647
p1395
aa(lp1396
V21422204
p1397
aV8693037
p1398
aa(lp1399
V26460671
p1400
aV24310212
p1401
aV23027406
p1402
aa(lp1403
V22248345
p1404
aV10413497
p1405
aV7918372
p1406
aV1310225
p1407
aa(lp1408
V6604531
p1409
aV22282996
p1410
aV710027
p1411
aV240658
p1412
aV5164457
p1413
aa(lp1414
V18927354
p1415
aa(lp1416
V16105229
p1417
aa(lp1418
V21905712
p1419
aV2246074
p1420
aa(lp1421
V9225603
p1422
aa(lp1423
V14756190
p1424
aV12711246
p1425
aV12525118
p1426
aa(lp1427
V23263807
p1428
aa(lp1429
V8560498
p1430
aa(lp1431
V9425195
p1432
aa(lp1433
V24310099
p1434
aV23627084
p1435
aV19716872
p1436
aV18977107
p1437
aV17496167
p1438
aV17370292
p1439
aa(lp1440
V14648644
p1441
aV12927383
p1442
aV1404232
p1443
aV2471825
p1444
aV3511477
p1445
aa(lp1446
V26023940
p1447
aV25776008
p1448
aa(lp1449
V26944237
p1450
aV24310099
p1451
aV18492807
p1452
aV12599404
p1453
aV12467905
p1454
aV9500122
p1455
aV8586764
p1456
aV14230285
p1457
aa(lp1458
V27163892
p1459
aV9267979
p1460
aV7627738
p1461
aV973634
p1462
aV1036996
p1463
aV4723051
p1464
aV5545777
p1465
aa(lp1466
V26408136
p1467
aV25931417
p1468
aa(lp1469
V19388685
p1470
aa(lp1471
V24934677
p1472
aV20444882
p1473
aa(lp1474
V20686231
p1475
aV9829623
p1476
aV1921136
p1477
aa(lp1478
V24732412
p1479
aV11903069
p1480
aV11181495
p1481
aV9627094
p1482
aV3105811
p1483
aV1057224
p1484
aa(lp1485
V26364317
p1486
aV19190235
p1487
aa(lp1488
V18615770
p1489
aa(lp1490
V17846100
p1491
aa(lp1492
V19853865
p1493
aV19166832
p1494
aV17445778
p1495
aa(lp1496
V18615770
p1497
aa(lp1498
V25561400
p1499
aV21330005
p1500
aV20972784
p1501
aV11432743
p1502
aV8661934
p1503
aV1483363
p1504
aV1804759
p1505
aV3117062
p1506
aa(lp1507
V17988223
p1508
aa(lp1509
V22737858
p1510
aV9500120
p1511
aa(lp1512
V18404310
p1513
aa(lp1514
V8042906
p1515
aV3081009
p1516
aV814236
p1517
aV1184575
p1518
aa(lp1519
V19521919
p1520
aa(lp1521
V8035345
p1522
aa(lp1523
V10821043
p1524
aa(lp1525
V16792405
p1526
aa(lp1527
V5579465
p1528
aa(lp1529
V15856411
p1530
aa(lp1531
V28415473
p1532
aV27228476
p1533
aV23847105
p1534
aV18602074
p1535
aa(lp1536
V25270601
p1537
aV24311533
p1538
aV22803368
p1539
aV17992993
p1540
aV17727059
p1541
aV14611890
p1542
aV11458445
p1543
aV9875508
p1544
aV8582023
p1545
aa(lp1546
V2514267
p1547
aa(lp1548
V21108116
p1549
aa(lp1550
V19716623
p1551
aV6626233
p1552
aa(lp1553
V22119765
p1554
aa(lp1555
V26364660
p1556
aV21795992
p1557
aV19306232
p1558
aV18792767
p1559
aV14701912
p1560
aV10746877
p1561
aa(lp1562
V16404705
p1563
aa(lp1564
V25869205
p1565
aV21516342
p1566
aV20653671
p1567
aa(lp1568
V25584520
p1569
aV25308685
p1570
aV25148971
p1571
aV17655321
p1572
aa(lp1573
V20814525
p1574
aV160158
p1575
aV5674674
p1576
aa(lp1577
V26830670
p1578
aV26550789
p1579
aV25776008
p1580
aa(lp1581
V15352472
p1582
aa(lp1583
V27802600
p1584
aV26292150
p1585
aV24893859
p1586
aV24128449
p1587
aV19761189
p1588
aV19199585
p1589
aV17061839
p1590
aV11695879
p1591
aV11600045
p1592
aa(lp1593
V27254924
p1594
aV26383017
p1595
aV24128147
p1596
aV22803368
p1597
aV21480807
p1598
aa(lp1599
V23499413
p1600
aV7811350
p1601
aa(lp1602
V26883599
p1603
aV20455561
p1604
aV20199826
p1605
aV15998130
p1606
aV15679314
p1607
aa(lp1608
V9741297
p1609
aa(lp1610
V15635187
p1611
aa(lp1612
V23069585
p1613
aV18605236
p1614
aV8739213
p1615
aa(lp1616
V27936295
p1617
aV26550789
p1618
aV25946557
p1619
aV25421822
p1620
aV24292348
p1621
aV22060194
p1622
aV19662422
p1623
aV12020736
p1624
aV11131302
p1625
aV10823671
p1626
aa(lp1627
V26471600
p1628
aV25090705
p1629
aV21048310
p1630
aa(lp1631
V11600045
p1632
aa(lp1633
V25897899
p1634
aV23286881
p1635
aV19292769
p1636
aV18845675
p1637
aV18790837
p1638
aV17438146
p1639
aV15340773
p1640
aV11893573
p1641
aV10525427
p1642
aV10516177
p1643
aa(lp1644
V17827660
p1645
aa(lp1646
V12882260
p1647
aV1215526
p1648
aa(lp1649
V25955406
p1650
aV25446604
p1651
aV24134638
p1652
aV23470626
p1653
aV19466898
p1654
aV18065216
p1655
aV16181622
p1656
aV3316407
p1657
aa(lp1658
V2070447
p1659
aV3487327
p1660
aa(lp1661
V17193180
p1662
aa(lp1663
V25149665
p1664
aV23707980
p1665
aV20815929
p1666
aV17942234
p1667
aV17620346
p1668
aV15085069
p1669
aV10936511
p1670
aV9086178
p1671
aV1354343
p1672
aV3888346
p1673
aV2579709
p1674
aa(lp1675
V28154328
p1676
aV27281447
p1677
aV21842649
p1678
aV20942641
p1679
aV19731141
p1680
aV19397977
p1681
aV10656413
p1682
aV9720613
p1683
aa(lp1684
V19687342
p1685
aV15930752
p1686
aV8836613
p1687
aV1532164
p1688
aa(lp1689
V24711053
p1690
aa(lp1691
V17378609
p1692
aa(lp1693
V25833683
p1694
aV19681593
p1695
aV15093674
p1696
aV8330338
p1697
aa(lp1698
V8134419
p1699
aa(lp1700
V17192009
p1701
aV7809203
p1702
aa(lp1703
V23847105
p1704
aV17541200
p1705
aV12350137
p1706
aV11549465
p1707
aa(lp1708
V23126495
p1709
aV2623007
p1710
aa(lp1711
V9066010
p1712
aa(lp1713
V26241499
p1714
aa(lp1715
V27577857
p1716
aV1085150
p1717
aV1151680
p1718
aV6032962
p1719
aa(lp1720
V17299731
p1721
aa(lp1722
V20433963
p1723
aV17847129
p1724
aV17454042
p1725
aV15714543
p1726
aV14730924
p1727
aV7500270
p1728
aV2595754
p1729
aa(lp1730
V27641510
p1731
aV25239363
p1732
aV17681971
p1733
aa(lp1734
V26729203
p1735
aV26672339
p1736
aV23352442
p1737
aV22564908
p1738
aV12871156
p1739
aV12672986
p1740
aV8693035
p1741
aa(lp1742
V25536345
p1743
aV24703579
p1744
aV19103881
p1745
aa(lp1746
V25545282
p1747
aV18849031
p1748
aV3652380
p1749
aV7452663
p1750
aa(lp1751
V25675840
p1752
aa(lp1753
V20648561
p1754
aV15875722
p1755
aV9614704
p1756
aV9404012
p1757
aa(lp1758
V12969783
p1759
aa(lp1760
V24990389
p1761
aV18582112
p1762
aV7809200
p1763
aV8079815
p1764
aa(lp1765
V25906190
p1766
aV17980193
p1767
aV16701187
p1768
aV12373694
p1769
aa(lp1770
V25284342
p1771
aV24974465
p1772
aV24780919
p1773
aV22770942
p1774
aV21048310
p1775
aV20607501
p1776
aV17894552
p1777
aV12898234
p1778
aV11217086
p1779
aa(lp1780
V23720811
p1781
aV22401915
p1782
aV22062692
p1783
aV15501777
p1784
aV10496880
p1785
aa(lp1786
V27542499
p1787
aV12591109
p1788
aa(lp1789
V27403251
p1790
aV24275090
p1791
aV10810367
p1792
aa(lp1793
V26235805
p1794
aV17315926
p1795
aa(lp1796
V21783920
p1797
aV10432208
p1798
aa(lp1799
V15635280
p1800
aV7763550
p1801
aV1600148
p1802
aa(lp1803
V12969783
p1804
aa(lp1805
V21905712
p1806
aV2246074
p1807
aa(lp1808
V17237260
p1809
aV15476746
p1810
aV9453467
p1811
aa(lp1812
V25284342
p1813
aV21048310
p1814
aV17894552
p1815
aV17227629
p1816
aa(lp1817
V25943984
p1818
aV10499344
p1819
aV9419258
p1820
aV6679125
p1821
aa(lp1822
V26521943
p1823
aV24367241
p1824
aV22181075
p1825
aV20438793
p1826
aV16930909
p1827
aV1484346
p1828
aa(lp1829
V12215517
p1830
aV8879530
p1831
aV8520206
p1832
aV1573394
p1833
aa(lp1834
V20354348
p1835
aa(lp1836
V26299522
p1837
aV23879263
p1838
aV21971207
p1839
aV11407809
p1840
aa(lp1841
V10785418
p1842
aV8968536
p1843
aV8099963
p1844
aV8384112
p1845
aa(lp1846
V1159706
p1847
aa(lp1848
V22119765
p1849
aa(lp1850
V8588867
p1851
aa(lp1852
V15955027
p1853
aV11587333
p1854
aa(lp1855
V11961308
p1856
aV9501110
p1857
aa(lp1858
V19751180
p1859
aV14980448
p1860
aV12104052
p1861
aV11168395
p1862
aV10748274
p1863
aV10416830
p1864
aV9808070
p1865
aV9353570
p1866
aa(lp1867
V27700190
p1868
aV24459244
p1869
aV23608243
p1870
aV20208378
p1871
aV18346946
p1872
aa(lp1873
V22115353
p1874
aV18676677
p1875
aV10708717
p1876
aV9243527
p1877
aV8566154
p1878
aV8035345
p1879
aV2514267
p1880
aa(lp1881
V5982922
p1882
aa(lp1883
V28073097
p1884
aa(lp1885
V23142613
p1886
aV12538026
p1887
aV1797291
p1888
aa(lp1889
V18164566
p1890
aV17061839
p1891
aV16193817
p1892
aa(lp1893
V14558784
p1894
aa(lp1895
V23006989
p1896
aV19937633
p1897
aV17212046
p1898
aa(lp1899
V24953563
p1900
aV18086481
p1901
aa(lp1902
V2395093
p1903
aa(lp1904
V12357401
p1905
aa(lp1906
V26898408
p1907
aV18163582
p1908
aV11600045
p1909
aV8843662
p1910
aV1794414
p1911
aV1107218
p1912
aa(lp1913
V19557311
p1914
aV7095651
p1915
aa(lp1916
V19752399
p1917
aV19121116
p1918
aV9681504
p1919
aV9058535
p1920
aV8866620
p1921
aV2498315
p1922
aV26389
p1923
aa(lp1924
V23975028
p1925
aV22496117
p1926
aV18365692
p1927
aV9124534
p1928
aa(lp1929
V23812855
p1930
aV2285015
p1931
aa(lp1932
V2137712
p1933
aa(lp1934
V15697210
p1935
aa(lp1936
V26975378
p1937
aV22819301
p1938
aV16928698
p1939
aV14729123
p1940
aV11680818
p1941
aV11178940
p1942
aV9774172
p1943
aV2462407
p1944
aa(lp1945
V28367492
p1946
aV27542479
p1947
aV26323145
p1948
aV25090707
p1949
aV22499559
p1950
aV22262932
p1951
aV21243769
p1952
aV7946375
p1953
aa(lp1954
g6
aa(lp1955
V25434418
p1956
aV20578973
p1957
aV20397233
p1958
aa(lp1959
V8961160
p1960
aa(lp1961
V16236477
p1962
aa(lp1963
V25710362
p1964
aV25446604
p1965
aV23678822
p1966
aV23357818
p1967
aV23307235
p1968
aV15994044
p1969
aa(lp1970
V17760410
p1971
aa(lp1972
V16327189
p1973
aa(lp1974
V16327189
p1975
aa(lp1976
V24237381
p1977
aV8122520
p1978
aV1741572
p1979
aa(lp1980
V8739609
p1981
aV8672581
p1982
aV7889876
p1983
aV6178748
p1984
aV6169199
p1985
aV6167445
p1986
aV6259314
p1987
aV65357
p1988
aV975040
p1989
aa(lp1990
V27250087
p1991
aV25579573
p1992
aa(lp1993
V15308586
p1994
aa(lp1995
V12601674
p1996
aa(lp1997
V25270601
p1998
aV24311533
p1999
aV22803368
p2000
aV17992993
p2001
aV17727059
p2002
aV14611890
p2003
aV11458445
p2004
aV9875508
p2005
aV8582023
p2006
aa(lp2007
V27817931
p2008
aV16598708
p2009
aV16470728
p2010
aV16405978
p2011
aa(lp2012
V26630272
p2013
aV26338703
p2014
aV25807353
p2015
aV10501244
p2016
aa(lp2017
V25881570
p2018
aV22564506
p2019
aV19136914
p2020
aV12916066
p2021
aa(lp2022
V26456836
p2023
aa(lp2024
V19367123
p2025
aV17893865
p2026
aV16317159
p2027
aV15905586
p2028
aV12809953
p2029
aV12767507
p2030
aa(lp2031
V20553699
p2032
aV8288272
p2033
aa(lp2034
V21605652
p2035
aa(lp2036
V20440648
p2037
aV7473134
p2038
aV2909830
p2039
aa(lp2040
V20460744
p2041
aa(lp2042
V28479197
p2043
aV26672339
p2044
aV23408379
p2045
aV22342978
p2046
aV21842649
p2047
aV21567414
p2048
aV18166108
p2049
aV12705395
p2050
aV895396
p2051
aa(lp2052
V17666802
p2053
aa(lp2054
V25642980
p2055
aV17127507
p2056
aV15730243
p2057
aV7553963
p2058
aa(lp2059
V27331808
p2060
aV22332359
p2061
aV19110340
p2062
aV18275958
p2063
aV17451232
p2064
aV15149605
p2065
aV10798242
p2066
aV2999396
p2067
aV6470627
p2068
aV6722533
p2069
aa(lp2070
V26544118
p2071
aa(lp2072
V22995172
p2073
aa(lp2074
V23132311
p2075
aa(lp2076
V17988223
p2077
aV17530389
p2078
aV8512596
p2079
aa(lp2080
V15893896
p2081
aV15507341
p2082
aa(lp2083
V10821651
p2084
aa(lp2085
V21982436
p2086
aa(lp2087
V22516741
p2088
aV21104525
p2089
aV9464903
p2090
aV2499782
p2091
aa(lp2092
V23652591
p2093
aa(lp2094
V26414773
p2095
aV20653233
p2096
aV17313938
p2097
aa(lp2098
V25716997
p2099
aV19075247
p2100
aV14630002
p2101
aa(lp2102
V26414773
p2103
aV17658484
p2104
aV17313938
p2105
aa(lp2106
V25675840
p2107
aV23488931
p2108
aV11052707
p2109
aa(lp2110
V23603982
p2111
aV11667386
p2112
aV1950576
p2113
aV6248900
p2114
aa(lp2115
V26299522
p2116
aV25946557
p2117
aV22273350
p2118
aV20433088
p2119
aV12587209
p2120
aa(lp2121
V17335225
p2122
aa(lp2123
V25781220
p2124
aV25151099
p2125
aV21656355
p2126
aV16376386
p2127
aV11120185
p2128
aV8853310
p2129
aV8079501
p2130
aV1413867
p2131
aa(lp2132
V959584
p2133
aa(lp2134
V23364884
p2135
aa(lp2136
V24025789
p2137
aV17164475
p2138
aa(lp2139
V17498849
p2140
aa(lp2141
V20509659
p2142
aa(lp2143
V24116283
p2144
aV22171719
p2145
aV20714310
p2146
aV10989915
p2147
aa(lp2148
V25270601
p2149
aV24311533
p2150
aV22803368
p2151
aV17992993
p2152
aV17727059
p2153
aV14611890
p2154
aV11458445
p2155
aV9875508
p2156
aV8582023
p2157
aa(lp2158
V27324742
p2159
aV19883244
p2160
aV19059680
p2161
aV17380258
p2162
aV15929069
p2163
aV3365279
p2164
aa(lp2165
V26140331
p2166
aV21880075
p2167
aV21707250
p2168
aV21480513
p2169
aV19960942
p2170
aV16461381
p2171
aV12587209
p2172
aV11800380
p2173
aa(lp2174
V22233038
p2175
aV16822219
p2176
aV15637231
p2177
aV12358475
p2178
aa(lp2179
V22609163
p2180
aV12973802
p2181
aV8071812
p2182
aV2395093
p2183
aV222888
p2184
aa(lp2185
V22248345
p2186
aV10413497
p2187
aV7918372
p2188
aa(lp2189
V27352532
p2190
aV26260436
p2191
aV25640685
p2192
aV21678521
p2193
aV12579872
p2194
aV12466045
p2195
aa(lp2196
V24070339
p2197
aV15680993
p2198
aV15495409
p2199
aV10993141
p2200
aV8192663
p2201
aa(lp2202
V23898976
p2203
aV19800779
p2204
aV18501366
p2205
aV17261775
p2206
aV12528507
p2207
aV11642314
p2208
aa(lp2209
V11858749
p2210
aV10418338
p2211
aa(lp2212
V26429716
p2213
aa(lp2214
V11256693
p2215
aV11138724
p2216
aV1614275
p2217
aV7085626
p2218
aa(lp2219
V1975603
p2220
aV2322949
p2221
aa(lp2222
V19367123
p2223
aV17893865
p2224
aV16317159
p2225
aV15905586
p2226
aV12809953
p2227
aV12767507
p2228
aa(lp2229
V26235805
p2230
aa(lp2231
V22618373
p2232
aa(lp2233
V23720811
p2234
aV22401915
p2235
aV22062692
p2236
aV15501777
p2237
aV10496880
p2238
aa(lp2239
V24500870
p2240
aV23270496
p2241
aV21510709
p2242
aV15730246
p2243
aa(lp2244
V22889893
p2245
aa(lp2246
V12514246
p2247
aa(lp2248
V23387327
p2249
aa(lp2250
V10563914
p2251
aa(lp2252
V22112247
p2253
aV12452676
p2254
aV10481070
p2255
aa(lp2256
V24239641
p2257
aa(lp2258
V26616922
p2259
aV25675840
p2260
aV24690313
p2261
aV23943055
p2262
aV23070521
p2263
aV21061087
p2264
aV20041802
p2265
aV12925310
p2266
aV11958615
p2267
aV8991946
p2268
aa(lp2269
V19560391
p2270
aV18035472
p2271
aV14757512
p2272
aV12356424
p2273
aV12190947
p2274
aa(lp2275
V25561930
p2276
aV25145995
p2277
aV22056448
p2278
aV12880322
p2279
aa(lp2280
V28146302
p2281
aV24076576
p2282
aV24036516
p2283
aV23867078
p2284
aV19103273
p2285
aV18501366
p2286
aV18346946
p2287
aV17608223
p2288
aa(lp2289
V15742806
p2290
aa(lp2291
V1666729
p2292
aa(lp2293
V9057861
p2294
aa(lp2295
V11488458
p2296
aa(lp2297
V23313486
p2298
aV23118227
p2299
aV15849302
p2300
aa(lp2301
V12061560
p2302
aa(lp2303
V26460147
p2304
aV22493809
p2305
aV21870831
p2306
aV20158149
p2307
aV11491397
p2308
aa(lp2309
V27771515
p2310
aV16848318
p2311
aa(lp2312
V20494383
p2313
aV15272474
p2314
aV15036439
p2315
aV14675446
p2316
aV12580518
p2317
aa(lp2318
V25426693
p2319
aa(lp2320
V20645830
p2321
aV16428076
p2322
aa(lp2323
V25396337
p2324
aV20645830
p2325
aV16428076
p2326
aV16025143
p2327
aa(lp2328
V16428076
p2329
aa(lp2330
V25396337
p2331
aV20645830
p2332
aa(lp2333
V25396337
p2334
aV16428076
p2335
aV16025143
p2336
aa(lp2337
V25396337
p2338
aa(lp2339
V27352532
p2340
aV15770542
p2341
aV15598565
p2342
aa(lp2343
V26474585
p2344
aa(lp2345
V25675840
p2346
aa(lp2347
V20552479
p2348
aV15368673
p2349
aa(lp2350
V20552479
p2351
aV15368673
p2352
aa(lp2353
V25313922
p2354
aa(lp2355
V23274251
p2356
aV21724303
p2357
aV18255196
p2358
aV17220053
p2359
aV15864786
p2360
aV12561246
p2361
aV11731193
p2362
aV2070486
p2363
aV6581363
p2364
aa(lp2365
V26383017
p2366
aV16647727
p2367
aV10888543
p2368
aa(lp2369
V11543599
p2370
aa(lp2371
V20
p2372
aa(lp2373
V25354879
p2374
aa(lp2375
V26752109
p2376
aa(lp2377
V27736157
p2378
aa(lp2379
V25200133
p2380
aV23750815
p2381
aV11750278
p2382
aa(lp2383
V20947326
p2384
aV16709068
p2385
aV15866491
p2386
aV241400
p2387
aa(lp2388
V23488931
p2389
aa(lp2390
V28441357
p2391
aV22648378
p2392
aV17373433
p2393
aV17137108
p2394
aV15699578
p2395
aV10552826
p2396
aV9747541
p2397
aV9013864
p2398
aa(lp2399
V26307962
p2400
aV18958424
p2401
aV18955812
p2402
aV18481011
p2403
aV17940060
p2404
aV11926521
p2405
aa(lp2406
V25422178
p2407
aV24064676
p2408
aV21614554
p2409
aV17854563
p2410
aV17350238
p2411
aV16924586
p2412
aV14971719
p2413
aa(lp2414
V24943896
p2415
aV22120111
p2416
aV20155763
p2417
aV15341917
p2418
aa(lp2419
V24566120
p2420
aV16536576
p2421
aa(lp2422
V15013012
p2423
aa(lp2424
V9230475
p2425
aa(lp2426
V19406001
p2427
aa(lp2428
V25451593
p2429
aV24316124
p2430
aa(lp2431
V19665152
p2432
aa(lp2433
V22847643
p2434
aV21296068
p2435
aV20055987
p2436
aV17443436
p2437
aV14577663
p2438
aa(lp2439
V18779292
p2440
aV16801375
p2441
aV14520020
p2442
aV10673911
p2443
aV9650554
p2444
aV8549625
p2445
aa(lp2446
V26902891
p2447
aa(lp2448
V16792405
p2449
aa(lp2450
V9575485
p2451
aV9164584
p2452
aV9244369
p2453
aV8886934
p2454
aa(lp2455
V23480527
p2456
aa(lp2457
V12881489
p2458
aa(lp2459
V16235889
p2460
aa(lp2461
V27641510
p2462
aV25809606
p2463
aV25284702
p2464
aV25239363
p2465
aV22017782
p2466
aV18997198
p2467
aV17681971
p2468
aV15284781
p2469
aa(lp2470
V19184968
p2471
aV13680829
p2472
aa(lp2473
V16751986
p2474
aV8573639
p2475
aa(lp2476
V12514246
p2477
aV14484820
p2478
aV13575437
p2479
aa(lp2480
V27736157
p2481
aV25898583
p2482
aV22876678
p2483
aV17855030
p2484
aV17654616
p2485
aV16124603
p2486
aV15730265
p2487
aV15730243
p2488
aV12027734
p2489
aa(lp2490
V8220332
p2491
aa(lp2492
V10228610
p2493
aa(lp2494
V24711053
p2495
aa(lp2496
V18401782
p2497
aV17846100
p2498
aV16955353
p2499
aa(lp2500
V20837112
p2501
aV14693173
p2502
aV11437391
p2503
aa(lp2504
V11190401
p2505
aa(lp2506
V23898976
p2507
aV23526725
p2508
aV18501366
p2509
aV16848544
p2510
aV11642314
p2511
aa(lp2512
V8904818
p2513
aa(lp2514
V22137858
p2515
aa(lp2516
V24751671
p2517
aV19760671
p2518
aa(lp2519
V25308653
p2520
aa(lp2521
V8904818
p2522
aa(lp2523
V9187964
p2524
aV7479999
p2525
aV7299649
p2526
aa(lp2527
V2307651
p2528
aa(lp2529
V8904818
p2530
aa(lp2531
V9862141
p2532
aa(lp2533
V25242384
p2534
aV24991788
p2535
aa(lp2536
V16756331
p2537
aa(lp2538
V25675840
p2539
aa(lp2540
V22134924
p2541
aV20030324
p2542
aa(lp2543
V24965379
p2544
aa(lp2545
V25044589
p2546
aa(lp2547
V11351354
p2548
aV10592846
p2549
aa(lp2550
V18074845
p2551
aV15617498
p2552
aV15565636
p2553
aV8347139
p2554
aa(lp2555
V28346885
p2556
aV23326470
p2557
aV17466920
p2558
aV9225603
p2559
aa(lp2560
V22785376
p2561
aa(lp2562
V23483134
p2563
aV20558062
p2564
aV18758096
p2565
aa(lp2566
V27866217
p2567
aV25563964
p2568
aV1872673
p2569
aa(lp2570
V25446604
p2571
aa(lp2572
V27441238
p2573
aa(lp2574
V22711312
p2575
aV21396969
p2576
aV15928018
p2577
aV11828028
p2578
aV8555446
p2579
aa(lp2580
V26432351
p2581
aV25946557
p2582
aV25515495
p2583
aV20157878
p2584
aa(lp2585
V18948697
p2586
aV1372021
p2587
aa(lp2588
V12505372
p2589
aV12425513
p2590
aa(lp2591
V12061560
p2592
aa(lp2593
V24054637
p2594
aa(lp2595
V24360830
p2596
aa(lp2597
V20362043
p2598
aa(lp2599
V9252095
p2600
aV2929365
p2601
aV3356406
p2602
aV6305929
p2603
aa(lp2604
V25719344
p2605
aV20837112
p2606
aV14693173
p2607
aV11551496
p2608
aV10518003
p2609
aa(lp2610
V19897904
p2611
aa(lp2612
V23959197
p2613
aa(lp2614
V14560920
p2615
aa(lp2616
V22227530
p2617
aV10606036
p2618
aV8972459
p2619
aV7889876
p2620
aV2983673
p2621
aa(lp2622
V24084033
p2623
aV23716136
p2624
aV17846905
p2625
aV10821120
p2626
aV9180355
p2627
aV8867997
p2628
aV8267644
p2629
aV4463271
p2630
aa(lp2631
V26692456
p2632
aa(lp2633
V21821769
p2634
aV6778396
p2635
aa(lp2636
V16438959
p2637
aV11543571
p2638
aV6890490
p2639
aV277126
p2640
aV5145245
p2641
aV14066136
p2642
aV13460246
p2643
aa(lp2644
V8403896
p2645
aa(lp2646
V23519259
p2647
aa(lp2648
V22705956
p2649
aV18336334
p2650
aV16504522
p2651
aV6350781
p2652
aa(lp2653
V24902677
p2654
aV24877847
p2655
aa(lp2656
V3767567
p2657
aa(lp2658
V15798995
p2659
aV7500642
p2660
aa(lp2661
V7814386
p2662
aV1449483
p2663
aa(lp2664
V17049256
p2665
aV15178322
p2666
aa(lp2667
V12356282
p2668
aa(lp2669
V15844206
p2670
aV6690685
p2671
aa(lp2672
V3241770
p2673
aa(lp2674
V26460671
p2675
aV26398397
p2676
aV24310212
p2677
aV16614480
p2678
aa(lp2679
V25027783
p2680
aV22484903
p2681
aV14511910
p2682
aV11879010
p2683
aV11441449
p2684
aV10708803
p2685
aV9599954
p2686
aV8109740
p2687
aV4024217
p2688
aV6631685
p2689
aa(lp2690
V23627122
p2691
aV22411763
p2692
aV22337204
p2693
aV12388671
p2694
aa(lp2695
V15102328
p2696
aa(lp2697
V28300789
p2698
aV27933900
p2699
aV23778119
p2700
aV22292784
p2701
aV21761862
p2702
aV21162006
p2703
aV20199826
p2704
aV19627089
p2705
aV17147446
p2706
aV11170689
p2707
aV10650073
p2708
aa(lp2709
V17192009
p2710
aa(lp2711
V25666822
p2712
aV25455106
p2713
aV17382500
p2714
aV11879744
p2715
aV11427353
p2716
aV11113638
p2717
aV9151727
p2718
aV8614248
p2719
aV7525024
p2720
aV3443410
p2721
aa(lp2722
V25776008
p2723
aa(lp2724
V24122170
p2725
aa(lp2726
V15672666
p2727
aa(lp2728
V25925968
p2729
aV25925965
p2730
aV25716159
p2731
aa(lp2732
V23847105
p2733
aV17569224
p2734
aV9436613
p2735
aa(lp2736
V25675840
p2737
aa(lp2738
V1981722
p2739
aa(lp2740
V27324742
p2741
aV19883244
p2742
aV19059680
p2743
aV17380258
p2744
aV15929069
p2745
aV3365279
p2746
aa(lp2747
V20837112
p2748
aa(lp2749
V4050473
p2750
aa(lp2751
V26384001
p2752
aa(lp2753
V27507470
p2754
aV26510964
p2755
aV26494631
p2756
aV24963869
p2757
aV24311533
p2758
aV21726087
p2759
aV15231000
p2760
aV12358506
p2761
aa(lp2762
V27144658
p2763
aV23354153
p2764
aa(lp2765
V17126803
p2766
aa(lp2767
V25043336
p2768
aV17355152
p2769
aV12698321
p2770
aV9474956
p2771
aV8812085
p2772
aa(lp2773
V21889335
p2774
aa(lp2775
V12215517
p2776
aV8879530
p2777
aV8520206
p2778
aV1573394
p2779
aa(lp2780
V20461739
p2781
aV16404705
p2782
aa(lp2783
V15352472
p2784
aV14698239
p2785
aV3213817
p2786
aa(lp2787
V8255938
p2788
aa(lp2789
V21905712
p2790
aV2246074
p2791
aa(lp2792
V23256150
p2793
aV22516741
p2794
aV20838885
p2795
aV17786519
p2796
aa(lp2797
V1553748
p2798
aV246780
p2799
aa(lp2800
V9125530
p2801
aa(lp2802
V28008757
p2803
aV23236828
p2804
aV21510709
p2805
aV9722482
p2806
aa(lp2807
V21896918
p2808
aV20610885
p2809
aV16534734
p2810
aV8387622
p2811
aV1492103
p2812
aV2563645
p2813
aV173287
p2814
aa(lp2815
V25446604
p2816
aV25426693
p2817
aV18035471
p2818
aV16956469
p2819
aV6851526
p2820
aa(lp2821
V25446604
p2822
aV24712088
p2823
aV17826984
p2824
aa(lp2825
V18328446
p2826
aV8824945
p2827
aa(lp2828
V27135700
p2829
aa(lp2830
V21558654
p2831
aa(lp2832
V15925146
p2833
aV7972306
p2834
aV811758
p2835
aV21028367
p2836
aa(lp2837
V24818583
p2838
aa(lp2839
V27848155
p2840
aa(lp2841
V26729167
p2842
aV23454444
p2843
aV11852284
p2844
aa(lp2845
V22320888
p2846
aV6138230
p2847
aa(lp2848
V25218322
p2849
aV23354153
p2850
aV17590558
p2851
aa(lp2852
V2070447
p2853
aV3487327
p2854
aa(lp2855
V27736157
p2856
aa(lp2857
V27144658
p2858
aa(lp2859
V28385083
p2860
aV27927057
p2861
aV25218322
p2862
aV23354153
p2863
aa(lp2864
V28385083
p2865
aV28257666
p2866
aV27927057
p2867
aV27144658
p2868
aV25218322
p2869
aV23354153
p2870
aV21361045
p2871
aV17590558
p2872
aV16632126
p2873
aa(lp2874
V28385083
p2875
aV27144658
p2876
aV25218322
p2877
aa(lp2878
V23336624
p2879
aV20932884
p2880
aa(lp2881
V8739609
p2882
aV6167445
p2883
aV65357
p2884
aa(lp2885
V15528835
p2886
aV10821059
p2887
aa(lp2888
V12408719
p2889
aa(lp2890
V23770591
p2891
aa(lp2892
V25978953
p2893
aV22953840
p2894
aa(lp2895
V24128449
p2896
aa(lp2897
V25819153
p2898
aV23678822
p2899
aa(lp2900
V26432351
p2901
aa(lp2902
V27356385
p2903
aV19504962
p2904
aV17394337
p2905
aa(lp2906
V7889303
p2907
aV7812621
p2908
aV2095565
p2909
aa(lp2910
V26616922
p2911
aV25442600
p2912
aV23488931
p2913
aV23070521
p2914
aV22264647
p2915
aV21061087
p2916
aV20041802
p2917
aV17404064
p2918
aV15963474
p2919
aV12925310
p2920
aV11052707
p2921
aa(lp2922
V12061560
p2923
aV6856949
p2924
aa(lp2925
V24219305
p2926
aa(lp2927
V27780753
p2928
aV26521943
p2929
aV17892004
p2930
aV17827762
p2931
aV16930909
p2932
aV15330612
p2933
aV12856930
p2934
aV8157223
p2935
aV1484346
p2936
aa(lp2937
V16327189
p2938
aa(lp2939
V26947457
p2940
aV19695314
p2941
aa(lp2942
V24520907
p2943
aV24443833
p2944
aa(lp2945
V24996142
p2946
aa(lp2947
V19713066
p2948
aa(lp2949
V19034602
p2950
aV11034602
p2951
aV1907530
p2952
aV2521354
p2953
aa(lp2954
V3241770
p2955
aa(lp2956
V15352472
p2957
aa(lp2958
V26078969
p2959
aV22262932
p2960
aV20112714
p2961
aV18449498
p2962
aV18293434
p2963
aV17823873
p2964
aV15931577
p2965
aV12622225
p2966
aV8441777
p2967
aa(lp2968
V27915331
p2969
aa(lp2970
V17725859
p2971
aa(lp2972
V11081993
p2973
aa(lp2974
V27736157
p2975
aa(lp2976
V23791450
p2977
aa(lp2978
V3203738
p2979
aV6992151
p2980
aV175076
p2981
aV1255420
p2982
aa(lp2983
V25896138
p2984
aa(lp2985
V25675840
p2986
aV12925310
p2987
aV12452676
p2988
aV11958615
p2989
aa(lp2990
V27403251
p2991
aV26877844
p2992
aV24399723
p2993
aV24275090
p2994
aV22514895
p2995
aV22484092
p2996
aV21242071
p2997
aV20804826
p2998
aV19827024
p2999
aV16309325
p3000
aa(lp3001
V24992918
p3002
aV21355193
p3003
aV20925434
p3004
aV6159115
p3005
aa(lp3006
V27476278
p3007
aV12916919
p3008
aV1658491
p3009
aV41084
p3010
aa(lp3011
V11312537
p3012
aV3460639
p3013
aV6464502
p3014
aV6127380
p3015
aa(lp3016
V24220646
p3017
aV24068334
p3018
aV23855433
p3019
aV23627181
p3020
aV21809576
p3021
aV20708926
p3022
aV17415624
p3023
aV12721853
p3024
aV11941467
p3025
aa(lp3026
V25978436
p3027
aa(lp3028
V24613724
p3029
aV21628499
p3030
aV16525036
p3031
aV9109653
p3032
aa(lp3033
V27188468
p3034
aV21166996
p3035
aV19817415
p3036
aV17883894
p3037
aV17121179
p3038
aV2707884
p3039
aa(lp3040
V24056012
p3041
aa(lp3042
V22381005
p3043
aV20054524
p3044
aa(lp3045
V23649259
p3046
aa(lp3047
V11755113
p3048
aV8064298
p3049
aa(lp3050
V14019408
p3051
aa(lp3052
V9722482
p3053
aa(lp3054
V25675840
p3055
aV23627122
p3056
aV8786365
p3057
aa(lp3058
V23570686
p3059
aV8767355
p3060
aV1622443
p3061
aV1622442
p3062
aa(lp3063
V27561253
p3064
aV15994044
p3065
aa(lp3066
V25159739
p3067
aV24634837
p3068
aV24191238
p3069
aV21520053
p3070
aV20924967
p3071
aV19188863
p3072
aV8826976
p3073
aV8510012
p3074
aV3107095
p3075
aa(lp3076
V26165293
p3077
aV19397947
p3078
aV11062735
p3079
aV8253519
p3080
aV1544871
p3081
aV1887825
p3082
aV2129299
p3083
aV6148834
p3084
aV201683
p3085
aa(lp3086
V22785376
p3087
aa(lp3088
V23382018
p3089
aV9681479
p3090
aa(lp3091
V26432351
p3092
aV25946557
p3093
aV25515495
p3094
aV20157878
p3095
aa(lp3096
V26213001
p3097
aV25950658
p3098
aV24748513
p3099
aV22953840
p3100
aV15373474
p3101
aV9692219
p3102
aa(lp3103
V25056874
p3104
aV24161950
p3105
aV20405282
p3106
aV17253098
p3107
aV10798241
p3108
aV9825693
p3109
aV7759595
p3110
aV2630094
p3111
aV561519
p3112
aV1192444
p3113
aa(lp3114
V25182481
p3115
aV9554055
p3116
aa(lp3117
V10622222
p3118
aa(lp3119
V28017961
p3120
aV24941853
p3121
aV12938851
p3122
aV12094290
p3123
aa(lp3124
V26514509
p3125
aa(lp3126
V22934748
p3127
aV19731141
p3128
aV17355944
p3129
aa(lp3130
V24711053
p3131
aa(lp3132
V18055231
p3133
aa(lp3134
V10919562
p3135
aa(lp3136
V26898753
p3137
aa(lp3138
V27736157
p3139
aa(lp3140
V16488533
p3141
aV15772079
p3142
aV11719186
p3143
aV8298797
p3144
aV1332676
p3145
aV3907454
p3146
aa(lp3147
V26406243
p3148
aa(lp3149
V20354348
p3150
aa(lp3151
V19231884
p3152
aa(lp3153
V14766308
p3154
aV10413519
p3155
aV1975603
p3156
aa(lp3157
V24373810
p3158
aV24010270
p3159
aV23826187
p3160
aV23371463
p3161
aV23160090
p3162
aV21073938
p3163
aV21046752
p3164
aV19216162
p3165
aV19178769
p3166
aV17557747
p3167
aV17441216
p3168
aa(lp3169
V9806329
p3170
aa(lp3171
V19639787
p3172
aV15178396
p3173
aV34021
p3174
aa(lp3175
V21853265
p3176
aV11087472
p3177
aV6582090
p3178
aa(lp3179
V15637231
p3180
aV15114513
p3181
aV3117062
p3182
aV6500847
p3183
aV869407
p3184
aa(lp3185
V26796656
p3186
aV20957597
p3187
aa(lp3188
V3706726
p3189
aa(lp3190
V25857158
p3191
aV24600194
p3192
aV23396144
p3193
aV20550872
p3194
aV12735684
p3195
aa(lp3196
V23868375
p3197
aV21091252
p3198
aV19588248
p3199
aa(lp3200
V22878642
p3201
aV16049678
p3202
aa(lp3203
V26767291
p3204
aV24600194
p3205
aV16320203
p3206
aV10888543
p3207
aa(lp3208
V18844258
p3209
aa(lp3210
V26307962
p3211
aa(lp3212
V19900326
p3213
aV17302372
p3214
aV9089639
p3215
aV1748157
p3216
aa(lp3217
V25446604
p3218
aV25263165
p3219
aV16822219
p3220
aV12358475
p3221
aa(lp3222
V25350639
p3223
aV18800811
p3224
aa(lp3225
g6
aa(lp3226
V28396216
p3227
aV23526725
p3228
aV22644850
p3229
aV19800779
p3230
aV16696175
p3231
aV15914213
p3232
aV12237867
p3233
aV2139153
p3234
aa(lp3235
V14582960
p3236
aa(lp3237
V25229865
p3238
aV23352977
p3239
aV21821932
p3240
aV17362879
p3241
aV16938870
p3242
aa(lp3243
V9525107
p3244
aa(lp3245
V27149950
p3246
aV18753430
p3247
aV1471999
p3248
aV6575532
p3249
aV36452
p3250
aa(lp3251
V25596479
p3252
aV24289580
p3253
aV23740392
p3254
aV20227282
p3255
aV18201805
p3256
aa(lp3257
V6853500
p3258
aa(lp3259
V11858749
p3260
aa(lp3261
V22350744
p3262
aV20580705
p3263
aV12479975
p3264
aV9593902
p3265
aV7568008
p3266
aa(lp3267
V28257666
p3268
aV25893368
p3269
aV17982883
p3270
aV17603196
p3271
aV12499086
p3272
aa(lp3273
V24941853
p3274
aV11804333
p3275
aV10401990
p3276
aa(lp3277
V23848206
p3278
aa(lp3279
V23813622
p3280
aV19406001
p3281
aV18680735
p3282
aV18031763
p3283
aV7840620
p3284
aV2105164
p3285
aV3880119
p3286
aa(lp3287
V26457480
p3288
aV26432615
p3289
aV25445525
p3290
aV21535545
p3291
aV19740618
p3292
aV17436566
p3293
aV16402541
p3294
aV16101151
p3295
aV15981077
p3296
aV15925471
p3297
aV15290869
p3298
aa(lp3299
V25528847
p3300
aV18034968
p3301
aV14977414
p3302
aV12619674
p3303
aV12467010
p3304
aa(lp3305
V25685945
p3306
aV24854569
p3307
aV20460744
p3308
aa(lp3309
V24953563
p3310
aV18086481
p3311
aa(lp3312
V24711053
p3313
aa(lp3314
V23749439
p3315
aV19662422
p3316
aV19507042
p3317
aV16132210
p3318
aa(lp3319
V25087628
p3320
aV18727613
p3321
aV17711600
p3322
aV12628514
p3323
aV10844125
p3324
aV8899907
p3325
aV9162301
p3326
aV1524628
p3327
aV2616670
p3328
aa(lp3329
V27143079
p3330
aV12200295
p3331
aV11781092
p3332
aV9655823
p3333
aV7473134
p3334
aV8070485
p3335
aV2779536
p3336
aV3178775
p3337
aV2869855
p3338
aV6362660
p3339
aa(lp3340
V359237
p3341
aa(lp3342
V27771009
p3343
aV25641677
p3344
aV22515452
p3345
aV16972868
p3346
aV16890967
p3347
aV12220266
p3348
aV11842147
p3349
aV10222033
p3350
aa(lp3351
V26851630
p3352
aV26168711
p3353
aV21413047
p3354
aa(lp3355
V25689950
p3356
aV25651848
p3357
aV24102184
p3358
aV20682556
p3359
aV19889816
p3360
aV12081652
p3361
aV1661840
p3362
aa(lp3363
V25978436
p3364
aV23519259
p3365
aV15381015
p3366
aa(lp3367
V10362833
p3368
aV2195374
p3369
aV2521484
p3370
aV3402456
p3371
aV3116410
p3372
aV2944109
p3373
aV6538079
p3374
aV6232113
p3375
aa(lp3376
V23568778
p3377
aV16098719
p3378
aV12088274
p3379
aV10224233
p3380
aa(lp3381
V12215517
p3382
aV8879530
p3383
aV8520206
p3384
aV1573394
p3385
aa(lp3386
g6
aa(lp3387
V2395798
p3388
aa(lp3389
V21084527
p3390
aV15730246
p3391
aV12605596
p3392
aa(lp3393
V27933900
p3394
aV26448517
p3395
aV26445091
p3396
aV26331691
p3397
aV24456071
p3398
aV24171397
p3399
aV23270496
p3400
aV21391605
p3401
aV19184970
p3402
aV18927354
p3403
aa(lp3404
V21104525
p3405
aa(lp3406
V18826220
p3407
aa(lp3408
V13678231
p3409
aa(lp3410
V16268624
p3411
aV1127584
p3412
aa(lp3413
V21905712
p3414
aa(lp3415
V25837274
p3416
aV23103569
p3417
aa(lp3418
V22750019
p3419
aV16052483
p3420
aV12949625
p3421
aV10386982
p3422
aV2172466
p3423
aV3920727
p3424
aV6487649
p3425
aa(lp3426
V25675840
p3427
aV23627122
p3428
aV8786365
p3429
aa(lp3430
V21905712
p3431
aa(lp3432
V11292795
p3433
aV14484820
p3434
aV13575437
p3435
aa(lp3436
V25794844
p3437
aV25058878
p3438
aV23146035
p3439
aa(lp3440
V27371817
p3441
aV26441061
p3442
aV25312782
p3443
aV14971233
p3444
aa(lp3445
V23616429
p3446
aV21701830
p3447
aa(lp3448
V9425195
p3449
aa(lp3450
V15955730
p3451
aV12958911
p3452
aV12914169
p3453
aV9532530
p3454
aV8981697
p3455
aV7300551
p3456
aV1189468
p3457
aV4270584
p3458
aV4260401
p3459
aV5421589
p3460
aV5768952
p3461
aV14057441
p3462
aa(lp3463
V27450490
p3464
aV26858285
p3465
aV26183953
p3466
aV25339603
p3467
aV21620424
p3468
aV16461381
p3469
aa(lp3470
V25043336
p3471
aV24751671
p3472
aV20081037
p3473
aa(lp3474
V19908837
p3475
aa(lp3476
V17666802
p3477
aa(lp3478
V22515452
p3479
aV22158675
p3480
aV12520342
p3481
aa(lp3482
V11532579
p3483
aa(lp3484
V26179363
p3485
aV22264647
p3486
aV11052707
p3487
aa(lp3488
V20420312
p3489
aa(lp3490
V21469692
p3491
aV18161286
p3492
aV16110856
p3493
aa(lp3494
V23724044
p3495
aa(lp3496
V26211516
p3497
aV16387459
p3498
aa(lp3499
V19753606
p3500
aa(lp3501
V16478004
p3502
aa(lp3503
V26156396
p3504
aa(lp3505
V26195161
p3506
aV17196028
p3507
aV2665959
p3508
aa(lp3509
V20706906
p3510
aV17056205
p3511
aa(lp3512
V21166996
p3513
aV15831245
p3514
aV15178396
p3515
aa(lp3516
V24133979
p3517
aV11063620
p3518
aV9485026
p3519
aV1624939
p3520
aa(lp3521
V26021947
p3522
aV14501633
p3523
aa(lp3524
V3556569
p3525
aa(lp3526
V26132344
p3527
aV22405976
p3528
aV8691508
p3529
aV3708444
p3530
aV7011520
p3531
aV6988382
p3532
aV384182
p3533
aV833228
p3534
aV5013816
p3535
aV5781754
p3536
aa(lp3537
V24945398
p3538
aV21284510
p3539
aa(lp3540
V20724116
p3541
aV11522605
p3542
aV8387623
p3543
aV2841027
p3544
aV2422955
p3545
aa(lp3546
V22713916
p3547
aV17623480
p3548
aa(lp3549
V17383104
p3550
aV17313456
p3551
aV16847679
p3552
aV11466444
p3553
aV10871297
p3554
aV10336688
p3555
aV2161761
p3556
aV3016746
p3557
aa(lp3558
V9419258
p3559
aV9378091
p3560
aa(lp3561
V14580064
p3562
aV9833042
p3563
aV1786745
p3564
aa(lp3565
V28254010
p3566
aV24660617
p3567
aV17637182
p3568
aa(lp3569
V23009608
p3570
aV18404332
p3571
aa(lp3572
V25458304
p3573
aa(lp3574
V3096750
p3575
aa(lp3576
V27826751
p3577
aV25675840
p3578
aV25200026
p3579
aV22405976
p3580
aV20041802
p3581
aV15963474
p3582
aV12925310
p3583
aV12720408
p3584
aV12452676
p3585
aV11958615
p3586
aV3683587
p3587
aa(lp3588
V21164560
p3589
aa(lp3590
V25783026
p3591
aV24779358
p3592
aV23770591
p3593
aV12514247
p3594
aV10978203
p3595
aa(lp3596
V1501126
p3597
aV1651573
p3598
aa(lp3599
V16709450
p3600
aV3467378
p3601
aa(lp3602
V25690285
p3603
aV10843569
p3604
aa(lp3605
V24711053
p3606
aa(lp3607
V27641510
p3608
aV25239363
p3609
aV17681971
p3610
aa(lp3611
V27217003
p3612
aV20192236
p3613
aa(lp3614
V28441357
p3615
aV11217086
p3616
aV8032668
p3617
aa(lp3618
V25787881
p3619
aV23563552
p3620
aV17032019
p3621
aV12207465
p3622
aa(lp3623
V21376582
p3624
aa(lp3625
V21905712
p3626
aa(lp3627
V16835869
p3628
aV15884865
p3629
aa(lp3630
V26414773
p3631
aV24008144
p3632
aV12479376
p3633
aa(lp3634
V15080623
p3635
aa(lp3636
V23519259
p3637
aa(lp3638
V10382317
p3639
aa(lp3640
V16988054
p3641
aV16959944
p3642
aV1400740
p3643
aV3779216
p3644
aV3712218
p3645
aV7104022
p3646
aV522515
p3647
aa(lp3648
V23991027
p3649
aa(lp3650
V27577857
p3651
aV24022687
p3652
aa(lp3653
V14520000
p3654
aa(lp3655
V3113917
p3656
aa(lp3657
V22595400
p3658
aV12615669
p3659
aa(lp3660
V11975489
p3661
aa(lp3662
V12062522
p3663
aa(lp3664
V15527063
p3665
aa(lp3666
V20565114
p3667
aV8474852
p3668
aa(lp3669
V21049614
p3670
aV8864236
p3671
aa(lp3672
V27999285
p3673
aV25978436
p3674
aV25384447
p3675
aV25200133
p3676
aV23750815
p3677
aV22285519
p3678
aV20127879
p3679
aV21495375
p3680
aV11750278
p3681
aV8679093
p3682
aa(lp3683
V26093265
p3684
aV24486396
p3685
aa(lp3686
V16462080
p3687
aa(lp3688
V24797087
p3689
aV23201648
p3690
aV20560881
p3691
aV18818375
p3692
aV15686751
p3693
aV14522045
p3694
aa(lp3695
V670177
p3696
aV196108
p3697
aa(lp3698
V21156786
p3699
aV18676677
p3700
aV8035345
p3701
aa(lp3702
V25675840
p3703
aa(lp3704
V25879505
p3705
aa(lp3706
V17654616
p3707
aa(lp3708
V23519259
p3709
aa(lp3710
V11285053
p3711
aV2813389
p3712
aV18911591
p3713
aa(lp3714
V18788044
p3715
aV11284709
p3716
aV11139129
p3717
aV10985777
p3718
aV2543702
p3719
aa(lp3720
V28391425
p3721
aV24981317
p3722
aV24261659
p3723
aV22935630
p3724
aa(lp3725
V21880075
p3726
aV21707250
p3727
aV11800380
p3728
aa(lp3729
V15062875
p3730
aV11201219
p3731
aV8021657
p3732
aa(lp3733
V25642980
p3734
aV17127507
p3735
aV15730243
p3736
aV7553963
p3737
aa(lp3738
V7805842
p3739
aa(lp3740
V20109452
p3741
aV17967541
p3742
aV16178411
p3743
aV15769173
p3744
aV15497942
p3745
aV15015287
p3746
aa(lp3747
V1359111
p3748
aa(lp3749
V27575846
p3750
aV17541461
p3751
aV9808368
p3752
aV3109390
p3753
aV6706450
p3754
aa(lp3755
V27736157
p3756
aa(lp3757
V23771520
p3758
aV19688740
p3759
aV15522542
p3760
aV12620506
p3761
aV12088434
p3762
aV11750278
p3763
aa(lp3764
V20026214
p3765
aa(lp3766
V26827923
p3767
aV25588210
p3768
aV24640597
p3769
aV17826048
p3770
aV17604924
p3771
aV16570584
p3772
aV15653132
p3773
aV14757501
p3774
aV11775958
p3775
aa(lp3776
V23454444
p3777
aa(lp3778
V23270496
p3779
aV21761862
p3780
aa(lp3781
V15165165
p3782
aa(lp3783
V21108116
p3784
aV1622156
p3785
aV1650522
p3786
aV3131257
p3787
aa(lp3788
V17362879
p3789
aa(lp3790
V24101372
p3791
aV24019516
p3792
aV19519662
p3793
aV19285059
p3794
aV18711209
p3795
aV18631249
p3796
aV12076308
p3797
aV8885234
p3798
aV2563972
p3799
aV2558909
p3800
aa(lp3801
V24818583
p3802
aV21796929
p3803
aV21621997
p3804
aV19491327
p3805
aV19490913
p3806
aV17666857
p3807
aV15144969
p3808
aV8991800
p3809
aV2425252
p3810
aa(lp3811
V22959517
p3812
aV22189274
p3813
aV12542902
p3814
aV6978380
p3815
aV6246192
p3816
aa(lp3817
V15334958
p3818
aa(lp3819
V10563914
p3820
aa(lp3821
V22975930
p3822
aV17681441
p3823
aV8593441
p3824
aa(lp3825
V5849307
p3826
aa(lp3827
V25263165
p3828
aV24076562
p3829
aa(lp3830
V27383887
p3831
aV26521943
p3832
aV26140331
p3833
aV25446604
p3834
aV21880075
p3835
aV12856930
p3836
aV12776497
p3837
aV1484346
p3838
aa(lp3839
V25776008
p3840
aa(lp3841
V23602240
p3842
aV19524704
p3843
aV17336338
p3844
aa.