(lp0
(lp1
V22963716
p2
aa(lp3
V26297235
p4
aV25218304
p5
aV25114928
p6
aV23907218
p7
aV22421918
p8
aV22345137
p9
aV18774855
p10
aV16211855
p11
aV12672406
p12
aV8280948
p13
aa(lp14
V24649684
p15
aV11504218
p16
aa(lp17
V8147356
p18
aa(lp19
V21623315
p20
aV21247106
p21
aV16860908
p22
aV8894229
p23
aa(lp24
V28464026
p25
aV28068585
p26
aV27039212
p27
aV26552428
p28
aV25242027
p29
aV21721259
p30
aV11601298
p31
aV3946112
p32
aV7156442
p33
aa(lp34
V24493382
p35
aV17330963
p36
aa(lp37
V4389464
p38
aa(lp39
V25874655
p40
aa(lp41
V25156127
p42
aV11564000
p43
aV1536694
p44
aV7310401
p45
aV4630675
p46
aa(lp47
V20106526
p48
aV18292807
p49
aV2567838
p50
aV3587329
p51
aV3576476
p52
aa(lp53
V26702973
p54
aV24288484
p55
aV23473569
p56
aV21449456
p57
aa(lp58
V858412
p59
aV4883033
p60
aa(lp61
V18046539
p62
aV16820461
p63
aV15930310
p64
aV9581027
p65
aV8868281
p66
aV1583409
p67
aa(lp68
V26500177
p69
aa(lp70
V24804736
p71
aV24578276
p72
aV24568728
p73
aV20554841
p74
aV28593572
p75
aa(lp76
V19577925
p77
aa(lp78
V20400274
p79
aV16852405
p80
aV11205002
p81
aV6544769
p82
aa(lp83
V24845065
p84
aa(lp85
V16599260
p86
aa(lp87
V23532948
p88
aV21812444
p89
aV20979414
p90
aV21491655
p91
aV17263542
p92
aV11427271
p93
aa(lp94
V14979692
p95
aa(lp96
V18292274
p97
aa(lp98
V23373210
p99
aV20579556
p100
aV12782534
p101
aV10235193
p102
aV10102333
p103
aV9208012
p104
aV8722507
p105
aV833485
p106
aa(lp107
V27164090
p108
aV24893046
p109
aV21877268
p110
aV21278525
p111
aV14965801
p112
aV14645151
p113
aa(lp114
V22926146
p115
aa(lp116
V22724538
p117
aV19559588
p118
aV15691943
p119
aV13356413
p120
aa(lp121
V25093983
p122
aV22391599
p123
aV21812444
p124
aV20727527
p125
aa(lp126
V25016649
p127
aa(lp128
V11853280
p129
aa(lp130
V13574205
p131
aa(lp132
V27288818
p133
aa(lp134
V28464026
p135
aV28068585
p136
aV27039212
p137
aV26552428
p138
aV25242027
p139
aV21721259
p140
aV11601298
p141
aV3946112
p142
aV7156442
p143
aa(lp144
V22808742
p145
aa(lp146
V22147540
p147
aV11917717
p148
aa(lp149
V1468984
p150
aa(lp151
V28160178
p152
aV26028215
p153
aV7243581
p154
aa(lp155
V25025181
p156
aV22591774
p157
aa(lp158
V22386308
p159
aV21410850
p160
aV17705249
p161
aV16673443
p162
aV15708806
p163
aV11759021
p164
aV2618771
p165
aa(lp166
V28160178
p167
aV26028215
p168
aa(lp169
V22925766
p170
aV20382526
p171
aa(lp172
V25854786
p173
aa(lp174
V22105914
p175
aa(lp176
V18369489
p177
aV17978229
p178
aV17313200
p179
aV15972345
p180
aV12723745
p181
aV12580988
p182
aa(lp183
V11761171
p184
aa(lp185
V3319347
p186
aa(lp187
V23311987
p188
aV22926146
p189
aa(lp190
V23311987
p191
aV22926146
p192
aa(lp193
V21971649
p194
aV9087952
p195
aa(lp196
V28464026
p197
aV26552428
p198
aV21721259
p199
aa(lp200
V15829414
p201
aa(lp202
V17277961
p203
aa(lp204
V18369489
p205
aV17978229
p206
aV17313200
p207
aV15972345
p208
aV12723745
p209
aV12580988
p210
aa(lp211
V14293126
p212
aV14135760
p213
aV13298212
p214
aV13237675
p215
aV13134920
p216
aa(lp217
V21947716
p218
aV20817258
p219
aV19420999
p220
aa(lp221
V5135302
p222
aa(lp223
V25958788
p224
aV21536495
p225
aV20714291
p226
aV12392584
p227
aV7772671
p228
aa(lp229
V27770929
p230
aV16215841
p231
aV2837754
p232
aa(lp233
V22319402
p234
aa(lp235
V23621524
p236
aV17488068
p237
aV16296840
p238
aV5461980
p239
aV5387575
p240
aV5948880
p241
aa(lp242
V21207582
p243
aV7237845
p244
aV1183042
p245
aa(lp246
V21818059
p247
aa(lp248
V24481549
p249
aV22927957
p250
aV22341658
p251
aV12720429
p252
aV1179423
p253
aa(lp254
V6423238
p255
aa(lp256
V21247106
p257
aa(lp258
V18800891
p259
aV15750692
p260
aV14722627
p261
aV12064336
p262
aV10234582
p263
aV9541513
p264
aV9284739
p265
aa(lp266
V28295108
p267
aV26453245
p268
aa(lp269
V27045929
p270
aV24104691
p271
aV1685002
p272
aV3691775
p273
aV4002850
p274
aV1114368
p275
aa(lp276
V24468629
p277
aV22079106
p278
aV11472819
p279
aV3691775
p280
aV1173103
p281
aa(lp282
V23812609
p283
aV23047812
p284
aV15877351
p285
aa(lp286
V25218304
p287
aV18701000
p288
aV7832578
p289
aa(lp290
V27471154
p291
aV22608436
p292
aa(lp293
V1274917
p294
aa(lp295
V24279421
p296
aV21271683
p297
aV18674856
p298
aV18054427
p299
aV17558525
p300
aV16337324
p301
aV11407030
p302
aV2573442
p303
aV11542117
p304
aa(lp305
V3793138
p306
aa(lp307
V25332126
p308
aV19476372
p309
aV11536823
p310
aV8065721
p311
aV11538163
p312
aV11538083
p313
aV11536473
p314
aa(lp315
V19007018
p316
aV14298993
p317
aV14225577
p318
aa(lp319
V25044550
p320
aV20951914
p321
aV17692465
p322
aV15139483
p323
aV9658246
p324
aa(lp325
V24862164
p326
aa(lp327
V25310996
p328
aV17902188
p329
aa(lp330
V22926146
p331
aa(lp332
V23598234
p333
aV19269466
p334
aV16808169
p335
aV16477125
p336
aa(lp337
V3517070
p338
aa(lp339
V20626108
p340
aa(lp341
V22614027
p342
aV12541553
p343
aV9819666
p344
aa(lp345
V21747596
p346
aa(lp347
V18318256
p348
aV16729339
p349
aV15140513
p350
aV15131055
p351
aV14522457
p352
aV11395314
p353
aa(lp354
V10415
p355
aV14056680
p356
aa(lp357
V23311987
p358
aV22926146
p359
aa(lp360
V1183042
p361
aa(lp362
V2323524
p363
aV2682004
p364
aV3183351
p365
aa(lp366
V25903174
p367
aV23673486
p368
aV17951052
p369
aV14605278
p370
aV11393764
p371
aV10857004
p372
aV9377102
p373
aV6972566
p374
aa(lp375
V24857092
p376
aV20858843
p377
aa(lp378
V23595205
p379
aV10071982
p380
aa(lp381
V25609385
p382
aV16231381
p383
aa(lp384
V24493382
p385
aV11286326
p386
aV9515186
p387
aV7100512
p388
aa(lp389
V28615015
p390
aV27752895
p391
aV21797000
p392
aV20020762
p393
aV19943296
p394
aV19476372
p395
aV17825904
p396
aV17450798
p397
aV14998040
p398
aV11513399
p399
aV1183042
p400
aa(lp401
V22381074
p402
aV16509350
p403
aV8781742
p404
aV7752807
p405
aV2914978
p406
aV3609644
p407
aa(lp408
V3946112
p409
aV7156442
p410
aa(lp411
V23006575
p412
aV18383826
p413
aV16688193
p414
aV9246752
p415
aV8679452
p416
aV6237185
p417
aV6430691
p418
aV50287
p419
aV4396080
p420
aa(lp421
V14780436
p422
aV15419806
p423
aa(lp424
V4323967
p425
aa(lp426
V23380074
p427
aa(lp428
V27896426
p429
aV26425622
p430
aV23609906
p431
aV21798598
p432
aV4552841
p433
aV5366102
p434
aV5894028
p435
aa(lp436
V25356882
p437
aV24176918
p438
aV19853910
p439
aV10612924
p440
aa.