(lp0
(lp1
V7944078
p2
aa(lp3
V18717865
p4
aV14670340
p5
aV12010345
p6
aV11591436
p7
aV11123450
p8
aV413283
p9
aV1237208
p10
aa(lp11
V28709491
p12
aV10091881
p13
aa(lp14
V21623038
p15
aV3883332
p16
aa(lp17
V17022528
p18
aV15581208
p19
aV10097514
p20
aV7640943
p21
aV18965207
p22
aV2891020
p23
aV666111
p24
aV14272411
p25
aa(lp26
V23969524
p27
aa(lp28
V16357449
p29
aV3530640
p30
aV6854698
p31
aa(lp32
V24634844
p33
aa(lp34
V9102810
p35
aa(lp36
V26535161
p37
aV10712742
p38
aa(lp39
V23344089
p40
aa(lp41
V25197708
p42
aV24288475
p43
aV24075143
p44
aV23924993
p45
aV23884130
p46
aV22233564
p47
aV21403599
p48
aV21072023
p49
aV20110891
p50
aV19924061
p51
aa(lp52
V7579912
p53
aV1420464
p54
aa(lp55
V11641519
p56
aa(lp57
V27025337
p58
aV17011741
p59
aV10325395
p60
aV2022700
p61
aa(lp62
V28686214
p63
aV27089414
p64
aV27050890
p65
aV11350212
p66
aV8123200
p67
aV2172953
p68
aa(lp69
V15582831
p70
aa(lp71
V20932725
p72
aV9581821
p73
aa(lp74
V26929267
p75
aV23288538
p76
aV12733044
p77
aV11256535
p78
aV9041983
p79
aa(lp80
V9333184
p81
aa(lp82
V22957940
p83
aV19210266
p84
aV3039646
p85
aa(lp86
V17803061
p87
aV9257367
p88
aV6930943
p89
aV5171960
p90
aV5427404
p91
aV4888943
p92
aV6053976
p93
aV14147083
p94
aV13496428
p95
aa(lp96
V27208141
p97
aV9186149
p98
aa(lp99
V27525395
p100
aV13829173
p101
aa(lp102
V10712742
p103
aV3086830
p104
aa(lp105
V1841004
p106
aV3304205
p107
aV40765
p108
aV4878493
p109
aa(lp110
V13043080
p111
aa(lp112
V9706463
p113
aV1903026
p114
aV4911750
p115
aV14157099
p116
aV19867223
p117
aa(lp118
V16437303
p119
aV12934337
p120
aV10193578
p121
aV2010343
p122
aV6464330
p123
aV6464317
p124
aV116413
p125
aa(lp126
V8411296
p127
aV1841004
p128
aa(lp129
V20731114
p130
aa(lp131
V28653770
p132
aa(lp133
V28713372
p134
aa(lp135
V28277001
p136
aa(lp137
V2920375
p138
aV6845369
p139
aa(lp140
V15329364
p141
aV19867223
p142
aa(lp143
V2604291
p144
aa(lp145
V20301363
p146
aa(lp147
V21656601
p148
aV17030102
p149
aa(lp150
V28780247
p151
aV27646524
p152
aV26157093
p153
aV25154927
p154
aV25092698
p155
aV23104290
p156
aV21146714
p157
aV20164280
p158
aV16495272
p159
aV14532345
p160
aa(lp161
V28683818
p162
aV24574296
p163
aV26988009
p164
aV22607799
p165
aV19480547
p166
aV18222073
p167
aV17224990
p168
aV8948089
p169
aa(lp170
V24711843
p171
aV24725925
p172
aV16699292
p173
aV16489682
p174
aV23105197
p175
aV23100906
p176
aa(lp177
V9728894
p178
aa(lp179
V23747804
p180
aV17127222
p181
aV16570512
p182
aa(lp183
V9878778
p184
aa(lp185
V2376164
p186
aV20227970
p187
aV514296
p188
aa(lp189
V10193578
p190
aa(lp191
V14186358
p192
aa(lp193
V17022528
p194
aV15581208
p195
aV2891020
p196
aV666111
p197
aV14272411
p198
aa(lp199
V26502267
p200
aa(lp201
V28559515
p202
aV26580979
p203
aV21397998
p204
aa(lp205
V19681667
p206
aa(lp207
V26997726
p208
aa(lp209
V26997726
p210
aV7188722
p211
aV576037
p212
aV571023
p213
aV568506
p214
aV406701
p215
aV5064363
p216
aV5484071
p217
aV5463273
p218
aV4238670
p219
aV14132245
p220
aa(lp221
V22244979
p222
aV20937788
p223
aV20160055
p224
aV19734267
p225
aV18694944
p226
aa(lp227
V15879246
p228
aV12710607
p229
aa(lp230
V27871602
p231
aV22025506
p232
aV10712742
p233
aV7968574
p234
aV3423781
p235
aa(lp236
V19457932
p237
aV578833
p238
aa(lp239
V13937644
p240
aV14484545
p241
aV13555634
p242
aa(lp243
V23545146
p244
aa(lp245
V9527783
p246
aV8596439
p247
aa(lp248
V25724701
p249
aa(lp250
V18997381
p251
aV17574158
p252
aV9682174
p253
aV2361757
p254
aV16867440
p255
aV3097625
p256
aV3086830
p257
aV2858089
p258
aV6620156
p259
aV4539649
p260
aV5161562
p261
aV5316955
p262
aa(lp263
V27871602
p264
aV22025506
p265
aV10712742
p266
aV7968574
p267
aV3423781
p268
aa(lp269
V23969524
p270
aa(lp271
V2833927
p272
aV4984198
p273
aV4974447
p274
aV4182222
p275
aV4964069
p276
aV4969359
p277
aV13225179
p278
aV14351472
p279
aV13230268
p280
aa(lp281
V2636947
p282
aa(lp283
V13178527
p284
aa(lp285
V9586852
p286
aa(lp287
V13522970
p288
aa(lp289
V24044490
p290
aV16251279
p291
aV15260278
p292
aa(lp293
V28193504
p294
aa(lp295
V18093257
p296
aV8568011
p297
aV6391781
p298
aV14393718
p299
aV14372127
p300
aV13097858
p301
aV13041865
p302
aa(lp303
V28260424
p304
aV26260821
p305
aV25580725
p306
aV24738068
p307
aV24627041
p308
aV23317955
p309
aV22850121
p310
aV22150035
p311
aV20005019
p312
aa(lp313
V25097851
p314
aV25024707
p315
aV22792333
p316
aa(lp317
V26323809
p318
aa(lp319
V21420222
p320
aV16207585
p321
aV3981353
p322
aV4406117
p323
aV4102575
p324
aV4955539
p325
aV13043062
p326
aa(lp327
V18822892
p328
aa(lp329
V17112641
p330
aa(lp331
V27396796
p332
aV9485554
p333
aV9357388
p334
aV8940459
p335
aa(lp336
V1597874
p337
aV14254182
p338
aa(lp339
V26904899
p340
aa(lp341
V24711843
p342
aV24725925
p343
aV16699292
p344
aV16489682
p345
aV23105197
p346
aV23100906
p347
aa(lp348
V26459072
p349
aV25365228
p350
aV27379286
p351
aV22854695
p352
aa(lp353
V5310373
p354
aa(lp355
V4069312
p356
aa(lp357
V28761946
p358
aV25859998
p359
aV25568071
p360
aV22390880
p361
aV22325147
p362
aV17540031
p363
aV11035238
p364
aV3659578
p365
aV641804
p366
aa(lp367
V10926350
p368
aa(lp369
V3423781
p370
aV3838675
p371
aa(lp372
V24407918
p373
aV23773634
p374
aV22992784
p375
aV17726732
p376
aa(lp377
V20079285
p378
aV17803061
p379
aV17183672
p380
aV9235595
p381
aV736695
p382
aa(lp383
V28043491
p384
aV24064556
p385
aV15934014
p386
aV10712742
p387
aa(lp388
V25965321
p389
aV17044573
p390
aV6429193
p391
aV14288112
p392
aV14903505
p393
aa(lp394
V10712742
p395
aa(lp396
V11117955
p397
aa(lp398
V26018109
p399
aV25945417
p400
aV19236281
p401
aa(lp402
V4661626
p403
aV5116564
p404
aa(lp405
V3086830
p406
aa(lp407
V21724661
p408
aa(lp409
V28619387
p410
aa(lp411
V27933585
p412
aV23927468
p413
aV22471367
p414
aV21732158
p415
aV20540651
p416
aV19937282
p417
aV19681667
p418
aV22504506
p419
aV17915818
p420
aV2098025
p421
aV13952614
p422
aa(lp423
V17552434
p424
aV19475278
p425
aV12959252
p426
aa(lp427
V28387444
p428
aV27183989
p429
aV25137345
p430
aV24742608
p431
aa(lp432
V22025506
p433
aa(lp434
V8596439
p435
aa(lp436
V23390904
p437
aa(lp438
V25978515
p439
aa(lp440
V17726732
p441
aa(lp442
V17726732
p443
aa(lp444
V27517579
p445
aa(lp446
V2833927
p447
aV4984198
p448
aV4974447
p449
aV4182222
p450
aV4964069
p451
aV4969359
p452
aV13225179
p453
aV14351472
p454
aV13230268
p455
aa(lp456
V23105197
p457
aV23100906
p458
aa(lp459
V17726732
p460
aa(lp461
V16909444
p462
aV12813312
p463
aa(lp464
V14161008
p465
aa(lp466
V18350523
p467
aa(lp468
V15879246
p469
aV12710607
p470
aa(lp471
V10969728
p472
aa(lp473
V25197708
p474
aV24288475
p475
aV24075143
p476
aV23924993
p477
aV23884130
p478
aV22233564
p479
aV21403599
p480
aV21072023
p481
aV20110891
p482
aV19924061
p483
aa(lp484
V23390904
p485
aa(lp486
V3004647
p487
aV5132838
p488
aa(lp489
V22992784
p490
aa(lp491
V23105197
p492
aV23100906
p493
aa(lp494
V13043080
p495
aa(lp496
V28335544
p497
aa(lp498
V21454160
p499
aa(lp500
V5756732
p501
aa(lp502
V23390904
p503
aV10473184
p504
aa(lp505
V13059179
p506
aa(lp507
V1238167
p508
aa(lp509
V12354882
p510
aV11796356
p511
aV10949377
p512
aV10645449
p513
aV10449496
p514
aa(lp515
V1206440
p516
aV13181583
p517
aa(lp518
V20691508
p519
aV18720535
p520
aV17589898
p521
aa(lp522
V14254182
p523
aa(lp524
V26004706
p525
aa(lp526
V24741485
p527
aV19734267
p528
aa(lp529
V17726732
p530
aa(lp531
V14585192
p532
aV12495589
p533
aa(lp534
V18182425
p535
aa(lp536
V28335544
p537
aV13191359
p538
aa(lp539
V25965488
p540
aV13084293
p541
aa(lp542
V6845369
p543
aa(lp544
V23344089
p545
aa(lp546
V28387444
p547
aV27183989
p548
aV25137345
p549
aV24742608
p550
aa(lp551
V13829833
p552
aV13479389
p553
aa(lp554
V13522970
p555
aV13446182
p556
aa(lp557
V22449519
p558
aa(lp559
V22025506
p560
aa(lp561
V8596439
p562
aa(lp563
V13522970
p564
aV13446182
p565
aa(lp566
V25978515
p567
aa(lp568
V17726732
p569
aa(lp570
V17726732
p571
aa(lp572
V2833927
p573
aV4984198
p574
aV4974447
p575
aV4182222
p576
aV4964069
p577
aV4969359
p578
aV13225179
p579
aV14351472
p580
aV13230268
p581
aa(lp582
V23105197
p583
aV23100906
p584
aa(lp585
V16909444
p586
aa(lp587
V10969728
p588
aa(lp589
V23390904
p590
aa(lp591
V3004647
p592
aV5132838
p593
aa(lp594
V6428369
p595
aa(lp596
V28335544
p597
aa(lp598
V17726732
p599
aa(lp600
V13059179
p601
aa(lp602
V1206440
p603
aV13181583
p604
aa(lp605
V26004706
p606
aa(lp607
V24741485
p608
aa(lp609
V12495589
p610
aa(lp611
V18182425
p612
aa(lp613
V18997381
p614
aa(lp615
V19374167
p616
aa(lp617
V25965488
p618
aV13084293
p619
aa(lp620
V6845369
p621
aa(lp622
V18997381
p623
aa(lp624
V17726732
p625
aa(lp626
V28387444
p627
aV27183989
p628
aV25137345
p629
aV24742608
p630
aa(lp631
V16257833
p632
aa(lp633
V25941011
p634
aV23662027
p635
aa(lp636
V26255731
p637
aV23339213
p638
aV12820546
p639
aV9558655
p640
aa(lp641
V27665179
p642
aV22664188
p643
aV22611433
p644
aV16490176
p645
aV1997155
p646
aa(lp647
V26476181
p648
aa(lp649
V12386126
p650
aV9881931
p651
aa(lp652
V25375643
p653
aV23441753
p654
aV22956057
p655
aV17239981
p656
aV15274484
p657
aV8390220
p658
aV1760150
p659
aV4789380
p660
aV5364979
p661
aV13798548
p662
aV13033327
p663
aa(lp664
V22943148
p665
aV10049692
p666
aV7156442
p667
aV4172372
p668
aV5587253
p669
aa(lp670
V23591749
p671
aV19374167
p672
aa(lp673
V28059955
p674
aV27322164
p675
aV19150002
p676
aV15730215
p677
aa(lp678
V4580141
p679
aV13614631
p680
aa(lp681
V9794804
p682
aa(lp683
V26248378
p684
aV22142615
p685
aV18591268
p686
aV17420908
p687
aV16880671
p688
aV15338898
p689
aV5153655
p690
aa(lp691
V24322620
p692
aV19754423
p693
aV11377247
p694
aV3083708
p695
aa(lp696
V27208141
p697
aV20191915
p698
aV13957891
p699
aa(lp700
V23261032
p701
aV16358698
p702
aV13950031
p703
aV14353748
p704
aa(lp705
V23216273
p706
aV15009398
p707
aV2172953
p708
aa(lp709
V22992784
p710
aa(lp711
V25374684
p712
aV16115763
p713
aV8765675
p714
aV7893334
p715
aa(lp716
V20691508
p717
aa(lp718
V20485961
p719
aV1647381
p720
aV7457965
p721
aa(lp722
V21148250
p723
aa(lp724
V3123148
p725
aV6617407
p726
aa(lp727
V22992784
p728
aa(lp729
V16597362
p730
aa(lp731
V3373216
p732
aV3564016
p733
aV2875615
p734
aa(lp735
V27883995
p736
aa(lp737
V22382551
p738
aV7901790
p739
aV1647381
p740
aV2537736
p741
aV2837602
p742
aV6428369
p743
aV6838655
p744
aV949325
p745
aV806645
p746
aa(lp747
V28713884
p748
aV28451184
p749
aV25638418
p750
aV24425102
p751
aV22741161
p752
aV21292277
p753
aV15351072
p754
aV3981353
p755
aa(lp756
V26319631
p757
aa(lp758
V28621733
p759
aa(lp760
V25364695
p761
aV10826917
p762
aV10712742
p763
aa(lp764
V19753839
p765
aa(lp766
V28043493
p767
aV28043489
p768
aV19374167
p769
aa(lp770
V20930457
p771
aa(lp772
V16091048
p773
aV8393643
p774
aa(lp775
V23591749
p776
aV19374167
p777
aa(lp778
V23046964
p779
aa(lp780
V12709907
p781
aa(lp782
V19755141
p783
aa(lp784
V19140379
p785
aV15876225
p786
aV10488888
p787
aV10411262
p788
aV9729263
p789
aV3557473
p790
aV4321896
p791
aV4946712
p792
aV4387665
p793
aa(lp794
V28621733
p795
aa(lp796
V25828928
p797
aV10083975
p798
aa(lp799
V23261032
p800
aa(lp801
V18571384
p802
aV2760118
p803
aa(lp804
V26544630
p805
aa(lp806
V10826917
p807
aV10193578
p808
aV13812682
p809
aa(lp810
V16051553
p811
aV3775868
p812
aa(lp813
V22943148
p814
aa(lp815
V4172372
p816
aa(lp817
V17030102
p818
aV14098726
p819
aa(lp820
V30606
p821
aV5859
p822
aV13479389
p823
aa(lp824
V27531952
p825
aV23142471
p826
aV25755441
p827
aV6073082
p828
aa(lp829
V23591749
p830
aV19374167
p831
aa(lp832
V22876606
p833
aV20301366
p834
aV17898314
p835
aV12654730
p836
aV10598746
p837
aa(lp838
V27539124
p839
aa(lp840
V20702219
p841
aV6754318
p842
aa(lp843
V16572924
p844
aa(lp845
V27589035
p846
aV22361273
p847
aV19051585
p848
aV18714980
p849
aV18465848
p850
aV3103991
p851
aa(lp852
V9029273
p853
aV24084
p854
aa(lp855
V22992784
p856
aV22330919
p857
aa(lp858
V641804
p859
aa(lp860
V22943148
p861
aV10049692
p862
aa(lp863
V20696500
p864
aa(lp865
V16437303
p866
aV8963950
p867
aV8870952
p868
aV1744935
p869
aa(lp870
V27272475
p871
aa(lp872
V23591749
p873
aV19374167
p874
aa(lp875
V1516150
p876
aa(lp877
V20519214
p878
aV11697465
p879
aa(lp880
V28043493
p881
aV28043489
p882
aV23776764
p883
aV19374167
p884
aV10826917
p885
aV7710944
p886
aa(lp887
V25016155
p888
aV24848797
p889
aV23679078
p890
aa(lp891
V16867543
p892
aa(lp893
V14165837
p894
aa(lp895
V17630704
p896
aV12761216
p897
aV12084012
p898
aV10051449
p899
aa(lp900
V11339291
p901
aV1420464
p902
aV1926281
p903
aa(lp904
V15205388
p905
aa(lp906
V19702171
p907
aV9728894
p908
aV1516150
p909
aa(lp910
V16573430
p911
aa(lp912
V16503596
p913
aV15004061
p914
aV11836186
p915
aV10068603
p916
aV1992460
p917
aV1119833
p918
aa(lp919
V5611782
p920
aa(lp921
V27883995
p922
aV26319631
p923
aV19753839
p924
aV7550099
p925
aa(lp926
V28412681
p927
aV28277001
p928
aV25375643
p929
aV25090597
p930
aa(lp931
V23593488
p932
aV4577446
p933
aa(lp934
V23776209
p935
aV13905880
p936
aa(lp937
V21895982
p938
aa(lp939
V6703694
p940
aV5116564
p941
aV13353345
p942
aa(lp943
V28043493
p944
aV28043489
p945
aV19374167
p946
aa(lp947
V18072153
p948
aV12721394
p949
aa(lp950
V27883995
p951
aV26319631
p952
aV19753839
p953
aV7550099
p954
aa(lp955
V28043493
p956
aV28043489
p957
aV19374167
p958
aa(lp959
V6703694
p960
aV522883
p961
aa(lp962
V28043493
p963
aV28043489
p964
aV19374167
p965
aa(lp966
V12144742
p967
aV7401618
p968
aa(lp969
V28713372
p970
aV28118809
p971
aV25364695
p972
aV22318308
p973
aV20691508
p974
aV18720535
p975
aa(lp976
V25874691
p977
aV25019389
p978
aV23402191
p979
aV9794804
p980
aV2836559
p981
aV2833927
p982
aV3085478
p983
aV7082803
p984
aV7324195
p985
aa(lp986
V16153670
p987
aa(lp988
V28387740
p989
aV28196957
p990
aV27089414
p991
aV25689967
p992
aV25153640
p993
aV18465848
p994
aV16260000
p995
aV11315102
p996
aV10668170
p997
aV2898344
p998
aV5107334
p999
aa(lp1000
V26867495
p1001
aV8798623
p1002
aV2401848
p1003
aV2100752
p1004
aa(lp1005
V24022644
p1006
aa(lp1007
V23591749
p1008
aV19374167
p1009
aa(lp1010
V19374167
p1011
aV16303269
p1012
aV12365577
p1013
aa(lp1014
V14139436
p1015
aa(lp1016
V25378280
p1017
aV22992784
p1018
aa(lp1019
V26964808
p1020
aV18831539
p1021
aV10076064
p1022
aV8951237
p1023
aV2907456
p1024
aa(lp1025
V26318557
p1026
aV23593488
p1027
aV15458565
p1028
aV14600231
p1029
aa(lp1030
V23591749
p1031
aV19374167
p1032
aa(lp1033
V6423601
p1034
aa(lp1035
V27883995
p1036
aa(lp1037
V11914371
p1038
aa(lp1039
V14099673
p1040
aa(lp1041
V22789014
p1042
aa(lp1043
V28118809
p1044
aV27838491
p1045
aV27438535
p1046
aV23475203
p1047
aV15231844
p1048
aV10699462
p1049
aV8573185
p1050
aV7673210
p1051
aV7534070
p1052
aV4066687
p1053
aa(lp1054
V23282557
p1055
aV22385187
p1056
aV10607376
p1057
aV2997775
p1058
aa(lp1059
V21567949
p1060
aV8548016
p1061
aV8390220
p1062
aV6347452
p1063
aV417650
p1064
aV16690
p1065
aV5414095
p1066
aV4388687
p1067
aa(lp1068
V22382551
p1069
aV7901790
p1070
aV1647381
p1071
aV2537736
p1072
aV2837602
p1073
aV6428369
p1074
aV6838655
p1075
aV949325
p1076
aV806645
p1077
aa(lp1078
V754347
p1079
aa(lp1080
V11013410
p1081
aV9581821
p1082
aa(lp1083
V15178486
p1084
aV10826917
p1085
aV10193578
p1086
aV4302773
p1087
aa(lp1088
V24140625
p1089
aV22382551
p1090
aV9441080
p1091
aV1454438
p1092
aa(lp1093
V17630704
p1094
aV9432378
p1095
aV8901226
p1096
aV8457326
p1097
aV4545144
p1098
aV4184549
p1099
aa(lp1100
V22382551
p1101
aV21968964
p1102
aV18276193
p1103
aV17197429
p1104
aV16624533
p1105
aV11468187
p1106
aV11346896
p1107
aV9056001
p1108
aa(lp1109
V22382551
p1110
aV16624533
p1111
aV15005856
p1112
aV12403887
p1113
aV11468187
p1114
aV11346896
p1115
aV6864437
p1116
aV14271843
p1117
aV13496428
p1118
aV13261633
p1119
aa(lp1120
V28722919
p1121
aV27089936
p1122
aV26321543
p1123
aV23282557
p1124
aV22283815
p1125
aV7599116
p1126
aV2456755
p1127
aV3738573
p1128
aV3997205
p1129
aV7434449
p1130
aV736354
p1131
aV820499
p1132
aa(lp1133
V6166614
p1134
aV4946712
p1135
aV14340106
p1136
aa(lp1137
V23796926
p1138
aV22687508
p1139
aV5316955
p1140
aV5916739
p1141
aa(lp1142
V27883995
p1143
aa(lp1144
V23591749
p1145
aV19374167
p1146
aa(lp1147
V24975255
p1148
aV21323342
p1149
aV19462940
p1150
aV2866244
p1151
aa(lp1152
V21767708
p1153
aV340155
p1154
aV14260003
p1155
aa(lp1156
V1516150
p1157
aa(lp1158
V8267656
p1159
aV4066687
p1160
aV609591
p1161
aa(lp1162
V22992784
p1163
aa(lp1164
V26755393
p1165
aV26411007
p1166
aV20416983
p1167
aV11744615
p1168
aV11315102
p1169
aa(lp1170
V5936929
p1171
aV14196184
p1172
aa(lp1173
V27597944
p1174
aV23074119
p1175
aV18713501
p1176
aV16756000
p1177
aV8808128
p1178
aV8032043
p1179
aV8201241
p1180
aV8246158
p1181
aV7686737
p1182
aV3428133
p1183
aa(lp1184
V6874641
p1185
aa(lp1186
V9398599
p1187
aV9207204
p1188
aV8830260
p1189
aV8494735
p1190
aa(lp1191
V20188853
p1192
aV19734275
p1193
aV10528996
p1194
aV9129171
p1195
aV20702219
p1196
aa(lp1197
V24934743
p1198
aV6087425
p1199
aa(lp1200
V20227944
p1201
aa(lp1202
V24513049
p1203
aV23461214
p1204
aa(lp1205
V26658674
p1206
aV24211634
p1207
aV15908576
p1208
aV12740851
p1209
aV12069966
p1210
aV11948876
p1211
aV11787427
p1212
aV9862811
p1213
aV995904
p1214
aV14324750
p1215
aa(lp1216
V22789014
p1217
aa(lp1218
V18350523
p1219
aa(lp1220
V15763544
p1221
aa(lp1222
V9401044
p1223
aa(lp1224
V26411007
p1225
aV25260015
p1226
aV22361273
p1227
aV20416983
p1228
aV20035557
p1229
aV19051585
p1230
aV11315102
p1231
aa(lp1232
V11829003
p1233
aV7968574
p1234
aa(lp1235
V15721768
p1236
aa(lp1237
V3793294
p1238
aV6143635
p1239
aV7380590
p1240
aV392418
p1241
aV4140269
p1242
aa(lp1243
V23776209
p1244
aa(lp1245
V21782660
p1246
aV1988174
p1247
aV13558218
p1248
aV13381150
p1249
aa(lp1250
V18795795
p1251
aV14337387
p1252
aa(lp1253
V28713884
p1254
aV28422067
p1255
aV18982266
p1256
aV16773298
p1257
aV12580107
p1258
aV10698584
p1259
aV1394205
p1260
aa(lp1261
V6265841
p1262
aV19108178
p1263
aa(lp1264
V22382551
p1265
aV7901790
p1266
aV1647381
p1267
aV2537736
p1268
aV2837602
p1269
aV6428369
p1270
aV6838655
p1271
aV949325
p1272
aV806645
p1273
aa(lp1274
V8403200
p1275
aa(lp1276
V26411007
p1277
aa(lp1278
V28043493
p1279
aV28043489
p1280
aV23776764
p1281
aV19374167
p1282
aV10826917
p1283
aV7710944
p1284
aa(lp1285
V20667727
p1286
aa(lp1287
V10869086
p1288
aa(lp1289
V22943148
p1290
aa(lp1291
V26887318
p1292
aV15721768
p1293
aa(lp1294
V17950496
p1295
aa(lp1296
V23591749
p1297
aV19374167
p1298
aa(lp1299
V27458223
p1300
aV24245755
p1301
aV22420168
p1302
aV23814629
p1303
aV18693235
p1304
aV18691051
p1305
aV17898708
p1306
aV17761500
p1307
aV17132069
p1308
aa(lp1309
V18714980
p1310
aa(lp1311
V28043493
p1312
aV28043489
p1313
aV23776764
p1314
aV19374167
p1315
aV10826917
p1316
aV7710944
p1317
aa(lp1318
V26964808
p1319
aV25591145
p1320
aV22471367
p1321
aV18074604
p1322
aV8090150
p1323
aV8390220
p1324
aV2302631
p1325
aV3229478
p1326
aV6986321
p1327
aV5667159
p1328
aV13798548
p1329
aa(lp1330
V23798446
p1331
aV12709907
p1332
aV11868802
p1333
aV8591724
p1334
aV7720526
p1335
aV7902232
p1336
aV4750108
p1337
aa(lp1338
V11042379
p1339
aV9840731
p1340
aV8393643
p1341
aV2866244
p1342
aa(lp1343
V18677936
p1344
aV12390912
p1345
aa(lp1346
V28619387
p1347
aV27497728
p1348
aa(lp1349
V17915818
p1350
aV2642020
p1351
aV3226945
p1352
aV3663883
p1353
aa(lp1354
V27017938
p1355
aa(lp1356
V8393643
p1357
aV2997775
p1358
aa(lp1359
V28043493
p1360
aV28043489
p1361
aV23776764
p1362
aV19374167
p1363
aV10826917
p1364
aV7710944
p1365
aa(lp1366
V22409320
p1367
aV4368523
p1368
aV4239358
p1369
aV14059257
p1370
aa(lp1371
V28185538
p1372
aV18400766
p1373
aV690082
p1374
aV708467
p1375
aV241805
p1376
aV14342514
p1377
aa(lp1378
V28043493
p1379
aV28043489
p1380
aV23776764
p1381
aV19374167
p1382
aV10826917
p1383
aV7710944
p1384
aa(lp1385
V25303560
p1386
aV24569669
p1387
aV24410279
p1388
aV19455626
p1389
aV17127222
p1390
aV16404850
p1391
aV11060714
p1392
aV10644708
p1393
aa(lp1394
V28523442
p1395
aa(lp1396
V641804
p1397
aa(lp1398
V18677936
p1399
aV10528996
p1400
aV10379989
p1401
aV9129171
p1402
aa(lp1403
V22943148
p1404
aa(lp1405
V7546339
p1406
aa(lp1407
V7237272
p1408
aV423811
p1409
aa(lp1410
V28669536
p1411
aV26318385
p1412
aV19585724
p1413
aV18714980
p1414
aV18556206
p1415
aV7776817
p1416
aV7771106
p1417
aV4852635
p1418
aV4244547
p1419
aV4873628
p1420
aa(lp1421
V28556920
p1422
aV26066709
p1423
aV24303880
p1424
aV21419633
p1425
aV15005856
p1426
aa(lp1427
V16573430
p1428
aV389195
p1429
aV192651
p1430
aV806179
p1431
aV4357490
p1432
aV5524031
p1433
aV5792461
p1434
aa(lp1435
V27597944
p1436
aV11931416
p1437
aV11468187
p1438
aV3083708
p1439
aa(lp1440
V10869086
p1441
aV9616124
p1442
aa(lp1443
V27049764
p1444
aa(lp1445
V18965744
p1446
aa(lp1447
V25965310
p1448
aV24157696
p1449
aV23043067
p1450
aV9104703
p1451
aa(lp1452
V21536127
p1453
aV18068364
p1454
aV9685005
p1455
aa(lp1456
V27498920
p1457
aV26411007
p1458
aV25260015
p1459
aV22361273
p1460
aV20416983
p1461
aV20035557
p1462
aV19051585
p1463
aV11315102
p1464
aa(lp1465
V12688582
p1466
aa(lp1467
V3223584
p1468
aa(lp1469
V239120
p1470
aV14099673
p1471
aa(lp1472
V27999327
p1473
aV25389506
p1474
aV15501030
p1475
aV7893334
p1476
aV1622764
p1477
aV4038859
p1478
aV40762
p1479
aV5572110
p1480
aa(lp1481
V16496488
p1482
aV12237539
p1483
aV11724236
p1484
aV10223912
p1485
aa(lp1486
V26348876
p1487
aV24172716
p1488
aV23016703
p1489
aV22884109
p1490
aV18801238
p1491
aV5117527
p1492
aa(lp1493
V28587260
p1494
aV25434276
p1495
aV15996739
p1496
aV14753187
p1497
aV2507740
p1498
aa(lp1499
V28043493
p1500
aV28043489
p1501
aV19374167
p1502
aa(lp1503
V27883995
p1504
aa(lp1505
V21756283
p1506
aV20833056
p1507
aV19039079
p1508
aV7784940
p1509
aV2866244
p1510
aa(lp1511
V11014349
p1512
aa(lp1513
V28771901
p1514
aV22315220
p1515
aV15942015
p1516
aV15920982
p1517
aV7899753
p1518
aV962981
p1519
aV4553808
p1520
aV4553807
p1521
aa(lp1522
V16051553
p1523
aV9028626
p1524
aV8974351
p1525
aV1935708
p1526
aV6479307
p1527
aa(lp1528
V26254828
p1529
aV22361273
p1530
aV20583864
p1531
aV8188594
p1532
aV4176822
p1533
aV14192359
p1534
aV14185860
p1535
aa(lp1536
V20000577
p1537
aV18997381
p1538
aV2537736
p1539
aV3926518
p1540
aV6328349
p1541
aV6307723
p1542
aa.