(lp0
(lp1
V17187196
p2
aa(lp3
V22768233
p4
aa(lp5
V17154673
p6
aV11790155
p7
aV22346384
p8
aV8694150
p9
aV2248836
p10
aa(lp11
V2631173
p12
aa(lp13
V10235193
p14
aa(lp15
V817194
p16
aa(lp17
V25446833
p18
aV19778248
p19
aV17261332
p20
aV15803633
p21
aV10441636
p22
aV9646526
p23
aa(lp24
V11259180
p25
aa(lp26
V17270343
p27
aa(lp28
V6711511
p29
aa(lp30
V964883
p31
aa(lp32
V25459857
p33
aV21763070
p34
aV1315810
p35
aV3571619
p36
aa(lp37
V26407346
p38
aV23450156
p39
aV16580279
p40
aV3681480
p41
aa(lp42
V15346929
p43
aa(lp44
V20855147
p45
aV16787025
p46
aV8270521
p47
aV2836484
p48
aV2993390
p49
aV3998237
p50
aV6097603
p51
aV6325380
p52
aV6302060
p53
aV7190580
p54
aa(lp55
V21889174
p56
aV21866363
p57
aa(lp58
V21550319
p59
aV19478855
p60
aV15073378
p61
aa(lp62
V22144023
p63
aa(lp64
V19576434
p65
aa(lp66
V27037582
p67
aV22795764
p68
aV22034740
p69
aV19624752
p70
aV11538648
p71
aa(lp72
V17313202
p73
aa(lp74
V20227261
p75
aV17160208
p76
aV16440114
p77
aV16177199
p78
aa(lp79
V1185602
p80
aa(lp81
V18624450
p82
aV1551350
p83
aV7084443
p84
aa(lp85
V26994328
p86
aV25849392
p87
aV11030359
p88
aV9178485
p89
aa(lp90
V11198175
p91
aa(lp92
V27325291
p93
aV24909119
p94
aV22033427
p95
aV21795578
p96
aV18577468
p97
aV16051380
p98
aV15228955
p99
aV12959545
p100
aV3996704
p101
aV6141886
p102
aa(lp103
V26963789
p104
aV23676691
p105
aV9068926
p106
aV2222551
p107
aa(lp108
V2037905
p109
aa(lp110
V27287102
p111
aV25025825
p112
aV24835559
p113
aV24548067
p114
aV22325429
p115
aV12809279
p116
aV9709358
p117
aa(lp118
V24956558
p119
aV23633302
p120
aV22029967
p121
aV15556445
p122
aV11942402
p123
aV2037905
p124
aa(lp125
V21401390
p126
aa(lp127
V26598282
p128
aV25860714
p129
aV25318656
p130
aV22226638
p131
aV19786291
p132
aV16923600
p133
aV16895743
p134
aV12720372
p135
aV10565426
p136
aV1950032
p137
aV3954524
p138
aa(lp139
V27404904
p140
aV24835954
p141
aV23093419
p142
aV23520850
p143
aV1729463
p144
aV3681480
p145
aV6972114
p146
aa(lp147
V24561836
p148
aV23684222
p149
aV16861275
p150
aV15909681
p151
aV15488278
p152
aV7085504
p153
aa(lp154
V24610609
p155
aa(lp156
V19131082
p157
aa(lp158
V15253858
p159
aV2631173
p160
aa(lp161
V25465849
p162
aa(lp163
V24909119
p164
aa(lp165
V18624450
p166
aV12059174
p167
aa(lp168
V18490110
p169
aV17954732
p170
aV15488278
p171
aV14963052
p172
aV11876696
p173
aV11695131
p174
aV1765836
p175
aV1842528
p176
aV3337043
p177
aV3954524
p178
aV14105062
p179
aa(lp180
V27684576
p181
aV24812231
p182
aV11790001
p183
aa(lp184
V7661162
p185
aa(lp186
V6329384
p187
aV7152084
p188
aV13976431
p189
aa(lp190
V23607686
p191
aV18390722
p192
aa(lp193
V24018198
p194
aV23676691
p195
aV23633302
p196
aV12895568
p197
aa(lp198
V1765836
p199
aa(lp200
V24835954
p201
aV20659758
p202
aV19145059
p203
aV9515186
p204
aV7565913
p205
aV14486716
p206
aa(lp207
V22496191
p208
aV12075349
p209
aV11398377
p210
aa(lp211
V22477661
p212
aa(lp213
V22446136
p214
aV15793823
p215
aV11601708
p216
aV10819205
p217
aa(lp218
V32756
p219
aa(lp220
V2253905
p221
aV2469483
p222
aV5020882
p223
aa(lp224
V25144853
p225
aV22477661
p226
aV19672093
p227
aV15249020
p228
aV12175216
p229
aV1980576
p230
aa(lp231
V12773082
p232
aV12559792
p233
aV12507846
p234
aV2665654
p235
aa(lp236
V26920212
p237
aV26584468
p238
aV24269625
p239
aV22761890
p240
aV21306378
p241
aV1589955
p242
aV14212112
p243
aa(lp244
V10427772
p245
aV5126456
p246
aa(lp247
V25652732
p248
aV25144853
p249
aV21712716
p250
aV19596505
p251
aV19472556
p252
aV12452946
p253
aV11695131
p254
aV11294371
p255
aV11212584
p256
aV11148431
p257
aa(lp258
V20027170
p259
aa(lp260
V23308189
p261
aa(lp262
V18624450
p263
aV10683804
p264
aa(lp265
V6253552
p266
aV331923
p267
aV14183600
p268
aa(lp269
V22217079
p270
aa(lp271
V7964234
p272
aa(lp273
V24873705
p274
aV23870453
p275
aV19615690
p276
aa(lp277
V27803493
p278
aV23070937
p279
aV20478377
p280
aV11098444
p281
aV9710770
p282
aV3946112
p283
aa(lp284
V23612042
p285
aV21449454
p286
aV21121292
p287
aV19932190
p288
aV12724827
p289
aV12175940
p290
aV793687
p291
aa(lp292
V19903967
p293
aV17096552
p294
aV15987857
p295
aV15333998
p296
aV117949
p297
aV100155
p298
aa(lp299
V17688173
p300
aV10511919
p301
aa(lp302
V20552100
p303
aV20515559
p304
aV2820264
p305
aV7152084
p306
aa(lp307
V19540344
p308
aV16682231
p309
aa(lp310
V26847144
p311
aV25368148
p312
aV365665
p313
aV219500
p314
aa(lp315
V1744263
p316
aa(lp317
V25732428
p318
aV25144853
p319
aV20213972
p320
aV8717010
p321
aV1452954
p322
aV1524066
p323
aa(lp324
V23677680
p325
aV19267240
p326
aV12773082
p327
aV12040126
p328
aV10235193
p329
aV964883
p330
aa(lp331
V23790828
p332
aV8549661
p333
aV1735463
p334
aa(lp335
V26639752
p336
aV26292104
p337
aV20099736
p338
aV10552391
p339
aa(lp340
V8429441
p341
aa(lp342
V6145539
p343
aa(lp344
V16979272
p345
aa(lp346
V9274239
p347
aV11541205
p348
aV1452954
p349
aV11538645
p350
aa(lp351
V21271424
p352
aV7872490
p353
aa(lp354
V25416586
p355
aV20075632
p356
aV15793823
p357
aa(lp358
V22252574
p359
aa(lp360
V22446136
p361
aV10819205
p362
aa(lp363
V1551350
p364
aV4921059
p365
aa(lp366
V12895568
p367
aa(lp368
V27988643
p369
aV27669216
p370
aV26868565
p371
aV26639752
p372
aV17435299
p373
aV12210124
p374
aV11290451
p375
aV1497356
p376
aV793687
p377
aV1203750
p378
aa(lp379
V26830564
p380
aV22385807
p381
aV16462660
p382
aV8289699
p383
aV4321135
p384
aV14071170
p385
aa(lp386
V6706577
p387
aa(lp388
V9840019
p389
aV9789131
p390
aV8273794
p391
aV1589705
p392
aV2687668
p393
aa(lp394
V20529947
p395
aV20020110
p396
aV15286019
p397
aV9061156
p398
aa(lp399
V27020613
p400
aV21932217
p401
aV19460175
p402
aa(lp403
V27770876
p404
aa(lp405
V23461585
p406
aa(lp407
V25144853
p408
aa(lp409
V27452992
p410
aV19968466
p411
aV19484211
p412
aV17604683
p413
aV15949609
p414
aV15682505
p415
aV11542304
p416
aa(lp417
V26186724
p418
aV23860577
p419
aV18350880
p420
aV17200850
p421
aV16428824
p422
aV11789939
p423
aV11601708
p424
aV7277574
p425
aa(lp426
V15253858
p427
aa(lp428
V27540772
p429
aV25463799
p430
aV20143717
p431
aa(lp432
V25093983
p433
aV22292966
p434
aV10578490
p435
aV3998237
p436
aa(lp437
V23669626
p438
aV12952169
p439
aV9084635
p440
aa(lp441
V22622668
p442
aV21117681
p443
aV20567885
p444
aa(lp445
V24156211
p446
aV20552100
p447
aV10383511
p448
aa(lp449
V1980576
p450
aa(lp451
V25326825
p452
aV22198121
p453
aV18624247
p454
aa(lp455
V2170086
p456
aa(lp457
V10713975
p458
aV5707326
p459
aa(lp460
V24835954
p461
aa(lp462
V11445343
p463
aa(lp464
V17324671
p465
aa(lp466
V24197786
p467
aa(lp468
V4284575
p469
aV13970016
p470
aV13970015
p471
aV13381876
p472
aa(lp473
V23529735
p474
aa(lp475
V12186294
p476
aa(lp477
V23200379
p478
aV20121108
p479
aV19267285
p480
aV17072954
p481
aV10489511
p482
aV10067386
p483
aV8156044
p484
aV7291287
p485
aV787491
p486
aV239592
p487
aa(lp488
V21146263
p489
aa(lp490
V2706658
p491
aa(lp492
V25115654
p493
aV23860837
p494
aV22798241
p495
aV20567885
p496
aV20347221
p497
aV19132509
p498
aV17127113
p499
aV16392140
p500
aV16153899
p501
aa(lp502
V8837860
p503
aV4800890
p504
aa(lp505
V20031181
p506
aV17951052
p507
aV2329206
p508
aV2625487
p509
aa(lp510
V1718219
p511
aa(lp512
V26500177
p513
aV24469323
p514
aV21465817
p515
aV20648341
p516
aV18519211
p517
aV18519210
p518
aV16002615
p519
aa(lp520
V8034456
p521
aV3587329
p522
aV1185602
p523
aa(lp524
V25681477
p525
aV24602270
p526
aV5501388
p527
aa(lp528
V12489244
p529
aV1492408
p530
aa(lp531
V24621615
p532
aV23417894
p533
aa(lp534
V21649454
p535
aa(lp536
V1605980
p537
aV1888563
p538
aa(lp539
V18939502
p540
aV2619883
p541
aV814774
p542
aV4626827
p543
aa(lp544
V28424343
p545
aV24685456
p546
aV24197786
p547
aV24037763
p548
aV16937256
p549
aV16406781
p550
aV11198175
p551
aV1599300
p552
aV1490841
p553
aV4799153
p554
aa(lp555
V1599300
p556
aa(lp557
V20304410
p558
aV2331951
p559
aV6337934
p560
aa(lp561
V237748
p562
aa(lp563
V1980576
p564
aV5126456
p565
aa(lp566
V5482325
p567
aa(lp568
V14996417
p569
aa(lp570
V21565396
p571
aa(lp572
V25807349
p573
aV23158520
p574
aV21307770
p575
aV6764387
p576
aV4613136
p577
aa(lp578
V8166033
p579
aa(lp580
V28525719
p581
aV15501150
p582
aV12895568
p583
aV3571619
p584
aa(lp585
V24416776
p586
aV22477661
p587
aV11981051
p588
aV2037905
p589
aa(lp590
V25704101
p591
aa(lp592
V27769562
p593
aV22634947
p594
aV11759915
p595
aa(lp596
V7344257
p597
aa(lp598
V9432317
p599
aV1893435
p600
aV3337043
p601
aV1236715
p602
aV239592
p603
aa(lp604
V24626377
p605
aa(lp606
V24626377
p607
aV23962634
p608
aV10235193
p609
aV3954524
p610
aV7030064
p611
aa(lp612
V24018198
p613
aa(lp614
V3337043
p615
aa(lp616
V28386250
p617
aV25520127
p618
aV8659505
p619
aV1842528
p620
aV3337043
p621
aa(lp622
V24781979
p623
aa(lp624
V25144853
p625
aa(lp626
V19198358
p627
aa(lp628
V23186664
p629
aV20696572
p630
aV3946112
p631
aa(lp632
V23677680
p633
aV19267240
p634
aV12773082
p635
aV12040126
p636
aV10235193
p637
aV964883
p638
aa(lp639
V27452992
p640
aV20854428
p641
aV19664464
p642
aV16723116
p643
aV11436967
p644
aV10235193
p645
aV4396994
p646
aa(lp647
V26655888
p648
aa(lp649
V11290451
p650
aV1497356
p651
aa(lp652
V24393043
p653
aV23676571
p654
aV18202900
p655
aV9023043
p656
aV4016580
p657
aV4963785
p658
aV14856407
p659
aa(lp660
V16754865
p661
aa(lp662
V25822306
p663
aV22484377
p664
aV22348413
p665
aV22403986
p666
aV10511919
p667
aa(lp668
V27464022
p669
aV23135153
p670
aV17768591
p671
aa(lp672
V21889174
p673
aa(lp674
V16193171
p675
aV14653317
p676
aa(lp677
V24745628
p678
aV24291423
p679
aV24184467
p680
aV10890440
p681
aa(lp682
V24561836
p683
aV20227261
p684
aV18292274
p685
aV9526828
p686
aV1799552
p687
aV2653696
p688
aV6921199
p689
aa(lp690
V26530218
p691
aV24150015
p692
aV21337839
p693
aV21249411
p694
aV20027639
p695
aV19538811
p696
aV17126593
p697
aV11065194
p698
aV10473174
p699
aV2019698
p700
aa(lp701
V23276415
p702
aV8304650
p703
aV3949163
p704
aa(lp705
V27461067
p706
aV13679824
p707
aa(lp708
V24407686
p709
aV17886634
p710
aa(lp711
V17688173
p712
aV1980576
p713
aa(lp714
V26207820
p715
aa(lp716
V12562321
p717
aV2611360
p718
aa(lp719
V17249489
p720
aV2787993
p721
aa(lp722
V2887324
p723
aa(lp724
V238830
p725
aa(lp726
V21384031
p727
aV20820629
p728
aV10759621
p729
aV8166033
p730
aV3948402
p731
aV6145539
p732
aa(lp733
V11876696
p734
aV3513329
p735
aa(lp736
V27127050
p737
aV26686924
p738
aV25416586
p739
aV22422592
p740
aV22099642
p741
aV20486658
p742
aV20356730
p743
aV18299148
p744
aV15360312
p745
aa(lp746
V3471900
p747
aV7186027
p748
aa(lp749
V12186294
p750
aa(lp751
V19888
p752
aa(lp753
V25967924
p754
aa(lp755
V2323524
p756
aa(lp757
V22587976
p758
aa(lp759
V25686721
p760
aV25626727
p761
aV1920938
p762
aV14332069
p763
aa(lp764
V25254233
p765
aV22663184
p766
aV16924962
p767
aV12895568
p768
aV4113385
p769
aa(lp770
V22536356
p771
aa(lp772
V16983487
p773
aV12224052
p774
aV8819888
p775
aa(lp776
V21860666
p777
aa(lp778
V27677152
p779
aV19939669
p780
aV2884709
p781
aa(lp782
V20227261
p783
aV17160208
p784
aV14974731
p785
aa(lp786
V19576434
p787
aa(lp788
V16365738
p789
aa(lp790
V16983487
p791
aa(lp792
V19131082
p793
aa(lp794
V27461067
p795
aa(lp796
V16411954
p797
aV14936297
p798
aV14905624
p799
aa(lp800
V24407686
p801
aV23070937
p802
aa(lp803
V27287102
p804
aa(lp805
V21780397
p806
aa(lp807
V27173535
p808
aV27124707
p809
aV14568420
p810
aa(lp811
V24958423
p812
aV22484377
p813
aV21658077
p814
aV21332600
p815
aV22403986
p816
aV20534951
p817
aV18321055
p818
aV15525560
p819
aV12520633
p820
aa(lp821
V25648647
p822
aV25465849
p823
aa(lp824
V11243369
p825
aa(lp826
V25982987
p827
aV25625860
p828
aa(lp829
V20027170
p830
aa(lp831
V19786291
p832
aV12720372
p833
aa(lp834
V27461067
p835
aa(lp836
V25681477
p837
aV24602270
p838
aV5501388
p839
aa(lp840
V23790828
p841
aV8549661
p842
aV1735463
p843
aV999156
p844
aa(lp845
V26915145
p846
aV19007018
p847
aa(lp848
V27145592
p849
aa(lp850
V5544283
p851
aa(lp852
V26693268
p853
aa(lp854
V27145592
p855
aa(lp856
V27040242
p857
aV24125869
p858
aV22483929
p859
aV17999055
p860
aV12762654
p861
aV11980181
p862
aa(lp863
V27741269
p864
aa(lp865
V22761890
p866
aa.