(lp0
(lp1
V14529291
p2
aV1776261
p3
aV1675757
p4
aa(lp5
V26062932
p6
aV25756087
p7
aV24672865
p8
aV22160308
p9
aV21538559
p10
aV18804536
p11
aV18500719
p12
aV15936988
p13
aV15618295
p14
aV11419739
p15
aa(lp16
V23627065
p17
aa(lp18
V28353656
p19
aV26882658
p20
aV22160332
p21
aV17218128
p22
aV16222778
p23
aV7061423
p24
aa(lp25
V27829351
p26
aV26957227
p27
aV25578040
p28
aV22703874
p29
aV22684634
p30
aV16857844
p31
aa(lp32
V28745105
p33
aa(lp34
V27829351
p35
aV26957227
p36
aV25578040
p37
aV22703874
p38
aV22684634
p39
aV16857844
p40
aa(lp41
V3711081
p42
aa(lp43
V16860294
p44
aa(lp45
V27829351
p46
aV25609924
p47
aV24077511
p48
aV22394605
p49
aV21626779
p50
aV18239283
p51
aV9891490
p52
aV9829537
p53
aa(lp54
V27829351
p55
aV27324061
p56
aV26957227
p57
aV26421309
p58
aV25578040
p59
aV24467544
p60
aV22703874
p61
aV22684634
p62
aV22185846
p63
aV16857844
p64
aa(lp65
V21454560
p66
aV1449706
p67
aV6232113
p68
aa(lp69
V24564652
p70
aa(lp71
V23819585
p72
aa(lp73
V23926287
p74
aV17327690
p75
aV10705511
p76
aV8246233
p77
aV1413864
p78
aV3130840
p79
aa(lp80
V11576603
p81
aa(lp82
V26376110
p83
aV1732385
p84
aa(lp85
V6900565
p86
aa(lp87
V26212988
p88
aa(lp89
V17927486
p90
aV11215324
p91
aV11187394
p92
aV9681568
p93
aV9296275
p94
aV3666299
p95
aa(lp96
V23593361
p97
aa(lp98
V26384042
p99
aV25420542
p100
aV22607882
p101
aV17253757
p102
aa(lp103
V26950808
p104
aV26289078
p105
aa(lp106
V26275074
p107
aV23667462
p108
aV22818623
p109
aV21144838
p110
aV16614860
p111
aa(lp112
V20360620
p113
aV1525963
p114
aV1940644
p115
aa(lp116
V26302339
p117
aV25609924
p118
aV20734327
p119
aV9732368
p120
aa(lp121
V18490118
p122
aa(lp123
V27829351
p124
aV25609924
p125
aV24077511
p126
aV22394605
p127
aV21626779
p128
aV18239283
p129
aV9891490
p130
aV9829537
p131
aa(lp132
V1729592
p133
aV1751964
p134
aa(lp135
V15166627
p136
aV15145243
p137
aV9865922
p138
aV9600263
p139
aV9389730
p140
aV8592143
p141
aV1922006
p142
aa(lp143
V23823872
p144
aV10337451
p145
aa(lp146
V23685195
p147
aV23553151
p148
aV23293065
p149
aV19084570
p150
aa(lp151
V24831765
p152
aV21663949
p153
aV19424852
p154
aV18394063
p155
aV16039298
p156
aV12888149
p157
aV12714164
p158
aV12505569
p159
aa(lp160
V24742993
p161
aV24507535
p162
aV16226000
p163
aV15853541
p164
aV15623671
p165
aV15542934
p166
aV8182307
p167
aa(lp168
V21317023
p169
aa(lp170
V18840452
p171
aV16647179
p172
aV11335104
p173
aV10813553
p174
aV10727637
p175
aa(lp176
V26903189
p177
aV22375926
p178
aV21130293
p179
aV20678906
p180
aV19759170
p181
aa(lp182
V24448861
p183
aa(lp184
V24910664
p185
aV21289377
p186
aV21055594
p187
aV17888931
p188
aV17253757
p189
aV16829796
p190
aV14529291
p191
aV11332433
p192
aa(lp193
V27278758
p194
aV27084771
p195
aV20696189
p196
aV19526287
p197
aV18938217
p198
aV14692193
p199
aV12881188
p200
aV12856483
p201
aV12856480
p202
aV11515751
p203
aa(lp204
V27267921
p205
aa(lp206
V22461488
p207
aa(lp208
V28058263
p209
aV27707552
p210
aV27636370
p211
aV27540278
p212
aV26801406
p213
aV25093998
p214
aV24180395
p215
aV24002405
p216
aV20533089
p217
aV20155656
p218
aV19273063
p219
aa(lp220
V26212988
p221
aV25187964
p222
aV23474968
p223
aV11593996
p224
aV9732368
p225
aa(lp226
V16634125
p227
aV7054224
p228
aa(lp229
V18980580
p230
aV10347126
p231
aa(lp232
V22721781
p233
aV22394605
p234
aV17452418
p235
aa(lp236
V26357462
p237
aV22721781
p238
aa(lp239
V1286134
p240
aV2909732
p241
aa(lp242
V27812789
p243
aV18794729
p244
aV17403635
p245
aV15936608
p246
aa(lp247
V23092657
p248
aV19332511
p249
aV19130856
p250
aa(lp251
V25634970
p252
aa(lp253
V26832408
p254
aV19147707
p255
aV9724027
p256
aa(lp257
V24861761
p258
aa(lp259
V21198553
p260
aV21116921
p261
aV19513607
p262
aV17928646
p263
aV17132097
p264
aV16775505
p265
aV11711492
p266
aa(lp267
V26995149
p268
aV23474968
p269
aV22721781
p270
aV19175365
p271
aV7595594
p272
aa(lp273
V25787808
p274
aV21075093
p275
aV20083011
p276
aV18434508
p277
aV15917096
p278
aV10518656
p279
aV9255712
p280
aa(lp281
V26347047
p282
aa(lp283
V19697921
p284
aV15170109
p285
aV14981309
p286
aa(lp287
V26357462
p288
aV22721781
p289
aa(lp290
V6196482
p291
aa(lp292
V28454668
p293
aV26039521
p294
aV26034777
p295
aV18997196
p296
aV17452418
p297
aV6468621
p298
aa(lp299
V15173604
p300
aV1281982
p301
aa(lp302
V28689410
p303
aa(lp304
V24383452
p305
aa(lp306
V22127053
p307
aV19595352
p308
aV19218147
p309
aV17707130
p310
aV12228236
p311
aV11237392
p312
aV7595080
p313
aa(lp314
V26350090
p315
aV18323503
p316
aV17026989
p317
aV15314096
p318
aV14612457
p319
aV12541561
p320
aV9869270
p321
aV8717165
p322
aV7492613
p323
aV7592544
p324
aV3768035
p325
aa(lp326
V21816038
p327
aV16737966
p328
aV15871849
p329
aV15067195
p330
aV7476326
p331
aV7734449
p332
aV8148358
p333
aV2022059
p334
aV2324644
p335
aV3130840
p336
aV7276743
p337
aa(lp338
V27829351
p339
aV26957227
p340
aV25578040
p341
aV22703874
p342
aV22684634
p343
aV16857844
p344
aa(lp345
V25296535
p346
aV24624174
p347
aV21130293
p348
aV20819511
p349
aV17005272
p350
aV16860808
p351
aV16714359
p352
aV15768833
p353
aV14695926
p354
aa(lp355
V27175805
p356
aV25093998
p357
aV25302430
p358
aV19226281
p359
aV18256483
p360
aV10919369
p361
aV3449438
p362
aV3437883
p363
aa(lp364
V22567033
p365
aV17302963
p366
aa(lp367
V25159836
p368
aV25140396
p369
aV24316528
p370
aa(lp371
V27829351
p372
aV26957227
p373
aV25578040
p374
aV22703874
p375
aV22684634
p376
aV16857844
p377
aa(lp378
V24428677
p379
aa(lp380
V28353656
p381
aa(lp382
V26357462
p383
aV24971331
p384
aV22721781
p385
aV22394605
p386
aV17452418
p387
aa(lp388
V28391875
p389
aV25835225
p390
aV25436938
p391
aV18544849
p392
aV10946033
p393
aV8017464
p394
aa(lp395
V28527898
p396
aa(lp397
V110933
p398
aV994152
p399
aa(lp400
V24045228
p401
aV15231000
p402
aV12239596
p403
aV11576603
p404
aV9660846
p405
aV6176833
p406
aa(lp407
V21130293
p408
aV20678906
p409
aa(lp410
V22161747
p411
aV22100563
p412
aV18490118
p413
aa(lp414
V25674939
p415
aV11254905
p416
aa(lp417
V27793513
p418
aV22430234
p419
aV12479764
p420
aa(lp421
V18648914
p422
aV15777746
p423
aa(lp424
V11148203
p425
aa(lp426
V19919177
p427
aa(lp428
V22524173
p429
aV17376224
p430
aa(lp431
V18490118
p432
aa(lp433
V19697921
p434
aa(lp435
V3880763
p436
aa(lp437
V12368225
p438
aa(lp439
V27829351
p440
aV26957227
p441
aV25578040
p442
aV22703874
p443
aV22684634
p444
aV16857844
p445
aa(lp446
V20089986
p447
aV10870849
p448
aa(lp449
V27557561
p450
aV25102730
p451
aV24409515
p452
aV15508788
p453
aa(lp454
V27829351
p455
aV26957227
p456
aV25578040
p457
aV22703874
p458
aV22684634
p459
aV16857844
p460
aa(lp461
V9869270
p462
aa(lp463
V1643651
p464
aa(lp465
V15487928
p466
aa(lp467
V25206501
p468
aV22004509
p469
aa(lp470
V27829351
p471
aV26957227
p472
aV25578040
p473
aV22703874
p474
aV22684634
p475
aV16857844
p476
aa(lp477
V21128988
p478
aV12679199
p479
aa(lp480
V28353656
p481
aa(lp482
V23819585
p483
aV23046250
p484
aV22824098
p485
aV22687697
p486
aV22108021
p487
aV20205716
p488
aV12769660
p489
aV7595594
p490
aV2445577
p491
aV6168431
p492
aa(lp493
V17432597
p494
aa(lp495
V26110339
p496
aV16707397
p497
aa(lp498
V25282172
p499
aa(lp500
V9409294
p501
aa(lp502
V28614117
p503
aV21098138
p504
aV17257626
p505
aV15883478
p506
aV15828907
p507
aV12555012
p508
aV11548049
p509
aV8229693
p510
aa(lp511
V9696574
p512
aa(lp513
V23209548
p514
aV19370170
p515
aV15840939
p516
aV14599501
p517
aV12736259
p518
aa(lp519
V28408819
p520
aV19931334
p521
aV18563834
p522
aa(lp523
V26302339
p524
aV25609924
p525
aV20734327
p526
aV9732368
p527
aa(lp528
V23611428
p529
aV23209548
p530
aV19370170
p531
aV15840939
p532
aV12736259
p533
aV11598232
p534
aa(lp535
V21086616
p536
aV17289088
p537
aV12384940
p538
aa(lp539
V16915858
p540
aV15231000
p541
aV11576603
p542
aa(lp543
V19652966
p544
aV11339276
p545
aV9758788
p546
aa(lp547
V27345130
p548
aV24288725
p549
aV20383667
p550
aV19521917
p551
aV17432597
p552
aV12355149
p553
aV8877024
p554
aV7811744
p555
aa(lp556
V28287359
p557
aV27935150
p558
aV21460130
p559
aV20101557
p560
aa(lp561
V28263871
p562
aV26108224
p563
aV19372226
p564
aV17681632
p565
aV6316322
p566
aa(lp567
V26498829
p568
aV17942567
p569
aV11557359
p570
aV11392538
p571
aV10682835
p572
aV1996960
p573
aV2351659
p574
aV2450702
p575
aV2445577
p576
aV6176833
p577
aa(lp578
V22524173
p579
aV21092138
p580
aV17376224
p581
aV12095106
p582
aV6567656
p583
aa(lp584
V26960302
p585
aV26004719
p586
aV24736980
p587
aV23875899
p588
aV22562361
p589
aV21846839
p590
aV21717139
p591
aV21198553
p592
aV19754387
p593
aa(lp594
V15487928
p595
aa(lp596
V1286134
p597
aV2909732
p598
aa(lp599
V23806820
p600
aV23615158
p601
aV20234134
p602
aV14518564
p603
aV8645211
p604
aa(lp605
V26392083
p606
aV26389569
p607
aV21212096
p608
aV16614860
p609
aV12095106
p610
aa(lp611
V6630519
p612
aa(lp613
V8662919
p614
aa(lp615
V25282172
p616
aa(lp617
V24045228
p618
aa(lp619
V20541520
p620
aV17635920
p621
aV7480066
p622
aV1464112
p623
aa(lp624
V1420351
p625
aV1356829
p626
aV2306268
p627
aa(lp628
V26357462
p629
aV24971331
p630
aV22721781
p631
aV22394605
p632
aV17452418
p633
aa(lp634
V27818195
p635
aV21075093
p636
aV12724351
p637
aV9763219
p638
aa(lp639
V15640525
p640
aV11864926
p641
aa(lp642
V26988303
p643
aV25420542
p644
aV22152281
p645
aV21974888
p646
aV19879766
p647
aV19307369
p648
aV17851082
p649
aV11557359
p650
aV10077432
p651
aV1992138
p652
aV2993719
p653
aa(lp654
V26254184
p655
aV14969398
p656
aV12748386
p657
aV12355149
p658
aa(lp659
V2890166
p660
aV6681959
p661
aV7138583
p662
aV7406925
p663
aa(lp664
V16857844
p665
aa(lp666
V26903189
p667
aV26686966
p668
aV26548469
p669
aV26435335
p670
aV22375926
p671
aV21130293
p672
aV20678906
p673
aV19896667
p674
aV19759170
p675
aV15199384
p676
aV12032464
p677
aa(lp678
V26357462
p679
aV24971331
p680
aV22721781
p681
aV22394605
p682
aV17452418
p683
aa(lp684
V26212988
p685
aa(lp686
V26357462
p687
aV24971331
p688
aV22721781
p689
aV22394605
p690
aV17452418
p691
aa(lp692
V17565279
p693
aa(lp694
V22721781
p695
aa(lp696
V27377336
p697
aV26212988
p698
aa(lp699
V19461650
p700
aV18061195
p701
aV17349661
p702
aV15178225
p703
aV9914163
p704
aV1281982
p705
aV2710119
p706
aV7126550
p707
aa(lp708
V25303971
p709
aV20729759
p710
aV20350618
p711
aV12207574
p712
aV9244208
p713
aV7695217
p714
aV8205659
p715
aa(lp716
V25578040
p717
aa(lp718
V27179780
p719
aV16702306
p720
aa(lp721
V24708217
p722
aV19672105
p723
aV19226281
p724
aV9221828
p725
aV1527481
p726
aa(lp727
V2418882
p728
aa(lp729
V9732368
p730
aa(lp731
V21715698
p732
aa(lp733
V18412317
p734
aV18368405
p735
aV17005918
p736
aV12355149
p737
aV10337451
p738
aV1679340
p739
aV6196482
p740
aV6933445
p741
aa(lp742
V26357462
p743
aV24971331
p744
aV22721781
p745
aV22394605
p746
aV17452418
p747
aa(lp748
V25193403
p749
aa(lp750
V25336752
p751
aV22100563
p752
aV21485304
p753
aV19748258
p754
aV19694438
p755
aV17555873
p756
aV17436370
p757
aV15706857
p758
aV14981028
p759
aV10903474
p760
aa(lp761
V19836586
p762
aV18490118
p763
aa(lp764
V11108730
p765
aa(lp766
V25700896
p767
aV19763655
p768
aa(lp769
V25490183
p770
aV17005918
p771
aV11956737
p772
aV1286134
p773
aV2010684
p774
aV1976071
p775
aV2993719
p776
aV7275832
p777
aV6933445
p778
aa(lp779
V25470397
p780
aV12226513
p781
aa(lp782
V18704341
p783
aa(lp784
V25578040
p785
aa(lp786
V18464303
p787
aV17132207
p788
aa(lp789
V23055364
p790
aa(lp791
V28285599
p792
aa(lp793
V27612792
p794
aV26111689
p795
aV25804980
p796
aa(lp797
V21518985
p798
aV21518979
p799
aV19367148
p800
aV19080731
p801
aV18537523
p802
aV17599378
p803
aV14609738
p804
aV12679152
p805
aV8883221
p806
aa(lp807
V20086055
p808
aa(lp809
V28192226
p810
aV27438893
p811
aV24751168
p812
aV22850990
p813
aV21519759
p814
aV15797793
p815
aV14973129
p816
aV10362523
p817
aV10329788
p818
aa(lp819
V27829351
p820
aa(lp821
V27157743
p822
aa(lp823
V25920263
p824
aa(lp825
V20143561
p826
aV9360620
p827
aV10319140
p828
aV1735440
p829
aV1996960
p830
aV3423140
p831
aa(lp832
V18191910
p833
aa(lp834
V22980799
p835
aV19572741
p836
aa(lp837
V1286134
p838
aV2909732
p839
aa(lp840
V1286134
p841
aV2909732
p842
aa(lp843
V9072409
p844
aa(lp845
V21911783
p846
aa(lp847
V11359999
p848
aa(lp849
V24878976
p850
aV15109637
p851
aa(lp852
V25609924
p853
aV24742469
p854
aV17655247
p855
aV17064686
p856
aV16332513
p857
aV6565705
p858
aV7295045
p859
aa(lp860
V6232113
p861
aa(lp862
V25578040
p863
aa(lp864
V18946231
p865
aa(lp866
V18368405
p867
aV16317111
p868
aa(lp869
V18191910
p870
aa(lp871
V18191910
p872
aa(lp873
V18540993
p874
aV16614860
p875
aV1569372
p876
aa(lp877
V26357462
p878
aV24971331
p879
aV22721781
p880
aV22394605
p881
aV17452418
p882
aa(lp883
V26603760
p884
aV18465880
p885
aa(lp886
V23070903
p887
aa(lp888
V24431079
p889
aV22721781
p890
aa(lp891
V9741516
p892
aa(lp893
V26357462
p894
aV24971331
p895
aV22721781
p896
aV22394605
p897
aV17452418
p898
aa(lp899
V27110504
p900
aV25772421
p901
aV19932602
p902
aV19193611
p903
aV19177531
p904
aV18191056
p905
aV15761191
p906
aV15736153
p907
aV10381291
p908
aV9439591
p909
aa(lp910
V15129726
p911
aa(lp912
V26130125
p913
aV25470397
p914
aV21069435
p915
aV18691432
p916
aV3423140
p917
aa(lp918
V28437620
p919
aV24497156
p920
aV18980580
p921
aV10347126
p922
aa(lp923
V12228237
p924
aV10537222
p925
aV9000379
p926
aV6462147
p927
aa(lp928
V26357462
p929
aV24971331
p930
aV22721781
p931
aV22394605
p932
aV17452418
p933
aa(lp934
V25578040
p935
aa(lp936
V18804815
p937
aV6630519
p938
aa(lp939
V28689410
p940
aa(lp941
V26208883
p942
aV18021066
p943
aa(lp944
V21936891
p945
aa(lp946
V26795833
p947
aV26070091
p948
aV22607882
p949
aV21798740
p950
aV17979640
p951
aV17211835
p952
aV16884693
p953
aV15602873
p954
aV11359013
p955
aV3242953
p956
aa(lp957
V21503955
p958
aV18457649
p959
aa(lp960
V10739911
p961
aa(lp962
V23898186
p963
aV9734471
p964
aV7122252
p965
aa(lp966
V20560881
p967
aa(lp968
V27564321
p969
aV26094911
p970
aV22520621
p971
aV21209397
p972
aV19652517
p973
aa(lp974
V25457945
p975
aV22129737
p976
aV21317023
p977
aV20354828
p978
aV17906114
p979
aV15212121
p980
aa(lp981
V24575888
p982
aV19438217
p983
aV12002344
p984
aV1527481
p985
aV3656359
p986
aV6163836
p987
aa(lp988
V16634125
p989
aV7054224
p990
aa(lp991
V28058263
p992
aV17654442
p993
aV14670931
p994
aV12716823
p995
aa(lp996
V23718831
p997
aV21803218
p998
aV19672105
p999
aV18563834
p1000
aV18514061
p1001
aV18217261
p1002
aV17684468
p1003
aV12401768
p1004
aV9779586
p1005
aV8905205
p1006
aa(lp1007
V12095106
p1008
aV1996960
p1009
aa(lp1010
V21620604
p1011
aV21356098
p1012
aV20002940
p1013
aV18177480
p1014
aV16887228
p1015
aV15487928
p1016
aV6798192
p1017
aa(lp1018
V25218292
p1019
aV25058445
p1020
aV21910007
p1021
aV7922340
p1022
aa.