(lp0
(lp1
V23726736
p2
aV20690781
p3
aV18319497
p4
aV17314201
p5
aV1358150
p6
aV2749139
p7
aV7249501
p8
aV6988529
p9
aV1243084
p10
aV1181977
p11
aV5124291
p12
aa(lp13
V24377253
p14
aa(lp15
V28594102
p16
aa(lp17
V27417726
p18
aV26910837
p19
aV26691221
p20
aV23900264
p21
aV10457838
p22
aV577437
p23
aa(lp24
V24360197
p25
aV22266779
p26
aV21303967
p27
aV18565173
p28
aV12169761
p29
aV11245619
p30
aV9248848
p31
aV2464499
p32
aV2424774
p33
aV544629
p34
aa(lp35
V12525997
p36
aV2145769
p37
aV3243019
p38
aV2866581
p39
aa(lp40
V2544967
p41
aa(lp42
V15890377
p43
aa(lp44
V7374099
p45
aa(lp46
V24036516
p47
aV22271159
p48
aV9524927
p49
aV577437
p50
aa(lp51
V9543231
p52
aa(lp53
V1970483
p54
aa(lp55
V16442130
p56
aV15072439
p57
aa(lp58
V27452443
p59
aV10199593
p60
aa(lp61
V2151866
p62
aa(lp63
V23221528
p64
aV582008
p65
aa(lp66
V7826306
p67
aa(lp68
V2547501
p69
aV6808384
p70
aV4156862
p71
aa(lp72
V12390912
p73
aV9187389
p74
aa(lp75
V18608270
p76
aV16442130
p77
aa(lp78
V26492542
p79
aV22098716
p80
aV21319957
p81
aV18847414
p82
aV16686584
p83
aV1969784
p84
aV2757891
p85
aV3663883
p86
aV6743487
p87
aV6812556
p88
aV6805000
p89
aV421811
p90
aa(lp91
V20347037
p92
aa(lp93
V28270768
p94
aV26530401
p95
aV3728980
p96
aa(lp97
V24634110
p98
aV17098405
p99
aV7374099
p100
aa(lp101
V1552188
p102
aa(lp103
V22035182
p104
aV16882691
p105
aV9279965
p106
aV2165268
p107
aa(lp108
V2557505
p109
aa(lp110
V1153022
p111
aa(lp112
V1151767
p113
aa(lp114
V23800420
p115
aV19621394
p116
aV9632685
p117
aV9405873
p118
aV9149388
p119
aV8895072
p120
aV7615075
p121
aV7851443
p122
aV1411416
p123
aV1555587
p124
aV7343381
p125
aa(lp126
V24036516
p127
aV22271159
p128
aV9524927
p129
aV577437
p130
aa(lp131
V8821826
p132
aV7564329
p133
aV3036154
p134
aa(lp135
V24036516
p136
aa(lp137
V26531821
p138
aV23328208
p139
aV19154420
p140
aV18496257
p141
aV15645238
p142
aa(lp143
V26492542
p144
aV25562775
p145
aV25234794
p146
aV23681436
p147
aV12428432
p148
aV8752805
p149
aa(lp150
V24398459
p151
aV22328585
p152
aV22266779
p153
aV15286055
p154
aV12498906
p155
aa(lp156
V15204039
p157
aV11151405
p158
aV1565100
p159
aV6123059
p160
aa(lp161
V94411
p162
aa(lp163
V27793783
p164
aV16874850
p165
aV15804825
p166
aV11981753
p167
aV9749965
p168
aV2981857
p169
aa(lp170
V4688179
p171
aa(lp172
V12361690
p173
aa(lp174
V15890377
p175
aa(lp176
V24028619
p177
aa(lp178
V18197554
p179
aa(lp180
V25592037
p181
aV23294528
p182
aa(lp183
V21921059
p184
aV19331850
p185
aV12600948
p186
aV11676625
p187
aV9038753
p188
aV7698882
p189
aV1311001
p190
aV1847709
p191
aV2370311
p192
aV2544633
p193
aV3429685
p194
aa(lp195
V27012321
p196
aa(lp197
V18302035
p198
aa(lp199
V7817834
p200
aa(lp201
V27652191
p202
aV22634047
p203
aV20926619
p204
aV16507512
p205
aV15645238
p206
aV15608134
p207
aa(lp208
V16770713
p209
aa(lp210
V22266779
p211
aa(lp212
V7826306
p213
aV8177734
p214
aV13758050
p215
aV13844801
p216
aV13644119
p217
aa(lp218
V12163901
p219
aV11459225
p220
aa(lp221
V16553508
p222
aV15233359
p223
aV12420192
p224
aV10651795
p225
aV7560629
p226
aV1993775
p227
aV2475703
p228
aV3805530
p229
aV3707653
p230
aV6511989
p231
aV6972856
p232
aa(lp233
V1665425
p234
aV2098107
p235
aV3124978
p236
aV4028391
p237
aa(lp238
V2613836
p239
aV3760091
p240
aa(lp241
V28069354
p242
aV15100174
p243
aV10224140
p244
aV5289875
p245
aa(lp246
V23933121
p247
aV22266779
p248
aV16739652
p249
aa(lp250
V27652191
p251
aV22634047
p252
aV20926619
p253
aV16507512
p254
aV15645238
p255
aV15608134
p256
aa(lp257
V21860410
p258
aa(lp259
V22634047
p260
aa(lp261
V22261204
p262
aV18299965
p263
aV15826807
p264
aV8674194
p265
aV4387802
p266
aa(lp267
V9695225
p268
aV8980917
p269
aV8297546
p270
aV3019587
p271
aV598950
p272
aV4130473
p273
aV5704255
p274
aa(lp275
V25264938
p276
aV23277011
p277
aV23104431
p278
aV21870892
p279
aV20950346
p280
aa(lp281
V21824999
p282
aV21302291
p283
aV18498919
p284
aV15665959
p285
aV11160617
p286
aV10998563
p287
aV10990198
p288
aV10973817
p289
aV10674721
p290
aV9351678
p291
aV8674194
p292
aa(lp293
V15890377
p294
aa(lp295
V18637667
p296
aV12904068
p297
aa(lp298
V16814999
p299
aa(lp300
V16850393
p301
aV12948016
p302
aa(lp303
V19833843
p304
aV19505989
p305
aV18031729
p306
aV11561088
p307
aV10224140
p308
aa(lp309
V16904803
p310
aV15890377
p311
aa(lp312
V16850393
p313
aV12948016
p314
aa(lp315
V3675687
p316
aa(lp317
V6739958
p318
aV538738
p319
aV200004
p320
aV4848130
p321
aV5899228
p322
aV13991838
p323
aV13644119
p324
aa(lp325
V18385293
p326
aa(lp327
V19327462
p328
aa(lp329
V18433974
p330
aV15638994
p331
aV11989806
p332
aV3016033
p333
aV7316450
p334
aV5050388
p335
aa(lp336
V17073890
p337
aV12903480
p338
aV12691002
p339
aV11510627
p340
aV9714116
p341
aV9695225
p342
aV9405874
p343
aV8492339
p344
aV6990755
p345
aV947651
p346
aV4281881
p347
aV13465286
p348
aa(lp349
V2986513
p350
aV6393556
p351
aa(lp352
V18417181
p353
aV15916450
p354
aV15072439
p355
aV12130727
p356
aa(lp357
V22416981
p358
aV16674925
p359
aa(lp360
V24816740
p361
aV23296151
p362
aV10548035
p363
aV2035239
p364
aa(lp365
V26311435
p366
aV19948968
p367
aV16969695
p368
aV12700193
p369
aV11544783
p370
aa(lp371
V16260302
p372
aV4406323
p373
aa(lp374
V18498919
p375
aV8832430
p376
aV7928417
p377
aV8148582
p378
aV1825992
p379
aV2288016
p380
aV3176115
p381
aV4906545
p382
aa(lp383
V11849678
p384
aV10637318
p385
aV9792263
p386
aV9159199
p387
aV8788139
p388
aV1323465
p389
aV6323671
p390
aV7370114
p391
aa(lp392
V27822600
p393
aV14517192
p394
aV10192522
p395
aV9792263
p396
aV7739045
p397
aV15299362
p398
aV7370114
p399
aa(lp400
V28633895
p401
aV23075289
p402
aV21699088
p403
aV2175607
p404
aV6987673
p405
aa(lp406
V27652191
p407
aV22634047
p408
aV20926619
p409
aV16507512
p410
aV15645238
p411
aV15608134
p412
aa(lp413
V17113863
p414
aa(lp415
V24036516
p416
aa(lp417
V9543231
p418
aa(lp419
V24351881
p420
aV15956804
p421
aV14720161
p422
aV12420192
p423
aV10802002
p424
aV1434328
p425
aV3306163
p426
aa(lp427
V10736936
p428
aV1434328
p429
aV2459551
p430
aV457382
p431
aa(lp432
V28086165
p433
aV25463196
p434
aV9543231
p435
aa(lp436
V94411
p437
aa(lp438
V6194632
p439
aa(lp440
V25388687
p441
aV21961530
p442
aV21341280
p443
aV19414624
p444
aV14641551
p445
aV11823753
p446
aV8897844
p447
aV7508017
p448
aa(lp449
V10898865
p450
aV7632770
p451
aV2846204
p452
aV2986513
p453
aV4404220
p454
aa(lp455
V3009493
p456
aV3003091
p457
aV2987235
p458
aa(lp459
V2038117
p460
aa(lp461
V4120461
p462
aa(lp463
V10935530
p464
aV6185774
p465
aa(lp466
V24036516
p467
aV23075289
p468
aa(lp469
V16442130
p470
aV15072439
p471
aa(lp472
V16442130
p473
aV15072439
p474
aa(lp475
V23576614
p476
aV6123059
p477
aa(lp478
V12169761
p479
aa(lp480
V18603930
p481
aa(lp482
V23396419
p483
aa(lp484
V27351191
p485
aa(lp486
V23933121
p487
aV22266779
p488
aV16739652
p489
aa(lp490
V24377253
p491
aa(lp492
V25483945
p493
aV23726729
p494
aV22845468
p495
aV19230595
p496
aV11160643
p497
aV8919037
p498
aV8454346
p499
aV3612546
p500
aV3772737
p501
aa(lp502
V22845468
p503
aa(lp504
V26926294
p505
aV20676275
p506
aV1738322
p507
aa(lp508
V10935530
p509
aV6185774
p510
aa(lp511
V22181075
p512
aV19771879
p513
aa(lp514
V7520835
p515
aa(lp516
V25429513
p517
aV21075975
p518
aV18793580
p519
aV11085199
p520
aa(lp521
V23225238
p522
aV21232041
p523
aV9603790
p524
aV7847630
p525
aV3012087
p526
aV544629
p527
aV4848130
p528
aa(lp529
V15645238
p530
aa(lp531
V27652191
p532
aV22634047
p533
aV20926619
p534
aV16507512
p535
aV15645238
p536
aV15608134
p537
aa(lp538
V26068790
p539
aV18302035
p540
aa(lp541
V27793783
p542
aV24036516
p543
aV19336997
p544
aV15804825
p545
aV10513038
p546
aV10224140
p547
aV6673186
p548
aV12764
p549
aa(lp550
V19109744
p551
aa(lp552
V25865846
p553
aa(lp554
V23382458
p555
aV15365089
p556
aV14552640
p557
aV11693535
p558
aV3327676
p559
aV6501524
p560
aV577437
p561
aV5149122
p562
aa(lp563
V10764823
p564
aa(lp565
V24036516
p566
aV23075289
p567
aa(lp568
V25646891
p569
aV20690781
p570
aV10681759
p571
aV8227279
p572
aV1514765
p573
aV1814858
p574
aa(lp575
V27055905
p576
aV26083570
p577
aV23959876
p578
aV23884892
p579
aV23583219
p580
aV23549264
p581
aV20671264
p582
aV9118206
p583
aa(lp584
V12078997
p585
aV8980917
p586
aa(lp587
V22266779
p588
aa(lp589
V20422499
p590
aV11470901
p591
aV11090440
p592
aa(lp593
V18522485
p594
aV15100174
p595
aa(lp596
V14552640
p597
aa(lp598
V5816435
p599
aa(lp600
V27652191
p601
aV22634047
p602
aV20926619
p603
aV16507512
p604
aV15645238
p605
aV15608134
p606
aa(lp607
V26492542
p608
aV10918072
p609
aV9279965
p610
aV139895
p611
aa(lp612
V19220984
p613
aV11459225
p614
aV20732077
p615
aV1820923
p616
aV1778535
p617
aV2760837
p618
aV3120731
p619
aV24248401
p620
aa(lp621
V21477267
p622
aV20609002
p623
aa(lp624
V3406
p625
aa(lp626
V15072439
p627
aa(lp628
V25043947
p629
aV17566147
p630
aV2544967
p631
aV2844224
p632
aV3004480
p633
aa(lp634
V26084185
p635
aV3772737
p636
aa(lp637
V23976943
p638
aV18927558
p639
aV17622200
p640
aV11383557
p641
aV9565516
p642
aV3772737
p643
aa(lp644
V16442130
p645
aV15072439
p646
aa(lp647
V22340160
p648
aa(lp649
V12606759
p650
aV11713653
p651
aV11032880
p652
aV9294213
p653
aV2439119
p654
aa(lp655
V24360197
p656
aV22266779
p657
aV21303967
p658
aV18565173
p659
aV12169761
p660
aV11245619
p661
aV9248848
p662
aV2464499
p663
aV2424774
p664
aV544629
p665
aa(lp666
V20347037
p667
aV6897028
p668
aV6889430
p669
aV6163602
p670
aV4522909
p671
aa(lp672
V25934842
p673
aV5050388
p674
aV5035574
p675
aa(lp676
V24283665
p677
aV14568334
p678
aa(lp679
V18385293
p680
aa(lp681
V11818398
p682
aa(lp683
V10987996
p684
aa(lp685
V22266779
p686
aV19833843
p687
aV17967933
p688
aV15483198
p689
aa(lp690
V2613836
p691
aa(lp692
V19487957
p693
aV18498919
p694
aV11884214
p695
aV10998563
p696
aV10674721
p697
aa(lp698
V22137029
p699
aa(lp700
V18302035
p701
aa(lp702
V16506362
p703
aV9248848
p704
aV6525075
p705
aV4427131
p706
aa(lp707
V18708994
p708
aV16445853
p709
aV15286055
p710
aa(lp711
V25802484
p712
aV19220984
p713
aV9107442
p714
aV7906158
p715
aV2544519
p716
aV2871961
p717
aa(lp718
V2337945
p719
aa(lp720
V27412519
p721
aV26021851
p722
aV25463196
p723
aV25203723
p724
aV22016969
p725
aV17385805
p726
aV10520130
p727
aa(lp728
V17872924
p729
aV16420045
p730
aa(lp731
V10935530
p732
aV6185774
p733
aa(lp734
V16904803
p735
aV16419049
p736
aV15890377
p737
aa(lp738
V21717600
p739
aV21072508
p740
aV12437578
p741
aa(lp742
V18302035
p743
aa(lp744
V14640621
p745
aV874745
p746
aV4830016
p747
aa(lp748
V25438245
p749
aa(lp750
V12070277
p751
aV9145499
p752
aV842439
p753
aa(lp754
V15890377
p755
aa(lp756
V24671697
p757
aV23081776
p758
aV22593939
p759
aV21139332
p760
aV11128247
p761
aV2849595
p762
aV3395368
p763
aV7096606
p764
aV7343381
p765
aV6773155
p766
aa(lp767
V10757415
p768
aa(lp769
V1397056
p770
aa(lp771
V19563130
p772
aV7494088
p773
aV7521967
p774
aV8227279
p775
aV7691079
p776
aV8389597
p777
aV8384314
p778
aV1406727
p779
aV1796213
p780
aa(lp781
V16078122
p782
aa(lp783
V22181075
p784
aa(lp785
V25234817
p786
aV18565173
p787
aa(lp788
V16175571
p789
aa(lp790
V16621845
p791
aa(lp792
V11489665
p793
aa(lp794
V18197554
p795
aa(lp796
V24887182
p797
aV17868302
p798
aa(lp799
V20473558
p800
aV18496257
p801
aV16599865
p802
aV9851552
p803
aV6328980
p804
aV6709459
p805
aa(lp806
V10821337
p807
aV948035
p808
aa(lp809
V20347037
p810
aa(lp811
V17220245
p812
aa(lp813
V28577995
p814
aa(lp815
V22340160
p816
aV10382868
p817
aa(lp818
V24398459
p819
aV22328585
p820
aV22266779
p821
aV16621845
p822
aV9566046
p823
aV8773454
p824
aa(lp825
V25388687
p826
aV21961530
p827
aV21341280
p828
aV19414624
p829
aV14641551
p830
aV11823753
p831
aV8897844
p832
aV7508017
p833
aa(lp834
V27652191
p835
aV22634047
p836
aV20926619
p837
aV16507512
p838
aV15645238
p839
aV15608134
p840
aa(lp841
V8989735
p842
aV7636023
p843
aV8207366
p844
aV7682972
p845
aV1717629
p846
aV3337179
p847
aV3511439
p848
aa(lp849
V16442130
p850
aV15072439
p851
aa(lp852
V16078122
p853
aa(lp854
V28601914
p855
aV11222470
p856
aV8684374
p857
aV7826306
p858
aV8317993
p859
aV3612546
p860
aV3957487
p861
aa(lp862
V26068790
p863
aV18302035
p864
aa(lp865
V24221731
p866
aV4230510
p867
aa(lp868
V10367596
p869
aa(lp870
V24380838
p871
aV16904803
p872
aa(lp873
V24965762
p874
aV18265111
p875
aV12703320
p876
aV9067029
p877
aV8660635
p878
aV7551295
p879
aV8124518
p880
aV1333951
p881
aV2205615
p882
aV7062278
p883
aV5289875
p884
aa(lp885
V22845468
p886
aa(lp887
V17692467
p888
aV11980386
p889
aV7520835
p890
aV5064753
p891
aa(lp892
V22340160
p893
aV22180368
p894
aa(lp895
V28270768
p896
aV26530401
p897
aV3728980
p898
aa(lp899
V22266779
p900
aa(lp901
V28697344
p902
aV17332634
p903
aV9601529
p904
aV8595375
p905
aV1406727
p906
aV2090999
p907
aV2262795
p908
aa(lp909
V10520130
p910
aV1332014
p911
aa(lp912
V25238965
p913
aV18267365
p914
aV18260847
p915
aV12903480
p916
aV10510184
p917
aV9934094
p918
aV8686886
p919
aV1318790
p920
aV2486006
p921
aa(lp922
V24380838
p923
aV9415207
p924
aa(lp925
V27637455
p926
aV26426900
p927
aV23396419
p928
aV21507821
p929
aV20600878
p930
aV18197554
p931
aV16507512
p932
aa(lp933
V1608896
p934
aV2401380
p935
aV4611313
p936
aV5289875
p937
aa(lp938
V16904803
p939
aV16770713
p940
aa(lp941
V25802484
p942
aV24316060
p943
aV23249949
p944
aV23221528
p945
aV16781832
p946
aV15804825
p947
aV11981753
p948
aV9749965
p949
aV2981857
p950
aa(lp951
V23933121
p952
aV22266779
p953
aV16739652
p954
aa(lp955
V28053643
p956
aa(lp957
V26134275
p958
aV25126975
p959
aV25042915
p960
aV24887182
p961
aV22846896
p962
aV19370549
p963
aV19170528
p964
aV17971810
p965
aV11210401
p966
aV8641241
p967
aV544629
p968
aa(lp969
V28270768
p970
aa(lp971
V28697344
p972
aV25453096
p973
aV8620843
p974
aV1774316
p975
aa(lp976
V27652191
p977
aV22634047
p978
aV20926619
p979
aV16507512
p980
aV15645238
p981
aV15608134
p982
aa(lp983
V15072439
p984
aV14641551
p985
aa(lp986
V27652191
p987
aV22634047
p988
aV20926619
p989
aV16507512
p990
aV15645238
p991
aV15608134
p992
aa(lp993
V25172788
p994
aa(lp995
V15890377
p996
aa(lp997
V22340160
p998
aV10899538
p999
aa(lp1000
V22359351
p1001
aV16850393
p1002
aV16507512
p1003
aV15645238
p1004
aV12948016
p1005
aa(lp1006
V24398459
p1007
aV22328585
p1008
aV22266779
p1009
aV1825992
p1010
aa(lp1011
V24360197
p1012
aV22266779
p1013
aV21303967
p1014
aV18565173
p1015
aV12169761
p1016
aV11245619
p1017
aV9248848
p1018
aV2464499
p1019
aV2424774
p1020
aV544629
p1021
aa(lp1022
V18302035
p1023
aa(lp1024
V21507821
p1025
aV20600878
p1026
aV16507512
p1027
aa(lp1028
V7833193
p1029
aa(lp1030
V16442130
p1031
aV15072439
p1032
aa(lp1033
V12545474
p1034
aV11034264
p1035
aV9107442
p1036
aV6696324
p1037
aV4262518
p1038
aa(lp1039
V26353895
p1040
aV23074496
p1041
aV9737655
p1042
aV8299105
p1043
aV2186579
p1044
aV3874891
p1045
aa(lp1046
V22266779
p1047
aa(lp1048
V18302035
p1049
aa(lp1050
V27272555
p1051
aV27028005
p1052
aV11126991
p1053
aV8793611
p1054
aV8793602
p1055
aV7981922
p1056
aV172857
p1057
aa(lp1058
V20961399
p1059
aa(lp1060
V3009493
p1061
aa(lp1062
V2815851
p1063
aa(lp1064
V27412519
p1065
aV26021851
p1066
aV25463196
p1067
aV25203723
p1068
aV22016969
p1069
aV17385805
p1070
aa(lp1071
V24036516
p1072
aa(lp1073
V145490
p1074
aa(lp1075
V9807018
p1076
aa(lp1077
V27530934
p1078
aV19796507
p1079
aV19621394
p1080
aV12908733
p1081
aV2619961
p1082
aV3045807
p1083
aa(lp1084
V22530069
p1085
aV20837659
p1086
aV9543231
p1087
aa.