(lp0
(lp1
V21530883
p2
aa(lp3
V25666966
p4
aV15195549
p5
aV11802290
p6
aV10048017
p7
aV9857535
p8
aV8813599
p9
aV1351941
p10
aV6591216
p11
aV6129304
p12
aV1216953
p13
aa(lp14
V15363978
p15
aa(lp16
V6686772
p17
aV7330785
p18
aV13073793
p19
aa(lp20
V27554252
p21
aV23094817
p22
aa(lp23
V27598566
p24
aV27226584
p25
aa(lp26
V27054913
p27
aV17389594
p28
aa(lp29
V25878376
p30
aV15578476
p31
aV9050801
p32
aV1977818
p33
aV2253969
p34
aa(lp35
V26775868
p36
aV24239996
p37
aa(lp38
V1444234
p39
aa(lp40
V9215258
p41
aa(lp42
V3625487
p43
aa(lp44
V19499882
p45
aa(lp46
V24296992
p47
aV2849574
p48
aa(lp49
V3302666
p50
aV3005414
p51
aV3530640
p52
aa(lp53
V15925231
p54
aV12852446
p55
aV10434381
p56
aV2883979
p57
aV3804142
p58
aV16571
p59
aa(lp60
V25670938
p61
aa(lp62
V21241658
p63
aa(lp64
V24813276
p65
aV1206496
p66
aa(lp67
V24237254
p68
aV9829198
p69
aa(lp70
V21119304
p71
aV7496078
p72
aa(lp73
V17389594
p74
aa(lp75
V15969666
p76
aa(lp77
V15799005
p78
aa(lp79
V21834339
p80
aV20128420
p81
aV12469629
p82
aV8146811
p83
aa(lp84
V28365158
p85
aa(lp86
V23271584
p87
aa(lp88
V16409262
p89
aV10757856
p90
aa(lp91
V9392875
p92
aa(lp93
V17994202
p94
aV11244891
p95
aa(lp96
V20952608
p97
aV20854076
p98
aV17072577
p99
aV16103741
p100
aV11257609
p101
aV10837813
p102
aV7713167
p103
aV1795158
p104
aV2850063
p105
aa(lp106
V22760406
p107
aV17888051
p108
aV17621569
p109
aV1724116
p110
aa(lp111
V10779289
p112
aV1359512
p113
aa(lp114
V2479018
p115
aa(lp116
V21458247
p117
aa(lp118
V4447663
p119
aV18119258
p120
aV18119256
p121
aV18119255
p122
aV18938345
p123
aa(lp124
V27197662
p125
aV25759055
p126
aV24903351
p127
aV23264447
p128
aV21280267
p129
aV16409262
p130
aV15601808
p131
aV15570603
p132
aV11823753
p133
aV11085368
p134
aV7249761
p135
aa(lp136
V22855946
p137
aV22382656
p138
aV21646440
p139
aV19655405
p140
aV16141639
p141
aV10082263
p142
aV396151
p143
aV239732
p144
aV4404971
p145
aV4538416
p146
aV14092710
p147
aa(lp148
V18775475
p149
aV11551340
p150
aV10735553
p151
aV4148817
p152
aa(lp153
V25207852
p154
aV22760406
p155
aV8146811
p156
aa(lp157
V25652732
p158
aV22185653
p159
aV16770647
p160
aV12851661
p161
aV12189776
p162
aV10766358
p163
aV10518685
p164
aV9253197
p165
aV6686772
p166
aV7330785
p167
aV7292363
p168
aa(lp169
V24237254
p170
aV21752525
p171
aV20012883
p172
aV19634345
p173
aV18388243
p174
aV9291293
p175
aV9145417
p176
aV7913125
p177
aV3567688
p178
aV4395120
p179
aa(lp180
V20557447
p181
aa(lp182
V27605627
p183
aa(lp184
V6344033
p185
aV13800861
p186
aa(lp187
V8623012
p188
aa(lp189
V2286602
p190
aV4547125
p191
aV14087615
p192
aa(lp193
V14191630
p194
aV18886695
p195
aV18874991
p196
aV18876827
p197
aa(lp198
V23688907
p199
aa(lp200
V28233071
p201
aV23089176
p202
aa(lp203
V11564433
p204
aV8798428
p205
aV6022625
p206
aa(lp207
V25704965
p208
aa(lp209
V9215258
p210
aa(lp211
V2058646
p212
aa(lp213
V23956994
p214
aV21617593
p215
aV21039758
p216
aV15570603
p217
aV11568622
p218
aa(lp219
V9260034
p220
aV2131195
p221
aa(lp222
V28232472
p223
aV22034523
p224
aV4146388
p225
aa(lp226
V3005414
p227
aV3000234
p228
aa(lp229
V14313904
p230
aa(lp231
V2856694
p232
aV12984369
p233
aa(lp234
V10836288
p235
aV6930107
p236
aV14274026
p237
aa(lp238
V26767302
p239
aV26174460
p240
aV22258341
p241
aV18089481
p242
aV2870881
p243
aV976489
p244
aV4719457
p245
aa(lp246
V20815318
p247
aV20602906
p248
aV2048259
p249
aV6185704
p250
aa(lp251
V25622761
p252
aa(lp253
V12087249
p254
aV2048259
p255
aV2707885
p256
aa(lp257
V21875451
p258
aa(lp259
V23906546
p260
aV9378634
p261
aV8146811
p262
aa(lp263
V6145539
p264
aa(lp265
V22889307
p266
aV2731087
p267
aV6141257
p268
aV6824563
p269
aV6824562
p270
aV367414
p271
aV4380012
p272
aV14289827
p273
aa(lp274
V25553270
p275
aV8728028
p276
aa(lp277
V20623616
p278
aa(lp279
V1575899
p280
aa(lp281
V17994202
p282
aV11244891
p283
aa(lp284
V20432629
p285
aV14392448
p286
aa(lp287
V25810362
p288
aV8808156
p289
aV2945758
p290
aa(lp291
V22095426
p292
aV18543494
p293
aV2863222
p294
aa(lp295
V23220277
p296
aV18492756
p297
aV18004755
p298
aV6899313
p299
aa(lp300
V10757856
p301
aa(lp302
V26632187
p303
aV11603253
p304
aV1294856
p305
aa(lp306
V19041066
p307
aa(lp308
V27197662
p309
aV24903351
p310
aV23264447
p311
aV21280267
p312
aV16409262
p313
aV16198809
p314
aV15570603
p315
aV11823753
p316
aV11085368
p317
aa(lp318
V9491827
p319
aa(lp320
V24237254
p321
aV2048259
p322
aa(lp323
V19432748
p324
aa(lp325
V26165421
p326
aV22323418
p327
aV21225384
p328
aV18515228
p329
aV1707149
p330
aV2113258
p331
aV14011709
p332
aa(lp333
V28701647
p334
aV23067562
p335
aV18089481
p336
aV15899003
p337
aV14636769
p338
aV12698031
p339
aV9887916
p340
aV1360618
p341
aV2879213
p342
aV6142536
p343
aV4383337
p344
aa(lp345
V22972130
p346
aV17975984
p347
aV9818463
p348
aV9559521
p349
aV1359512
p350
aV2393451
p351
aV3618443
p352
aV820732
p353
aa(lp354
V24388838
p355
aV13970022
p356
aa(lp357
V11123713
p358
aV8536848
p359
aV2301584
p360
aV3942217
p361
aV7270689
p362
aV6159791
p363
aV467923
p364
aV538646
p365
aV147031
p366
aV1269866
p367
aV240756
p368
aV165733
p369
aa(lp370
V25733093
p371
aa(lp372
V11568622
p373
aa(lp374
V75438
p375
aa(lp376
V17763142
p377
aa(lp378
V24912999
p379
aV21624753
p380
aV15769299
p381
aV7945786
p382
aV7682684
p383
aa(lp384
V2877560
p385
aa(lp386
V26314567
p387
aV26117260
p388
aV22607990
p389
aV8347453
p390
aV1359512
p391
aV3625487
p392
aV594118
p393
aV4738208
p394
aa(lp395
V25622761
p396
aV12390044
p397
aV11134919
p398
aa(lp399
V10685864
p400
aV7545133
p401
aV3804142
p402
aV2874759
p403
aa(lp404
V22034523
p405
aa(lp406
V27405609
p407
aV19499882
p408
aV2286602
p409
aV6159938
p410
aV4547125
p411
aV4390481
p412
aV4379082
p413
aV14087615
p414
aa(lp415
V2479018
p416
aa(lp417
V13262583
p418
aa(lp419
V23108692
p420
aV11723869
p421
aV7964712
p422
aV8193936
p423
aV1504720
p424
aa(lp425
V11323366
p426
aa(lp427
V9669116
p428
aa(lp429
V6129821
p430
aV4380998
p431
aV13939888
p432
aV14462919
p433
aV13367155
p434
aa(lp435
V8511816
p436
aa(lp437
V7044294
p438
aV4380820
p439
aa(lp440
V27333965
p441
aV25886177
p442
aV25646358
p443
aV23076705
p444
aV18235124
p445
aV18036423
p446
aV15101860
p447
aa(lp448
V12911512
p449
aa(lp450
V28483312
p451
aV27168518
p452
aV16512228
p453
aV14962588
p454
aV2403157
p455
aV1966908
p456
aa(lp457
V22760406
p458
aV12847495
p459
aV10572516
p460
aV1359512
p461
aV1752218
p462
aV3302666
p463
aV7059211
p464
aa(lp465
V7067435
p466
aa(lp467
V17620069
p468
aa(lp469
V7067435
p470
aa(lp471
V6851520
p472
aa(lp473
V3758648
p474
aV6203592
p475
aV1273865
p476
aV235449
p477
aV812346
p478
aa(lp479
V10572516
p480
aV3302666
p481
aa(lp482
V28381800
p483
aa(lp484
V11640977
p485
aV11411342
p486
aV11134603
p487
aV9657646
p488
aa(lp489
V20815318
p490
aV20602906
p491
aV2048259
p492
aV6185704
p493
aa(lp494
V10742540
p495
aa(lp496
V27739230
p497
aa(lp498
V16770647
p499
aa(lp500
V16001303
p501
aa(lp502
V24722393
p503
aV23759429
p504
aV15289959
p505
aV2363755
p506
aV6205828
p507
aV6830717
p508
aV6135277
p509
aV67917
p510
aV5227662
p511
aa(lp512
V27608281
p513
aV26447788
p514
aV25291144
p515
aV18332676
p516
aV9987864
p517
aV3000234
p518
aV6583458
p519
aV6881518
p520
aV6104750
p521
aV5837787
p522
aa(lp523
V17722084
p524
aV16650100
p525
aV2189929
p526
aV6128418
p527
aV7675
p528
aa(lp529
V20116946
p530
aV15763689
p531
aV10964879
p532
aV5118436
p533
aa(lp534
V28396809
p535
aV21346393
p536
aV14635473
p537
aV3382058
p538
aa(lp539
V16528248
p540
aV14694265
p541
aa(lp542
V28396809
p543
aa(lp544
V16787
p545
aa(lp546
V25810362
p547
aV18619076
p548
aV11603253
p549
aV9378634
p550
aa(lp551
V9829198
p552
aV7682684
p553
aV6145539
p554
aa(lp555
V20827479
p556
aV16193648
p557
aV2837328
p558
aa(lp559
V10027219
p560
aa(lp561
V19041066
p562
aV6686772
p563
aa(lp564
V21219993
p565
aV20580791
p566
aV19280528
p567
aV18595715
p568
aa(lp569
V20094000
p570
aV12847495
p571
aV9829198
p572
aa(lp573
V16213926
p574
aV11967776
p575
aV9257783
p576
aV2873067
p577
aV2870145
p578
aa(lp579
V2863732
p580
aa(lp581
V26581315
p582
aa(lp583
V25704965
p584
aa(lp585
V15899003
p586
aV14636769
p587
aV12698031
p588
aV9887916
p589
aV2879213
p590
aV6142536
p591
aa(lp592
V14635473
p593
aa(lp594
V23805564
p595
aa(lp596
V9100
p597
aa(lp598
V1354110
p599
aV6129304
p600
aV239819
p601
aa(lp602
V26051543
p603
aa(lp604
V19499882
p605
aa(lp606
V23264447
p607
aa(lp608
V12109583
p609
aa(lp610
V2566436
p611
aV2874947
p612
aV7049828
p613
aV7020309
p614
aa(lp615
V12087249
p616
aV2048259
p617
aV2707885
p618
aV6005764
p619
aa(lp620
V27852128
p621
aV18616089
p622
aV18205997
p623
aV17505593
p624
aV17157275
p625
aV16220658
p626
aV15727161
p627
aV9784635
p628
aV9651801
p629
aV2226156
p630
aa(lp631
V9781289
p632
aV2478605
p633
aV2891880
p634
aV6617619
p635
aV7091879
p636
aV6110517
p637
aV4142834
p638
aa(lp639
V17599379
p640
aV17084013
p641
aV15991572
p642
aV15233468
p643
aa(lp644
V23067562
p645
aa(lp646
V14635473
p647
aV11926620
p648
aa(lp649
V17577382
p650
aa(lp651
V19900031
p652
aV2479018
p653
aV11863
p654
aa(lp655
V572660
p656
aa(lp657
V20623616
p658
aa(lp659
V25553270
p660
aa(lp661
V24296992
p662
aa(lp663
V10457797
p664
aa(lp665
V241497
p666
aa(lp667
V4132605
p668
aV4385350
p669
aa(lp670
V15799005
p671
aa(lp672
V17389594
p673
aa(lp674
V20432629
p675
aa(lp676
V9100
p677
aa(lp678
V17953084
p679
aV9100882
p680
aa(lp681
V18625073
p682
aa(lp683
V11244891
p684
aa(lp685
V21875451
p686
aV6784279
p687
aa(lp688
V15808899
p689
aa(lp690
V21131702
p691
aV8160562
p692
aa(lp693
V24296992
p694
aa(lp695
V12911512
p696
aV12557250
p697
aa(lp698
V27174430
p699
aa(lp700
V572660
p701
aa(lp702
V9503424
p703
aV9459569
p704
aa(lp705
V12087249
p706
aa(lp707
V20637582
p708
aa(lp709
V25810362
p710
aV9749312
p711
aV8808156
p712
aV2945758
p713
aa(lp714
V21875451
p715
aa(lp716
V24912999
p717
aV21624753
p718
aV15769299
p719
aV7945786
p720
aV7682684
p721
aa(lp722
V3237811
p723
aV2899005
p724
aV3775113
p725
aa(lp726
V3247566
p727
aa(lp728
V26174460
p729
aa(lp730
V7853862
p731
aa(lp732
V25595541
p733
aV11102595
p734
aV27633
p735
aa(lp736
V9256933
p737
aa(lp738
V20405222
p739
aa(lp740
V10457797
p741
aa(lp742
V20492299
p743
aV14708456
p744
aa(lp745
V15964726
p746
aa(lp747
V9669116
p748
aa(lp749
V241497
p750
aa(lp751
V22034523
p752
aa(lp753
V17910325
p754
aV17888051
p755
aV17621569
p756
aV15969666
p757
aV12573207
p758
aa(lp759
V27197662
p760
aV24903351
p761
aV23264447
p762
aV21280267
p763
aV16409262
p764
aV16198809
p765
aV15570603
p766
aV11823753
p767
aV11085368
p768
aa(lp769
V17621838
p770
aV14148242
p771
aV13943194
p772
aV13407545
p773
aV13242408
p774
aV13151200
p775
aV13146014
p776
aV14373818
p777
aV14907267
p778
aV24538961
p779
aV18100210
p780
aa(lp781
V17389594
p782
aV11353282
p783
aV10232064
p784
aV9933996
p785
aV2947718
p786
aV4083024
p787
aa(lp788
V2849574
p789
aa(lp790
V14708456
p791
aV2683568
p792
aa(lp793
V26051543
p794
aV20377120
p795
aV15969666
p796
aa(lp797
V3158889
p798
aa(lp799
V4399452
p800
aa(lp801
V26581315
p802
aa(lp803
V15112866
p804
aa(lp805
V28365158
p806
aa(lp807
V1354110
p808
aV6129304
p809
aV239819
p810
aa(lp811
V9858121
p812
aa(lp813
V26901221
p814
aV25652732
p815
aV17983384
p816
aV7496078
p817
aV2393451
p818
aV7368158
p819
aV820732
p820
aV4132605
p821
aV14223209
p822
aV12978140
p823
aa(lp824
V2353064
p825
aa(lp826
V25810380
p827
aV24506459
p828
aV20453555
p829
aV18318808
p830
aa(lp831
V13262583
p832
aa(lp833
V9178940
p834
aa(lp835
V15112866
p836
aa(lp837
V15969666
p838
aa(lp839
V9100
p840
aa(lp841
V21762766
p842
aV8160562
p843
aa(lp844
V4077143
p845
aa(lp846
V25733093
p847
aa(lp848
V25652732
p849
aa(lp850
V15899003
p851
aV14636769
p852
aV12698031
p853
aV9887916
p854
aV2879213
p855
aV6142536
p856
aa(lp857
V19813472
p858
aa(lp859
V1354110
p860
aV6129304
p861
aV239819
p862
aa(lp863
V13262583
p864
aa(lp865
V28365158
p866
aa(lp867
V12087249
p868
aV2048259
p869
aV2707885
p870
aV6005764
p871
aa(lp872
V27197662
p873
aV24903351
p874
aV23264447
p875
aV21280267
p876
aV16409262
p877
aV16198809
p878
aV15570603
p879
aV11823753
p880
aV11085368
p881
aa(lp882
V9781289
p883
aV2478605
p884
aV2891880
p885
aV6617619
p886
aV7091879
p887
aV6110517
p888
aV4142834
p889
aa(lp890
V21875451
p891
aV6784279
p892
aa(lp893
V17599379
p894
aV17084013
p895
aV15991572
p896
aV15233468
p897
aa(lp898
V23067562
p899
aa(lp900
V14635473
p901
aV11926620
p902
aa(lp903
V17577382
p904
aa(lp905
V19900031
p906
aV2479018
p907
aV11863
p908
aa(lp909
V23594121
p910
aV1545010
p911
aV6103733
p912
aV6766273
p913
aV16787
p914
aa(lp915
V17953084
p916
aV9100882
p917
aa(lp918
V18625073
p919
aa(lp920
V22034523
p921
aa(lp922
V12598931
p923
aa(lp924
V15165573
p925
aa(lp926
V9100
p927
aa(lp928
V24296992
p929
aa(lp930
V12911512
p931
aV12557250
p932
aa(lp933
V27174430
p934
aa(lp935
V572660
p936
aa(lp937
V25924535
p938
aa(lp939
V25810362
p940
aV9749312
p941
aV8808156
p942
aV2945758
p943
aa(lp944
V24912999
p945
aV21624753
p946
aV15769299
p947
aV7945786
p948
aV7682684
p949
aa(lp950
V3247566
p951
aa(lp952
V7853862
p953
aa(lp954
V25595541
p955
aV11102595
p956
aV27633
p957
aa(lp958
V17910325
p959
aV17888051
p960
aV17621569
p961
aV15969666
p962
aV12573207
p963
aa(lp964
V9256933
p965
aa(lp966
V20405222
p967
aa(lp968
V9192103
p969
aV1352438
p970
aa(lp971
V9669116
p972
aa(lp973
V23266306
p974
aV17580700
p975
aV16419026
p976
aV16152925
p977
aV1349259
p978
aV3418195
p979
aV3733996
p980
aa(lp981
V17621838
p982
aV14148242
p983
aV13943194
p984
aV13407545
p985
aV13242408
p986
aV13151200
p987
aV13146014
p988
aV14373818
p989
aV14907267
p990
aV24538961
p991
aV18100210
p992
aa(lp993
V17389594
p994
aV11353282
p995
aV10232064
p996
aV9933996
p997
aV2947718
p998
aV4083024
p999
aa(lp1000
V2849574
p1001
aa(lp1002
V21703247
p1003
aV8720801
p1004
aV7775159
p1005
aV7905786
p1006
aV6689264
p1007
aa(lp1008
V26051543
p1009
aV20377120
p1010
aV15969666
p1011
aa(lp1012
V15112866
p1013
aa(lp1014
V6129304
p1015
aa(lp1016
V26901221
p1017
aV25652732
p1018
aV17983384
p1019
aV7496078
p1020
aV2393451
p1021
aV7368158
p1022
aV820732
p1023
aV4132605
p1024
aV14223209
p1025
aV12978140
p1026
aa(lp1027
V23266306
p1028
aV17580700
p1029
aV16419026
p1030
aV16152925
p1031
aV1349259
p1032
aV3418195
p1033
aV3733996
p1034
aa(lp1035
V15969666
p1036
aa(lp1037
V4077143
p1038
aa(lp1039
V26581315
p1040
aa(lp1041
V4405544
p1042
aa(lp1043
V26626193
p1044
aV23797677
p1045
aV22719198
p1046
aV21467637
p1047
aV20005402
p1048
aV18814935
p1049
aV17697901
p1050
aV16516511
p1051
aV15007339
p1052
aV11174228
p1053
aV10770660
p1054
aa(lp1055
V21930594
p1056
aV2481561
p1057
aV2469033
p1058
aV6192237
p1059
aa(lp1060
V4104654
p1061
aV4178050
p1062
aa(lp1063
V28483312
p1064
aV23964684
p1065
aV21740105
p1066
aV18477275
p1067
aV18094310
p1068
aV10799761
p1069
aV10189377
p1070
aV9876890
p1071
aV8636284
p1072
aV8052083
p1073
aV2574840
p1074
aa(lp1075
V11414660
p1076
aV7913374
p1077
aV1982201
p1078
aV2395097
p1079
aV1972750
p1080
aV2576358
p1081
aV2895747
p1082
aV6192241
p1083
aa(lp1084
V11353747
p1085
aa(lp1086
V18031471
p1087
aa(lp1088
V4154117
p1089
aV4399409
p1090
aV4398598
p1091
aV4395744
p1092
aV4383761
p1093
aa(lp1094
V25053822
p1095
aa(lp1096
V22855946
p1097
aV20837659
p1098
aV16141639
p1099
aV10082263
p1100
aV8267667
p1101
aa(lp1102
V27023265
p1103
aV25150943
p1104
aV20667004
p1105
aV16428776
p1106
aV15566225
p1107
aV15011308
p1108
aV12181881
p1109
aV9501643
p1110
aV9213524
p1111
aa(lp1112
V23878024
p1113
aV23264447
p1114
aV21780830
p1115
aV18809732
p1116
aV16946558
p1117
aV16014768
p1118
aV15100174
p1119
aV1362943
p1120
aV49061
p1121
aV14077827
p1122
aa(lp1123
V22414088
p1124
aV21237239
p1125
aV7127299
p1126
aV6309593
p1127
aa(lp1128
V28820
p1129
aa(lp1130
V8088342
p1131
aV14099805
p1132
aa(lp1133
V19696585
p1134
aV1687094
p1135
aV1970735
p1136
aV2575358
p1137
aV4392557
p1138
aV13606377
p1139
aa(lp1140
V26632187
p1141
aV16880667
p1142
aV11731910
p1143
aV7903378
p1144
aV7903376
p1145
aV2482481
p1146
aV3118384
p1147
aV3021651
p1148
aV3015804
p1149
aa(lp1150
V7945786
p1151
aa(lp1152
V27476103
p1153
aa(lp1154
V9066838
p1155
aV8618998
p1156
aV2887716
p1157
aV2877124
p1158
aV3724256
p1159
aV3873073
p1160
aV4381779
p1161
aa(lp1162
V15630231
p1163
aV15630184
p1164
aa(lp1165
V27236894
p1166
aa(lp1167
V9332002
p1168
aa(lp1169
V8915097
p1170
aV7611843
p1171
aa(lp1172
V17220234
p1173
aV15303110
p1174
aV14647407
p1175
aa(lp1176
V18435907
p1177
aV9928682
p1178
aV14189149
p1179
aa(lp1180
V9332002
p1181
aa(lp1182
V11095537
p1183
aV9404819
p1184
aa(lp1185
V22136279
p1186
aV10864899
p1187
aV8799562
p1188
aV7582454
p1189
aa(lp1190
V1333407
p1191
aa(lp1192
V25273276
p1193
aV20092258
p1194
aV19413574
p1195
aV9578146
p1196
aV8717151
p1197
aV8058107
p1198
aV7514261
p1199
aV1381043
p1200
aV2559336
p1201
aV2886214
p1202
aV2409021
p1203
aV6108346
p1204
aa(lp1205
V26028180
p1206
aV15630231
p1207
aV15630184
p1208
aV2872680
p1209
aV546179
p1210
aV1001736
p1211
aa(lp1212
V22452333
p1213
aa(lp1214
V4178872
p1215
aV14239951
p1216
aV14209795
p1217
aa(lp1218
V14971719
p1219
aV12387308
p1220
aa(lp1221
V25579114
p1222
aV18270317
p1223
aa(lp1224
V9526560
p1225
aa(lp1226
V9192103
p1227
aa(lp1228
V9698202
p1229
aa(lp1230
V4147115
p1231
aa(lp1232
V25514492
p1233
aV19221726
p1234
aV14971719
p1235
aV1705101
p1236
aV2542167
p1237
aa(lp1238
V28745328
p1239
aV16404130
p1240
aV14651259
p1241
aV10189377
p1242
aV8894979
p1243
aV8863820
p1244
aV8048280
p1245
aV2558762
p1246
aV2844808
p1247
aV1200988
p1248
aa(lp1249
V25053822
p1250
aa(lp1251
V26960774
p1252
aV26391399
p1253
aa(lp1254
V21939976
p1255
aV1356640
p1256
aV4152314
p1257
aa(lp1258
V2872680
p1259
aa(lp1260
V26655489
p1261
aV25733916
p1262
aV22386264
p1263
aV22701032
p1264
aV17389659
p1265
aV16914758
p1266
aV14514498
p1267
aV1675853
p1268
aV4401355
p1269
aa(lp1270
V25273276
p1271
aV20092258
p1272
aV19413574
p1273
aV9578146
p1274
aV8717151
p1275
aV8058107
p1276
aV7514261
p1277
aV1381043
p1278
aV2559336
p1279
aV2886214
p1280
aV2409021
p1281
aV6108346
p1282
aa(lp1283
V8742513
p1284
aV4388136
p1285
aa(lp1286
V8447847
p1287
aV2775309
p1288
aV2757897
p1289
aa(lp1290
V9448094
p1291
aa(lp1292
V25404166
p1293
aV24907546
p1294
aV24361550
p1295
aV23984531
p1296
aV15808899
p1297
aV10218824
p1298
aV239857
p1299
aV4311771
p1300
aa(lp1301
V18946596
p1302
aV10416826
p1303
aa(lp1304
V14510616
p1305
aa(lp1306
V25053822
p1307
aa(lp1308
V22855946
p1309
aV20837659
p1310
aV16141639
p1311
aV10082263
p1312
aV8267667
p1313
aa(lp1314
V2888895
p1315
aa(lp1316
V2542380
p1317
aV14181230
p1318
aa(lp1319
V8817642
p1320
aV6387510
p1321
aa(lp1322
V27476103
p1323
aV23266696
p1324
aV16223499
p1325
aV15863316
p1326
aV11698075
p1327
aV1623633
p1328
aa(lp1329
V8447847
p1330
aV2775309
p1331
aV2757897
p1332
aa(lp1333
V15294456
p1334
aV11521173
p1335
aV9825114
p1336
aV8907591
p1337
aV8016188
p1338
aV2441619
p1339
aV2418047
p1340
aV2418809
p1341
aV2581465
p1342
aV2864316
p1343
aa(lp1344
V15630231
p1345
aV15630184
p1346
aa(lp1347
V8833423
p1348
aV7683713
p1349
aV1707147
p1350
aV2731805
p1351
aV6182175
p1352
aa(lp1353
V9600652
p1354
aV8103395
p1355
aV1687070
p1356
aV1671095
p1357
aV2333980
p1358
aV2444694
p1359
aa(lp1360
V18155693
p1361
aV17355118
p1362
aV11494361
p1363
aV10397469
p1364
aV9468340
p1365
aV8696932
p1366
aV1980817
p1367
aV2268174
p1368
aV2542380
p1369
aV2885303
p1370
aV6200500
p1371
aV6692368
p1372
aa(lp1373
V13626732
p1374
aa(lp1375
V24288292
p1376
aV9925288
p1377
aa(lp1378
V24907546
p1379
aV24361550
p1380
aV23984531
p1381
aV23142555
p1382
aV22375417
p1383
aV20697948
p1384
aV16880667
p1385
aV9332002
p1386
aV6131955
p1387
aa(lp1388
V2872680
p1389
aa(lp1390
V12705772
p1391
aV8682959
p1392
aV8075436
p1393
aV2939676
p1394
aV6116852
p1395
aV1235281
p1396
aa(lp1397
V23750086
p1398
aa.