(lp0
(lp1
V6617619
p2
aa(lp3
V6131676
p4
aa(lp5
V10218824
p6
aa(lp7
V19413574
p8
aV16006038
p9
aV2158354
p10
aV2575035
p11
aV6133737
p12
aV4145025
p13
aa(lp14
V18812024
p15
aa(lp16
V12425364
p17
aV11730187
p18
aa(lp19
V7533019
p20
aa(lp21
V18812024
p22
aa(lp23
V22512784
p24
aa(lp25
V10082207
p26
aa(lp27
V10465415
p28
aa(lp29
V25818704
p30
aV10742540
p31
aV7682075
p32
aV3691122
p33
aV4025939
p34
aV6747997
p35
aV6113952
p36
aV7018021
p37
aV6165047
p38
aV6770932
p39
aa(lp40
V25053822
p41
aa(lp42
V18812024
p43
aa(lp44
V16291073
p45
aa(lp46
V1839064
p47
aa(lp48
V9131412
p49
aa(lp50
V19602852
p51
aa(lp52
V18812024
p53
aa(lp54
V14685044
p55
aa(lp56
V23364789
p57
aV7626667
p58
aV7311741
p59
aa(lp60
V18257747
p61
aV8945893
p62
aV2541790
p63
aa(lp64
V12795649
p65
aV8564559
p66
aV4146388
p67
aV13471397
p68
aa(lp69
V9626565
p70
aV9098750
p71
aV8696927
p72
aV1973359
p73
aV2478468
p74
aa(lp75
V1436488
p76
aa(lp77
V26901221
p78
aV3367105
p79
aV6685491
p80
aa(lp81
V18499101
p82
aV11164765
p83
aV8389993
p84
aV2359350
p85
aa(lp86
V2384131
p87
aV14288106
p88
aV14184337
p89
aV14138420
p90
aV14138417
p91
aV13983277
p92
aa(lp93
V1531411
p94
aa(lp95
V15352220
p96
aV8012709
p97
aV1976055
p98
aV7067131
p99
aV7320722
p100
aV7205274
p101
aa(lp102
V4979485
p103
aa(lp104
V23262428
p105
aa(lp106
V23697606
p107
aV3354683
p108
aa(lp109
V19886753
p110
aa(lp111
V7375913
p112
aV238665
p113
aa(lp114
V14582745
p115
aa(lp116
V10210152
p117
aV9600652
p118
aV2559336
p119
aV2574029
p120
aV4042285
p121
aV6893412
p122
aa(lp123
V27476103
p124
aa(lp125
V10899954
p126
aV8390920
p127
aa(lp128
V2864322
p129
aV6114689
p130
aV28295
p131
aa(lp132
V25514492
p133
aV19221726
p134
aV14971719
p135
aV1705101
p136
aV2542167
p137
aa(lp138
V7913374
p139
aa(lp140
V22341311
p141
aV21570085
p142
aV7420278
p143
aV932977
p144
aa(lp145
V22065532
p146
aV1688973
p147
aa(lp148
V26901221
p149
aV25404166
p150
aV17965255
p151
aV16322553
p152
aV11197179
p153
aV11105848
p154
aV8347453
p155
aV6048685
p156
aa(lp157
V18755851
p158
aa(lp159
V27049100
p160
aV14514498
p161
aV1361235
p162
aa(lp163
V8447847
p164
aa(lp165
V15630184
p166
aa(lp167
V10782251
p168
aV7903486
p169
aa(lp170
V15223308
p171
aa(lp172
V5945244
p173
aa(lp174
V11304938
p175
aa(lp176
V20083051
p177
aV10961334
p178
aV1693928
p179
aV3988309
p180
aa(lp181
V15947280
p182
aV11082441
p183
aa(lp184
V24767877
p185
aV19657356
p186
aV18289521
p187
aV9585152
p188
aV9195293
p189
aV1887868
p190
aV2152884
p191
aV12990794
p192
aa(lp193
V2059909
p194
aa(lp195
V9600652
p196
aV1677199
p197
aV1977818
p198
aV6525007
p199
aV6884480
p200
aV6860348
p201
aV202690
p202
aa(lp203
V21750179
p204
aa(lp205
V22216448
p206
aV11238657
p207
aa(lp208
V27605627
p209
aV27584962
p210
aV23900020
p211
aV16767419
p212
aV16344854
p213
aV11309
p214
aa(lp215
V22239222
p216
aV8955867
p217
aV1417969
p218
aa(lp219
V25586500
p220
aV17880504
p221
aV9378501
p222
aV8102141
p223
aV8387095
p224
aV1343226
p225
aV1983293
p226
aa(lp227
V17644821
p228
aa(lp229
V2542463
p230
aV4108602
p231
aa(lp232
V12392821
p233
aV11455223
p234
aa(lp235
V6387510
p236
aa(lp237
V25484598
p238
aV25052410
p239
aV24123059
p240
aV23444286
p241
aV21079545
p242
aV1235743
p243
aa(lp244
V20093397
p245
aV19923255
p246
aV10961334
p247
aV7514877
p248
aV1200988
p249
aa(lp250
V20213656
p251
aV11894734
p252
aV11205066
p253
aV10961334
p254
aV2082598
p255
aa(lp256
V18812024
p257
aa(lp258
V7451973
p259
aa(lp260
V3115619
p261
aV4024659
p262
aa(lp263
V6349963
p264
aa(lp265
V21932299
p266
aa(lp267
V15301927
p268
aV10218824
p269
aV9401725
p270
aV8103103
p271
aa(lp272
V16786474
p273
aV1195655
p274
aa(lp275
V16141639
p276
aa(lp277
V9503424
p278
aV9459569
p279
aa(lp280
V21740105
p281
aV15963493
p282
aV10465415
p283
aa(lp284
V26558467
p285
aa(lp286
V10082263
p287
aV239732
p288
aa(lp289
V22849842
p290
aa(lp291
V25
p292
aa(lp293
V25053822
p294
aa(lp295
V26386976
p296
aV7713167
p297
aV1830940
p298
aV1679219
p299
aV1976055
p300
aV2574464
p301
aV7067131
p302
aV7320722
p303
aV7205274
p304
aa(lp305
V16137871
p306
aV10634092
p307
aV10392553
p308
aV9655687
p309
aV1353547
p310
aV1854259
p311
aV1673260
p312
aV6309593
p313
aV6777
p314
aV4813
p315
aV13022140
p316
aa(lp317
V18007585
p318
aa(lp319
V21322943
p320
aa(lp321
V14119857
p322
aa(lp323
V27472707
p324
aV17443568
p325
aV10353159
p326
aV8583374
p327
aV1823397
p328
aV2860077
p329
aV4386443
p330
aa(lp331
V17220234
p332
aa(lp333
V18435907
p334
aV17141480
p335
aV9865509
p336
aV3367105
p337
aV2581465
p338
aV14789583
p339
aa(lp340
V18164606
p341
aV12460644
p342
aV1290589
p343
aV3586415
p344
aV496813
p345
aV4109464
p346
aa(lp347
V22779794
p348
aa(lp349
V9332002
p350
aa(lp351
V24420060
p352
aa(lp353
V24420060
p354
aV12350115
p355
aV11575796
p356
aV4403557
p357
aV13262876
p358
aV13069826
p359
aV13011561
p360
aa(lp361
V18281555
p362
aV11334876
p363
aV2126346
p364
aV3795043
p365
aV2864322
p366
aV6197487
p367
aV28295
p368
aV13166553
p369
aa(lp370
V24142790
p371
aV20067821
p372
aV7203282
p373
aa(lp374
V11175812
p375
aV3005414
p376
aV3000234
p377
aa(lp378
V16880667
p379
aV40787
p380
aa(lp381
V25053822
p382
aa(lp383
V2872680
p384
aa(lp385
V7805127
p386
aa(lp387
V21079545
p388
aa(lp389
V11988853
p390
aa(lp391
V25053822
p392
aa(lp393
V25495884
p394
aV24950381
p395
aV10994829
p396
aV2569872
p397
aa(lp398
V21800216
p399
aV20558264
p400
aV20472048
p401
aV19922776
p402
aV19348341
p403
aV17016002
p404
aV10748623
p405
aV9431564
p406
aV9034230
p407
aV7554700
p408
aa(lp409
V15547545
p410
aV4399661
p411
aa(lp412
V20822669
p413
aV8930778
p414
aV13825519
p415
aa(lp416
V15193715
p417
aV7500868
p418
aV973634
p419
aV4723051
p420
aa(lp421
V25698600
p422
aa(lp423
V11390253
p424
aV8888369
p425
aa(lp426
V1375025
p427
aV4386447
p428
aa(lp429
V20972784
p430
aa(lp431
V1684296
p432
aa(lp433
V19699046
p434
aa(lp435
V18812024
p436
aa(lp437
V14801283
p438
aa(lp439
V26421309
p440
aV24829584
p441
aV9100
p442
aa(lp443
V22541141
p444
aV16413153
p445
aV15524192
p446
aV11772021
p447
aV2575358
p448
aa(lp449
V6300579
p450
aa(lp451
V10528077
p452
aV8927662
p453
aV2864425
p454
aV6430305
p455
aV13762246
p456
aV13851689
p457
aV13573282
p458
aV13549246
p459
aV13453886
p460
aV18890228
p461
aa(lp462
V11881980
p463
aV8889686
p464
aa(lp465
V21364192
p466
aa(lp467
V2898513
p468
aa(lp469
V27707425
p470
aV27146978
p471
aV12193739
p472
aa(lp473
V4394190
p474
aa(lp475
V27562995
p476
aa(lp477
V28672829
p478
aV27035718
p479
aV23234468
p480
aV23161862
p481
aV22349883
p482
aV21994769
p483
aV19881287
p484
aV8669282
p485
aa(lp486
V1531411
p487
aa(lp488
V4399452
p489
aV5167294
p490
aa(lp491
V409975
p492
aV4529314
p493
aV4150617
p494
aV5427263
p495
aa(lp496
V21219993
p497
aV19280528
p498
aV2476925
p499
aa(lp500
V24288292
p501
aV9925288
p502
aa(lp503
V26219510
p504
aa(lp505
V2872680
p506
aa(lp507
V1839064
p508
aa(lp509
V18812024
p510
aa(lp511
V26310858
p512
aV16535862
p513
aV6165047
p514
aV4149214
p515
aV5259276
p516
aV5839531
p517
aV14158494
p518
aV14143042
p519
aV14196757
p520
aV13281010
p521
aa(lp522
V7562938
p523
aV2897197
p524
aV2424463
p525
aV2859374
p526
aa(lp527
V25514492
p528
aV19221726
p529
aV14971719
p530
aV1705101
p531
aV2542167
p532
aa(lp533
V7921849
p534
aV6881518
p535
aa(lp536
V15630184
p537
aa(lp538
V20522976
p539
aV9654399
p540
aV8630722
p541
aV2480337
p542
aV6314748
p543
aa(lp544
V10218824
p545
aV9401725
p546
aa(lp547
V21648435
p548
aV11881980
p549
aV1677532
p550
aV4397139
p551
aV4392454
p552
aV13904737
p553
aa(lp554
V1362943
p555
aV4389899
p556
aV4378505
p557
aa(lp558
V16623831
p559
aV16014768
p560
aa(lp561
V3795043
p562
aa(lp563
V2885150
p564
aV3101619
p565
aa(lp566
V8097951
p567
aV6323632
p568
aV6138034
p569
aV6130710
p570
aV1028955
p571
aV11186
p572
aV4151898
p573
aV4151295
p574
aa(lp575
V19413569
p576
aV18155693
p577
aV17445795
p578
aV10455281
p579
aa(lp580
V14137693
p581
aa(lp582
V8355209
p583
aa(lp584
V20406041
p585
aV17644821
p586
aV17623020
p587
aV11095537
p588
aV9404819
p589
aa(lp590
V23259920
p591
aV20033256
p592
aa(lp593
V26777454
p594
aV4394026
p595
aV4394025
p596
aV4390351
p597
aV14169714
p598
aa(lp599
V28154308
p600
aV25924535
p601
aV19602852
p602
aV2483534
p603
aV2720841
p604
aV2883093
p605
aV2868624
p606
aa(lp607
V3302666
p608
aV3088379
p609
aV2578754
p610
aV6118294
p611
aa(lp612
V20228413
p613
aa(lp614
V24317429
p615
aV22056347
p616
aa(lp617
V26515061
p618
aV12821189
p619
aa(lp620
V25053822
p621
aa(lp622
V21740105
p623
aV15963493
p624
aV10465415
p625
aa(lp626
V7562938
p627
aV2897197
p628
aV2424463
p629
aV2859374
p630
aa(lp631
V27035465
p632
aV11823753
p633
aV10465415
p634
aV8397053
p635
aa(lp636
V19782065
p637
aa(lp638
V28131781
p639
aV21211106
p640
aV19463907
p641
aV18066536
p642
aV11494361
p643
aV9065813
p644
aV2268174
p645
aV6692368
p646
aV569238
p647
aV3616
p648
aV4265422
p649
aV4260784
p650
aa(lp651
V17141480
p652
aV9865509
p653
aV3367105
p654
aV2581465
p655
aa(lp656
V22476973
p657
aV20498877
p658
aV7099914
p659
aa(lp660
V25053822
p661
aa(lp662
V11108547
p663
aa(lp664
V25586500
p665
aV10397469
p666
aV9831324
p667
aV2268174
p668
aV3530640
p669
aV6692368
p670
aa(lp671
V26864989
p672
aV24950381
p673
aV24682538
p674
aa(lp675
V26219510
p676
aa(lp677
V2428378
p678
aV3721362
p679
aa(lp680
V4405589
p681
aa(lp682
V1974304
p683
aa(lp684
V9442473
p685
aa(lp686
V8293
p687
aa(lp688
V2963750
p689
aV12486
p690
aa(lp691
V22663061
p692
aV19014991
p693
aV15675442
p694
aV15145142
p695
aV2894467
p696
aV2866255
p697
aV4394966
p698
aV14346987
p699
aV14055606
p700
aa(lp701
V22349021
p702
aV13091883
p703
aa(lp704
V25343294
p705
aV2885150
p706
aV3766313
p707
aV3101619
p708
aV6379343
p709
aV38099
p710
aa(lp711
V25514492
p712
aV19221726
p713
aV14971719
p714
aV1705101
p715
aV2542167
p716
aa(lp717
V21853256
p718
aV20737650
p719
aV19627
p720
aa(lp721
V19782065
p722
aV4153172
p723
aV4398420
p724
aV4378955
p725
aV14347356
p726
aV14027967
p727
aa(lp728
V7903486
p729
aa(lp730
V26752109
p731
aV10344773
p732
aa(lp733
V25053822
p734
aa(lp735
V22622016
p736
aV8294195
p737
aV7069703
p738
aV6112994
p739
aa(lp740
V14971719
p741
aa(lp742
V9503424
p743
aV8957258
p744
aa(lp745
V2888618
p746
aa(lp747
V27476103
p748
aV15863316
p749
aV15608078
p750
aV9314043
p751
aV4401717
p752
aV4393831
p753
aV4392593
p754
aa(lp755
V14137693
p756
aa(lp757
V9332002
p758
aa(lp759
V20148242
p760
aV16182504
p761
aV9572911
p762
aV9174969
p763
aV1812957
p764
aV14018677
p765
aa(lp766
V11686
p767
aa(lp768
V11370017
p769
aa(lp770
V21895659
p771
aV19720102
p772
aV15127948
p773
aV10499375
p774
aV9815037
p775
aV9291293
p776
aV3427274
p777
aV3664081
p778
aa(lp779
V15909058
p780
aa(lp781
V25346784
p782
aa(lp783
V9088877
p784
aV8779831
p785
aV8434441
p786
aV2389615
p787
aV3378606
p788
aV2980292
p789
aV6124981
p790
aV6173240
p791
aV859453
p792
aV165733
p793
aV4146201
p794
aV5001363
p795
aa(lp796
V26581315
p797
aV15630183
p798
aa(lp799
V27476103
p800
aa(lp801
V14971719
p802
aa(lp803
V8817642
p804
aV6387510
p805
aa(lp806
V27230928
p807
aV3478768
p808
aV3952426
p809
aV7129820
p810
aa(lp811
V6192241
p812
aa(lp813
V24250533
p814
aV22959205
p815
aV19014991
p816
aV8010045
p817
aV2624123
p818
aV6747997
p819
aV4153860
p820
aV14123363
p821
aV18139834
p822
aa(lp823
V9042234
p824
aV4391734
p825
aa(lp826
V8742513
p827
aa(lp828
V2872680
p829
aa(lp830
V2579236
p831
aa(lp832
V15138660
p833
aV11007127
p834
aV9759967
p835
aV8714646
p836
aV7582454
p837
aV7614007
p838
aV1347675
p839
aV1681976
p840
aV1675834
p841
aV2577266
p842
aa(lp843
V25725261
p844
aV16880667
p845
aV11669514
p846
aa(lp847
V3207562
p848
aV6120825
p849
aV13727807
p850
aV14942571
p851
aa(lp852
V2859020
p853
aV524404
p854
aa(lp855
V7943602
p856
aV200468
p857
aV24539552
p858
aa(lp859
V2576356
p860
aV2576355
p861
aV2893627
p862
aV235268
p863
aa(lp864
V7907523
p865
aa(lp866
V13764033
p867
aa(lp868
V8505907
p869
aa(lp870
V1352821
p871
aa(lp872
V21740105
p873
aV15963493
p874
aV10465415
p875
aa(lp876
V462415
p877
aa(lp878
V22239222
p879
aV18155693
p880
aV14582745
p881
aV9248871
p882
aV8955867
p883
aV7503767
p884
aV8016188
p885
aV1417969
p886
aV1462051
p887
aa(lp888
V7760582
p889
aV7326868
p890
aV22498
p891
aV4381687
p892
aa(lp893
V25053822
p894
aa(lp895
V26777454
p896
aa(lp897
V9865509
p898
aV9655687
p899
aV8955867
p900
aV8907591
p901
aa(lp902
V26029803
p903
aV25217537
p904
aV22311081
p905
aV6448165
p906
aa(lp907
V19699046
p908
aa(lp909
V10805662
p910
aV9681473
p911
aV8798428
p912
aV2139327
p913
aa(lp914
V25924535
p915
aa(lp916
V13570075
p917
aa(lp918
V25053822
p919
aa(lp920
V19945877
p921
aV3972459
p922
aV6881518
p923
aV4144715
p924
aV4398674
p925
aV4390182
p926
aV14465504
p927
aa(lp928
V25053822
p929
aa(lp930
V26922536
p931
aV26543354
p932
aV24983742
p933
aV20235789
p934
aV19591290
p935
aa(lp936
V12596514
p937
aV12056651
p938
aV11558439
p939
aV10352978
p940
aV9151100
p941
aV8909787
p942
aa(lp943
V20804826
p944
aa(lp945
V25514492
p946
aV19221726
p947
aV14971719
p948
aV1705101
p949
aV2542167
p950
aa(lp951
V24633923
p952
aV4394966
p953
aa(lp954
V15223308
p955
aa(lp956
V7503767
p957
aV1462051
p958
aa(lp959
V16759109
p960
aV1507071
p961
aV2084136
p962
aa(lp963
V25924535
p964
aa(lp965
V11137066
p966
aa(lp967
V17651307
p968
aV14596851
p969
aV11558161
p970
aa(lp971
V25053822
p972
aa(lp973
V24016753
p974
aV22883353
p975
aV15520843
p976
aV15352220
p977
aV12867500
p978
aV10846683
p979
aV1362591
p980
aV22498
p981
aa(lp982
V17355118
p983
aV17126519
p984
aV16087322
p985
aV15754830
p986
aV10434802
p987
aV10424162
p988
aV9572911
p989
aV8494536
p990
aV2894467
p991
aa(lp992
V2542167
p993
aa(lp994
V21163713
p995
aV17597317
p996
aV12578727
p997
aV6182572
p998
aV14061052
p999
aa(lp1000
V9141237
p1001
aV9131412
p1002
aV8458667
p1003
aV2085139
p1004
aV2474349
p1005
aV3392651
p1006
aV13066695
p1007
aa(lp1008
V17389594
p1009
aV2896230
p1010
aa(lp1011
V15851155
p1012
aV6905430
p1013
aV1206994
p1014
aV1136889
p1015
aV4662464
p1016
aa(lp1017
V1361235
p1018
aa(lp1019
V22215106
p1020
aV22182458
p1021
aV11597820
p1022
aV11454934
p1023
aV8102494
p1024
aV3115619
p1025
aV3798958
p1026
aV4146810
p1027
aa(lp1028
V9332002
p1029
aa(lp1030
V27476103
p1031
aa(lp1032
V9298257
p1033
aV7895601
p1034
aa(lp1035
V27035465
p1036
aV16771868
p1037
aV15723097
p1038
aV10779130
p1039
aV8457446
p1040
aV1687584
p1041
aV2226156
p1042
aV2322971
p1043
aV6652916
p1044
aV6115399
p1045
aa(lp1046
V4392995
p1047
aa(lp1048
V28188663
p1049
aV22580376
p1050
aV15881317
p1051
aV10805662
p1052
aV1317441
p1053
aV2446249
p1054
aa(lp1055
V8927350
p1056
aV729605
p1057
aa(lp1058
V27476103
p1059
aV2412976
p1060
aa(lp1061
V27476103
p1062
aV24228489
p1063
aV12626656
p1064
aV12213227
p1065
aV11735364
p1066
aV11292181
p1067
aV9863665
p1068
aV13473917
p1069
aV13535472
p1070
aa(lp1071
V21740105
p1072
aV15963493
p1073
aV10465415
p1074
aa(lp1075
V15963493
p1076
aV10465415
p1077
aa(lp1078
V24991463
p1079
aa(lp1080
V19346455
p1081
aV18709360
p1082
aV18049114
p1083
aV12168861
p1084
aa(lp1085
V25053822
p1086
aa(lp1087
V4381929
p1088
aV18904071
p1089
aa(lp1090
V15338060
p1091
aa(lp1092
V27476103
p1093
aV8102849
p1094
aa(lp1095
V22239222
p1096
aV18155693
p1097
aV14582745
p1098
aV7503767
p1099
aV1462051
p1100
aa(lp1101
V25053822
p1102
aa(lp1103
V16040258
p1104
aV1980367
p1105
aV2408455
p1106
aV6722346
p1107
aV171678
p1108
aa(lp1109
V4175311
p1110
aa(lp1111
V20514790
p1112
aa(lp1113
V24248146
p1114
aa(lp1115
V17623480
p1116
aa(lp1117
V18520950
p1118
aV17389594
p1119
aV2896230
p1120
aV2886214
p1121
aa(lp1122
V20228413
p1123
aV12135008
p1124
aV11770139
p1125
aV11164094
p1126
aV6180456
p1127
aa(lp1128
V11414660
p1129
aV6475104
p1130
aa(lp1131
V25053822
p1132
aa(lp1133
V17126519
p1134
aV15754830
p1135
aV15454296
p1136
aV9613969
p1137
aa(lp1138
V24361550
p1139
aa(lp1140
V23786999
p1141
aV23541983
p1142
aV21880035
p1143
aV18239367
p1144
aV4144786
p1145
aV4386707
p1146
aV5593170
p1147
aV4382865
p1148
aV14068361
p1149
aa(lp1150
V25924535
p1151
aa(lp1152
V28082796
p1153
aV21414220
p1154
aV19432748
p1155
aV2896127
p1156
aV14119556
p1157
aa(lp1158
V25262990
p1159
aV23713715
p1160
aV21328396
p1161
aa(lp1162
V22510519
p1163
aV22466125
p1164
aa(lp1165
V11961040
p1166
aV11501785
p1167
aV10647097
p1168
aV7520908
p1169
aV8103103
p1170
aV2942146
p1171
aa(lp1172
V9201088
p1173
aV50437
p1174
aa(lp1175
V9552465
p1176
aa(lp1177
V11156967
p1178
aV1968294
p1179
aV2977120
p1180
aV3437923
p1181
aa(lp1182
V15193715
p1183
aV9210203
p1184
aV4155561
p1185
aV4432619
p1186
aV4408996
p1187
aV14179982
p1188
aV14146300
p1189
aV13258067
p1190
aa(lp1191
V17056641
p1192
aa.