(lp0
(lp1
V23070903
p2
aV21069965
p3
aV10381407
p4
aV10334994
p5
aV3423140
p6
aa(lp7
V27801816
p8
aa(lp9
V28534346
p10
aV27806972
p11
aV27052517
p12
aV26460146
p13
aV26357462
p14
aV25362614
p15
aV23609161
p16
aV22716294
p17
aV22253518
p18
aV21357570
p19
aV20833993
p20
aa(lp21
V25752056
p22
aV12399758
p23
aa(lp24
V26357462
p25
aV22721781
p26
aV22394605
p27
aV17452418
p28
aa(lp29
V26235711
p30
aV25517108
p31
aV20060429
p32
aV16621368
p33
aV15943514
p34
aV12927388
p35
aV12434405
p36
aa(lp37
V25361959
p38
aa(lp39
V18287593
p40
aa(lp41
V28347513
p42
aV28285599
p43
aV27704584
p44
aV25746617
p45
aV24409973
p46
aV22320860
p47
aa(lp48
V17175307
p49
aa(lp50
V21538559
p51
aV18323503
p52
aV16814115
p53
aV15314096
p54
aV14612457
p55
aV9869270
p56
aV7492613
p57
aV7592544
p58
aa(lp59
V24170262
p60
aa(lp61
V27801816
p62
aa(lp63
V15976803
p64
aV7867682
p65
aa(lp66
V1797946
p67
aa(lp68
V16507758
p69
aa(lp70
V11332433
p71
aa(lp72
V26443048
p73
aV25116077
p74
aV23054025
p75
aV21160482
p76
aV11405068
p77
aa(lp78
V26212988
p79
aV23474968
p80
aa(lp81
V7595594
p82
aa(lp83
V26552146
p84
aa(lp85
V26650838
p86
aV26254184
p87
aV21908473
p88
aV19521917
p89
aV16651787
p90
aV12748386
p91
aV12447549
p92
aa(lp93
V19172581
p94
aa(lp95
V19841160
p96
aV9426956
p97
aV2151608
p98
aV212267
p99
aa(lp100
V16915858
p101
aV15231000
p102
aV11576603
p103
aa(lp104
V23908355
p105
aV21899258
p106
aV12442637
p107
aV11523064
p108
aV9869270
p109
aV9571146
p110
aV9434135
p111
aV8820097
p112
aV7646560
p113
aV8751040
p114
aa(lp115
V26621556
p116
aV26016780
p117
aV25187964
p118
aV21141493
p119
aV20131788
p120
aV9732368
p121
aa(lp122
V24440324
p123
aV20961456
p124
aV20551241
p125
aV16449620
p126
aa(lp127
V28527898
p128
aa(lp129
V28527898
p130
aa(lp131
V25894474
p132
aV25388083
p133
aV24267247
p134
aa(lp135
V23900131
p136
aV22510521
p137
aV20532641
p138
aV19471015
p139
aV8608730
p140
aV2418882
p141
aa(lp142
V25702177
p143
aa(lp144
V20464744
p145
aa(lp146
V12969437
p147
aV9348097
p148
aV8293556
p149
aV8226825
p150
aV3843532
p151
aV6631216
p152
aV6159358
p153
aa(lp154
V18239283
p155
aa(lp156
V25301877
p157
aV14646175
p158
aa(lp159
V17546512
p160
aV16125525
p161
aV12923172
p162
aV12169763
p163
aa(lp164
V21879394
p165
aa(lp166
V25916956
p167
aa(lp168
V15939058
p169
aV11304935
p170
aa(lp171
V26555483
p172
aV25569284
p173
aV25051627
p174
aV24316528
p175
aV22840186
p176
aV20922955
p177
aV20680571
p178
aV11314862
p179
aV6565705
p180
aa(lp181
V21163644
p182
aV17990330
p183
aa(lp184
V22687697
p185
aa(lp186
V21762915
p187
aV11423069
p188
aa(lp189
V26357462
p190
aV22721781
p191
aV22394605
p192
aV17452418
p193
aa(lp194
V22487282
p195
aV20338109
p196
aa(lp197
V16919659
p198
aV15495410
p199
aa(lp200
V24614216
p201
aV23761184
p202
aV8416941
p203
aV2722823
p204
aV3535678
p205
aV7007371
p206
aa(lp207
V23154180
p208
aV19429419
p209
aa(lp210
V27613388
p211
aV27189780
p212
aV27163931
p213
aV26536350
p214
aa(lp215
V19276863
p216
aa(lp217
V7411248
p218
aa(lp219
V17393208
p220
aV16415294
p221
aV12617470
p222
aV718720
p223
aV723483
p224
aV925033
p225
aa(lp226
V27348971
p227
aV15109637
p228
aa(lp229
V16915858
p230
aa(lp231
V22243700
p232
aV19697921
p233
aV17995818
p234
aa(lp235
V23070903
p236
aa(lp237
V22207075
p238
aV16814115
p239
aa(lp240
V23425105
p241
aV22980799
p242
aa(lp243
V28254024
p244
aV19697921
p245
aa(lp246
V26357462
p247
aV22721781
p248
aV22394605
p249
aV17452418
p250
aa(lp251
V25280705
p252
aV19438217
p253
aa(lp254
V23070903
p255
aa(lp256
V12379583
p257
aV8595571
p258
aa(lp259
V26302339
p260
aV25609924
p261
aV20734327
p262
aV9732368
p263
aa(lp264
V20678906
p265
aa(lp266
V15485695
p267
aa(lp268
V28137294
p269
aV12118834
p270
aV11968219
p271
aV10429459
p272
aa(lp273
V26957227
p274
aV16857844
p275
aa(lp276
V24623738
p277
aV21968084
p278
aV21075647
p279
aV19226281
p280
aV17927807
p281
aV17392159
p282
aV15541371
p283
aa(lp284
V1643651
p285
aa(lp286
V27801816
p287
aa(lp288
V28506378
p289
aV21291831
p290
aV19033449
p291
aV16317111
p292
aV12489926
p293
aa(lp294
V25612772
p295
aV21355014
p296
aV19277959
p297
aV16861623
p298
aV6163836
p299
aa(lp300
V11875588
p301
aa(lp302
V21472649
p303
aa(lp304
V27849375
p305
aV27373439
p306
aV26995149
p307
aV15231000
p308
aV11576603
p309
aV10518282
p310
aV10097403
p311
aV6176833
p312
aa(lp313
V28279967
p314
aV27059119
p315
aV23806820
p316
aV23615158
p317
aV20234134
p318
aV19965609
p319
aV14518564
p320
aV8645211
p321
aa(lp322
V22077166
p323
aV21833516
p324
aV19167589
p325
aV18536757
p326
aV17878756
p327
aV17768028
p328
aV17340064
p329
aV16269144
p330
aV11174333
p331
aV8980885
p332
aa(lp333
V20922955
p334
aa(lp335
V17973930
p336
aa(lp337
V27810472
p338
aV21128704
p339
aa(lp340
V26945886
p341
aa(lp342
V3733706
p343
aa(lp344
V28683825
p345
aa(lp346
V16857844
p347
aa(lp348
V17625941
p349
aV17277201
p350
aa(lp351
V26610739
p352
aV24608605
p353
aV16193989
p354
aV15239254
p355
aV11886300
p356
aV11088079
p357
aV8062316
p358
aV3956495
p359
aa(lp360
V25879228
p361
aV24742469
p362
aV19545596
p363
aa(lp364
V26357462
p365
aV22721781
p366
aV22394605
p367
aV17452418
p368
aa(lp369
V17389800
p370
aV1560030
p371
aa(lp372
V10402490
p373
aa(lp374
V22459742
p375
aV22382897
p376
aV20441243
p377
aV19415820
p378
aV12669132
p379
aV12360609
p380
aV9043839
p381
aV1527481
p382
aa(lp383
V26995149
p384
aV25734526
p385
aV25692332
p386
aV24431079
p387
aV22721781
p388
aV21075093
p389
aV9763219
p390
aV7595594
p391
aV3950902
p392
aa(lp393
V22382897
p394
aV17066138
p395
aV11939162
p396
aV1527481
p397
aa(lp398
V16706808
p399
aV3733706
p400
aa(lp401
V19731816
p402
aV12374775
p403
aV8226825
p404
aa(lp405
V14643448
p406
aa(lp407
V18173546
p408
aV16244767
p409
aV15638819
p410
aV12958617
p411
aV12955403
p412
aa(lp413
V21134995
p414
aV19581104
p415
aV19463115
p416
aV17900611
p417
aV17234730
p418
aV16317111
p419
aV16207471
p420
aV12909768
p421
aV12354174
p422
aV11978140
p423
aV11386351
p424
aa(lp425
V26302339
p426
aV25609924
p427
aV20734327
p428
aV9732368
p429
aa(lp430
V28534346
p431
aV27806972
p432
aV27052517
p433
aV26460146
p434
aV26357462
p435
aV25362614
p436
aV23609161
p437
aV22716294
p438
aV22253518
p439
aV21357570
p440
aV20833993
p441
aa(lp442
V3566778
p443
aa(lp444
V25820046
p445
aV24138536
p446
aa(lp447
V26491824
p448
aV25698600
p449
aV23412023
p450
aV12941308
p451
aa(lp452
V27818195
p453
aV21075093
p454
aV18004805
p455
aV17455469
p456
aV12724351
p457
aV10233202
p458
aV9763219
p459
aa(lp460
V26493709
p461
aa(lp462
V24951966
p463
aV24933195
p464
aV24117256
p465
aV21441627
p466
aV22891536
p467
aa(lp468
V20674497
p469
aa(lp470
V27612702
p471
aV21132409
p472
aV16789495
p473
aV16643716
p474
aV16301192
p475
aV16185635
p476
aV14652963
p477
aV12699304
p478
aV12378829
p479
aV12147555
p480
aV11809001
p481
aa(lp482
V9190847
p483
aa(lp484
V21674778
p485
aV21092138
p486
aV12095106
p487
aV6567656
p488
aa(lp489
V28596017
p490
aV28445391
p491
aV26974858
p492
aV26940313
p493
aV24157868
p494
aV22305890
p495
aV18483861
p496
aV16454532
p497
aa(lp498
V25382401
p499
aa(lp500
V1618241
p501
aa(lp502
V16857844
p503
aa(lp504
V12226513
p505
aa(lp506
V24151056
p507
aa(lp508
V24364088
p509
aV23141585
p510
aa(lp511
V20678906
p512
aa(lp513
V27179780
p514
aV25187964
p515
aV23567805
p516
aV15231000
p517
aa(lp518
V9300578
p519
aa(lp520
V2743567
p521
aa(lp522
V26357462
p523
aV22721781
p524
aV22394605
p525
aV17452418
p526
aa(lp527
V19382594
p528
aa(lp529
V27613388
p530
aV19349355
p531
aa(lp532
V20962060
p533
aV2049809
p534
aV2297361
p535
aa(lp536
V27085816
p537
aV24790817
p538
aV18822954
p539
aV16117985
p540
aV16104112
p541
aa(lp542
V23391022
p543
aV23251572
p544
aV12883323
p545
aV11811530
p546
aV7791813
p547
aa(lp548
V28209347
p549
aV24582553
p550
aV1939482
p551
aa(lp552
V23070903
p553
aa(lp554
V17625941
p555
aV17277201
p556
aa(lp557
V22541636
p558
aa(lp559
V26345515
p560
aV23674260
p561
aV22980799
p562
aV21660137
p563
aV20843083
p564
aV19572741
p565
aV17452418
p566
aa(lp567
V28246231
p568
aV27415612
p569
aV27174290
p570
aV19639539
p571
aV15728647
p572
aa(lp573
V26033937
p574
aV10924733
p575
aa(lp576
V17697761
p577
aV12499643
p578
aV11716837
p579
aa(lp580
V18005671
p581
aa(lp582
V28207072
p583
aa(lp584
V27454090
p585
aV25534866
p586
aV23902712
p587
aV22659373
p588
aV22278741
p589
aa(lp590
V1732385
p591
aa(lp592
V26552039
p593
aV24575888
p594
aV16112121
p595
aV11314862
p596
aV10751037
p597
aV1643652
p598
aV1643651
p599
aa(lp600
V24434301
p601
aa(lp602
V21329846
p603
aV12827027
p604
aV12131546
p605
aa(lp606
V20089986
p607
aV10870849
p608
aa(lp609
V27109319
p610
aa(lp611
V15871849
p612
aa(lp613
V1898013
p614
aa(lp615
V3566778
p616
aa(lp617
V22444196
p618
aa(lp619
V12228237
p620
aV10537222
p621
aV9000379
p622
aV6462147
p623
aa(lp624
V11254905
p625
aa(lp626
V28483521
p627
aV27939244
p628
aV27539098
p629
aV23727646
p630
aV23517916
p631
aV21060327
p632
aV18982375
p633
aV18687433
p634
aV18537758
p635
aV18287352
p636
aV6125210
p637
aa(lp638
V27818195
p639
aV21075093
p640
aV19365754
p641
aV19178132
p642
aV18004805
p643
aV17455469
p644
aV12724351
p645
aV9763219
p646
aa(lp647
V23118499
p648
aa(lp649
V26886305
p650
aV25420542
p651
aV24536009
p652
aV24518191
p653
aV22421443
p654
aV22360640
p655
aV21518602
p656
aV21356299
p657
aV19919177
p658
aV7923480
p659
aV8073444
p660
aa(lp661
V3768035
p662
aa(lp663
V28353656
p664
aV24613879
p665
aV22160332
p666
aa(lp667
V28534346
p668
aV27052517
p669
aV26460146
p670
aV26357462
p671
aV25362614
p672
aV22716294
p673
aV22253518
p674
aV21357570
p675
aa(lp676
V27325138
p677
aV24309227
p678
aV23391022
p679
aV23294528
p680
aV21827355
p681
aV20972697
p682
aV16682645
p683
aa(lp684
V110933
p685
aa(lp686
V19763655
p687
aV17535079
p688
aV17070175
p689
aV16425974
p690
aV15134389
p691
aV14756189
p692
aV12848586
p693
aV12534315
p694
aV12208152
p695
aV11207063
p696
aV10330468
p697
aa(lp698
V25375165
p699
aV15364120
p700
aV15025528
p701
aa(lp702
V18239283
p703
aa(lp704
V17452418
p705
aa(lp706
V26957227
p707
aV22703874
p708
aV22684634
p709
aV16857844
p710
aa(lp711
V26957227
p712
aV22703874
p713
aV22684634
p714
aV16857844
p715
aa(lp716
V16446309
p717
aV9366010
p718
aV8883221
p719
aV8690416
p720
aV7557099
p721
aV7814648
p722
aV7923480
p723
aa(lp724
V28506378
p725
aV21291831
p726
aV19033449
p727
aV16317111
p728
aV12489926
p729
aa(lp730
V23337446
p731
aV25702430
p732
aV21258713
p733
aV20499237
p734
aa(lp735
V25884722
p736
aV19495571
p737
aV14692193
p738
aV12856480
p739
aV12775344
p740
aV12237173
p741
aV9254057
p742
aV293674
p743
aa(lp744
V26312843
p745
aV25619383
p746
aV24726168
p747
aV23933099
p748
aV22233727
p749
aV20306272
p750
aV18461048
p751
aV9224413
p752
aa(lp753
V22541636
p754
aa(lp755
V27581680
p756
aV27684825
p757
aV26663081
p758
aV25516625
p759
aV25140396
p760
aV24316528
p761
aV23354177
p762
aV15602873
p763
aV1336805
p764
aa(lp765
V24881660
p766
aV23336707
p767
aV23246797
p768
aa(lp769
V8800496
p770
aV3711081
p771
aa(lp772
V21182486
p773
aa(lp774
V23209548
p775
aV19370170
p776
aV15840939
p777
aV12736259
p778
aa(lp779
V18239283
p780
aa(lp781
V24742469
p782
aa(lp783
V23426956
p784
aV19368729
p785
aV17942919
p786
aa(lp787
V12963475
p788
aa(lp789
V24742469
p790
aV19545596
p791
aa(lp792
V12617470
p793
aV925033
p794
aa(lp795
V21069965
p796
aV19595983
p797
aa(lp798
V27460718
p799
aV26150716
p800
aV25670883
p801
aV24236580
p802
aV24155857
p803
aa(lp804
V27328902
p805
aV23442722
p806
aV19833843
p807
aa(lp808
V27704584
p809
aV26498706
p810
aV21872920
p811
aV18578858
p812
aV18511800
p813
aV17005160
p814
aa(lp815
V2339104
p816
aa(lp817
V26572359
p818
aV25492199
p819
aa(lp820
V15231000
p821
aa(lp822
V28686078
p823
aV26062932
p824
aV25756087
p825
aV24672865
p826
aV21538559
p827
aV18804536
p828
aV18500719
p829
aV16813881
p830
aV15936988
p831
aV15618295
p832
aV11419739
p833
aa(lp834
V28572029
p835
aa(lp836
V27718606
p837
aV25920263
p838
aV23208983
p839
aV19172581
p840
aa(lp841
V18687433
p842
aa(lp843
V22278741
p844
aV11166775
p845
aa(lp846
V27348971
p847
aV27417759
p848
aV25188441
p849
aV25138094
p850
aV23220613
p851
aV21075647
p852
aV20833993
p853
aV20230709
p854
aa(lp855
V27793513
p856
aV25239363
p857
aV22430234
p858
aV17175307
p859
aV12479764
p860
aa(lp861
V22554491
p862
aa(lp863
V27955920
p864
aV27467559
p865
aV27347377
p866
aV26559904
p867
aV23710454
p868
aV23484116
p869
aV21888032
p870
aV19899323
p871
aV11417704
p872
aa(lp873
V26357462
p874
aV22721781
p875
aa(lp876
V27806972
p877
aV20492177
p878
aa(lp879
V20820670
p880
aa(lp881
V28414682
p882
aV25660177
p883
aV24085382
p884
aV23740299
p885
aV23394947
p886
aV11344652
p887
aV4062938
p888
aa(lp889
V23819585
p890
aV18500719
p891
aV10518282
p892
aa(lp893
V3226797
p894
aa(lp895
V16394514
p896
aa(lp897
V25698600
p898
aa(lp899
V27317801
p900
aV26907622
p901
aa(lp902
V19824425
p903
aa(lp904
V18490118
p905
aa(lp906
V21486281
p907
aa(lp908
V11254905
p909
aa.