(lp0
(lp1
V23311987
p2
aV22926146
p3
aa(lp4
V10415
p5
aV14056680
p6
aa(lp7
V20977196
p8
aV18363737
p9
aV16300993
p10
aa(lp11
V27464022
p12
aV25874681
p13
aa(lp14
V10099043
p15
aa(lp16
V25821185
p17
aV18395976
p18
aV16861275
p19
aV11247035
p20
aV10625391
p21
aa(lp22
V25260740
p23
aV23090419
p24
aV22678751
p25
aV21591805
p26
aa(lp27
V22678751
p28
aV20651254
p29
aV17875796
p30
aV16082185
p31
aV11395314
p32
aV11150716
p33
aV10890383
p34
aV10096515
p35
aa(lp36
V27398503
p37
aV22838508
p38
aV18717588
p39
aV392262
p40
aV14113320
p41
aa(lp42
V6231062
p43
aa(lp44
V23295505
p45
aV22318120
p46
aV21649454
p47
aa(lp48
V2335528
p49
aa(lp50
V28231537
p51
aa(lp52
V14979692
p53
aa(lp54
V25793599
p55
aa(lp56
V17263542
p57
aa(lp58
V23831490
p59
aV21575703
p60
aV17434301
p61
aa(lp62
V26453784
p63
aa(lp64
V23295505
p65
aV22318120
p66
aV21649454
p67
aa.