(lp0
(lp1
V22791953
p2
aV629756
p3
aa(lp4
V16219344
p5
aV15807104
p6
aV8078495
p7
aV1983149
p8
aV3143308
p9
aa(lp10
V17377783
p11
aV16289007
p12
aV9526963
p13
aV2260347
p14
aV1189231
p15
aV4764367
p16
aV4115915
p17
aV4895006
p18
aa(lp19
V22169567
p20
aa(lp21
V23010249
p22
aV1725995
p23
aa(lp24
V21696966
p25
aa(lp26
V15298777
p27
aa(lp28
V2300531
p29
aa(lp30
V28057400
p31
aV19378234
p32
aV17707133
p33
aV16478129
p34
aV16102054
p35
aV10374275
p36
aV8783991
p37
aV1700667
p38
aV2724074
p39
aV977568
p40
aV177420
p41
aa(lp42
V23384552
p43
aa(lp44
V19918503
p45
aV17109415
p46
aV11722341
p47
aV11575807
p48
aV11343952
p49
aV9650671
p50
aV8555606
p51
aa(lp52
V23117658
p53
aV20080373
p54
aV19074529
p55
aV16432273
p56
aV12527338
p57
aa(lp58
V21317627
p59
aa(lp60
V27602742
p61
aV23001616
p62
aV18421623
p63
aV1799934
p64
aV235256
p65
aa(lp66
V7388053
p67
aa(lp68
V10629391
p69
aV21232251
p70
aV2515555
p71
aa(lp72
V26507574
p73
aV17377783
p74
aV15496337
p75
aV15466280
p76
aV12044178
p77
aV11785700
p78
aV3258600
p79
aa(lp80
V24760401
p81
aV23315911
p82
aV1642643
p83
aa(lp84
V19074529
p85
aa(lp86
V23117658
p87
aV20080373
p88
aV19074529
p89
aV16432273
p90
aV12527338
p91
aa(lp92
V19004034
p93
aV9743238
p94
aV7795149
p95
aV3342861
p96
aV483254
p97
aV5642103
p98
aV14058167
p99
aa(lp100
V26829518
p101
aa(lp102
V20732502
p103
aa(lp104
V27542086
p105
aV22987806
p106
aV22512667
p107
aV21962677
p108
aV21334186
p109
aV18983163
p110
aV12385724
p111
aa(lp112
V25362608
p113
aV23384552
p114
aa(lp115
V16235512
p116
aV11397515
p117
aV3797806
p118
aV3899404
p119
aV868890
p120
aV4119926
p121
aa(lp122
V25733806
p123
aa(lp124
V9474754
p125
aV977568
p126
aa(lp127
V10630866
p128
aa(lp129
V24630502
p130
aV23303280
p131
aV20973485
p132
aa(lp133
V22178020
p134
aV17470115
p135
aa(lp136
V21478000
p137
aa(lp138
V15916450
p139
aa(lp140
V17695667
p141
aa(lp142
V25516723
p143
aV23193816
p144
aV18935989
p145
aV18786290
p146
aV12757117
p147
aV6723656
p148
aa(lp149
V25284702
p150
aV24929021
p151
aa(lp152
V28469072
p153
aV25142214
p154
aV19369326
p155
aV15333042
p156
aV14557414
p157
aV12928694
p158
aV9771020
p159
aV7657523
p160
aV7505957
p161
aa(lp162
V28432098
p163
aV21828942
p164
aV16478129
p165
aV15163858
p166
aV11920883
p167
aV8461031
p168
aV476284
p169
aa(lp170
V27591379
p171
aV27050329
p172
aV19074529
p173
aa(lp174
V18679669
p175
aV11994054
p176
aV9378700
p177
aa(lp178
V23384552
p179
aa(lp180
V28229071
p181
aV23504243
p182
aV28509155
p183
aV20980120
p184
aV20593664
p185
aV17174219
p186
aV15684261
p187
aV12080491
p188
aV10629416
p189
aV10562412
p190
aV1234496
p191
aa(lp192
V12761761
p193
aa(lp194
V23117658
p195
aV20080373
p196
aV19074529
p197
aV16432273
p198
aV12527338
p199
aa(lp200
V21057605
p201
aa(lp202
V25733806
p203
aa(lp204
V17377783
p205
aV16183779
p206
aV15652191
p207
aV11902904
p208
aV11451040
p209
aV8695640
p210
aa(lp211
V19507658
p212
aa(lp213
V26507574
p214
aa(lp215
V3735100
p216
aV1170648
p217
aa(lp218
V18568337
p219
aV12433797
p220
aV2630633
p221
aa(lp222
V20846657
p223
aV17409531
p224
aV4851446
p225
aV5132073
p226
aV5881225
p227
aa(lp228
V21494677
p229
aa(lp230
V15853759
p231
aV12772396
p232
aa(lp233
V2770053
p234
aV4084561
p235
aV4062432
p236
aV3857611
p237
aV465881
p238
aV4125724
p239
aa(lp240
V16219344
p241
aV12637241
p242
aV8078495
p243
aa(lp244
V23301676
p245
aV18855611
p246
aV11456121
p247
aV9094199
p248
aa(lp249
V28588690
p250
aV27591379
p251
aV27050329
p252
aV19074529
p253
aV16442130
p254
aa(lp255
V28588690
p256
aV27591379
p257
aV27050329
p258
aV19074529
p259
aV16442130
p260
aa(lp261
V9566840
p262
aa(lp263
V25516723
p264
aV18586684
p265
aV3456709
p266
aa(lp267
V25641606
p268
aV8809086
p269
aV7587949
p270
aV1732719
p271
aV4209520
p272
aa(lp273
V22659116
p274
aV177420
p275
aa(lp276
V24760401
p277
aV23315911
p278
aV1642643
p279
aa(lp280
V27904631
p281
aV26593907
p282
aV25987923
p283
aV24865728
p284
aV24228461
p285
aV23924605
p286
aV23436703
p287
aV21301651
p288
aV11735605
p289
aV10088878
p290
aa(lp291
V26552755
p292
aV24484401
p293
aV24230489
p294
aV18698879
p295
aV15900282
p296
aV15651704
p297
aV11902904
p298
aV11251350
p299
aV11096528
p300
aV9361366
p301
aV7429002
p302
aa(lp303
V722713
p304
aa(lp305
V3136266
p306
aV3114615
p307
aa(lp308
V24615060
p309
aa(lp310
V26658160
p311
aV23427699
p312
aV16235512
p313
aV12087878
p314
aV940678
p315
aV1189230
p316
aV5065668
p317
aV13115980
p318
aa(lp319
V23615294
p320
aa(lp321
V28358663
p322
aV25789305
p323
aV23407256
p324
aV17707133
p325
aV16102054
p326
aV3113404
p327
aV700170
p328
aa(lp329
V26444144
p330
aV23037995
p331
aa(lp332
V11085199
p333
aV6874824
p334
aa(lp335
V7719471
p336
aa(lp337
V7654690
p338
aV5039626
p339
aa(lp340
V16792090
p341
aV3109487
p342
aV6416116
p343
aV6304144
p344
aV6808875
p345
aV6808874
p346
aV6808873
p347
aa(lp348
V23117658
p349
aV20080373
p350
aV19074529
p351
aV16432273
p352
aV12527338
p353
aa(lp354
V26655108
p355
aV18427688
p356
aV16219344
p357
aV12761761
p358
aV11829203
p359
aV9058529
p360
aV1983149
p361
aV2594692
p362
aV2768373
p363
aV3143308
p364
aa(lp365
V25733806
p366
aa(lp367
V26005532
p368
aV9381730
p369
aa(lp370
V25873138
p371
aa(lp372
V26417265
p373
aV16477470
p374
aV16442130
p375
aV14600250
p376
aV11370698
p377
aa(lp378
V3246036
p379
aa(lp380
V3320333
p381
aV2877572
p382
aV4473995
p383
aV4722782
p384
aa(lp385
V28614582
p386
aV26545320
p387
aV21565690
p388
aV20924260
p389
aV18222195
p390
aV17891002
p391
aV17765427
p392
aV15123721
p393
aV12972536
p394
aV12215585
p395
aV7521887
p396
aa(lp397
V25733806
p398
aa(lp399
V14520007
p400
aV10960410
p401
aV6615442
p402
aa(lp403
V20650733
p404
aV1968327
p405
aa(lp406
V28679982
p407
aV17278540
p408
aV12537366
p409
aV9010587
p410
aV1325077
p411
aV1531628
p412
aV2439151
p413
aa(lp414
V22623082
p415
aa(lp416
V21317627
p417
aa(lp418
V17497016
p419
aV16649158
p420
aV16647160
p421
aV12761761
p422
aV10450169
p423
aV7805620
p424
aV2400642
p425
aV2729550
p426
aV722713
p427
aa(lp428
V20460758
p429
aa(lp430
V23680544
p431
aV16200531
p432
aV12739779
p433
aV9535273
p434
aV9105544
p435
aV9384781
p436
aV2867164
p437
aV465881
p438
aa(lp439
V23301676
p440
aa(lp441
V18679669
p442
aV11994054
p443
aV9378700
p444
aa(lp445
V8461031
p446
aa(lp447
V19074529
p448
aV15652191
p449
aa(lp450
V23117658
p451
aV20080373
p452
aV19074529
p453
aV16432273
p454
aV12527338
p455
aa(lp456
V28666165
p457
aV25118676
p458
aV14757504
p459
aV12545439
p460
aV10629391
p461
aV10350005
p462
aV8839997
p463
aV2897458
p464
aV7237786
p465
aV5126906
p466
aa(lp467
V28214948
p468
aV23945031
p469
aV16792090
p470
aV12757117
p471
aV2271712
p472
aV3109487
p473
aV6416116
p474
aV6304144
p475
aV6808875
p476
aV6808874
p477
aV6808873
p478
aV7452791
p479
aa(lp480
V27225617
p481
aV20406203
p482
aV19910445
p483
aV17956020
p484
aV16831330
p485
aV8939773
p486
aV3794604
p487
aa(lp488
V17534672
p489
aa(lp490
V26314757
p491
aa(lp492
V27591379
p493
aV27050329
p494
aV19074529
p495
aa(lp496
V22166891
p497
aV20695469
p498
aV11091796
p499
aV2271712
p500
aa(lp501
V28214948
p502
aV23945031
p503
aV16792090
p504
aV12757117
p505
aV2271712
p506
aV3109487
p507
aV6416116
p508
aV6304144
p509
aV6808875
p510
aV6808874
p511
aV6808873
p512
aV7452791
p513
aa(lp514
V23686320
p515
aV20719321
p516
aV16412450
p517
aa(lp518
V28588690
p519
aV27591379
p520
aV27050329
p521
aV19074529
p522
aV16442130
p523
aa(lp524
V28588690
p525
aV27050329
p526
aa(lp527
V18440541
p528
aV8781520
p529
aV2897458
p530
aV3109487
p531
aV3032248
p532
aV3793264
p533
aV4084561
p534
aV6696443
p535
aa(lp536
V23680544
p537
aV23315911
p538
aV16828949
p539
aV16082422
p540
aV7620838
p541
aV7504487
p542
aV8461031
p543
aa(lp544
V27169454
p545
aV18640471
p546
aV16369969
p547
aV16082422
p548
aV15531905
p549
aV12168506
p550
aV12087878
p551
aV10853749
p552
aV9363869
p553
aa(lp554
V27578406
p555
aV24322786
p556
aV24145065
p557
aV18568337
p558
aV14703338
p559
aV9241660
p560
aV2706020
p561
aV2490102
p562
aV31893
p563
aV1090656
p564
aV5638549
p565
aa(lp566
V12516040
p567
aV8527021
p568
aa(lp569
V24450944
p570
aV11115242
p571
aa(lp572
V20719321
p573
aV16894782
p574
aV16614228
p575
aV12067249
p576
aV11286326
p577
aV1471205
p578
aV7159478
p579
aV536429
p580
aa(lp581
V28533706
p582
aV25216921
p583
aV20225277
p584
aV12385724
p585
aa(lp586
V18640471
p587
aa(lp588
V18034618
p589
aa(lp590
V25225959
p591
aV14757504
p592
aV7121898
p593
aa(lp594
V17497016
p595
aV10816901
p596
aa(lp597
V7613014
p598
aa(lp599
V25225959
p600
aa(lp601
V18390890
p602
aV10397614
p603
aV8787801
p604
aV3140432
p605
aa(lp606
V7654690
p607
aa(lp608
V16643436
p609
aV16499407
p610
aV14967065
p611
aV10939307
p612
aV2045759
p613
aV2656051
p614
aa(lp615
V2460216
p616
aV6526127
p617
aV629756
p618
aa(lp619
V2803058
p620
aa(lp621
V21797258
p622
aV20232881
p623
aa(lp624
V20149620
p625
aV9578515
p626
aa(lp627
V10219964
p628
aa(lp629
V22267206
p630
aa(lp631
V22791953
p632
aa(lp633
V25070582
p634
aV21306436
p635
aV17473580
p636
aV16102108
p637
aV15886824
p638
aV1703919
p639
aV2824013
p640
aV4134042
p641
aa(lp642
V28218710
p643
aV25897838
p644
aV23680544
p645
aV23315911
p646
aV16894782
p647
aV16828949
p648
aV16082422
p649
aV7620838
p650
aV7504487
p651
aV8461031
p652
aV934562
p653
aa(lp654
V24080574
p655
aa(lp656
V14235412
p657
aa(lp658
V19515014
p659
aV14504346
p660
aV12076414
p661
aV11279722
p662
aa(lp663
V25733806
p664
aa(lp665
V19757094
p666
aa(lp667
V26688208
p668
aV25968358
p669
aV25515435
p670
aV22896727
p671
aV21601863
p672
aV17496208
p673
aV236712
p674
aa(lp675
V2770053
p676
aV4084561
p677
aV4062432
p678
aV3857611
p679
aV465881
p680
aV4125724
p681
aa(lp682
V23301676
p683
aV18855611
p684
aV11456121
p685
aV9094199
p686
aa(lp687
V8216438
p688
aa(lp689
V19713670
p690
aV18586684
p691
aa(lp692
V25746367
p693
aV22566187
p694
aV8987162
p695
aV5313006
p696
aV5696331
p697
aV5727054
p698
aV5303994
p699
aV5607759
p700
aV5584289
p701
aa(lp702
V15879509
p703
aV11732334
p704
aa(lp705
V26587904
p706
aV25345427
p707
aV24430725
p708
aV22271159
p709
aV19757094
p710
aV2293981
p711
aV2547030
p712
aV7107016
p713
aa(lp714
V1706921
p715
aa(lp716
V28290558
p717
aV27307471
p718
aV23160014
p719
aV21526168
p720
aV21317627
p721
aV19202954
p722
aV16758259
p723
aV16480934
p724
aV10365760
p725
aV8216438
p726
aa(lp727
V18568337
p728
aV12433797
p729
aV2630633
p730
aa(lp731
V23117658
p732
aV20080373
p733
aV19074529
p734
aV16432273
p735
aV12527338
p736
aa(lp737
V25733806
p738
aa(lp739
V27591379
p740
aV27050329
p741
aV19074529
p742
aa(lp743
V15304427
p744
aa(lp745
V18427688
p746
aV18312830
p747
aa(lp748
V28588690
p749
aV27591379
p750
aV27050329
p751
aV19074529
p752
aV16442130
p753
aa(lp754
V19757094
p755
aa(lp756
V18636784
p757
aV18421623
p758
aV16639344
p759
aV16569820
p760
aV16291717
p761
aV14586384
p762
aV9442558
p763
aV8474934
p764
aV2379382
p765
aa(lp766
V14986566
p767
aV2804372
p768
aV6132618
p769
aV7016111
p770
aV235256
p771
aV4153032
p772
aa(lp773
V24119759
p774
aa(lp775
V11994054
p776
aa(lp777
V1732719
p778
aa(lp779
V18178358
p780
aa(lp781
V12516040
p782
aa(lp783
V4351140
p784
aV4324764
p785
aa(lp786
V1519231
p787
aa(lp788
V28111103
p789
aV22702966
p790
aa(lp791
V24119759
p792
aa(lp793
V722713
p794
aa(lp795
V9474754
p796
aa(lp797
V12168506
p798
aa(lp799
V28218710
p800
aa(lp801
V28042854
p802
aV25112306
p803
aV10902065
p804
aV8525134
p805
aV5493008
p806
aa(lp807
V19074529
p808
aa(lp809
V24760401
p810
aV23315911
p811
aV1642643
p812
aa(lp813
V25815614
p814
aV20716240
p815
aa(lp816
V25733806
p817
aa(lp818
V1911192
p819
aV3409451
p820
aV3902948
p821
aa(lp822
V9462989
p823
aa(lp824
V23073199
p825
aa(lp826
V23117658
p827
aV20080373
p828
aV19074529
p829
aV16432273
p830
aV12527338
p831
aa(lp832
V8297331
p833
aV8217828
p834
aa(lp835
V23384552
p836
aa(lp837
V27251151
p838
aa(lp839
V28254487
p840
aV7756045
p841
aa(lp842
V27591379
p843
aV27050329
p844
aV19074529
p845
aa(lp846
V23117658
p847
aV20080373
p848
aV19074529
p849
aV16432273
p850
aV12527338
p851
aa(lp852
V23237845
p853
aV16420470
p854
aa(lp855
V8853310
p856
aV6423809
p857
aa(lp858
V23680544
p859
aV23315911
p860
aV16828949
p861
aV16082422
p862
aV7620838
p863
aV7504487
p864
aV8461031
p865
aa(lp866
V19074529
p867
aa(lp868
V28218710
p869
aV20556559
p870
aa(lp871
V19074529
p872
aa(lp873
V8306054
p874
aa(lp875
V28588690
p876
aV27591379
p877
aV27050329
p878
aV19074529
p879
aV16442130
p880
aa(lp881
V28707518
p882
aV27980569
p883
aV25014178
p884
aV15199736
p885
aV10923425
p886
aV9130393
p887
aV2729550
p888
aa(lp889
V21317627
p890
aa(lp891
V19074529
p892
aa(lp893
V25499135
p894
aV12832131
p895
aa(lp896
V16637447
p897
aV11054628
p898
aV11011338
p899
aV20848356
p900
aV10073863
p901
aV8527021
p902
aa(lp903
V24465790
p904
aa(lp905
V10658898
p906
aa(lp907
V10352110
p908
aV8275352
p909
aV3713787
p910
aa(lp911
V22957472
p912
aV18312830
p913
aa(lp914
V27062794
p915
aV22493814
p916
aV19188097
p917
aV18406352
p918
aV17580689
p919
aV16921552
p920
aV11045312
p921
aV8735422
p922
aV1198407
p923
aa(lp924
V19934397
p925
aa(lp926
V28229071
p927
aV23504243
p928
aV28509155
p929
aV20980120
p930
aV20593664
p931
aV17174219
p932
aV15684261
p933
aV12080491
p934
aV10629416
p935
aV10562412
p936
aV1234496
p937
aa(lp938
V28111103
p939
aa(lp940
V28588690
p941
aV27591379
p942
aV27050329
p943
aV19074529
p944
aa(lp945
V20171066
p946
aa(lp947
V27942445
p948
aV12760589
p949
aV12021227
p950
aV10678304
p951
aa(lp952
V3515929
p953
aa(lp954
V18636784
p955
aV3544688
p956
aa(lp957
V17944539
p958
aa(lp959
V11095309
p960
aa(lp961
V2770053
p962
aV4084561
p963
aV4062432
p964
aV3857611
p965
aV465881
p966
aV4125724
p967
aa(lp968
V28588690
p969
aV27591379
p970
aV27050329
p971
aV19074529
p972
aV16442130
p973
aa(lp974
V16420470
p975
aa(lp976
V17446262
p977
aV15123721
p978
aV3046778
p979
aV6708930
p980
aa(lp981
V11005360
p982
aV8799019
p983
aV7756045
p984
aV1352220
p985
aV2104754
p986
aV6698991
p987
aa(lp988
V19004034
p989
aV9743238
p990
aV7795149
p991
aV3342861
p992
aV483254
p993
aV5642103
p994
aV14058167
p995
aa(lp996
V23223575
p997
aV21914161
p998
aV17630939
p999
aV11772257
p1000
aV2035759
p1001
aV3008764
p1002
aV6150709
p1003
aV6096983
p1004
aV172633
p1005
aV4353596
p1006
aV4324764
p1007
aa(lp1008
V6615542
p1009
aa(lp1010
V5763659
p1011
aa(lp1012
V19074529
p1013
aa(lp1014
V14570767
p1015
aV11454729
p1016
aV10659951
p1017
aV10219964
p1018
aa(lp1019
V28588690
p1020
aV27591379
p1021
aV27050329
p1022
aV19074529
p1023
aV16442130
p1024
aa(lp1025
V22867637
p1026
aa(lp1027
V23530963
p1028
aV1700667
p1029
aa(lp1030
V24310979
p1031
aV23355326
p1032
aV14757504
p1033
aV8527021
p1034
aV3957454
p1035
aV7121898
p1036
aa(lp1037
V21632076
p1038
aV15496337
p1039
aV10960410
p1040
aV7838996
p1041
aV3592858
p1042
aV3084268
p1043
aV4086977
p1044
aV4004264
p1045
aV7356538
p1046
aV504792
p1047
aa(lp1048
V28218710
p1049
aV20556559
p1050
aa(lp1051
V27181730
p1052
aV17464744
p1053
aV11885023
p1054
aV7740497
p1055
aV7918038
p1056
aV2293981
p1057
aV2555045
p1058
aV3075905
p1059
aa(lp1060
V23117658
p1061
aV20080373
p1062
aV19074529
p1063
aV16432273
p1064
aV12527338
p1065
aa(lp1066
V9221877
p1067
aa(lp1068
V10630866
p1069
aa(lp1070
V21478000
p1071
aa(lp1072
V27591379
p1073
aV27050329
p1074
aV19074529
p1075
aa(lp1076
V27780834
p1077
aV25968358
p1078
aV22896727
p1079
aV19571407
p1080
aV19338267
p1081
aV15967360
p1082
aV11554715
p1083
aV236712
p1084
aV4530297
p1085
aa(lp1086
V19074529
p1087
aa(lp1088
V23301676
p1089
aV18855611
p1090
aV11456121
p1091
aV9094199
p1092
aa(lp1093
V7646
p1094
aa(lp1095
V7598742
p1096
aa(lp1097
V23117658
p1098
aV20080373
p1099
aV19074529
p1100
aV16432273
p1101
aV12527338
p1102
aa(lp1103
V27272555
p1104
aV18507371
p1105
aV2894446
p1106
aV4084561
p1107
aV6588223
p1108
aa(lp1109
V11290560
p1110
aa(lp1111
V27591379
p1112
aV27050329
p1113
aV19074529
p1114
aa(lp1115
V17109415
p1116
aV16053477
p1117
aV4177784
p1118
aa(lp1119
V19074529
p1120
aa(lp1121
V27980569
p1122
aV15835295
p1123
aa(lp1124
V26947597
p1125
aV20110890
p1126
aa(lp1127
V22166512
p1128
aV10567604
p1129
aV10192660
p1130
aV6147027
p1131
aa(lp1132
V16235512
p1133
aV1585371
p1134
aV237537
p1135
aa(lp1136
V16109627
p1137
aa(lp1138
V24953952
p1139
aa(lp1140
V16143572
p1141
aV14616014
p1142
aV10892592
p1143
aa(lp1144
V17651305
p1145
aV7905238
p1146
aV1060612
p1147
aa(lp1148
V21947161
p1149
aV16539878
p1150
aV16082422
p1151
aV2136915
p1152
aa(lp1153
V26005532
p1154
aV18294668
p1155
aV1257593
p1156
aa(lp1157
V23117658
p1158
aV20080373
p1159
aV19074529
p1160
aV16432273
p1161
aV12527338
p1162
aa(lp1163
V24080574
p1164
aV21632076
p1165
aV8887741
p1166
aV8831263
p1167
aV8453960
p1168
aV1483836
p1169
aV4086977
p1170
aV6146666
p1171
aV6790449
p1172
aV504792
p1173
aa(lp1174
V19074529
p1175
aa(lp1176
V9378700
p1177
aa(lp1178
V25905290
p1179
aa(lp1180
V19074529
p1181
aa(lp1182
V26655108
p1183
aV18427688
p1184
aV16219344
p1185
aV12761761
p1186
aV11829203
p1187
aV9058529
p1188
aV1983149
p1189
aV2594692
p1190
aV2768373
p1191
aV3143308
p1192
aa(lp1193
V722713
p1194
aa(lp1195
V22009577
p1196
aV7844128
p1197
aV3966918
p1198
aV5284153
p1199
aa(lp1200
V28679982
p1201
aa(lp1202
V8461031
p1203
aa(lp1204
V26035712
p1205
aa(lp1206
V27759698
p1207
aV24719628
p1208
aV18095746
p1209
aV10352110
p1210
aV8275352
p1211
aV3713787
p1212
aV6578721
p1213
aa(lp1214
V28588690
p1215
aV27591379
p1216
aV27050329
p1217
aV19074529
p1218
aV16442130
p1219
aa(lp1220
V1732719
p1221
aa(lp1222
V19380237
p1223
aa(lp1224
V19074529
p1225
aa(lp1226
V25250504
p1227
aV19380237
p1228
aa(lp1229
V19380237
p1230
aa(lp1231
V4324764
p1232
aa(lp1233
V19074529
p1234
aa(lp1235
V17890851
p1236
aV15859071
p1237
aV10556651
p1238
aV10192099
p1239
aV2256548
p1240
aV2916837
p1241
aV6493354
p1242
aV6201451
p1243
aV6806105
p1244
aV6790449
p1245
aV994000
p1246
aa(lp1247
V19074529
p1248
aa(lp1249
V21802929
p1250
aa(lp1251
V28575123
p1252
aV27538699
p1253
aV23404770
p1254
aV10446371
p1255
aV6502487
p1256
aV6620148
p1257
aa(lp1258
V2790016
p1259
aa(lp1260
V16637447
p1261
aV11054628
p1262
aV11011338
p1263
aV20848356
p1264
aV10073863
p1265
aV8527021
p1266
aa(lp1267
V18390890
p1268
aV8787801
p1269
aV3140432
p1270
aV4015686
p1271
aV7299243
p1272
aa(lp1273
V23301676
p1274
aa(lp1275
V8787801
p1276
aV3140432
p1277
aa(lp1278
V19074529
p1279
aa(lp1280
V19632732
p1281
aa(lp1282
V25733806
p1283
aa(lp1284
V4549138
p1285
aa(lp1286
V20215126
p1287
aa(lp1288
V6773155
p1289
aa(lp1290
V16477470
p1291
aV14600250
p1292
aa(lp1293
V19150310
p1294
aa(lp1295
V23117658
p1296
aV20080373
p1297
aV19074529
p1298
aV16432273
p1299
aV12527338
p1300
aa(lp1301
V7259792
p1302
aV7190393
p1303
aa(lp1304
V26179481
p1305
aV21494677
p1306
aV19927376
p1307
aV19185535
p1308
aV16828949
p1309
aV12009858
p1310
aa(lp1311
V23404770
p1312
aa(lp1313
V4209391
p1314
aa(lp1315
V17630939
p1316
aV11772257
p1317
aa(lp1318
V5763659
p1319
aa(lp1320
V19760671
p1321
aa(lp1322
V2770053
p1323
aV4084561
p1324
aV4062432
p1325
aV3857611
p1326
aV465881
p1327
aV4125724
p1328
aa(lp1329
V9849798
p1330
aa(lp1331
V15286265
p1332
aV11011347
p1333
aa(lp1334
V23427699
p1335
aV17124179
p1336
aV6277811
p1337
aV5453215
p1338
aa(lp1339
V27768243
p1340
aV26658160
p1341
aV26477838
p1342
aV7838871
p1343
aV3902948
p1344
aV6808875
p1345
aV6808874
p1346
aV6808873
p1347
aV736986
p1348
aa(lp1349
V15320820
p1350
aa(lp1351
V15637326
p1352
aV9806945
p1353
aV9354587
p1354
aV6423422
p1355
aa(lp1356
V21802929
p1357
aa(lp1358
V23807811
p1359
aa(lp1360
V27566245
p1361
aV23223575
p1362
aV21797258
p1363
aV20232881
p1364
aV10096601
p1365
aa(lp1366
V20206792
p1367
aV16621742
p1368
aa(lp1369
V23680544
p1370
aV23315911
p1371
aV16828949
p1372
aV16082422
p1373
aV7620838
p1374
aV7504487
p1375
aV8461031
p1376
aa(lp1377
V2882410
p1378
aa(lp1379
V18180622
p1380
aV15571177
p1381
aV10341036
p1382
aV3623421
p1383
aV6176242
p1384
aa(lp1385
V25562188
p1386
aV12861225
p1387
aV11733017
p1388
aa(lp1389
V11755765
p1390
aa(lp1391
V24704105
p1392
aV18269390
p1393
aV10458090
p1394
aV1706766
p1395
aV3763366
p1396
aV3704640
p1397
aV4062432
p1398
aa(lp1399
V6773541
p1400
aV465069
p1401
aa(lp1402
V16894782
p1403
aa(lp1404
V19074529
p1405
aa(lp1406
V9010587
p1407
aa(lp1408
V3131970
p1409
aV2893712
p1410
aV4033629
p1411
aV6758842
p1412
aa(lp1413
V25733806
p1414
aa(lp1415
V26850917
p1416
aV24615060
p1417
aV24548018
p1418
aa(lp1419
V18937368
p1420
aV17944539
p1421
aV11451211
p1422
aa(lp1423
V26657732
p1424
aV24291722
p1425
aV21830136
p1426
aV20846657
p1427
aV20806236
p1428
aV16894782
p1429
aV16412450
p1430
aV3981543
p1431
aV6147027
p1432
aV420913
p1433
aa(lp1434
V19074529
p1435
aa(lp1436
V27591379
p1437
aV27050329
p1438
aV19074529
p1439
aa(lp1440
V11491389
p1441
aV1732719
p1442
aV7323446
p1443
aV6117438
p1444
aa(lp1445
V20626653
p1446
aa(lp1447
V3008764
p1448
aa(lp1449
V9594936
p1450
aa(lp1451
V17493413
p1452
aa(lp1453
V1576687
p1454
aa(lp1455
V26655108
p1456
aV16219344
p1457
aV11829203
p1458
aV9058529
p1459
aV2594692
p1460
aV2768373
p1461
aa(lp1462
V16504461
p1463
aa(lp1464
V25519455
p1465
aa(lp1466
V26825067
p1467
aa(lp1468
V16413341
p1469
aV11413821
p1470
aV9414615
p1471
aa(lp1472
V19577456
p1473
aa(lp1474
V6870956
p1475
aV977568
p1476
aa(lp1477
V28033135
p1478
aV24760401
p1479
aV23895505
p1480
aV23207874
p1481
aV21193197
p1482
aV19535655
p1483
aV14742793
p1484
aV2560358
p1485
aa(lp1486
V3942599
p1487
aa(lp1488
V21562657
p1489
aV19760671
p1490
aV17249775
p1491
aV16649158
p1492
aV12761761
p1493
aV12067249
p1494
aV10450169
p1495
aV7030310
p1496
aV811195
p1497
aa(lp1498
V25370453
p1499
aa(lp1500
V14670425
p1501
aa(lp1502
V28588690
p1503
aV27591379
p1504
aV27050329
p1505
aV19074529
p1506
aV16442130
p1507
aa(lp1508
V2790016
p1509
aa(lp1510
V19074529
p1511
aa(lp1512
V1732719
p1513
aa(lp1514
V28229071
p1515
aV23504243
p1516
aV28509155
p1517
aV20980120
p1518
aV20593664
p1519
aV17174219
p1520
aV15684261
p1521
aV12080491
p1522
aV10629416
p1523
aV10562412
p1524
aV1234496
p1525
aa(lp1526
V20846657
p1527
aa(lp1528
V26477838
p1529
aa(lp1530
V28588690
p1531
aV27591379
p1532
aV27050329
p1533
aV19074529
p1534
aV16442130
p1535
aa(lp1536
V25296681
p1537
aV24047147
p1538
aV2104754
p1539
aV504792
p1540
aV731124
p1541
aa(lp1542
V15298777
p1543
aa(lp1544
V23538078
p1545
aa(lp1546
V19757094
p1547
aa(lp1548
V4685154
p1549
aV5047291
p1550
aV4324764
p1551
aa(lp1552
V19074529
p1553
aa(lp1554
V23958198
p1555
aa(lp1556
V26712423
p1557
aV9105544
p1558
aa(lp1559
V15158792
p1560
aV11902904
p1561
aV2724076
p1562
aa(lp1563
V16649158
p1564
aV16647160
p1565
aV12761761
p1566
aa(lp1567
V8821516
p1568
aa(lp1569
V26452739
p1570
aV1893294
p1571
aa(lp1572
V27123553
p1573
aV25031079
p1574
aV23807811
p1575
aV18814316
p1576
aV15158792
p1577
aa(lp1578
V18847414
p1579
aV17497016
p1580
aa(lp1581
V21696966
p1582
aa(lp1583
V15816881
p1584
aa(lp1585
V28748979
p1586
aV24095010
p1587
aV17020319
p1588
aa(lp1589
V19410398
p1590
aV19326956
p1591
aV19265185
p1592
aV19172232
p1593
aV16842396
p1594
aV16082422
p1595
aV12168506
p1596
aV11980386
p1597
aa(lp1598
V28361003
p1599
aV25897838
p1600
aV23755725
p1601
aV17890851
p1602
aV11924555
p1603
aV11728242
p1604
aV9056216
p1605
aa(lp1606
V28214948
p1607
aV23945031
p1608
aV16792090
p1609
aV12757117
p1610
aV2271712
p1611
aV3109487
p1612
aV6416116
p1613
aV6304144
p1614
aV6808875
p1615
aV6808874
p1616
aV6808873
p1617
aV7452791
p1618
aa(lp1619
V24929021
p1620
aa(lp1621
V1013984
p1622
aV1189230
p1623
aa(lp1624
V24455672
p1625
aa(lp1626
V20737064
p1627
aV18294668
p1628
aV3395132
p1629
aV3781349
p1630
aV6497379
p1631
aV6833262
p1632
aa(lp1633
V17723077
p1634
aV15853759
p1635
aV11834913
p1636
aV1257593
p1637
aa(lp1638
V21216410
p1639
aV2113031
p1640
aa(lp1641
V23680544
p1642
aV23315911
p1643
aV16828949
p1644
aV16082422
p1645
aV7620838
p1646
aV7504487
p1647
aV8461031
p1648
aa(lp1649
V25733806
p1650
aa(lp1651
V19074529
p1652
aa(lp1653
V19074529
p1654
aa(lp1655
V16235512
p1656
aa(lp1657
V3838134
p1658
aa(lp1659
V23117658
p1660
aV20080373
p1661
aV19074529
p1662
aV16432273
p1663
aV12527338
p1664
aa(lp1665
V1257593
p1666
aa(lp1667
V27942445
p1668
aV25296681
p1669
aV24047147
p1670
aV17309423
p1671
aV12840878
p1672
aV12760589
p1673
aV12021227
p1674
aV10678304
p1675
aa(lp1676
V28042112
p1677
aV21553655
p1678
aV11806090
p1679
aV9738329
p1680
aV1799934
p1681
aV6393685
p1682
aa(lp1683
V16698924
p1684
aV6279645
p1685
aa(lp1686
V18003768
p1687
aV6321081
p1688
aa(lp1689
V20371969
p1690
aa(lp1691
V23384552
p1692
aa(lp1693
V28284080
p1694
aV26654810
p1695
aV21676958
p1696
aV21074115
p1697
aa(lp1698
V25905290
p1699
aV17127099
p1700
aa(lp1701
V26829518
p1702
aV25172718
p1703
aV22434333
p1704
aa(lp1705
V20174755
p1706
aV9745439
p1707
aa(lp1708
V27181730
p1709
aV26354714
p1710
aV24671746
p1711
aV22342526
p1712
aV14570769
p1713
aV14570767
p1714
aV9354587
p1715
aV1700667
p1716
aV4123249
p1717
aa(lp1718
V19757094
p1719
aa(lp1720
V28588690
p1721
aV27591379
p1722
aV27050329
p1723
aV19074529
p1724
aa(lp1725
V27591379
p1726
aV27050329
p1727
aV19074529
p1728
aa(lp1729
V3838134
p1730
aa(lp1731
V23680544
p1732
aV23315911
p1733
aV16828949
p1734
aV16082422
p1735
aV7620838
p1736
aV7504487
p1737
aV8461031
p1738
aa(lp1739
V8853310
p1740
aV6423809
p1741
aa(lp1742
V18568337
p1743
aV12433797
p1744
aV2630633
p1745
aa(lp1746
V18224343
p1747
aa(lp1748
V23010249
p1749
aa(lp1750
V16219344
p1751
aV11829203
p1752
aV2768373
p1753
aa(lp1754
V24088134
p1755
aV14996240
p1756
aa(lp1757
V19283775
p1758
aV10860133
p1759
aV9707357
p1760
aV8880210
p1761
aV8672833
p1762
aV7487701
p1763
aV2371186
p1764
aV2517304
p1765
aV2778785
p1766
aa(lp1767
V27591379
p1768
aV27050329
p1769
aV19074529
p1770
aa(lp1771
V25362608
p1772
aa(lp1773
V28475278
p1774
aV24251359
p1775
aV19074529
p1776
aV18178358
p1777
aV12634980
p1778
aV11692083
p1779
aV1869346
p1780
aV2297464
p1781
aV2918479
p1782
aV3210902
p1783
aV239589
p1784
aa(lp1785
V9566840
p1786
aa(lp1787
V9594936
p1788
aV2260347
p1789
aa(lp1790
V28057400
p1791
aV15807104
p1792
aa(lp1793
V27428755
p1794
aV15170
p1795
aa(lp1796
V21632076
p1797
aa(lp1798
V12213455
p1799
aV10506189
p1800
aV2016788
p1801
aa(lp1802
V23117658
p1803
aV20080373
p1804
aV19074529
p1805
aV16432273
p1806
aV12527338
p1807
aa(lp1808
V24899908
p1809
aV17509304
p1810
aV17496208
p1811
aV2271712
p1812
aV2877572
p1813
aa(lp1814
V22518310
p1815
aa(lp1816
V10629391
p1817
aa(lp1818
V12067249
p1819
aa(lp1820
V23671512
p1821
aV22318552
p1822
aV12516040
p1823
aV3342861
p1824
aV6416116
p1825
aa(lp1826
V19380237
p1827
aa(lp1828
V26552755
p1829
aV24484401
p1830
aV24230489
p1831
aV18698879
p1832
aV15900282
p1833
aV15651704
p1834
aV11902904
p1835
aV11251350
p1836
aV11096528
p1837
aV9361366
p1838
aV7429002
p1839
aa(lp1840
V28687831
p1841
aV28402864
p1842
aV26312547
p1843
aV25967723
p1844
aV24864470
p1845
aV23734288
p1846
aV19239742
p1847
aV11155716
p1848
aV9878988
p1849
aa(lp1850
V28588690
p1851
aV27591379
p1852
aV27050329
p1853
aV19074529
p1854
aV16442130
p1855
aa(lp1856
V24142206
p1857
aV15185562
p1858
aV9786257
p1859
aV6393685
p1860
aa(lp1861
V24899908
p1862
aa(lp1863
V20041841
p1864
aV6370540
p1865
aa(lp1866
V20149620
p1867
aV10737225
p1868
aV7756045
p1869
aa(lp1870
V26908285
p1871
aa(lp1872
V18640471
p1873
aa(lp1874
V20846657
p1875
aa(lp1876
V25362608
p1877
aa(lp1878
V25284702
p1879
aV24929021
p1880
aa(lp1881
V20080373
p1882
aa(lp1883
V19760671
p1884
aa(lp1885
V22011984
p1886
aa(lp1887
V24037275
p1888
aV17890461
p1889
aV10737225
p1890
aa(lp1891
V16237546
p1892
aV15807104
p1893
aV8078495
p1894
aV1983149
p1895
aa(lp1896
V1732719
p1897
aa(lp1898
V27591379
p1899
aa(lp1900
V24096130
p1901
aa(lp1902
V22186131
p1903
aa(lp1904
V12545430
p1905
aV11755765
p1906
aa(lp1907
V24119759
p1908
aV23681878
p1909
aV9620035
p1910
aV9302927
p1911
aV3826014
p1912
aV4076837
p1913
aV6793086
p1914
aa(lp1915
V23615294
p1916
aa(lp1917
V21629814
p1918
aV19179800
p1919
aV2020118
p1920
aa(lp1921
V19074529
p1922
aa(lp1923
V12832131
p1924
aa(lp1925
V10549233
p1926
aV2110956
p1927
aV6120825
p1928
aa(lp1929
V24548018
p1930
aa(lp1931
V27942445
p1932
aV12760589
p1933
aV12021227
p1934
aV10678304
p1935
aa(lp1936
V19667530
p1937
aV1976072
p1938
aa(lp1939
V105006
p1940
aa(lp1941
V23117658
p1942
aV22034513
p1943
aV12400845
p1944
aV9474754
p1945
aV21043705
p1946
aV2104754
p1947
aa(lp1948
V28533706
p1949
aV25216921
p1950
aV20225277
p1951
aV12385724
p1952
aa(lp1953
V19258521
p1954
aV16621742
p1955
aa(lp1956
V16442130
p1957
aV11370698
p1958
aa(lp1959
V16432273
p1960
aa(lp1961
V28588690
p1962
aV27591379
p1963
aV27050329
p1964
aV19074529
p1965
aV16442130
p1966
aa(lp1967
V16219344
p1968
aV8078495
p1969
aa(lp1970
V3474093
p1971
aV4149496
p1972
aV4750108
p1973
aa(lp1974
V24009877
p1975
aa(lp1976
V28588690
p1977
aV27591379
p1978
aV27050329
p1979
aV19074529
p1980
aV16442130
p1981
aa(lp1982
V26829518
p1983
aV11454729
p1984
aV1971568
p1985
aa(lp1986
V28588690
p1987
aV27591379
p1988
aV27050329
p1989
aV19074529
p1990
aV16442130
p1991
aa(lp1992
V14710693
p1993
aV6096071
p1994
aa(lp1995
V23615294
p1996
aa(lp1997
V27050329
p1998
aa(lp1999
V27538699
p2000
aV26947597
p2001
aV25905290
p2002
aV21455854
p2003
aV20110890
p2004
aa(lp2005
V15625568
p2006
aa(lp2007
V25221687
p2008
aV18586684
p2009
aV15651704
p2010
aV14596422
p2011
aV12928694
p2012
aV11685042
p2013
aa(lp2014
V27639441
p2015
aV26241703
p2016
aV16678576
p2017
aV15786436
p2018
aV12545430
p2019
aV11755765
p2020
aV5453215
p2021
aV5722553
p2022
aV5657163
p2023
aV4168559
p2024
aV14065909
p2025
aa(lp2026
V24504566
p2027
aV22512667
p2028
aV11465424
p2029
aV9143352
p2030
aV8632551
p2031
aV8932446
p2032
aV619119
p2033
aV832654
p2034
aV4262552
p2035
aV5119835
p2036
aV13662443
p2037
aa(lp2038
V8216438
p2039
aa(lp2040
V23117658
p2041
aV20080373
p2042
aV19074529
p2043
aV16432273
p2044
aV12527338
p2045
aa(lp2046
V26655108
p2047
aV18427688
p2048
aV16219344
p2049
aV12761761
p2050
aV11829203
p2051
aV9058529
p2052
aV1983149
p2053
aV2594692
p2054
aV2768373
p2055
aV3143308
p2056
aa(lp2057
V26314757
p2058
aa(lp2059
V10931124
p2060
aV748517
p2061
aa(lp2062
V24310979
p2063
aV23355326
p2064
aV14757504
p2065
aV8527021
p2066
aV3957454
p2067
aV7121898
p2068
aa(lp2069
V9010587
p2070
aa(lp2071
V23553811
p2072
aV21632076
p2073
aV9743238
p2074
aV1706921
p2075
aa(lp2076
V25424451
p2077
aV23990204
p2078
aa(lp2079
V20149620
p2080
aV2630633
p2081
aV3735100
p2082
aa(lp2083
V28588690
p2084
aV27591379
p2085
aV27050329
p2086
aV19074529
p2087
aV16442130
p2088
aa(lp2089
V24119759
p2090
aV23586654
p2091
aV22271159
p2092
aV20434300
p2093
aV19270263
p2094
aV17827781
p2095
aV17499757
p2096
aV11455667
p2097
aV10446371
p2098
aV9089423
p2099
aV8752159
p2100
aa(lp2101
V26507574
p2102
aV24615060
p2103
aV23217309
p2104
aV11410334
p2105
aa(lp2106
V28359554
p2107
aV26959550
p2108
aV26485055
p2109
aV25968358
p2110
aV22622064
p2111
aV22172600
p2112
aV15639223
p2113
aV3412320
p2114
aV6139447
p2115
aa(lp2116
V28359554
p2117
aa(lp2118
V21866979
p2119
aV16420470
p2120
aV15938184
p2121
aV14703338
p2122
aV14572906
p2123
aV12044178
p2124
aV11465418
p2125
aV1710124
p2126
aV2313585
p2127
aV3972082
p2128
aa(lp2129
V28263937
p2130
aa(lp2131
V3900470
p2132
aa(lp2133
V26035712
p2134
aa(lp2135
V16133889
p2136
aa(lp2137
V9143352
p2138
aa(lp2139
V3838134
p2140
aa(lp2141
V20140906
p2142
aV11902904
p2143
aV2604944
p2144
aa(lp2145
V26552755
p2146
aV24484401
p2147
aV24230489
p2148
aV18698879
p2149
aV15900282
p2150
aV15651704
p2151
aV11902904
p2152
aV11251350
p2153
aV11096528
p2154
aV9361366
p2155
aV7429002
p2156
aa(lp2157
V17497016
p2158
aV16539878
p2159
aV16516800
p2160
aV9800899
p2161
aV7504746
p2162
aV7504851
p2163
aV2136915
p2164
aa(lp2165
V27362421
p2166
aV27024900
p2167
aV25177813
p2168
aa(lp2169
V21458190
p2170
aV21306879
p2171
aV2604944
p2172
aV6423809
p2173
aa(lp2174
V9253948
p2175
aa(lp2176
V28111103
p2177
aa(lp2178
V22985924
p2179
aV16387916
p2180
aV11005360
p2181
aV8898449
p2182
aV6277693
p2183
aV6183731
p2184
aV6773541
p2185
aV700170
p2186
aa(lp2187
V19469693
p2188
aV18461056
p2189
aV15816881
p2190
aV12545439
p2191
aV10586427
p2192
aV10401013
p2193
aV2142570
p2194
aV2969634
p2195
aV2892926
p2196
aa(lp2197
V17693178
p2198
aa(lp2199
V25733806
p2200
aa(lp2201
V28588690
p2202
aV27591379
p2203
aV27050329
p2204
aV19074529
p2205
aV16442130
p2206
aa(lp2207
V3942599
p2208
aV4851787
p2209
aV4719463
p2210
aV4702571
p2211
aV4682251
p2212
aV5081604
p2213
aV5025201
p2214
aV5023769
p2215
aV5136094
p2216
aV5638549
p2217
aa(lp2218
V24760401
p2219
aV23315911
p2220
aV1642643
p2221
aa(lp2222
V19074529
p2223
aa(lp2224
V20206792
p2225
aV19258521
p2226
aV16621742
p2227
aa(lp2228
V28588690
p2229
aV27591379
p2230
aV27050329
p2231
aV19074529
p2232
aV16442130
p2233
aa(lp2234
V24760401
p2235
aV23315911
p2236
aV1642643
p2237
aa(lp2238
V435405
p2239
aa(lp2240
V23018567
p2241
aV10096601
p2242
aV8341225
p2243
aV1642270
p2244
aa(lp2245
V12832131
p2246
aV3395132
p2247
aV6833262
p2248
aa(lp2249
V28588690
p2250
aV27591379
p2251
aV27050329
p2252
aV19074529
p2253
aV16442130
p2254
aa(lp2255
V4119618
p2256
aV5453215
p2257
aa(lp2258
V24929021
p2259
aa(lp2260
V22627382
p2261
aV20934417
p2262
aV19760671
p2263
aa(lp2264
V11924555
p2265
aV10096601
p2266
aa(lp2267
V7978319
p2268
aV8068487
p2269
aa(lp2270
V8461031
p2271
aa(lp2272
V24080574
p2273
aV21632076
p2274
aV8887741
p2275
aV8831263
p2276
aV8453960
p2277
aV1483836
p2278
aV4086977
p2279
aV6146666
p2280
aV6790449
p2281
aV504792
p2282
aa(lp2283
V20536185
p2284
aV7310534
p2285
aa(lp2286
V27602739
p2287
aa.