(lp0
(lp1
V24721087
p2
aa(lp3
V17845860
p4
aV17560453
p5
aV12913942
p6
aV11193427
p7
aV10820058
p8
aV9566716
p9
aa(lp10
V25421879
p11
aV24286716
p12
aV21991618
p13
aV21854170
p14
aV21530883
p15
aV18041345
p16
aV11741583
p17
aV10374721
p18
aa(lp19
V28282861
p20
aV25744406
p21
aV16339348
p22
aV12391710
p23
aa(lp24
V18597716
p25
aa(lp26
V24508058
p27
aV23653285
p28
aV8321872
p29
aV2011614
p30
aV3118394
p31
aa(lp32
V26593900
p33
aV20210607
p34
aV10812814
p35
aa(lp36
V20041774
p37
aa(lp38
V9214189
p39
aV3936095
p40
aV820971
p41
aa(lp42
V10812814
p43
aa(lp44
V14690370
p45
aV3035281
p46
aa(lp47
V2907448
p48
aa(lp49
V28484137
p50
aV26684404
p51
aV23911508
p52
aV6535850
p53
aV642161
p54
aV13167508
p55
aa(lp56
V15749463
p57
aV14704290
p58
aV14500043
p59
aV14140143
p60
aa(lp61
V16236400
p62
aV14317489
p63
aa(lp64
V25712651
p65
aV24646246
p66
aV22853039
p67
aV21800548
p68
aV15637898
p69
aV12698042
p70
aV11595441
p71
aa(lp72
V23732847
p73
aV23126429
p74
aV19233291
p75
aV14561860
p76
aV11796323
p77
aV7929475
p78
aV7414277
p79
aa(lp80
V27382722
p81
aV15612497
p82
aa(lp83
V17709257
p84
aV10812814
p85
aa(lp86
V20849833
p87
aa(lp88
V17368535
p89
aa(lp90
V26540032
p91
aV10082628
p92
aa(lp93
V26457827
p94
aV19358864
p95
aa(lp96
V15792594
p97
aV9804563
p98
aV1416431
p99
aV6874468
p100
aV7416612
p101
aa(lp102
V24954270
p103
aV23977987
p104
aV23600390
p105
aV22163181
p106
aV21978950
p107
aV20070177
p108
aV15766254
p109
aa(lp110
V16176404
p111
aa(lp112
V26266546
p113
aV25887264
p114
aV22996620
p115
aV20822177
p116
aa(lp117
V22176675
p118
aV20044213
p119
aV19007497
p120
aV18052039
p121
aV6728641
p122
aV7045646
p123
aa(lp124
V23399662
p125
aV15203283
p126
aa(lp127
V21328939
p128
aa(lp129
V18634420
p130
aa(lp131
V10435330
p132
aa(lp133
V22554361
p134
aV7958119
p135
aa(lp136
V26794947
p137
aV26773834
p138
aV23484140
p139
aV22138973
p140
aV15917215
p141
aV12907393
p142
aV11890745
p143
aV11384199
p144
aa(lp145
V9639085
p146
aa(lp147
V22155323
p148
aV19233291
p149
aV12907135
p150
aV10780873
p151
aa(lp152
V21735273
p153
aV20004784
p154
aa(lp155
V26080804
p156
aV25311097
p157
aV23575976
p158
aV22865807
p159
aV22087867
p160
aV17210833
p161
aV15970448
p162
aV15123902
p163
aV11040109
p164
aV9713380
p165
aV7964324
p166
aa(lp167
V17555636
p168
aa(lp169
V27936681
p170
aV26777118
p171
aV25645954
p172
aV19778575
p173
aV19537895
p174
aV11922924
p175
aV11543171
p176
aV10664127
p177
aV11536661
p178
aV7828969
p179
aa(lp180
V21790190
p181
aa(lp182
V19543389
p183
aV7821721
p184
aV2846408
p185
aV6132738
p186
aa(lp187
V24903948
p188
aV23706710
p189
aV20508219
p190
aV1294076
p191
aa(lp192
V26721218
p193
aV24680807
p194
aV24380343
p195
aV22868111
p196
aV18052097
p197
aa(lp198
V23669460
p199
aV20563731
p200
aV2199966
p201
aV2572242
p202
aa(lp203
V27719895
p204
aV25577328
p205
aV25498605
p206
aV24206699
p207
aV22307223
p208
aV20435155
p209
aV18357794
p210
aV12577475
p211
aV932618
p212
aa(lp213
V16448858
p214
aV15721614
p215
aa(lp216
V24176469
p217
aa(lp218
V23969937
p219
aV23905651
p220
aV22131322
p221
aV22080838
p222
aV20847284
p223
aV17020966
p224
aa(lp225
V26977121
p226
aV25418890
p227
aV23744122
p228
aV20095880
p229
aV17995901
p230
aV14971723
p231
aV12659174
p232
aV12492636
p233
aV11907633
p234
aV9315292
p235
aV734216
p236
aa(lp237
V17981280
p238
aV11192263
p239
aa(lp240
V26544724
p241
aV20132041
p242
aa(lp243
V20392144
p244
aV18599609
p245
aa(lp246
V7403202
p247
aa(lp248
V25712651
p249
aa(lp250
V22567979
p251
aV17050836
p252
aV10700569
p253
aV9486301
p254
aV8612514
p255
aV7821721
p256
aV1874382
p257
aV170055
p258
aa(lp259
V15969666
p260
aa(lp261
V22462683
p262
aV21188480
p263
aV17914956
p264
aa(lp265
V1485368
p266
aa(lp267
V27363679
p268
aV24704229
p269
aV24576320
p270
aV22433984
p271
aV21704890
p272
aV2884993
p273
aV7300237
p274
aV7313450
p275
aV4144374
p276
aa(lp277
V24628428
p278
aV22032120
p279
aV20378200
p280
aV10071529
p281
aV8146811
p282
aa(lp283
V14690370
p284
aa(lp285
V27787989
p286
aa(lp287
V23271584
p288
aV22113111
p289
aV19087669
p290
aV9681101
p291
aV9548389
p292
aV9372985
p293
aa(lp294
V16239089
p295
aa(lp296
V26674157
p297
aa(lp298
V21948074
p299
aV14642885
p300
aV4665929
p301
aV5162673
p302
aV5788615
p303
aV5357790
p304
aV5668565
p305
aV14109726
p306
aa(lp307
V15240183
p308
aV9766622
p309
aV9715500
p310
aV2517301
p311
aV2693310
p312
aV743437
p313
aa(lp314
V26121399
p315
aa(lp316
V15982436
p317
aV11681655
p318
aV10393287
p319
aV9426082
p320
aV2014493
p321
aV2379401
p322
aV2392793
p323
aV3238642
p324
aV3538478
p325
aV6648854
p326
aa(lp327
V18588558
p328
aa(lp329
V25432463
p330
aV25393510
p331
aV23992543
p332
aV22715945
p333
aV21147093
p334
aV20373677
p335
aV19675205
p336
aV18755157
p337
aV18028279
p338
aV6906262
p339
aa(lp340
V23837897
p341
aV7699352
p342
aa(lp343
V28399852
p344
aa(lp345
V27993597
p346
aV21888964
p347
aa(lp348
V21971212
p349
aV20519576
p350
aV2545308
p351
aa(lp352
V19447177
p353
aV9203637
p354
aa(lp355
V27131731
p356
aV24972733
p357
aV23744813
p358
aV22210036
p359
aV21821959
p360
aV19828119
p361
aV17574318
p362
aV16019320
p363
aa(lp364
V22618373
p365
aa(lp366
V21991618
p367
aV18433135
p368
aV17549372
p369
aV16298867
p370
aV15467207
p371
aV9180280
p372
aV8146811
p373
aV8387751
p374
aV8385897
p375
aa(lp376
V22293680
p377
aV18559981
p378
aV11223496
p379
aV9801011
p380
aV9643188
p381
aV9363120
p382
aV8620719
p383
aV7484310
p384
aV2730948
p385
aV3826954
p386
aV2867685
p387
aa(lp388
V19330915
p389
aa(lp390
V26952371
p391
aa(lp392
V25820360
p393
aa(lp394
V1205116
p395
aV4828878
p396
aa(lp397
V26859654
p398
aV23047831
p399
aV16227322
p400
aV11427163
p401
aV9521622
p402
aV9059906
p403
aV8923588
p404
aV8226494
p405
aV1526315
p406
aV6091794
p407
aa(lp408
V24504087
p409
aV1830806
p410
aa(lp411
V17218038
p412
aa(lp413
V28219839
p414
aV24338840
p415
aV20859793
p416
aV20373677
p417
aV18755157
p418
aa(lp419
V24404587
p420
aV23250338
p421
aa(lp422
V17147431
p423
aa(lp424
V17701879
p425
aa(lp426
V27817194
p427
aV24117073
p428
aV19408659
p429
aV19083455
p430
aV17011197
p431
aV3230050
p432
aV495327
p433
aV5312823
p434
aa(lp435
V25455894
p436
aV20717935
p437
aV19351463
p438
aV18640474
p439
aV16870656
p440
aa(lp441
V23957083
p442
aV21078734
p443
aV20043572
p444
aV15656684
p445
aV3070473
p446
aV3675132
p447
aa(lp448
V26769346
p449
aV21934012
p450
aV20450877
p451
aV15729173
p452
aV11545625
p453
aV11434650
p454
aV11418024
p455
aV10917876
p456
aV8747336
p457
aV1894792
p458
aV3254597
p459
aa(lp460
V8392959
p461
aa(lp462
V10070130
p463
aa(lp464
V25147302
p465
aV24876910
p466
aa(lp467
V26267818
p468
aV26134972
p469
aV25785882
p470
aV23867243
p471
aV23219778
p472
aV23046938
p473
aa(lp474
V2471423
p475
aa(lp476
V21355733
p477
aV2614858
p478
aa(lp479
V15537770
p480
aV11211079
p481
aV6783672
p482
aV1170012
p483
aV1169233
p484
aa(lp485
V27940267
p486
aV27261701
p487
aV27060681
p488
aV23540307
p489
aV19537895
p490
aV18029483
p491
aV17995901
p492
aV15517355
p493
aa(lp494
V28111215
p495
aV27405766
p496
aV26952371
p497
aV25289711
p498
aV24287659
p499
aV23828338
p500
aV23220608
p501
aV23107752
p502
aV21612158
p503
aV10048796
p504
aV8895953
p505
aa(lp506
V27580415
p507
aV9747521
p508
aa(lp509
V25375233
p510
aV24886172
p511
aV21821108
p512
aa(lp513
V6130136
p514
aV14140143
p515
aa(lp516
V17619177
p517
aa(lp518
V22899537
p519
aV21761139
p520
aV21082327
p521
aV17560649
p522
aV16987677
p523
aa(lp524
V27411075
p525
aV26990405
p526
aV22132095
p527
aV21567414
p528
aV12166966
p529
aa(lp530
V27214068
p531
aV23994084
p532
aV22917708
p533
aV21991618
p534
aa(lp535
V26847129
p536
aV21296674
p537
aV20488237
p538
aV20362570
p539
aV19041926
p540
aV17598026
p541
aV16111826
p542
aV10433273
p543
aV1654232
p544
aV6723485
p545
aa(lp546
V11204456
p547
aV10655981
p548
aV10492458
p549
aV7977861
p550
aV8320561
p551
aa(lp552
V27993597
p553
aa(lp554
V24296436
p555
aa(lp556
V20952451
p557
aa(lp558
V27500458
p559
aV22694591
p560
aV17712145
p561
aa(lp562
V25236246
p563
aV24992904
p564
aV23973317
p565
aV23951240
p566
aV21762414
p567
aV19466270
p568
aV18803087
p569
aV14313904
p570
aa(lp571
V27785948
p572
aV25753845
p573
aV24738717
p574
aV18178471
p575
aV17995901
p576
aV17894456
p577
aV8676721
p578
aa(lp579
V26153439
p580
aV21796703
p581
aV21184804
p582
aV18005263
p583
aV11230376
p584
aV9809193
p585
aa(lp586
V22245470
p587
aV11230592
p588
aV9507894
p589
aa(lp590
V16722189
p591
aV8234183
p592
aa(lp593
V25980421
p594
aV17074427
p595
aa(lp596
V22436163
p597
aV4985238
p598
aa(lp599
V17550270
p600
aa(lp601
V19284308
p602
aa(lp603
V27131731
p604
aV24759259
p605
aV23376044
p606
aV22715724
p607
aV19754177
p608
aV17195448
p609
aV10880155
p610
aV9598296
p611
aV8007043
p612
aa(lp613
V15917216
p614
aa(lp615
V23219778
p616
aa(lp617
V24879536
p618
aV19284308
p619
aV12077164
p620
aV9747521
p621
aa(lp622
V26988690
p623
aV25264739
p624
aV20041774
p625
aV19537895
p626
aV19029791
p627
aV16506819
p628
aa(lp629
V25956639
p630
aV21755177
p631
aV18396325
p632
aV15349083
p633
aV15123325
p634
aa(lp635
V21235589
p636
aV16448395
p637
aV16259783
p638
aV14571614
p639
aV1492118
p640
aV3693625
p641
aV1271749
p642
aV4371852
p643
aa(lp644
V25393510
p645
aV18028279
p646
aa(lp647
V21857633
p648
aV21795527
p649
aV4152023
p650
aa(lp651
V16506819
p652
aa(lp653
V22830298
p654
aa(lp655
V25805616
p656
aV24929713
p657
aV24916570
p658
aV22682939
p659
aV19444419
p660
aa(lp661
V22893519
p662
aV19662150
p663
aa(lp664
V22899537
p665
aa(lp666
V19846771
p667
aV19625446
p668
aV19221590
p669
aV18060786
p670
aV12514104
p671
aa(lp672
V27553975
p673
aV27487568
p674
aV25826745
p675
aV23679834
p676
aV22441428
p677
aV18950703
p678
aV18492756
p679
aV15308219
p680
aV8893835
p681
aa(lp682
V24941836
p683
aV24064625
p684
aV20738215
p685
aV18411833
p686
aV18393322
p687
aV12829335
p688
aV11894753
p689
aa(lp690
V23014953
p691
aV17346810
p692
aa(lp693
V27160577
p694
aV23659789
p695
aV18588558
p696
aV17340577
p697
aV11828227
p698
aa(lp699
V15467207
p700
aV1465402
p701
aa(lp702
V27451156
p703
aV19778245
p704
aV16122900
p705
aV15925022
p706
aV15840431
p707
aa(lp708
V26562675
p709
aV20132041
p710
aV19131227
p711
aV17604663
p712
aV10846380
p713
aV10148820
p714
aa(lp715
V26847129
p716
aV26119957
p717
aV23200889
p718
aV22927089
p719
aV19856917
p720
aV19292996
p721
aV17827696
p722
aV17598026
p723
aV17487414
p724
aV17074427
p725
aa(lp726
V24404587
p727
aV23250338
p728
aa(lp729
V19675205
p730
aV17192287
p731
aV15531518
p732
aV10409274
p733
aV10070130
p734
aa(lp735
V9566716
p736
aa(lp737
V25376551
p738
aV25149594
p739
aV23073205
p740
aV22480717
p741
aV21979298
p742
aV18481269
p743
aV6092977
p744
aa(lp745
V16041136
p746
aV10218719
p747
aa(lp748
V8699158
p749
aV7490569
p750
aV8342647
p751
aV4167709
p752
aa(lp753
V28161134
p754
aV9566716
p755
aa(lp756
V24594237
p757
aV22820407
p758
aV19711101
p759
aV15183029
p760
aV15112050
p761
aV11751251
p762
aV11351325
p763
aV8500656
p764
aa(lp765
V20533590
p766
aV12492636
p767
aa(lp768
V18726880
p769
aa(lp770
V27618885
p771
aV23135630
p772
aV22424457
p773
aV21513709
p774
aV21075189
p775
aV16121519
p776
aa(lp777
V27131433
p778
aa(lp779
V24759259
p780
aa(lp781
V22815834
p782
aV16542656
p783
aV16542655
p784
aV10336821
p785
aa(lp786
V27109311
p787
aV25204594
p788
aV21855572
p789
aV21331793
p790
aV17236176
p791
aV16191402
p792
aV15913671
p793
aV11381824
p794
aa(lp795
V23054890
p796
aa(lp797
V18385478
p798
aV12767658
p799
aV12705354
p800
aa(lp801
V9539363
p802
aV7851722
p803
aa(lp804
V22471806
p805
aa(lp806
V23557366
p807
aV23399148
p808
aV24750630
p809
aV15298759
p810
aV11876556
p811
aa(lp812
V25943851
p813
aV24183819
p814
aa(lp815
V12041900
p816
aa(lp817
V20614430
p818
aV2064884
p819
aV1853693
p820
aV13780678
p821
aV13775746
p822
aV13528889
p823
aa(lp824
V17142685
p825
aV12819273
p826
aa(lp827
V23999662
p828
aV19335806
p829
aV18547753
p830
aV16173936
p831
aV15733574
p832
aV14983473
p833
aV9792416
p834
aV1360618
p835
aa(lp836
V24912690
p837
aV9336816
p838
aV1560152
p839
aV2652162
p840
aV3685180
p841
aa(lp842
V6668460
p843
aa(lp844
V7300237
p845
aa(lp846
V17074427
p847
aa(lp848
V26059745
p849
aV24548119
p850
aV22488796
p851
aV18690680
p852
aV18092757
p853
aV16339348
p854
aa(lp855
V26616954
p856
aV179839
p857
aa(lp858
V15175590
p859
aV11456384
p860
aa(lp861
V23618889
p862
aV15215853
p863
aa(lp864
V27411075
p865
aV25872428
p866
aV25285506
p867
aV24929713
p868
aV22436163
p869
aV12052723
p870
aV10352107
p871
aV10320676
p872
aV9793473
p873
aV7600541
p874
aa(lp875
V23252289
p876
aV22306920
p877
aV21982434
p878
aV20430161
p879
aa(lp880
V24712559
p881
aa(lp882
V22275228
p883
aV14670074
p884
aV11074443
p885
aV10748137
p886
aV10529442
p887
aV9199211
p888
aV2888565
p889
aV756702
p890
aa(lp891
V24547961
p892
aV16740064
p893
aV9800037
p894
aV8882367
p895
aV8833428
p896
aV630378
p897
aa(lp898
V2383531
p899
aa(lp900
V27484845
p901
aa(lp902
V23806462
p903
aV11902805
p904
aV10639023
p905
aV8888505
p906
aV7665373
p907
aV7601726
p908
aV8174733
p909
aV5107861
p910
aV6071579
p911
aV14100992
p912
aa(lp913
V24912999
p914
aV21624753
p915
aV7682684
p916
aV7300237
p917
aV1245941
p918
aa(lp919
V26995025
p920
aV20008811
p921
aV18071713
p922
aa(lp923
V28124089
p924
aV26758438
p925
aV22819447
p926
aV22414479
p927
aV8733594
p928
aV8635669
p929
aV2717651
p930
aa(lp931
V24210052
p932
aV23334552
p933
aV15502348
p934
aV12433303
p935
aV8361548
p936
aV2874759
p937
aV2951805
p938
aV1195705
p939
aa(lp940
V27565104
p941
aV24121185
p942
aV23350953
p943
aV20488237
p944
aV20459798
p945
aV19774507
p946
aV16905083
p947
aV13678266
p948
aV12221590
p949
aV12074635
p950
aV1555064
p951
aa(lp952
V3046347
p953
aa(lp954
V25243874
p955
aV24103517
p956
aV9175175
p957
aa(lp958
V16794324
p959
aV16488138
p960
aV9252947
p961
aV8661171
p962
aV8598655
p963
aa(lp964
V19102273
p965
aV12391710
p966
aa(lp967
V3557064
p968
aa(lp969
V21399924
p970
aa(lp971
V21492882
p972
aV19566470
p973
aV19046001
p974
aV17639996
p975
aV11682614
p976
aV2416362
p977
aV6201484
p978
aV6194028
p979
aV6190693
p980
aa(lp981
V26196676
p982
aa(lp983
V22563950
p984
aa(lp985
V21456624
p986
aV15792594
p987
aV9486301
p988
aV8612514
p989
aV2904478
p990
aV4324204
p991
aa(lp992
V15855878
p993
aV9326294
p994
aa(lp995
V25960153
p996
aa(lp997
V25645954
p998
aa(lp999
V15100088
p1000
aV1381038
p1001
aa(lp1002
V23987816
p1003
aV22830298
p1004
aV22819859
p1005
aV16176404
p1006
aa(lp1007
V27198566
p1008
aV24448824
p1009
aV19783870
p1010
aV15576432
p1011
aV15126078
p1012
aV12547699
p1013
aV12044514
p1014
aV11059784
p1015
aV8831799
p1016
aV8219574
p1017
aV1504720
p1018
aa(lp1019
V25859299
p1020
aV23664216
p1021
aV22722977
p1022
aV10812814
p1023
aa(lp1024
V25518298
p1025
aV24401240
p1026
aV23425625
p1027
aV20841992
p1028
aV19731814
p1029
aV17174226
p1030
aV12016094
p1031
aV11003119
p1032
aV8128173
p1033
aV2948526
p1034
aa(lp1035
V25395257
p1036
aV22426163
p1037
aV18588565
p1038
aV12083545
p1039
aa(lp1040
V15102673
p1041
aV3528119
p1042
aV5285373
p1043
aV14955794
p1044
aV14949074
p1045
aa(lp1046
V28648058
p1047
aa(lp1048
V26459398
p1049
aV23220608
p1050
aV20147491
p1051
aV8676721
p1052
aV5300570
p1053
aa(lp1054
V9566716
p1055
aa(lp1056
V12926058
p1057
aa(lp1058
V23653285
p1059
aa(lp1060
V24834725
p1061
aa(lp1062
V25462975
p1063
aV23001939
p1064
aV21736778
p1065
aV21631357
p1066
aV19841269
p1067
aV12492636
p1068
aa(lp1069
V27892597
p1070
aV23592360
p1071
aV12911512
p1072
aa(lp1073
V11027627
p1074
aa(lp1075
V26967158
p1076
aV25857980
p1077
aV24825328
p1078
aV19853593
p1079
aV18588558
p1080
aV17620069
p1081
aV17508681
p1082
aa(lp1083
V17499881
p1084
aa(lp1085
V12832442
p1086
aa(lp1087
V25393510
p1088
aV23827330
p1089
aV20388361
p1090
aV12767658
p1091
aV11984511
p1092
aa(lp1093
V28086773
p1094
aV23653285
p1095
aV20876158
p1096
aa(lp1097
V22748601
p1098
aV20093623
p1099
aV8164016
p1100
aa(lp1101
V6149101
p1102
aV1273865
p1103
aa(lp1104
V24668848
p1105
aV23515856
p1106
aa(lp1107
V16635558
p1108
aa(lp1109
V23653285
p1110
aV22931461
p1111
aV22250742
p1112
aV21833542
p1113
aV20021556
p1114
aV12746543
p1115
aa(lp1116
V9588087
p1117
aV8940101
p1118
aa(lp1119
V27918956
p1120
aV21196355
p1121
aV19713687
p1122
aV7758633
p1123
aa(lp1124
V20353092
p1125
aa(lp1126
V24406684
p1127
aV18265753
p1128
aa(lp1129
V16790313
p1130
aV16493643
p1131
aa(lp1132
V15715635
p1133
aV10094574
p1134
aa(lp1135
V24975568
p1136
aa(lp1137
V28406733
p1138
aV26827717
p1139
aV25913576
p1140
aV11171411
p1141
aV10097272
p1142
aa(lp1143
V24879536
p1144
aV21391093
p1145
aV19442667
p1146
aV15767302
p1147
aV7839865
p1148
aV7831502
p1149
aV1685420
p1150
aV3187205
p1151
aa(lp1152
V21276258
p1153
aa(lp1154
V25208092
p1155
aV5124836
p1156
aa(lp1157
V3382965
p1158
aa(lp1159
V18827448
p1160
aa(lp1161
V27069534
p1162
aa(lp1163
V21677701
p1164
aV21348953
p1165
aV20628261
p1166
aV19004368
p1167
aV12126791
p1168
aV11551949
p1169
aV9176286
p1170
aV7604183
p1171
aV4880250
p1172
aa(lp1173
V9566716
p1174
aV4371852
p1175
aa(lp1176
V26246200
p1177
aV25243874
p1178
aV21521541
p1179
aa(lp1180
V27159409
p1181
aa(lp1182
V2396358
p1183
aV2328970
p1184
aV3195792
p1185
aV3578984
p1186
aa(lp1187
V20041774
p1188
aV9685910
p1189
aV9390970
p1190
aV8678934
p1191
aa(lp1192
V26540032
p1193
aV22957751
p1194
aV18800904
p1195
aa(lp1196
V27451156
p1197
aV19778245
p1198
aV19029791
p1199
aV17995901
p1200
aV16122900
p1201
aV15925022
p1202
aV15840431
p1203
aV9715500
p1204
aV9676351
p1205
aV3771955
p1206
aV6849516
p1207
aa(lp1208
V11386128
p1209
aV1606891
p1210
aa(lp1211
V25025057
p1212
aa(lp1213
V11837550
p1214
aa(lp1215
V20400635
p1216
aa(lp1217
V25039648
p1218
aV17914956
p1219
aa(lp1220
V16176404
p1221
aa(lp1222
V27207150
p1223
aV26171907
p1224
aV23139219
p1225
aV22531392
p1226
aV20150745
p1227
aV20041774
p1228
aV19381016
p1229
aV18951679
p1230
aV17204498
p1231
aa(lp1232
V17995901
p1233
aa(lp1234
V28260011
p1235
aV26935854
p1236
aV26592472
p1237
aV23103295
p1238
aV21486409
p1239
aV20564504
p1240
aV19267991
p1241
aV5348388
p1242
aa(lp1243
V23178458
p1244
aa(lp1245
V10720786
p1246
aa(lp1247
V22307223
p1248
aa(lp1249
V25208561
p1250
aV24734311
p1251
aV23565841
p1252
aV22591221
p1253
aV22293680
p1254
aV22156352
p1255
aV10936763
p1256
aV10846380
p1257
aV8620719
p1258
aV5576254
p1259
aa(lp1260
V7760348
p1261
aa(lp1262
V26439939
p1263
aV25752793
p1264
aV23151094
p1265
aV22935346
p1266
aV12042114
p1267
aV4360925
p1268
aa(lp1269
V20094000
p1270
aa(lp1271
V6707923
p1272
aa(lp1273
V21963558
p1274
aa(lp1275
V19442667
p1276
aV8498605
p1277
aV3032580
p1278
aV3023180
p1279
aV2412938
p1280
aV860759
p1281
aa(lp1282
V3659150
p1283
aV7312919
p1284
aa(lp1285
V19145051
p1286
aa(lp1287
V23774261
p1288
aV22489155
p1289
aV21951331
p1290
aV16690625
p1291
aa(lp1292
V28379215
p1293
aV26615818
p1294
aV24962785
p1295
aV24912117
p1296
aV20187987
p1297
aV18322779
p1298
aV15885265
p1299
aa(lp1300
V22245470
p1301
aV2893994
p1302
aa(lp1303
V19795650
p1304
aa(lp1305
V27411075
p1306
aV26828245
p1307
aV19083455
p1308
aV17061840
p1309
aV16603065
p1310
aV14530516
p1311
aV7549099
p1312
aa(lp1313
V16506819
p1314
aa(lp1315
V27232147
p1316
aV25910460
p1317
aV25669659
p1318
aV22549094
p1319
aV21872391
p1320
aV17898500
p1321
aV17132814
p1322
aV15328234
p1323
aV9042389
p1324
aa(lp1325
V4070389
p1326
aa(lp1327
V23618889
p1328
aa(lp1329
V27558166
p1330
aa(lp1331
V26199465
p1332
aa(lp1333
V27040057
p1334
aa(lp1335
V24737278
p1336
aV23874773
p1337
aV23054890
p1338
aV22139435
p1339
aV21878860
p1340
aV21524150
p1341
aV19774507
p1342
aa(lp1343
V23999662
p1344
aV18547753
p1345
aV2571375
p1346
aa(lp1347
V20008811
p1348
aa(lp1349
V22928837
p1350
aV21735273
p1351
aa(lp1352
V27801841
p1353
aV26776662
p1354
aV26457883
p1355
aV24945397
p1356
aa(lp1357
V27223848
p1358
aV26498626
p1359
aV25629927
p1360
aV22155395
p1361
aV16906639
p1362
aV16865774
p1363
aV15710356
p1364
aV12475291
p1365
aV14140143
p1366
aa(lp1367
V23807809
p1368
aV23208304
p1369
aV20511134
p1370
aV19306480
p1371
aV19135555
p1372
aV14511773
p1373
aa(lp1374
V15800391
p1375
aa(lp1376
V25172742
p1377
aV23816499
p1378
aV18832188
p1379
aa(lp1380
V21492882
p1381
aV6201643
p1382
aV6311405
p1383
aV6190693
p1384
aa(lp1385
V17981280
p1386
aV12606273
p1387
aV11192263
p1388
aV10707322
p1389
aa(lp1390
V27405766
p1391
aa(lp1392
V9658577
p1393
aa(lp1394
V21971212
p1395
aV20519576
p1396
aV15703332
p1397
aV12829045
p1398
aa(lp1399
V22351487
p1400
aV20553395
p1401
aV16176404
p1402
aV9626580
p1403
aV8977098
p1404
aa(lp1405
V27558166
p1406
aa(lp1407
V25962994
p1408
aV23351409
p1409
aV22521486
p1410
aV15472831
p1411
aa(lp1412
V23250338
p1413
aV22476587
p1414
aa(lp1415
V16542656
p1416
aa(lp1417
V22471806
p1418
aV12426108
p1419
aa(lp1420
V26721218
p1421
aV24680807
p1422
aV18052097
p1423
aa(lp1424
V28167029
p1425
aV23741796
p1426
aV22971939
p1427
aa(lp1428
V27987489
p1429
aV21526974
p1430
aV20095810
p1431
aV16239089
p1432
aV9776868
p1433
aa(lp1434
V26771591
p1435
aa(lp1436
V21328939
p1437
aV19298192
p1438
aa(lp1439
V20503475
p1440
aV18424104
p1441
aV15291469
p1442
aV12628704
p1443
aa(lp1444
V25752793
p1445
aV24383324
p1446
aV23151094
p1447
aV22935346
p1448
aV18720251
p1449
aV15019190
p1450
aa(lp1451
V20210607
p1452
aV10812814
p1453
aa(lp1454
V20147491
p1455
aa(lp1456
V25750430
p1457
aV24740524
p1458
aV22140239
p1459
aV21970807
p1460
aV21839077
p1461
aV21633085
p1462
aV21590650
p1463
aV20181244
p1464
aV20025835
p1465
aV15070161
p1466
aa(lp1467
V26773834
p1468
aV22138973
p1469
aV21174953
p1470
aV11384199
p1471
aa(lp1472
V26990405
p1473
aV24846905
p1474
aV24308563
p1475
aV23958298
p1476
aV22433984
p1477
aV20132041
p1478
aV16197573
p1479
aV14630130
p1480
aV11801241
p1481
aa(lp1482
V27987489
p1483
aV21526974
p1484
aV20095810
p1485
aV16239089
p1486
aV9776868
p1487
aa(lp1488
V28067864
p1489
aV27023062
p1490
aV18597716
p1491
aV16807879
p1492
aV16393471
p1493
aa(lp1494
V27411075
p1495
aV19778086
p1496
aV17637182
p1497
aV12109583
p1498
aa(lp1499
V22750725
p1500
aV10812814
p1501
aa(lp1502
V27936681
p1503
aV26777118
p1504
aV10664127
p1505
aa(lp1506
V19165801
p1507
aa(lp1508
V7604183
p1509
aa(lp1510
V27700070
p1511
aV19716210
p1512
aa(lp1513
V25894210
p1514
aa(lp1515
V23126429
p1516
aV19233291
p1517
aV11796323
p1518
aV7713375
p1519
aV7414277
p1520
aa(lp1521
V17709257
p1522
aV15296096
p1523
aV13678266
p1524
aV10812814
p1525
aa(lp1526
V21888964
p1527
aa(lp1528
V27693774
p1529
aa(lp1530
V21389629
p1531
aV17027208
p1532
aV11137352
p1533
aa(lp1534
V19263142
p1535
aV8430806
p1536
aV4727458
p1537
aV4889623
p1538
aa(lp1539
V21456624
p1540
aV15792594
p1541
aV2904478
p1542
aa(lp1543
V20459798
p1544
aa(lp1545
V21834631
p1546
aa(lp1547
V7410348
p1548
aa(lp1549
V22230427
p1550
aa(lp1551
V27842944
p1552
aV27396870
p1553
aV15182905
p1554
aV3352283
p1555
aa(lp1556
V20136451
p1557
aa(lp1558
V25249475
p1559
aV25133732
p1560
aV17434991
p1561
aV15604660
p1562
aV15215853
p1563
aV12527364
p1564
aa(lp1565
V2893683
p1566
aa(lp1567
V9539363
p1568
aV7851722
p1569
aa(lp1570
V12038133
p1571
aa(lp1572
V25418890
p1573
aV23744122
p1574
aV20095880
p1575
aV14971723
p1576
aV12492636
p1577
aV11907633
p1578
aV9315292
p1579
aa(lp1580
V19809179
p1581
aa(lp1582
V21963558
p1583
aa(lp1584
V17550270
p1585
aa(lp1586
V22380404
p1587
aa(lp1588
V26411988
p1589
aa(lp1590
V3582588
p1591
aa(lp1592
V8498605
p1593
aV3023180
p1594
aV2412938
p1595
aV860759
p1596
aa(lp1597
V25384023
p1598
aV24846006
p1599
aV24659402
p1600
aV23512199
p1601
aa(lp1602
V612137
p1603
aV4381538
p1604
aa(lp1605
V25332517
p1606
aV17982294
p1607
aa(lp1608
V23989908
p1609
aa(lp1610
V22186906
p1611
aa(lp1612
V25857980
p1613
aV23142196
p1614
aV19853593
p1615
aV17508681
p1616
aa(lp1617
V8699158
p1618
aV7490569
p1619
aa(lp1620
V22931461
p1621
aV21833542
p1622
aV20021556
p1623
aV12746543
p1624
aa(lp1625
V16142632
p1626
aV15675799
p1627
aV10834299
p1628
aa(lp1629
V15059625
p1630
aa(lp1631
V23142727
p1632
aV19913100
p1633
aV12899407
p1634
aV12414767
p1635
aV11775791
p1636
aV11759042
p1637
aV11755677
p1638
aV10831796
p1639
aV10628670
p1640
aa(lp1641
V26036416
p1642
aV24118006
p1643
aV23746221
p1644
aV22583784
p1645
aV18502620
p1646
aV18237644
p1647
aV15133666
p1648
aV14742874
p1649
aV14740214
p1650
aV12177477
p1651
aa(lp1652
V12926058
p1653
aa(lp1654
V14757182
p1655
aV5792445
p1656
aa(lp1657
V25921826
p1658
aa(lp1659
V24770453
p1660
aa(lp1661
V16949230
p1662
aa(lp1663
V27514442
p1664
aV24547961
p1665
aV23642199
p1666
aV23094271
p1667
aV20966764
p1668
aV19171401
p1669
aV16248545
p1670
aV15190043
p1671
aV15128023
p1672
aV12124611
p1673
aV5163831
p1674
aa(lp1675
V20515684
p1676
aa(lp1677
V19543389
p1678
aa(lp1679
V23029073
p1680
aV21030054
p1681
aa(lp1682
V25204462
p1683
aV23178458
p1684
aa(lp1685
V1970544
p1686
aa(lp1687
V19284308
p1688
aa(lp1689
V15691073
p1690
aa(lp1691
V25467201
p1692
aV16448395
p1693
aV1492118
p1694
aa(lp1695
V24338840
p1696
aV19233244
p1697
aa(lp1698
V18433135
p1699
aV15467207
p1700
aV11943198
p1701
aV9180280
p1702
aV8385897
p1703
aa(lp1704
V20086128
p1705
aV17368535
p1706
aa(lp1707
V25728636
p1708
aV25518298
p1709
aV22182640
p1710
aV22178178
p1711
aV10457797
p1712
aa(lp1713
V15114504
p1714
aa(lp1715
V10552623
p1716
aa(lp1717
V28551233
p1718
aV27719891
p1719
aV24938777
p1720
aV18683945
p1721
aV17418925
p1722
aa(lp1723
V20400635
p1724
aa(lp1725
V23507228
p1726
aV21328939
p1727
aa(lp1728
V19457445
p1729
aV16397917
p1730
aV15005885
p1731
aV12875885
p1732
aa(lp1733
V22960100
p1734
aV22245470
p1735
aV12064442
p1736
aV11249835
p1737
aV9639085
p1738
aV2893994
p1739
aa(lp1740
V18586078
p1741
aa(lp1742
V15946691
p1743
aa(lp1744
V25462975
p1745
aV23001939
p1746
aV21631357
p1747
aV19841269
p1748
aV21304623
p1749
aV12492636
p1750
aa(lp1751
V17524443
p1752
aa(lp1753
V25753845
p1754
aV24738717
p1755
aV20354804
p1756
aV20192848
p1757
aV19234374
p1758
aV17894456
p1759
aV14559685
p1760
aa(lp1761
V25635853
p1762
aV3625909
p1763
aa(lp1764
V21082327
p1765
aV17960563
p1766
aV16987677
p1767
aa(lp1768
V27261701
p1769
aV27060681
p1770
aV21871542
p1771
aa(lp1772
V23402543
p1773
aV21294419
p1774
aV10812814
p1775
aa(lp1776
V26988690
p1777
aV26412430
p1778
aV25068200
p1779
aV19029791
p1780
aa(lp1781
V11911076
p1782
aV8502624
p1783
aa(lp1784
V25243874
p1785
aV24418343
p1786
aV24285186
p1787
aV21521541
p1788
aV20857519
p1789
aa(lp1790
V24548119
p1791
aV22488796
p1792
aV18690680
p1793
aV18092757
p1794
aV16339348
p1795
aa(lp1796
V2614858
p1797
aa(lp1798
V22186906
p1799
aa(lp1800
V9305805
p1801
aa(lp1802
V19885842
p1803
aV18827359
p1804
aV17427930
p1805
aa(lp1806
V26420344
p1807
aV25835364
p1808
aV24781738
p1809
aV22082068
p1810
aV10948259
p1811
aV2822126
p1812
aa(lp1813
V3931281
p1814
aa(lp1815
V27444655
p1816
aV23756400
p1817
aV22102286
p1818
aV20668322
p1819
aV20461582
p1820
aV19597314
p1821
aV19189863
p1822
aV18309284
p1823
aV16894963
p1824
aV15778117
p1825
aV11216496
p1826
aa(lp1827
V11210223
p1828
aV1205116
p1829
aV4828878
p1830
aV5584623
p1831
aa(lp1832
V17136001
p1833
aV15855878
p1834
aV15028775
p1835
aV5162658
p1836
aa(lp1837
V24504087
p1838
aa(lp1839
V25466017
p1840
aV23994084
p1841
aV22294521
p1842
aV21991618
p1843
aV21978676
p1844
aV11535366
p1845
aa(lp1846
V21399924
p1847
aa(lp1848
V21878860
p1849
aV20857519
p1850
aV18389806
p1851
aV17342533
p1852
aV11716367
p1853
aa(lp1854
V22310181
p1855
aV16697266
p1856
aV16584858
p1857
aV15934019
p1858
aV15177305
p1859
aa(lp1860
V19284308
p1861
aV12077164
p1862
aV9747521
p1863
aV7410348
p1864
aa(lp1865
V26769840
p1866
aa(lp1867
V27070563
p1868
aV26032019
p1869
aV24737278
p1870
aV17595884
p1871
aa(lp1872
V9283003
p1873
aV8564789
p1874
aV7912733
p1875
aV1337050
p1876
aV3040136
p1877
aV3557064
p1878
aV6292040
p1879
aa(lp1880
V27159409
p1881
aa(lp1882
V21131702
p1883
aa(lp1884
V17900837
p1885
aa(lp1886
V25820360
p1887
aa(lp1888
V21438046
p1889
aa(lp1890
V23944991
p1891
aV20964405
p1892
aa(lp1893
V26418808
p1894
aV22953812
p1895
aa(lp1896
V23576339
p1897
aV12963147
p1898
aa(lp1899
V28282861
p1900
aV28166708
p1901
aV27475233
p1902
aV26453860
p1903
aV25744406
p1904
aV20600749
p1905
aV16339348
p1906
aV12230267
p1907
aa(lp1908
V22132095
p1909
aV21600571
p1910
aa(lp1911
V25980421
p1912
aa(lp1913
V26093371
p1914
aV19660460
p1915
aa(lp1916
V28476604
p1917
aV22790829
p1918
aV20444211
p1919
aV16927526
p1920
aV15452678
p1921
aV2426043
p1922
aa(lp1923
V24140488
p1924
aa(lp1925
V18500810
p1926
aV15884809
p1927
aa(lp1928
V27618982
p1929
aV27561254
p1930
aV19056479
p1931
aV18424012
p1932
aV17994576
p1933
aa(lp1934
V26670312
p1935
aV26255551
p1936
aV23652054
p1937
aV20509006
p1938
aV19501268
p1939
aV17651054
p1940
aV16426722
p1941
aa(lp1942
V3582588
p1943
aa(lp1944
V25887266
p1945
aV25726172
p1946
aV25498616
p1947
aV22957420
p1948
aV605711
p1949
aa(lp1950
V25333984
p1951
aV24882415
p1952
aV23528295
p1953
aV21934012
p1954
aV21856162
p1955
aV20521948
p1956
aa(lp1957
V4096435
p1958
aV6141872
p1959
aa(lp1960
V26134972
p1961
aV23867243
p1962
aa(lp1963
V28233198
p1964
aV27283233
p1965
aV26609199
p1966
aV24731259
p1967
aV24117072
p1968
aV23321560
p1969
aV22480886
p1970
aV22103446
p1971
aV21774591
p1972
aV20685125
p1973
aV19298195
p1974
aa(lp1975
V19284308
p1976
aV12077164
p1977
aV9747521
p1978
aa(lp1979
V25376551
p1980
aV25149594
p1981
aV23073205
p1982
aV22480717
p1983
aV21979298
p1984
aV18481269
p1985
aa(lp1986
V24912999
p1987
aV21624753
p1988
aV7682684
p1989
aV7300237
p1990
aV1245941
p1991
aa(lp1992
V22245470
p1993
aV12064442
p1994
aV11682614
p1995
aV11356037
p1996
aV11249835
p1997
aV10208844
p1998
aV9639085
p1999
aV9507894
p2000
aV2893994
p2001
aa(lp2002
V26423042
p2003
aV20095811
p2004
aa(lp2005
V23583902
p2006
aV22350215
p2007
aV22104376
p2008
aV21075192
p2009
aV20952451
p2010
aV20438326
p2011
aV18409048
p2012
aa(lp2013
V16139284
p2014
aV15000391
p2015
aV9305805
p2016
aa(lp2017
V24610729
p2018
aV19360916
p2019
aV219926
p2020
aa(lp2021
V28109806
p2022
aV25469855
p2023
aV19330915
p2024
aV15383230
p2025
aV2545472
p2026
aV3021185
p2027
aV6765165
p2028
aa(lp2029
V26746431
p2030
aV26539501
p2031
aV24842412
p2032
aV24114345
p2033
aV23911508
p2034
aV22191571
p2035
aV19429312
p2036
aV18694995
p2037
aV17202721
p2038
aa(lp2039
V13678266
p2040
aa(lp2041
V22893519
p2042
aV22489155
p2043
aV22476925
p2044
aV21806609
p2045
aV20834144
p2046
aV20684289
p2047
aV21179753
p2048
aV16690625
p2049
aV11102595
p2050
aa(lp2051
V17637182
p2052
aa(lp2053
V17110524
p2054
aV9477503
p2055
aV8643587
p2056
aV6327192
p2057
aV7204700
p2058
aV7353615
p2059
aa(lp2060
V27653214
p2061
aV21627404
p2062
aV20213499
p2063
aV7475125
p2064
aa(lp2065
V25910460
p2066
aV20857519
p2067
aV20405222
p2068
aa(lp2069
V25750430
p2070
aa(lp2071
V24414985
p2072
aa(lp2073
V10218719
p2074
aa(lp2075
V25683300
p2076
aV25572733
p2077
aV25518303
p2078
aV23838114
p2079
aV21663558
p2080
aV20210607
p2081
aV18285307
p2082
aV15366786
p2083
aV19180797
p2084
aV10812814
p2085
aa(lp2086
V21651969
p2087
aV20041801
p2088
aa(lp2089
V22404830
p2090
aV20487376
p2091
aa(lp2092
V24089599
p2093
aV9232544
p2094
aa(lp2095
V26457827
p2096
aV19358864
p2097
aV14759065
p2098
aa(lp2099
V19284308
p2100
aa(lp2101
V25395257
p2102
aV22426163
p2103
aV18588565
p2104
aV12083545
p2105
aa(lp2106
V25249475
p2107
aV23376454
p2108
aV17434991
p2109
aa(lp2110
V26084831
p2111
aV19140122
p2112
aV18598173
p2113
aV17147431
p2114
aa(lp2115
V19774507
p2116
aa(lp2117
V21391093
p2118
aV20211155
p2119
aV19442667
p2120
aV16565303
p2121
aV15767302
p2122
aV12517001
p2123
aV7831502
p2124
aV1685420
p2125
aV3187205
p2126
aa(lp2127
V27565104
p2128
aV24121185
p2129
aV23350953
p2130
aV20488237
p2131
aV20459798
p2132
aV19774507
p2133
aV16905083
p2134
aV13678266
p2135
aV12221590
p2136
aV12074635
p2137
aV1555064
p2138
aa(lp2139
V18537051
p2140
aV18006479
p2141
aV16893265
p2142
aV16460804
p2143
aV11440974
p2144
aV10869352
p2145
aV10709928
p2146
aV10428766
p2147
aV7553326
p2148
aV6126306
p2149
aa(lp2150
V27015024
p2151
aV25662752
p2152
aV25450832
p2153
aV24942990
p2154
aV23544643
p2155
aV16782541
p2156
aa(lp2157
V25315667
p2158
aV15969666
p2159
aa(lp2160
V5084
p2161
aa(lp2162
V26758438
p2163
aV22819447
p2164
aV22414479
p2165
aa(lp2166
V20857519
p2167
aa(lp2168
V27910772
p2169
aV24750941
p2170
aV20128054
p2171
aa(lp2172
V8392959
p2173
aa(lp2174
V22525859
p2175
aV18457366
p2176
aa(lp2177
V2907448
p2178
aa(lp2179
V25750430
p2180
aV24646246
p2181
aV22853039
p2182
aV21800548
p2183
aV21386034
p2184
aV13895463
p2185
aa(lp2186
V27131433
p2187
aa(lp2188
V20563731
p2189
aV2199966
p2190
aa(lp2191
V26977531
p2192
aV24873744
p2193
aV24665696
p2194
aV21294419
p2195
aV15934019
p2196
aV8321872
p2197
aV2011614
p2198
aa(lp2199
V24704668
p2200
aV24661965
p2201
aa(lp2202
V25559019
p2203
aa(lp2204
V21440429
p2205
aV21228877
p2206
aa(lp2207
V25943851
p2208
aV24183819
p2209
aa(lp2210
V27251608
p2211
aV20821828
p2212
aV19938219
p2213
aV19795650
p2214
aV17963326
p2215
aa(lp2216
V12413852
p2217
aa(lp2218
V24287659
p2219
aV23639522
p2220
aV18762824
p2221
aV18723353
p2222
aV18468393
p2223
aV12413852
p2224
aa(lp2225
V26674157
p2226
aa(lp2227
V26080804
p2228
aa(lp2229
V28282861
p2230
aV27475233
p2231
aV26453860
p2232
aV25744406
p2233
aV12230267
p2234
aa(lp2235
V16785044
p2236
aa(lp2237
V4346523
p2238
aV4675876
p2239
aV5065808
p2240
aV5064258
p2241
aV4336375
p2242
aV14856792
p2243
aa(lp2244
V24685589
p2245
aa(lp2246
V27038600
p2247
aV25175897
p2248
aV24684139
p2249
aV23322177
p2250
aV22947512
p2251
aV19655309
p2252
aV12358454
p2253
aa(lp2254
V26572541
p2255
aV17008463
p2256
aV16987677
p2257
aV12973913
p2258
aV12547941
p2259
aV3582588
p2260
aa(lp2261
V24909614
p2262
aV1830806
p2263
aa(lp2264
V27648736
p2265
aV27618005
p2266
aa(lp2267
V19027932
p2268
aa(lp2269
V24737278
p2270
aV21878860
p2271
aa(lp2272
V18449498
p2273
aa(lp2274
V16790313
p2275
aV16493643
p2276
aV65947
p2277
aa(lp2278
V27070563
p2279
aV21129455
p2280
aV19856917
p2281
aV17487414
p2282
aa(lp2283
V23591927
p2284
aa(lp2285
V20350876
p2286
aa(lp2287
V23987816
p2288
aV22819859
p2289
aV22351487
p2290
aV21464472
p2291
aV20553395
p2292
aV17680912
p2293
aV16176404
p2294
aV9626580
p2295
aV8977098
p2296
aa(lp2297
V15721614
p2298
aa(lp2299
V23764360
p2300
aV23744813
p2301
aV22790933
p2302
aa(lp2303
V27374584
p2304
aa(lp2305
V24296436
p2306
aV17157961
p2307
aV9025316
p2308
aV7520179
p2309
aV1782763
p2310
aV7365419
p2311
aa(lp2312
V23874773
p2313
aV23054890
p2314
aa(lp2315
V27372805
p2316
aV25808658
p2317
aV25694549
p2318
aV24304389
p2319
aV23784462
p2320
aV22160750
p2321
aV21965607
p2322
aV21535260
p2323
aV21299658
p2324
aV19810808
p2325
aV10812814
p2326
aa(lp2327
V4175582
p2328
aa(lp2329
V24789995
p2330
aV24325453
p2331
aV24089599
p2332
aV22731239
p2333
aV19212006
p2334
aV15383230
p2335
aV9232544
p2336
aa(lp2337
V19751814
p2338
aV18930849
p2339
aa(lp2340
V26769840
p2341
aV20739157
p2342
aa(lp2343
V27580415
p2344
aV9747521
p2345
aa(lp2346
V10944162
p2347
aV10820058
p2348
aa(lp2349
V22366406
p2350
aa(lp2351
V25369132
p2352
aV24369884
p2353
aV17133988
p2354
aV11345693
p2355
aa(lp2356
V28283451
p2357
aV26256187
p2358
aV26045201
p2359
aV24594274
p2360
aV23517173
p2361
aV23449196
p2362
aV22127324
p2363
aV18570236
p2364
aV17202693
p2365
aV16180083
p2366
aa(lp2367
V24712559
p2368
aa(lp2369
V24721087
p2370
aa(lp2371
V25189119
p2372
aV24886172
p2373
aV19157815
p2374
aa(lp2375
V21854170
p2376
aa(lp2377
V23999662
p2378
aV18547753
p2379
aV2571375
p2380
aa(lp2381
V19813472
p2382
aa(lp2383
V26791563
p2384
aV21571047
p2385
aa(lp2386
V25172742
p2387
aa(lp2388
V21492882
p2389
aV6201643
p2390
aV6311405
p2391
aV6190693
p2392
aa(lp2393
V12606273
p2394
aV11192263
p2395
aV10707322
p2396
aa(lp2397
V27405766
p2398
aa(lp2399
V21971212
p2400
aV20519576
p2401
aV15703332
p2402
aV12829045
p2403
aa(lp2404
V7839865
p2405
aa(lp2406
V27987489
p2407
aV21526974
p2408
aV20095810
p2409
aV16239089
p2410
aV9776868
p2411
aa(lp2412
V23987816
p2413
aV22819859
p2414
aV22351487
p2415
aV21464472
p2416
aV20553395
p2417
aV17680912
p2418
aV16176404
p2419
aV9626580
p2420
aV8977098
p2421
aa(lp2422
V23151094
p2423
aV15019190
p2424
aa(lp2425
V20025835
p2426
aa(lp2427
V28067864
p2428
aV27023062
p2429
aV18597716
p2430
aV16807879
p2431
aV16393471
p2432
aa(lp2433
V26428141
p2434
aa(lp2435
V17637182
p2436
aa(lp2437
V24287659
p2438
aa(lp2439
V24789995
p2440
aV24325453
p2441
aV24089599
p2442
aV22731239
p2443
aV19212006
p2444
aV15383230
p2445
aV9232544
p2446
aa(lp2447
V24942990
p2448
aV16782541
p2449
aa(lp2450
V7604183
p2451
aa(lp2452
V26631293
p2453
aV26481377
p2454
aV21695715
p2455
aa(lp2456
V25894210
p2457
aa(lp2458
V24135610
p2459
aa(lp2460
V25825396
p2461
aV22509594
p2462
aV18309662
p2463
aV11872673
p2464
aV2282471
p2465
aV3040977
p2466
aV678424
p2467
aV5117377
p2468
aa(lp2469
V27917801
p2470
aV22211952
p2471
aV19623992
p2472
aV17225453
p2473
aV17010102
p2474
aV15383230
p2475
aa(lp2476
V27693774
p2477
aa(lp2478
V21389629
p2479
aV11137352
p2480
aa(lp2481
V19284308
p2482
aV12077164
p2483
aV9747521
p2484
aV7410348
p2485
aa(lp2486
V20459798
p2487
aa(lp2488
V21834631
p2489
aa(lp2490
V27842944
p2491
aa(lp2492
V20136451
p2493
aa(lp2494
V25449453
p2495
aa(lp2496
V15604660
p2497
aa(lp2498
V2893683
p2499
aa(lp2500
V9539363
p2501
aa(lp2502
V25333984
p2503
aa(lp2504
V12038133
p2505
aa(lp2506
V17637182
p2507
aa(lp2508
V17550270
p2509
aa(lp2510
V23506987
p2511
aV17034662
p2512
aa(lp2513
V19841475
p2514
aV12531198
p2515
aV12126919
p2516
aV10956344
p2517
aV10677601
p2518
aa(lp2519
V3582588
p2520
aa(lp2521
V24659402
p2522
aV23512199
p2523
aa(lp2524
V25332517
p2525
aV17982294
p2526
aa(lp2527
V22186906
p2528
aa(lp2529
V23142196
p2530
aa(lp2531
V15675799
p2532
aa(lp2533
V15059625
p2534
aa(lp2535
V22776996
p2536
aa(lp2537
V25333984
p2538
aa(lp2539
V25333984
p2540
aa(lp2541
V25887266
p2542
aV22957420
p2543
aa(lp2544
V23029073
p2545
aa(lp2546
V18598173
p2547
aa(lp2548
V1970544
p2549
aa(lp2550
V22957420
p2551
aV19174616
p2552
aa(lp2553
V24865614
p2554
aV22634253
p2555
aV11248999
p2556
aa(lp2557
V22182640
p2558
aa(lp2559
V25042244
p2560
aa(lp2561
V15005885
p2562
aa(lp2563
V22960100
p2564
aV22245470
p2565
aV9639085
p2566
aa(lp2567
V25462975
p2568
aV23001939
p2569
aV21631357
p2570
aV19841269
p2571
aV21304623
p2572
aV12492636
p2573
aa(lp2574
V24738717
p2575
aV20192848
p2576
aa(lp2577
V17709257
p2578
aa(lp2579
V23506987
p2580
aV17034662
p2581
aa(lp2582
V21082327
p2583
aV17960563
p2584
aV16987677
p2585
aa(lp2586
V21983485
p2587
aa(lp2588
V18598173
p2589
aa(lp2590
V11911076
p2591
aV8502624
p2592
aa(lp2593
V23576339
p2594
aa(lp2595
V22186906
p2596
aa(lp2597
V19810808
p2598
aa(lp2599
V26420344
p2600
aV25835364
p2601
aV24781738
p2602
aV22082068
p2603
aV10948259
p2604
aV2822126
p2605
aa(lp2606
V23602099
p2607
aa(lp2608
V22957420
p2609
aV19174616
p2610
aa(lp2611
V19597314
p2612
aa(lp2613
V27565104
p2614
aV24121185
p2615
aV23350953
p2616
aV20488237
p2617
aV20459798
p2618
aV19774507
p2619
aV16905083
p2620
aV13678266
p2621
aV12221590
p2622
aV12074635
p2623
aV1555064
p2624
aa(lp2625
V21878860
p2626
aV17342533
p2627
aa(lp2628
V23602099
p2629
aa(lp2630
V15177305
p2631
aa(lp2632
V24727393
p2633
aa(lp2634
V20136451
p2635
aa(lp2636
V11926822
p2637
aa(lp2638
V23874773
p2639
aa(lp2640
V26032019
p2641
aV22944198
p2642
aV22275228
p2643
aV10748137
p2644
aa(lp2645
V9283003
p2646
aV8564789
p2647
aV7912733
p2648
aV1337050
p2649
aV3040136
p2650
aV3557064
p2651
aV6292040
p2652
aa(lp2653
V27514442
p2654
aV15128023
p2655
aa(lp2656
V23912273
p2657
aa(lp2658
V26027687
p2659
aV23295981
p2660
aV23569758
p2661
aa(lp2662
V26418808
p2663
aa(lp2664
V19810808
p2665
aa(lp2666
V28282861
p2667
aV28166708
p2668
aV27475233
p2669
aV26453860
p2670
aV25744406
p2671
aV20600749
p2672
aV16339348
p2673
aV12230267
p2674
aa(lp2675
V19885842
p2676
aa(lp2677
V16845528
p2678
aa(lp2679
V22132095
p2680
aV15742355
p2681
aa(lp2682
V25980421
p2683
aa(lp2684
V26093371
p2685
aV19660460
p2686
aa(lp2687
V28476604
p2688
aV22790829
p2689
aV20444211
p2690
aV16927526
p2691
aV15452678
p2692
aV2426043
p2693
aa(lp2694
V15884809
p2695
aa(lp2696
V17637182
p2697
aa(lp2698
V25924535
p2699
aa(lp2700
V27618982
p2701
aV27561254
p2702
aa(lp2703
V3582588
p2704
aa(lp2705
V25887266
p2706
aV22957420
p2707
aa(lp2708
V25333984
p2709
aa(lp2710
V4096435
p2711
aV6141872
p2712
aa(lp2713
V28233198
p2714
aV26609199
p2715
aV22103446
p2716
aV19298195
p2717
aa(lp2718
V8392959
p2719
aa(lp2720
V24912999
p2721
aV21624753
p2722
aV7682684
p2723
aV7300237
p2724
aV1245941
p2725
aa(lp2726
V22245470
p2727
aV12064442
p2728
aV11682614
p2729
aV11356037
p2730
aV11249835
p2731
aV10208844
p2732
aV9639085
p2733
aV9507894
p2734
aV2893994
p2735
aa(lp2736
V26423042
p2737
aV20095811
p2738
aa(lp2739
V22104376
p2740
aV20438326
p2741
aa(lp2742
V24610729
p2743
aa(lp2744
V28109806
p2745
aa(lp2746
V22191571
p2747
aa(lp2748
V22893519
p2749
aV22489155
p2750
aV22476925
p2751
aV21806609
p2752
aV20834144
p2753
aV20684289
p2754
aV21179753
p2755
aV16690625
p2756
aV11102595
p2757
aa(lp2758
V25315667
p2759
aV15969666
p2760
aa(lp2761
V17637182
p2762
aa(lp2763
V11796323
p2764
aa(lp2765
V17110524
p2766
aV9477503
p2767
aV8643587
p2768
aV6327192
p2769
aV7204700
p2770
aV7353615
p2771
aa(lp2772
V1611830
p2773
aa(lp2774
V20405222
p2775
aa(lp2776
V24414985
p2777
aa(lp2778
V25518303
p2779
aV21663558
p2780
aV18285307
p2781
aa(lp2782
V20041801
p2783
aa(lp2784
V24089599
p2785
aV9232544
p2786
aa(lp2787
V26457827
p2788
aV19539808
p2789
aV12112285
p2790
aa(lp2791
V25395257
p2792
aV22426163
p2793
aV18588565
p2794
aV12083545
p2795
aa(lp2796
V17434991
p2797
aV15604660
p2798
aa(lp2799
V18598173
p2800
aa(lp2801
V4073282
p2802
aa(lp2803
V25820360
p2804
aa(lp2805
V27533650
p2806
aa(lp2807
V25787301
p2808
aa(lp2809
V18546149
p2810
aa(lp2811
V24750941
p2812
aa(lp2813
V25376551
p2814
aV25149594
p2815
aV23073205
p2816
aV22480717
p2817
aV21979298
p2818
aV18481269
p2819
aa(lp2820
V22525859
p2821
aV18457366
p2822
aa(lp2823
V25369132
p2824
aa(lp2825
V25750430
p2826
aV24646246
p2827
aV22853039
p2828
aV21800548
p2829
aV21386034
p2830
aV13895463
p2831
aa(lp2832
V25518303
p2833
aV23685048
p2834
aV23295981
p2835
aV17205709
p2836
aa(lp2837
V25559019
p2838
aa(lp2839
V25943851
p2840
aV24183819
p2841
aa(lp2842
V17963326
p2843
aa(lp2844
V28379215
p2845
aa(lp2846
V24287659
p2847
aV23639522
p2848
aV18762824
p2849
aV18723353
p2850
aV18468393
p2851
aV12413852
p2852
aa(lp2853
V25272846
p2854
aV21143132
p2855
aa(lp2856
V16785044
p2857
aa(lp2858
V4346523
p2859
aV4675876
p2860
aV5065808
p2861
aV5064258
p2862
aV4336375
p2863
aV14856792
p2864
aa(lp2865
V25175897
p2866
aV23322177
p2867
aa(lp2868
V26572541
p2869
aV17008463
p2870
aV16987677
p2871
aV12973913
p2872
aV12547941
p2873
aV3582588
p2874
aa(lp2875
V24504087
p2876
aa(lp2877
V27618005
p2878
aa(lp2879
V11348483
p2880
aa(lp2881
V23014953
p2882
aV17660719
p2883
aV16645895
p2884
aV12743536
p2885
aV12639905
p2886
aV11034156
p2887
aa(lp2888
V21878860
p2889
aa(lp2890
V25596012
p2891
aV24177568
p2892
aV23884101
p2893
aV21445585
p2894
aV19919113
p2895
aV18983886
p2896
aV10670563
p2897
aa(lp2898
V16154981
p2899
aa(lp2900
V16790313
p2901
aV16493643
p2902
aa(lp2903
V16410360
p2904
aV10631000
p2905
aV8547347
p2906
aa(lp2907
V7839865
p2908
aa(lp2909
V20350876
p2910
aa(lp2911
V23178458
p2912
aa(lp2913
V22774933
p2914
aa(lp2915
V17637182
p2916
aa(lp2917
V25333984
p2918
aa(lp2919
V15979367
p2920
aV11104711
p2921
aa(lp2922
V20136451
p2923
aa(lp2924
V27374584
p2925
aa(lp2926
V24296436
p2927
aa(lp2928
V23569880
p2929
aV22118030
p2930
aa(lp2931
V23602099
p2932
aa(lp2933
V24983479
p2934
aa(lp2935
V26769840
p2936
aV20739157
p2937
aa(lp2938
V25894210
p2939
aa(lp2940
V20136451
p2941
aa(lp2942
V28283451
p2943
aV26256187
p2944
aa(lp2945
V22424457
p2946
aa(lp2947
V17914956
p2948
aa(lp2949
V22342441
p2950
aV11254905
p2951
aV10428374
p2952
aV9770008
p2953
aV9453467
p2954
aV9346331
p2955
aV9105698
p2956
aV9050015
p2957
aV7682131
p2958
aV1527785
p2959
aV6319701
p2960
aa(lp2961
V2338614
p2962
aa(lp2963
V22297755
p2964
aV21772233
p2965
aV11105561
p2966
aa(lp2967
V12366390
p2968
aV11123968
p2969
aV7902249
p2970
aa(lp2971
V19084032
p2972
aa(lp2973
V26265982
p2974
aV24300120
p2975
aV22693074
p2976
aV18154272
p2977
aV16254887
p2978
aV15655515
p2979
aa(lp2980
V27475233
p2981
aV27131731
p2982
aV26453860
p2983
aV26364938
p2984
aV24299798
p2985
aV23041666
p2986
aV22829057
p2987
aV20573364
p2988
aV15996844
p2989
aV15620674
p2990
aa(lp2991
V27709321
p2992
aa(lp2993
V19109018
p2994
aV18304575
p2995
aV17347141
p2996
aV16716895
p2997
aV16411656
p2998
aV12971791
p2999
aa(lp3000
V9051755
p3001
aa(lp3002
V15164948
p3003
aV11576342
p3004
aV10410379
p3005
aV10218951
p3006
aV9578149
p3007
aV9156348
p3008
aV7758827
p3009
aV8396150
p3010
aV2173357
p3011
aV3490258
p3012
aV2981664
p3013
aV6600452
p3014
aa(lp3015
V27150484
p3016
aa(lp3017
V17027748
p3018
aV16197573
p3019
aa(lp3020
V27567452
p3021
aV23023353
p3022
aV22393824
p3023
aV21353543
p3024
aV20951598
p3025
aV19023532
p3026
aV16634287
p3027
aV16458954
p3028
aV15726657
p3029
aa(lp3030
V12213604
p3031
aa(lp3032
V26692099
p3033
aV24422962
p3034
aV14966369
p3035
aa(lp3036
V8880991
p3037
aV7594210
p3038
aV8227950
p3039
aV2071827
p3040
aV2384757
p3041
aV6472492
p3042
aV7306812
p3043
aV7357094
p3044
aV825511
p3045
aV5778148
p3046
aV5904150
p3047
aV14158069
p3048
aa(lp3049
V19376836
p3050
aa(lp3051
V21143132
p3052
aa(lp3053
V24057015
p3054
aa(lp3055
V12717004
p3056
aa(lp3057
V24057015
p3058
aa(lp3059
V22019572
p3060
aV21235591
p3061
aV10549420
p3062
aa(lp3063
V22338010
p3064
aa(lp3065
V20030370
p3066
aV19842026
p3067
aV11595788
p3068
aV10765977
p3069
aV8115350
p3070
aV1889985
p3071
aV2133668
p3072
aV3736349
p3073
aV3886622
p3074
aV1134223
p3075
aa(lp3076
V21116688
p3077
aV18810988
p3078
aV17427264
p3079
aV9764491
p3080
aV5492047
p3081
aV14205357
p3082
aa(lp3083
V17826984
p3084
aa(lp3085
V27692144
p3086
aV20578973
p3087
aa(lp3088
V28257116
p3089
aa(lp3090
V3365279
p3091
aa(lp3092
V27847207
p3093
aa(lp3094
V21413022
p3095
aV10549403
p3096
aV7889285
p3097
aa(lp3098
V23576355
p3099
aV22169016
p3100
aV15525450
p3101
aa(lp3102
V3021185
p3103
aa(lp3104
V22673015
p3105
aV12507194
p3106
aV1511660
p3107
aa(lp3108
V26230340
p3109
aV25522629
p3110
aV20398743
p3111
aa(lp3112
V16169234
p3113
aa(lp3114
V23319631
p3115
aa(lp3116
V25753845
p3117
aa(lp3118
V21565208
p3119
aa(lp3120
V24731259
p3121
aV22798227
p3122
aV21774591
p3123
aV21374707
p3124
aV20685125
p3125
aV12044841
p3126
aa(lp3127
V17934513
p3128
aa(lp3129
V28236453
p3130
aV26074677
p3131
aV21211951
p3132
aV19784580
p3133
aa(lp3134
V27061296
p3135
aV25710523
p3136
aV19505084
p3137
aa(lp3138
V18814209
p3139
aV9435523
p3140
aa(lp3141
V28038832
p3142
aV12898415
p3143
aV11411523
p3144
aa(lp3145
V24057015
p3146
aa(lp3147
V28579553
p3148
aV26306655
p3149
aV26083119
p3150
aV22771369
p3151
aa(lp3152
V26808720
p3153
aV26381688
p3154
aV25891766
p3155
aV20350876
p3156
aa(lp3157
V12396301
p3158
aa(lp3159
V25287304
p3160
aV23871054
p3161
aV23634786
p3162
aV23517145
p3163
aV23495748
p3164
aV22414479
p3165
aV21353507
p3166
aV19577446
p3167
aV19557671
p3168
aV16123160
p3169
aV11179193
p3170
aa(lp3171
V26424013
p3172
aV21993909
p3173
aV21121245
p3174
aV19188055
p3175
aV18838107
p3176
aV18449507
p3177
aV9120760
p3178
aa(lp3179
V23498127
p3180
aV19239015
p3181
aa(lp3182
V12926869
p3183
aV11829656
p3184
aa(lp3185
V24057015
p3186
aa(lp3187
V12926869
p3188
aa(lp3189
V18607531
p3190
aa(lp3191
V15255939
p3192
aV11128550
p3193
aV11095537
p3194
aV9404819
p3195
aV8944320
p3196
aV1491787
p3197
aa(lp3198
V26977531
p3199
aa(lp3200
V24509902
p3201
aV14664509
p3202
aa(lp3203
V24747686
p3204
aa(lp3205
V19328848
p3206
aV9580611
p3207
aV8781445
p3208
aa(lp3209
V24057015
p3210
aa(lp3211
V12810716
p3212
aV11275558
p3213
aV10095774
p3214
aa(lp3215
V26253495
p3216
aV19178773
p3217
aV12058328
p3218
aa(lp3219
V16828233
p3220
aa(lp3221
V20354348
p3222
aa(lp3223
V24321516
p3224
aV24057015
p3225
aa(lp3226
V25100751
p3227
aV15537821
p3228
aV3981423
p3229
aa(lp3230
V21772233
p3231
aa(lp3232
V21772233
p3233
aa(lp3234
V27138708
p3235
aV22297755
p3236
aV21772233
p3237
aa(lp3238
V21772233
p3239
aa(lp3240
V27138708
p3241
aa(lp3242
V27138708
p3243
aV26027676
p3244
aV22297755
p3245
aV21772233
p3246
aa(lp3247
V22297755
p3248
aV21772233
p3249
aa(lp3250
V26957053
p3251
aV22110749
p3252
aV12476868
p3253
aV11510894
p3254
aV11250871
p3255
aa(lp3256
V25133732
p3257
aV20859792
p3258
aV17434991
p3259
aV11418110
p3260
aa(lp3261
V26692099
p3262
aa(lp3263
V18449498
p3264
aa(lp3265
V26483135
p3266
aa(lp3267
V19943699
p3268
aa(lp3269
V26802903
p3270
aV25512367
p3271
aV21887376
p3272
aV21810655
p3273
aV20691779
p3274
aV18595761
p3275
aV15491156
p3276
aa(lp3277
V11726279
p3278
aV10092615
p3279
aa(lp3280
V23886380
p3281
aa(lp3282
V24057015
p3283
aa(lp3284
V15036348
p3285
aa(lp3286
V16448183
p3287
aa(lp3288
V25592708
p3289
aa(lp3290
V20510337
p3291
aV11425490
p3292
aV1327163
p3293
aa(lp3294
V25749837
p3295
aV19239015
p3296
aV13680096
p3297
aa(lp3298
V24321516
p3299
aa(lp3300
V26960258
p3301
aa(lp3302
V27847207
p3303
aV21795033
p3304
aa(lp3305
V26692099
p3306
aV24422962
p3307
aV14966369
p3308
aV7575743
p3309
aa(lp3310
V23464732
p3311
aa(lp3312
V24057015
p3313
aa(lp3314
V25701747
p3315
aa(lp3316
V22370785
p3317
aa(lp3318
V25026733
p3319
aV22712758
p3320
aV22045066
p3321
aV17826984
p3322
aa(lp3323
V10580174
p3324
aa(lp3325
V20886232
p3326
aa(lp3327
V22784551
p3328
aa(lp3329
V27719891
p3330
aa(lp3331
V9870559
p3332
aa(lp3333
V25088135
p3334
aa(lp3335
V22062353
p3336
aV19700629
p3337
aa(lp3338
V19667745
p3339
aa(lp3340
V26503226
p3341
aa(lp3342
V24057015
p3343
aa(lp3344
V23807809
p3345
aV23796750
p3346
aV23731018
p3347
aV22959858
p3348
aV21493169
p3349
aV15161201
p3350
aV11829656
p3351
aV9868177
p3352
aV8396352
p3353
aa(lp3354
V22784551
p3355
aa(lp3356
V12926869
p3357
aV11829656
p3358
aa(lp3359
V22038601
p3360
aV19966145
p3361
aV12444904
p3362
aV11168569
p3363
aV10449186
p3364
aV8550820
p3365
aV7289869
p3366
aV7197951
p3367
aa(lp3368
V11078699
p3369
aa(lp3370
V23807809
p3371
aV23796750
p3372
aV23731018
p3373
aV22959858
p3374
aV21839593
p3375
aV21493169
p3376
aV15161201
p3377
aV11829656
p3378
aV10639004
p3379
aV9868177
p3380
aV8396352
p3381
aa(lp3382
V572273
p3383
aa(lp3384
V23795714
p3385
aV22262313
p3386
aV21491156
p3387
aV18298414
p3388
aV17936409
p3389
aa(lp3390
V21978676
p3391
aV19189245
p3392
aV808236
p3393
aa(lp3394
V28025993
p3395
aV27373652
p3396
aV25559019
p3397
aV24748513
p3398
aV24631338
p3399
aV22705359
p3400
aa(lp3401
V23647686
p3402
aa(lp3403
V11131161
p3404
aa(lp3405
V18838835
p3406
aa(lp3407
V24503502
p3408
aa(lp3409
V10341304
p3410
aa(lp3411
V25170865
p3412
aa(lp3413
V26463105
p3414
aV19642688
p3415
aa(lp3416
V24057015
p3417
aa(lp3418
V26424013
p3419
aV26102012
p3420
aV25502175
p3421
aV22072109
p3422
aV19031369
p3423
aV18481332
p3424
aV12725326
p3425
aV11077049
p3426
aa(lp3427
V4402258
p3428
aV4342210
p3429
aa(lp3430
V18383029
p3431
aV11919272
p3432
aV11855749
p3433
aV10932522
p3434
aV9518170
p3435
aV1491040
p3436
aV1975774
p3437
aV2459997
p3438
aV6191967
p3439
aa(lp3440
V25996100
p3441
aa(lp3442
V28351318
p3443
aV24069362
p3444
aV23685048
p3445
aV22104376
p3446
aV18409048
p3447
aV7893397
p3448
aa(lp3449
V27568839
p3450
aV25558849
p3451
aV25445034
p3452
aV25271244
p3453
aV17196622
p3454
aV3375268
p3455
aa(lp3456
V23416245
p3457
aa(lp3458
V17401444
p3459
aa(lp3460
V27530067
p3461
aV17052490
p3462
aV16789778
p3463
aV12371858
p3464
aa(lp3465
V17826984
p3466
aa(lp3467
V11373284
p3468
aV10433951
p3469
aV9525875
p3470
aV8806782
p3471
aV8791092
p3472
aa(lp3473
V1664072
p3474
aa(lp3475
V18448292
p3476
aa(lp3477
V11204456
p3478
aV7548199
p3479
aa(lp3480
V24747686
p3481
aa(lp3482
V27090925
p3483
aa(lp3484
V17218795
p3485
aa(lp3486
V22210027
p3487
aa(lp3488
V20460797
p3489
aV2624526
p3490
aa(lp3491
V8867323
p3492
aa(lp3493
V26045775
p3494
aa(lp3495
V1911878
p3496
aa(lp3497
V25807345
p3498
aV25446849
p3499
aV24494198
p3500
aV1181275
p3501
aV14320858
p3502
aV14206267
p3503
aV14081658
p3504
aV13946522
p3505
aa(lp3506
V26845844
p3507
aV23441715
p3508
aV22281732
p3509
aV20512454
p3510
aV15254879
p3511
aV15053781
p3512
aV11900957
p3513
aV11221839
p3514
aV10925299
p3515
aV9458885
p3516
aa(lp3517
V18397236
p3518
aV7492973
p3519
aV4373100
p3520
aa(lp3521
V24611620
p3522
aV22777789
p3523
aV11057797
p3524
aV9794741
p3525
aa(lp3526
V7
p3527
aa(lp3528
V28216901
p3529
aV23541436
p3530
aV22705771
p3531
aV21337254
p3532
aV12058328
p3533
aa(lp3534
g3527
aa(lp3535
V17056002
p3536
aV12595963
p3537
aV11819026
p3538
aV11684527
p3539
aV11435743
p3540
aV11135701
p3541
aV7964477
p3542
aa(lp3543
V27618982
p3544
aa(lp3545
V26575200
p3546
aV17202674
p3547
aa(lp3548
V20939997
p3549
aa(lp3550
V24320934
p3551
aa(lp3552
V24269960
p3553
aa(lp3554
V25090632
p3555
aa(lp3556
V26924563
p3557
aa(lp3558
V26924563
p3559
aV20637576
p3560
aa(lp3561
V2902860
p3562
aV2882025
p3563
aa(lp3564
V27618025
p3565
aa(lp3566
V20155333
p3567
aa(lp3568
V25087950
p3569
aV24988985
p3570
aV24662082
p3571
aV16445708
p3572
aV15635160
p3573
aV12094296
p3574
aa(lp3575
V22370785
p3576
aa(lp3577
V26144262
p3578
aV1279937
p3579
aV4971341
p3580
aa(lp3581
V27968987
p3582
aa(lp3583
V9435523
p3584
aV1718261
p3585
aa(lp3586
V17300039
p3587
aV15717602
p3588
aV11188746
p3589
aa(lp3590
V20623807
p3591
aV12645634
p3592
aV12084061
p3593
aV9806817
p3594
aa(lp3595
V15721614
p3596
aa(lp3597
V25815775
p3598
aV23869424
p3599
aV20155333
p3600
aa(lp3601
V23891943
p3602
aa(lp3603
V15998241
p3604
aV15899473
p3605
aV15049710
p3606
aV12213604
p3607
aV11395496
p3608
aV11060308
p3609
aV10219963
p3610
aa(lp3611
V24895242
p3612
aV15850600
p3613
aV10079014
p3614
aa(lp3615
V27345388
p3616
aV19250292
p3617
aV18711026
p3618
aa(lp3619
V9149241
p3620
aV2558923
p3621
aV2851382
p3622
aV207604
p3623
aV164857
p3624
aV4375326
p3625
aV4207163
p3626
aV4342483
p3627
aV4228753
p3628
aV6035118
p3629
aV5231755
p3630
aV4294165
p3631
aa(lp3632
V9055992
p3633
aV2419328
p3634
aa(lp3635
V16879495
p3636
aV15363946
p3637
aV8279520
p3638
aV3012947
p3639
aa(lp3640
V26412430
p3641
aV24915829
p3642
aV24503502
p3643
aV24328676
p3644
aV21261296
p3645
aV17225453
p3646
aV17202693
p3647
aa(lp3648
V22381005
p3649
aa(lp3650
V25106885
p3651
aa(lp3652
V27593445
p3653
aV22465834
p3654
aV8831304
p3655
aa(lp3656
V26412430
p3657
aV21435874
p3658
aa(lp3659
V10954012
p3660
aV1156394
p3661
aa(lp3662
V28126741
p3663
aa(lp3664
V10701933
p3665
aV9820127
p3666
aV9776305
p3667
aV1368272
p3668
aV1150768
p3669
aa(lp3670
V14514441
p3671
aa(lp3672
V21312305
p3673
aV18787782
p3674
aa(lp3675
V28232982
p3676
aV24036254
p3677
aV20221843
p3678
aa(lp3679
V18775097
p3680
aV18707113
p3681
aa(lp3682
V26385725
p3683
aV19000749
p3684
aV17442510
p3685
aV16445708
p3686
aV12094296
p3687
aa(lp3688
V21843620
p3689
aa(lp3690
V26205049
p3691
aa(lp3692
V24057015
p3693
aa(lp3694
V11
p3695
aa(lp3696
V25300345
p3697
aV17132814
p3698
aa(lp3699
V26635911
p3700
aV24072458
p3701
aV22394022
p3702
aV22356105
p3703
aV11380692
p3704
aa(lp3705
V26790296
p3706
aV23597450
p3707
aa(lp3708
V26412430
p3709
aV24915829
p3710
aV24503502
p3711
aV24328676
p3712
aV21261296
p3713
aV17225453
p3714
aV17202693
p3715
aa(lp3716
V27699873
p3717
aV24374021
p3718
aV16703263
p3719
aV14988006
p3720
aV9351909
p3721
aa(lp3722
V19469288
p3723
aV17826984
p3724
aV11411523
p3725
aa(lp3726
V10543912
p3727
aa(lp3728
V26257293
p3729
aV22720874
p3730
aa(lp3731
V25576403
p3732
aa(lp3733
V24971771
p3734
aV23770004
p3735
aV23261363
p3736
aV23057780
p3737
aV22796647
p3738
aa(lp3739
V10631311
p3740
aa(lp3741
V25388083
p3742
aV22489648
p3743
aa(lp3744
V27888993
p3745
aa(lp3746
V808236
p3747
aa(lp3748
V23795810
p3749
aV15598656
p3750
aV9875846
p3751
aa(lp3752
V9387190
p3753
aa(lp3754
V24503502
p3755
aa(lp3756
V24057015
p3757
aa(lp3758
V16309673
p3759
aV15721614
p3760
aa(lp3761
V11131161
p3762
aa(lp3763
V23446944
p3764
aa(lp3765
V14699496
p3766
aV11557570
p3767
aV9679170
p3768
aV9486273
p3769
aV9374669
p3770
aV8948463
p3771
aV7526593
p3772
aV8381612
p3773
aV1694407
p3774
aa(lp3775
V24320934
p3776
aa(lp3777
V20205563
p3778
aV18359518
p3779
aV12824817
p3780
aV10372818
p3781
aV8787902
p3782
aV8545835
p3783
aV8312138
p3784
aa(lp3785
V24057015
p3786
aa(lp3787
V24338840
p3788
aa(lp3789
V12049838
p3790
aV9783823
p3791
aV7475981
p3792
aV8078502
p3793
aa(lp3794
V19950978
p3795
aa(lp3796
V19244748
p3797
aV17580198
p3798
aV10813751
p3799
aa(lp3800
V26690139
p3801
aV2430587
p3802
aV6084711
p3803
aa(lp3804
V8870261
p3805
aV7488320
p3806
aV1507658
p3807
aV2510741
p3808
aV3093313
p3809
aV4074428
p3810
aV6305647
p3811
aa(lp3812
V9245913
p3813
aa(lp3814
V24971771
p3815
aV23770004
p3816
aV23261363
p3817
aa(lp3818
V26234646
p3819
aV24723332
p3820
aV21353543
p3821
aV19332304
p3822
aV18279797
p3823
aV17571307
p3824
aV17202682
p3825
aa(lp3826
V23517173
p3827
aa(lp3828
V25241331
p3829
aa(lp3830
V28142301
p3831
aV28008757
p3832
aV25064060
p3833
aV24659098
p3834
aV20837085
p3835
aV20724127
p3836
aV16085185
p3837
aV14741234
p3838
aV12895430
p3839
aV12358454
p3840
aV9868177
p3841
aa(lp3842
V24611620
p3843
aa(lp3844
V9776305
p3845
aV13651579
p3846
aa(lp3847
V18621150
p3848
aa(lp3849
V24057015
p3850
aa(lp3851
V23597450
p3852
aa(lp3853
V23597450
p3854
aV16549461
p3855
aa(lp3856
V24057015
p3857
aa(lp3858
V7526593
p3859
aV8388981
p3860
aa(lp3861
V27079867
p3862
aV26197385
p3863
aV26008990
p3864
aV23731018
p3865
aV22698256
p3866
aV18513711
p3867
aV17135264
p3868
aa(lp3869
V25701747
p3870
aa(lp3871
V27124242
p3872
aV25762161
p3873
aV25026733
p3874
aV23780497
p3875
aV22380944
p3876
aV20374260
p3877
aV18353112
p3878
aV17268077
p3879
aa(lp3880
V23057778
p3881
aV9712340
p3882
aV1911878
p3883
aV3520940
p3884
aa(lp3885
V26460562
p3886
aa(lp3887
V28284564
p3888
aV22960210
p3889
aV22477070
p3890
aV19793336
p3891
aV19557671
p3892
aV12426629
p3893
aV10791691
p3894
aV10543912
p3895
aa(lp3896
V24447171
p3897
aV24316124
p3898
aV23790887
p3899
aV19291859
p3900
aV19168128
p3901
aV18484961
p3902
aa(lp3903
V17687468
p3904
aa(lp3905
V9234198
p3906
aa(lp3907
V16905269
p3908
aa(lp3909
V20024177
p3910
aa(lp3911
V19340955
p3912
aa(lp3913
V19340955
p3914
aa(lp3915
V27138708
p3916
aV26027676
p3917
aa(lp3918
V16197573
p3919
aa(lp3920
V20192236
p3921
aa(lp3922
V23659497
p3923
aa(lp3924
V27618982
p3925
aV15357003
p3926
aa(lp3927
V25106885
p3928
aa(lp3929
V27692144
p3930
aV27376957
p3931
aV26383017
p3932
aV24731823
p3933
aV24057015
p3934
aV22973805
p3935
aV22037355
p3936
aV20578973
p3937
aa(lp3938
V10668041
p3939
aV9716363
p3940
aa(lp3941
V10080239
p3942
aa(lp3943
V25700664
p3944
aV23973529
p3945
aV23418559
p3946
aV23357401
p3947
aV22057485
p3948
aV10546560
p3949
aa(lp3950
V27414646
p3951
aV21669270
p3952
aa(lp3953
V25798758
p3954
aa(lp3955
V25100751
p3956
aV15537821
p3957
aV3981423
p3958
aa(lp3959
V26808720
p3960
aa(lp3961
V27679490
p3962
aV22120017
p3963
aV19254277
p3964
aV16254887
p3965
aV15377279
p3966
aV12387305
p3967
aa(lp3968
V26808720
p3969
aa(lp3970
V24057015
p3971
aa(lp3972
V25819782
p3973
aV9871681
p3974
aa(lp3975
V19178773
p3976
aV18838835
p3977
aa(lp3978
V24954270
p3979
aV20573364
p3980
aV20362278
p3981
aa(lp3982
V22292934
p3983
aa(lp3984
V27719933
p3985
aV20558255
p3986
aV18274639
p3987
aV11829656
p3988
aa(lp3989
V26808720
p3990
aV25470978
p3991
aa(lp3992
V28027880
p3993
aV12521944
p3994
aV12234792
p3995
aV11454599
p3996
aV10655526
p3997
aV2887086
p3998
aV4220157
p3999
aV5304832
p4000
aa(lp4001
V26681365
p4002
aV19328848
p4003
aV16990191
p4004
aV8781445
p4005
aV8983979
p4006
aV8707876
p4007
aV7714773
p4008
aV7685754
p4009
aV2537911
p4010
aV6418215
p4011
aV930936
p4012
aa(lp4013
V10728417
p4014
aa(lp4015
V26553043
p4016
aV10860179
p4017
aV8439025
p4018
aV1761461
p4019
aV6654536
p4020
aV7400009
p4021
aV6988102
p4022
aV464375
p4023
aV248008
p4024
aV1200215
p4025
aV4770354
p4026
aV5083072
p4027
aa(lp4028
V16227625
p4029
aa(lp4030
V19356039
p4031
aa(lp4032
V22082098
p4033
aV21959301
p4034
aa(lp4035
V15128023
p4036
aV9305805
p4037
aV1147906
p4038
aa(lp4039
V21328091
p4040
aV15537821
p4041
aa(lp4042
V24057015
p4043
aa(lp4044
V28393572
p4045
aV22335564
p4046
aV19428350
p4047
aV19011746
p4048
aV18412547
p4049
aV16605250
p4050
aV12631283
p4051
aV9531510
p4052
aa(lp4053
V24012643
p4054
aV20839643
p4055
aa(lp4056
V24037589
p4057
aa(lp4058
V19398669
p4059
aa(lp4060
V25068200
p4061
aa(lp4062
V10901392
p4063
aa(lp4064
V25686009
p4065
aV25476834
p4066
aV24983479
p4067
aV24039842
p4068
aV21493169
p4069
aV16309673
p4070
aV12926869
p4071
aa(lp4072
V26035062
p4073
aV16737683
p4074
aa(lp4075
V10408242
p4076
aa(lp4077
V8558384
p4078
aV8463418
p4079
aa(lp4080
V18586086
p4081
aV10611432
p4082
aV9824314
p4083
aV8450475
p4084
aV1171095
p4085
aa(lp4086
V26176683
p4087
aV22945025
p4088
aV18293448
p4089
aV14685265
p4090
aV7542715
p4091
aV7895598
p4092
aV3131970
p4093
aV7391974
p4094
aa(lp4095
V27070563
p4096
aV23666855
p4097
aV23178030
p4098
aV19088450
p4099
aa(lp4100
V11418110
p4101
aV238504
p4102
aa(lp4103
V9489620
p4104
aa(lp4105
V15251119
p4106
aa(lp4107
V1752259
p4108
aa(lp4109
V23588507
p4110
aV23220709
p4111
aV21854795
p4112
aV20839800
p4113
aV18636311
p4114
aV16514888
p4115
aV15551966
p4116
aV8867108
p4117
aV7660822
p4118
aa(lp4119
V4391734
p4120
aa(lp4121
V9202738
p4122
aa(lp4123
V22082098
p4124
aV21959301
p4125
aV18814209
p4126
aV11938928
p4127
aV11599366
p4128
aa(lp4129
V3365279
p4130
aa(lp4131
V25445517
p4132
aV25194346
p4133
aV23994365
p4134
aV17488034
p4135
aV16769188
p4136
aV9501243
p4137
aa(lp4138
V18493962
p4139
aa(lp4140
V25942679
p4141
aV16475343
p4142
aa(lp4143
V19036824
p4144
aV18408869
p4145
aa(lp4146
V27470339
p4147
aa(lp4148
V11693551
p4149
aV11523032
p4150
aa(lp4151
V27354767
p4152
aV26721218
p4153
aV23641818
p4154
aV20338162
p4155
aV18486919
p4156
aV16688481
p4157
aa(lp4158
V26635911
p4159
aV24072458
p4160
aV22394022
p4161
aV22356105
p4162
aV11380692
p4163
aa(lp4164
V12208357
p4165
aV5868743
p4166
aa(lp4167
V23054304
p4168
aV21860877
p4169
aV17341025
p4170
aV11991200
p4171
aV10858318
p4172
aV3393576
p4173
aV5413291
p4174
aa(lp4175
V26750400
p4176
aV24866386
p4177
aV23052184
p4178
aV19778086
p4179
aV19754195
p4180
aV16832612
p4181
aa(lp4182
V18304575
p4183
aV15843389
p4184
aV15533436
p4185
aa(lp4186
V12926869
p4187
aV11829656
p4188
aa(lp4189
V7575743
p4190
aa(lp4191
V8581338
p4192
aa(lp4193
V15550168
p4194
aV14985133
p4195
aa(lp4196
V24192194
p4197
aV8381487
p4198
aV1663791
p4199
aV25150
p4200
aa(lp4201
V25026734
p4202
aa(lp4203
V24374472
p4204
aV22960100
p4205
aV22245470
p4206
aV21755177
p4207
aV20086128
p4208
aV17368535
p4209
aV12064442
p4210
aV11249835
p4211
aV9639085
p4212
aV2893994
p4213
aa(lp4214
V24422962
p4215
aV14966369
p4216
aV7575743
p4217
aa(lp4218
V25383596
p4219
aV24128147
p4220
aV19754195
p4221
aV18424104
p4222
aa(lp4223
V26790296
p4224
aa(lp4225
V28025993
p4226
aV27373652
p4227
aV25559019
p4228
aV24748513
p4229
aV24631338
p4230
aV22705359
p4231
aa(lp4232
V28074397
p4233
aV24389482
p4234
aV12794753
p4235
aV8522958
p4236
aa(lp4237
g3527
aa(lp4238
V24057015
p4239
aa(lp4240
V23822726
p4241
aa(lp4242
V26808720
p4243
aa(lp4244
V169483
p4245
aa(lp4246
V8396352
p4247
aa(lp4248
V9163563
p4249
aa(lp4250
V25884733
p4251
aV22829459
p4252
aV22222313
p4253
aV18046705
p4254
aV11542659
p4255
aV5058018
p4256
aa(lp4257
V22402176
p4258
aV8261428
p4259
aa(lp4260
g3527
aa(lp4261
V8915350
p4262
aa(lp4263
V25667960
p4264
aV23327898
p4265
aV21835216
p4266
aV16100525
p4267
aV12594059
p4268
aV10600901
p4269
aV7544339
p4270
aV1135432
p4271
aV4357882
p4272
aV4342210
p4273
aV4395871
p4274
aa(lp4275
V903860
p4276
aa(lp4277
V27927103
p4278
aV25807367
p4279
aV23510449
p4280
aV16922496
p4281
aV11600493
p4282
aV3336036
p4283
aV6174829
p4284
aa(lp4285
V15614027
p4286
aV12955403
p4287
aV12793052
p4288
aV10748281
p4289
aV7531519
p4290
aV7682853
p4291
aa(lp4292
V19178773
p4293
aa(lp4294
V27608980
p4295
aV25127562
p4296
aV24103292
p4297
aV17059816
p4298
aV15340218
p4299
aV14558755
p4300
aV12419687
p4301
aV12033808
p4302
aa(lp4303
V22297755
p4304
aV21772233
p4305
aV11105561
p4306
aa(lp4307
V20712564
p4308
aV6152155
p4309
aV619150
p4310
aV14285
p4311
aa(lp4312
V28579553
p4313
aa(lp4314
V26609223
p4315
aV22370785
p4316
aV19031369
p4317
aV17176640
p4318
aa(lp4319
V12366390
p4320
aV11123968
p4321
aV7902249
p4322
aa(lp4323
V9341194
p4324
aV184945
p4325
aV166492
p4326
aV164024
p4327
aV4221121
p4328
aa(lp4329
V26463105
p4330
aV25333853
p4331
aV24652524
p4332
aV22019572
p4333
aV20387902
p4334
aV18433135
p4335
aV16226032
p4336
aV14561925
p4337
aV9873511
p4338
aa(lp4339
V19658127
p4340
aV17083235
p4341
aV16876935
p4342
aV15321729
p4343
aV1740014
p4344
aV4080805
p4345
aV6314168
p4346
aV27279
p4347
aV19116
p4348
aV13121071
p4349
aa(lp4350
V28138935
p4351
aV23774261
p4352
aV22953812
p4353
aa(lp4354
V23401173
p4355
aa(lp4356
V21978676
p4357
aa(lp4358
V7935818
p4359
aa(lp4360
V9648874
p4361
aV7531987
p4362
aV7838121
p4363
aV8388034
p4364
aa(lp4365
V19036824
p4366
aa(lp4367
V7981922
p4368
aV2376424
p4369
aV3568402
p4370
aa(lp4371
V22297755
p4372
aa(lp4373
V10889450
p4374
aV6147056
p4375
aV6084894
p4376
aV6138034
p4377
aV7274424
p4378
aV404183
p4379
aV65357
p4380
aV1125405
p4381
aV4788486
p4382
aV4934590
p4383
aV4933704
p4384
aa(lp4385
V22297755
p4386
aV21772233
p4387
aa(lp4388
V17059816
p4389
aa(lp4390
V11
p4391
aa(lp4392
V22297755
p4393
aV21772233
p4394
aa(lp4395
V19279034
p4396
aV12504779
p4397
aV7712028
p4398
aV8032639
p4399
aa(lp4400
V15884809
p4401
aa(lp4402
V9163563
p4403
aa(lp4404
V26898994
p4405
aV23859953
p4406
aV14695818
p4407
aV11807261
p4408
aV11418110
p4409
aV9451825
p4410
aV3880866
p4411
aa(lp4412
V16448186
p4413
aV12951445
p4414
aa(lp4415
V25454811
p4416
aV23760986
p4417
aa(lp4418
V24547933
p4419
aV24502504
p4420
aV1352821
p4421
aV7252796
p4422
aa(lp4423
V3736349
p4424
aV184376
p4425
aV167086
p4426
aa(lp4427
V18636311
p4428
aa(lp4429
V23335131
p4430
aa(lp4431
V26808720
p4432
aa(lp4433
V8224751
p4434
aa(lp4435
V25762161
p4436
aV25446467
p4437
aV23797659
p4438
aa(lp4439
V21978676
p4440
aV19189245
p4441
aV808236
p4442
aa(lp4443
V12105964
p4444
aa(lp4445
V22186340
p4446
aa(lp4447
V22038601
p4448
aV21898353
p4449
aV12444904
p4450
aa(lp4451
V23198284
p4452
aV21887446
p4453
aV21860877
p4454
aV9210655
p4455
aV8573068
p4456
aV7604611
p4457
aV8082808
p4458
aV8147903
p4459
aV8284942
p4460
aa(lp4461
V19402412
p4462
aa(lp4463
V25026733
p4464
aV20815702
p4465
aa(lp4466
V25968280
p4467
aV19423895
p4468
aV17552838
p4469
aV6690203
p4470
aV1109244
p4471
aa(lp4472
V23588095
p4473
aV21512441
p4474
aV15755640
p4475
aa(lp4476
V26458544
p4477
aV23925903
p4478
aV22258930
p4479
aV21353543
p4480
aV18279797
p4481
aa(lp4482
V19041706
p4483
aa(lp4484
V22548680
p4485
aa(lp4486
V12926869
p4487
aV11829656
p4488
aa(lp4489
V22734624
p4490
aV21802933
p4491
aV19243601
p4492
aV16199024
p4493
aa(lp4494
V25456078
p4495
aa(lp4496
V24422962
p4497
aV22516932
p4498
aa(lp4499
V26144696
p4500
aV24291391
p4501
aV22079762
p4502
aa(lp4503
V11204456
p4504
aV9501092
p4505
aV8961078
p4506
aV7881738
p4507
aV8189237
p4508
aV1321953
p4509
aV2064884
p4510
aV1706144
p4511
aa(lp4512
V24964291
p4513
aV1696009
p4514
aV7106519
p4515
aV7200002
p4516
aV6113765
p4517
aV220281
p4518
aV191594
p4519
aV935185
p4520
aa(lp4521
V26864460
p4522
aV3778900
p4523
aa(lp4524
V12175900
p4525
aV10991979
p4526
aV10373400
p4527
aV9454801
p4528
aa(lp4529
V22779770
p4530
aV19364813
p4531
aa(lp4532
V26151445
p4533
aa(lp4534
V27222062
p4535
aV26763544
p4536
aV25460589
p4537
aV24473904
p4538
aV21108118
p4539
aV18435486
p4540
aV12094296
p4541
aa(lp4542
V26692099
p4543
aV24422962
p4544
aV14966369
p4545
aV7575743
p4546
aa(lp4547
V9689423
p4548
aV7833830
p4549
aa(lp4550
V27345388
p4551
aV19250292
p4552
aV18711026
p4553
aV16410257
p4554
aV12144855
p4555
aV11124941
p4556
aV11121888
p4557
aa(lp4558
V27888993
p4559
aV23822726
p4560
aV11237835
p4561
aa(lp4562
V22370785
p4563
aV19031369
p4564
aa(lp4565
V24057015
p4566
aa(lp4567
V15126643
p4568
aV10051148
p4569
aV9920186
p4570
aa(lp4571
V27094155
p4572
aV26771282
p4573
aV26167113
p4574
aV25201708
p4575
aV24614724
p4576
aV23425625
p4577
aV18599216
p4578
aV2854951
p4579
aa(lp4580
V24157212
p4581
aa(lp4582
V25165783
p4583
aV20371707
p4584
aa(lp4585
V18499097
p4586
aa(lp4587
V17494865
p4588
aa(lp4589
V20211498
p4590
aV10199593
p4591
aa(lp4592
V27318275
p4593
aV23780497
p4594
aa(lp4595
V27456596
p4596
aV21735273
p4597
aV20136450
p4598
aV18052097
p4599
aV17524543
p4600
aV11829656
p4601
aV7575540
p4602
aa(lp4603
V7211391
p4604
aa(lp4605
V28219839
p4606
aV20809411
p4607
aV16259783
p4608
aa(lp4609
V10947971
p4610
aa(lp4611
V24671714
p4612
aV12444258
p4613
aV6274372
p4614
aV1242114
p4615
aV4367890
p4616
aa(lp4617
V28167028
p4618
aV22224438
p4619
aV12705897
p4620
aV2368825
p4621
aV14492162
p4622
aV13665511
p4623
aV13587303
p4624
aV14844430
p4625
aa(lp4626
V19673246
p4627
aV11878376
p4628
aa(lp4629
V24459788
p4630
aa(lp4631
V24057015
p4632
aa(lp4633
V10780918
p4634
aV8298573
p4635
aV8385253
p4636
aV7328589
p4637
aV7451502
p4638
aV209351
p4639
aV180004
p4640
aa(lp4641
V18838835
p4642
aa(lp4643
g3527
aa(lp4644
V26498523
p4645
aV20390370
p4646
aV16002718
p4647
aa(lp4648
V25077527
p4649
aV23764360
p4650
aa(lp4651
V23790887
p4652
aa(lp4653
V26970604
p4654
aV25066549
p4655
aV23799322
p4656
aV12538000
p4657
aV10834299
p4658
aV10728658
p4659
aa(lp4660
V23693120
p4661
aa(lp4662
V19428350
p4663
aV9658577
p4664
aa(lp4665
V24057015
p4666
aa(lp4667
V24057015
p4668
aa(lp4669
V12489822
p4670
aa(lp4671
V15646795
p4672
aa(lp4673
V7211391
p4674
aa(lp4675
V16122900
p4676
aV15925022
p4677
aV6301104
p4678
aV7330895
p4679
aV6102865
p4680
aa(lp4681
V16257161
p4682
aa(lp4683
V22390281
p4684
aV10818069
p4685
aV10760459
p4686
aV10330055
p4687
aV9313932
p4688
aV8572235
p4689
aV7825846
p4690
aV8442583
p4691
aV1693077
p4692
aa(lp4693
V3813538
p4694
aa(lp4695
V17586039
p4696
aa(lp4697
V28236453
p4698
aV26074677
p4699
aV21211951
p4700
aV19898803
p4701
aV15114504
p4702
aa(lp4703
V27716839
p4704
aV26463105
p4705
aV26239154
p4706
aV23973655
p4707
aV23640758
p4708
aV21457761
p4709
aV21104607
p4710
aa(lp4711
V16466642
p4712
aV6746150
p4713
aa(lp4714
V22007023
p4715
aV17177875
p4716
aa(lp4717
V20564693
p4718
aa(lp4719
V22775441
p4720
aV20183281
p4721
aa(lp4722
V15679315
p4723
aa(lp4724
V1911878
p4725
aa(lp4726
V21772233
p4727
aa(lp4728
V27618885
p4729
aV26915998
p4730
aV19222115
p4731
aV17496167
p4732
aV16337130
p4733
aa(lp4734
V17164176
p4735
aa(lp4736
V20045968
p4737
aa(lp4738
V27138708
p4739
aV21772233
p4740
aa(lp4741
V22153233
p4742
aa(lp4743
V28479197
p4744
aV25637445
p4745
aV24972733
p4746
aV23600395
p4747
aV22210036
p4748
aV21567414
p4749
aV21353543
p4750
aV12705395
p4751
aa(lp4752
V20691779
p4753
aa(lp4754
V28232982
p4755
aV24547933
p4756
aa(lp4757
V849339
p4758
aa(lp4759
V26571659
p4760
aV25754244
p4761
aV23656880
p4762
aV21054437
p4763
aa(lp4764
V12366390
p4765
aV11123968
p4766
aV7902249
p4767
aa(lp4768
V19071206
p4769
aV15522132
p4770
aa(lp4771
V24652948
p4772
aV15840020
p4773
aV15792819
p4774
aV14727917
p4775
aV12398932
p4776
aV10807674
p4777
aV2308225
p4778
aV3503097
p4779
aV426051
p4780
aa(lp4781
V25026733
p4782
aa(lp4783
V19727511
p4784
aa(lp4785
V27719933
p4786
aV20558255
p4787
aV18274639
p4788
aV11829656
p4789
aa(lp4790
V26363880
p4791
aa(lp4792
V25100751
p4793
aV15537821
p4794
aa(lp4795
V28579553
p4796
aa(lp4797
V24832624
p4798
aV11123971
p4799
aV9453570
p4800
aV7858450
p4801
aV1580362
p4802
aV1346356
p4803
aV6995040
p4804
aV824023
p4805
aa(lp4806
V22342441
p4807
aV11254905
p4808
aV10428374
p4809
aV9770008
p4810
aV9453467
p4811
aV9346331
p4812
aV9105698
p4813
aV9050015
p4814
aV7682131
p4815
aV1527785
p4816
aV6319701
p4817
aa(lp4818
V24853613
p4819
aa(lp4820
V20936405
p4821
aa(lp4822
V18814209
p4823
aV9435523
p4824
aa(lp4825
V8889476
p4826
aa(lp4827
V23637738
p4828
aV22750277
p4829
aV16801925
p4830
aV11500170
p4831
aV2861855
p4832
aa(lp4833
V28579553
p4834
aV16142632
p4835
aa(lp4836
V27436766
p4837
aV25821895
p4838
aV25819782
p4839
aV23599008
p4840
aV23377856
p4841
aa(lp4842
V25728636
p4843
aa(lp4844
V22138973
p4845
aV18931133
p4846
aV16880931
p4847
aV11487515
p4848
aa(lp4849
V21069160
p4850
aV20112298
p4851
aV17666791
p4852
aV16595912
p4853
aV16569043
p4854
aV15378407
p4855
aV11330467
p4856
aa(lp4857
V26805810
p4858
aV23149227
p4859
aV21191767
p4860
aV18958424
p4861
aV17611931
p4862
aa(lp4863
V13584719
p4864
aa(lp4865
V22393706
p4866
aV16959138
p4867
aV16047780
p4868
aV6502490
p4869
aa(lp4870
V26483135
p4871
aa(lp4872
V27398818
p4873
aV24320934
p4874
aV24002245
p4875
aV23994084
p4876
aV23670630
p4877
aV22050541
p4878
aV21674788
p4879
aV21412696
p4880
aV12649300
p4881
aV11000020
p4882
aV9029489
p4883
aa(lp4884
V12
p4885
aa(lp4886
V27025382
p4887
aV16047780
p4888
aa(lp4889
V11301870
p4890
aa(lp4891
V24916321
p4892
aV9175638
p4893
aV2545976
p4894
aV5428499
p4895
aV13619719
p4896
aa(lp4897
V24057015
p4898
aa(lp4899
V734216
p4900
aa(lp4901
V10464338
p4902
aa(lp4903
V11829656
p4904
aa(lp4905
V9685910
p4906
aV7945189
p4907
aa(lp4908
V17494865
p4909
aa(lp4910
V20817831
p4911
aa(lp4912
V24132147
p4913
aa(lp4914
V19036824
p4915
aV18408869
p4916
aa(lp4917
V24057015
p4918
aa(lp4919
V22683871
p4920
aV20079881
p4921
aV19194838
p4922
aa(lp4923
V19472295
p4924
aa(lp4925
V26584913
p4926
aV24934680
p4927
aV23650961
p4928
aV23160683
p4929
aa(lp4930
V23214479
p4931
aV16047780
p4932
aa(lp4933
V26864460
p4934
aa(lp4935
V22263427
p4936
aV22154495
p4937
aV12669975
p4938
aV11697718
p4939
aV9612571
p4940
aV14193096
p4941
aa(lp4942
V22189441
p4943
aV19562334
p4944
aa(lp4945
V17225453
p4946
aV11842336
p4947
aa(lp4948
V28096658
p4949
aa(lp4950
V25026733
p4951
aV24916321
p4952
aV20815702
p4953
aV17826984
p4954
aa(lp4955
V10416830
p4956
aa(lp4957
V24057015
p4958
aa(lp4959
V27378624
p4960
aV12865966
p4961
aa(lp4962
V11425591
p4963
aV10714491
p4964
aa(lp4965
V23597448
p4966
aa(lp4967
V21375526
p4968
aV18801486
p4969
aV18484521
p4970
aV16171798
p4971
aa(lp4972
V27287369
p4973
aa(lp4974
V28008757
p4975
aa(lp4976
V21693435
p4977
aV16457017
p4978
aa(lp4979
V21468913
p4980
aa(lp4981
V8582256
p4982
aV4766549
p4983
aV4667356
p4984
aa(lp4985
V25381951
p4986
aV24337826
p4987
aV21282739
p4988
aV20506077
p4989
aV20304105
p4990
aV19430528
p4991
aV19135518
p4992
aa(lp4993
V24057015
p4994
aa(lp4995
V25050410
p4996
aV21175183
p4997
aV15378897
p4998
aV15378412
p4999
aV15308234
p5000
aV12552883
p5001
aV2718208
p5002
aV4794877
p5003
aa(lp5004
V17369257
p5005
aV17181939
p5006
aV16934672
p5007
aV11054430
p5008
aV9450756
p5009
aV9065416
p5010
aV8702599
p5011
aV2384757
p5012
aV5129321
p5013
aV5355341
p5014
aV5661802
p5015
aa(lp5016
V23743282
p5017
aa(lp5018
V28284564
p5019
aa(lp5020
V21353507
p5021
aa(lp5022
V24789995
p5023
aV11558561
p5024
aa(lp5025
V24440295
p5026
aa(lp5027
V21353507
p5028
aa(lp5029
V21353507
p5030
aa(lp5031
V28040561
p5032
aV26653189
p5033
aV14640585
p5034
aV9669733
p5035
aV1599637
p5036
aV2936972
p5037
aV6208943
p5038
aV6096748
p5039
aa(lp5040
V19000749
p5041
aV16445708
p5042
aa(lp5043
V26306655
p5044
aa(lp5045
V25811625
p5046
aV25483920
p5047
aV25432463
p5048
aV23387174
p5049
aV21147093
p5050
aV17399896
p5051
aV16254887
p5052
aV15655515
p5053
aV12204553
p5054
aV10737547
p5055
aa(lp5056
V20648495
p5057
aV19154773
p5058
aV17566059
p5059
aV696839
p5060
aV21242
p5061
aV4679811
p5062
aV14130054
p5063
aa(lp5064
V25532488
p5065
aV19505989
p5066
aV18647641
p5067
aV16244858
p5068
aV15963681
p5069
aV12505377
p5070
aV6096589
p5071
aV6657559
p5072
aa(lp5073
V28164729
p5074
aV27866934
p5075
aV25647326
p5076
aV20540163
p5077
aV20082250
p5078
aV19642688
p5079
aV17229575
p5080
aV11518028
p5081
aa(lp5082
V22350215
p5083
aV20506077
p5084
aa(lp5085
V23495198
p5086
aa(lp5087
V24369884
p5088
aV11345693
p5089
aa(lp5090
V15577225
p5091
aV6725461
p5092
aV1138504
p5093
aa(lp5094
V25811625
p5095
aV25483920
p5096
aV25432463
p5097
aV23387174
p5098
aV21147093
p5099
aV17399896
p5100
aV16254887
p5101
aV15655515
p5102
aV12204553
p5103
aV10737547
p5104
aa(lp5105
V9653753
p5106
aa(lp5107
V7995950
p5108
aa(lp5109
V27210044
p5110
aV25242592
p5111
aV23339991
p5112
aV19428350
p5113
aV14739077
p5114
aa(lp5115
V26609223
p5116
aa(lp5117
V28286125
p5118
aV22988451
p5119
aV22136374
p5120
aV21425119
p5121
aV20689985
p5122
aV17956695
p5123
aV15638995
p5124
aV15113751
p5125
aV11384199
p5126
aV9425011
p5127
aV2572177
p5128
aa(lp5129
V17616126
p5130
aV8798403
p5131
aa(lp5132
V27329304
p5133
aV27121241
p5134
aV26482008
p5135
aV23962801
p5136
aV23672038
p5137
aV23391590
p5138
aV19010411
p5139
aV17139192
p5140
aa(lp5141
V26242804
p5142
aV18215772
p5143
aV17919290
p5144
aV10813368
p5145
aV8882601
p5146
aV7606353
p5147
aa(lp5148
V26692099
p5149
aV24422962
p5150
aV14966369
p5151
aV7575743
p5152
aa(lp5153
V26551598
p5154
aV24388526
p5155
aV23428400
p5156
aV23116708
p5157
aV20007374
p5158
aa(lp5159
V21121245
p5160
aV19188055
p5161
aV18838107
p5162
aV18449507
p5163
aV11767075
p5164
aa(lp5165
V22516932
p5166
aa(lp5167
V25100751
p5168
aV15537821
p5169
aV3981423
p5170
aa(lp5171
V2338614
p5172
aa(lp5173
V26592472
p5174
aa(lp5175
V27699873
p5176
aV27040632
p5177
aV16703263
p5178
aV14988006
p5179
aV2173490
p5180
aV1977972
p5181
aV6484281
p5182
aa(lp5183
V22877869
p5184
aV17170736
p5185
aa(lp5186
V18295200
p5187
aV17681441
p5188
aa(lp5189
V27912907
p5190
aV27447684
p5191
aV26383017
p5192
aV25592708
p5193
aV25300343
p5194
aV24128147
p5195
aV23624606
p5196
aV22079762
p5197
aV20600612
p5198
aV11458445
p5199
aa(lp5200
V24986678
p5201
aa(lp5202
V23689820
p5203
aV12325039
p5204
aa(lp5205
V22929836
p5206
aV16298728
p5207
aV15347796
p5208
aV12450131
p5209
aV11944070
p5210
aV11673894
p5211
aV10559842
p5212
aV10468208
p5213
aV10216238
p5214
aV9384253
p5215
aa(lp5216
V26607068
p5217
aa(lp5218
V24057015
p5219
aa(lp5220
V23727470
p5221
aV23517173
p5222
aV23435946
p5223
aV21740104
p5224
aa(lp5225
V27782100
p5226
aV26783178
p5227
aV25944088
p5228
aV25283264
p5229
aV22785226
p5230
aV22037355
p5231
aV19298870
p5232
aV15997145
p5233
aV10941599
p5234
aa(lp5235
V25647326
p5236
aV23046467
p5237
aV20540163
p5238
aa(lp5239
V25098650
p5240
aa(lp5241
V16139284
p5242
aa(lp5243
V3365279
p5244
aa(lp5245
V26674157
p5246
aa(lp5247
V24996142
p5248
aa(lp5249
V27856302
p5250
aV27618982
p5251
aV25895343
p5252
aV23842292
p5253
aV20354804
p5254
aV19039370
p5255
aV18591220
p5256
aV17562491
p5257
aV16093250
p5258
aV15766569
p5259
aa(lp5260
V10737225
p5261
aa(lp5262
V25300343
p5263
aa(lp5264
V27318275
p5265
aa(lp5266
V27070563
p5267
aV21129455
p5268
aV17827696
p5269
aV15374631
p5270
aa(lp5271
V1692279
p5272
aa(lp5273
V21161457
p5274
aV20482831
p5275
aV18781634
p5276
aV8156654
p5277
aV3015904
p5278
aV6503893
p5279
aV13115449
p5280
aa(lp5281
V22564442
p5282
aV18177746
p5283
aV17075034
p5284
aV12818694
p5285
aV11152733
p5286
aV3195124
p5287
aa(lp5288
V26265982
p5289
aV24300120
p5290
aV22693074
p5291
aV16254887
p5292
aV15655515
p5293
aa(lp5294
V20603826
p5295
aV7542337
p5296
aV7697768
p5297
aV6373456
p5298
aa(lp5299
V27475233
p5300
aV24770453
p5301
aV23744122
p5302
aV22684214
p5303
aV22111975
p5304
aV19885675
p5305
aV19534461
p5306
aV10704805
p5307
aV10704804
p5308
aa(lp5309
V23807809
p5310
aV23796750
p5311
aV23731018
p5312
aV22959858
p5313
aV21839593
p5314
aV21493169
p5315
aV15161201
p5316
aV11829656
p5317
aV10639004
p5318
aV9868177
p5319
aV8396352
p5320
aa(lp5321
V26915982
p5322
aV26086107
p5323
aV24815149
p5324
aV23054007
p5325
aV22310172
p5326
aV21787710
p5327
aV20546771
p5328
aV14534150
p5329
aV10082264
p5330
aV10082263
p5331
aa(lp5332
V26714752
p5333
aV23698769
p5334
aV22107725
p5335
aa(lp5336
V25625351
p5337
aa(lp5338
V19856917
p5339
aa(lp5340
V18825536
p5341
aa(lp5342
V8032645
p5343
aV8298797
p5344
aV1659504
p5345
aV6896527
p5346
aV7317845
p5347
aa(lp5348
V15884809
p5349
aa(lp5350
V15902420
p5351
aV6139110
p5352
aa(lp5353
V16168547
p5354
aa(lp5355
V24057015
p5356
aa(lp5357
V28233198
p5358
aV23612925
p5359
aV12529986
p5360
aV2100221
p5361
aa(lp5362
V8532163
p5363
aa(lp5364
V25889071
p5365
aa(lp5366
V12604171
p5367
aa(lp5368
V23442624
p5369
aV14640585
p5370
aa(lp5371
V1322137
p5372
aa(lp5373
V24272172
p5374
aV16585199
p5375
aV7476346
p5376
aa(lp5377
V26385228
p5378
aV25427286
p5379
aV24972157
p5380
aV24285403
p5381
aV24026955
p5382
aV23274416
p5383
aV20637840
p5384
aV15448739
p5385
aV14615292
p5386
aV8660677
p5387
aV7519665
p5388
aa(lp5389
V25369132
p5390
aV24369884
p5391
aV11345693
p5392
aa(lp5393
V3130838
p5394
aa(lp5395
V23011570
p5396
aV15577225
p5397
aV15501005
p5398
aV10794824
p5399
aV1553624
p5400
aV3674
p5401
aa(lp5402
V18506213
p5403
aV16819230
p5404
aa(lp5405
V16785189
p5406
aV7532135
p5407
aV4772402
p5408
aV5033808
p5409
aV4645574
p5410
aV5008542
p5411
aV5579667
p5412
aV4099707
p5413
aV5477529
p5414
aV5610769
p5415
aa(lp5416
V8763040
p5417
aa(lp5418
V12717004
p5419
aa(lp5420
V27517803
p5421
aV27317634
p5422
aV26329583
p5423
aV25283264
p5424
aV24296088
p5425
aV19562334
p5426
aV19353543
p5427
aV17375294
p5428
aV10653049
p5429
aV2624526
p5430
aa(lp5431
V26205049
p5432
aV24789098
p5433
aV23837974
p5434
aV23246826
p5435
aV22809034
p5436
aV17681441
p5437
aa(lp5438
V12078477
p5439
aV11792044
p5440
aV11697691
p5441
aV9182025
p5442
aV7839858
p5443
aV18151005
p5444
aa(lp5445
V19773442
p5446
aV16288082
p5447
aa(lp5448
V19164779
p5449
aV15085069
p5450
aV2873047
p5451
aV6260294
p5452
aa(lp5453
V26571659
p5454
aV26209812
p5455
aV25754244
p5456
aV23773784
p5457
aV23656880
p5458
aV21054437
p5459
aa(lp5460
V17152358
p5461
aa(lp5462
V23292330
p5463
aa(lp5464
V22959858
p5465
aV21493169
p5466
aV11829656
p5467
aa(lp5468
V12
p5469
aa(lp5470
V18392571
p5471
aa(lp5472
V24961103
p5473
aV23833934
p5474
aa(lp5475
V22297755
p5476
aa(lp5477
V26938526
p5478
aa(lp5479
V4081309
p5480
aa(lp5481
V25942679
p5482
aV19041706
p5483
aV17446019
p5484
aV16475343
p5485
aa(lp5486
V4636473
p5487
aV5689799
p5488
aV5859631
p5489
aa(lp5490
V17202721
p5491
aa(lp5492
V14471956
p5493
aa(lp5494
V9659374
p5495
aV2866041
p5496
aa(lp5497
V25365295
p5498
aV22931510
p5499
aV19262997
p5500
aV18172887
p5501
aV17623887
p5502
aV16906521
p5503
aV16640830
p5504
aV16351512
p5505
aV10024610
p5506
aV8228529
p5507
aa(lp5508
V25165783
p5509
aV24988985
p5510
aV24114663
p5511
aV23026832
p5512
aV19000749
p5513
aV16445708
p5514
aa(lp5515
V9711941
p5516
aV7529613
p5517
aa(lp5518
V12532826
p5519
aa(lp5520
V6972421
p5521
aa(lp5522
V25660272
p5523
aV22814889
p5524
aV20637581
p5525
aV15133259
p5526
aa(lp5527
V20362654
p5528
aa(lp5529
V26171782
p5530
aa(lp5531
V20354348
p5532
aa(lp5533
V27233507
p5534
aV25919278
p5535
aV23523467
p5536
aV20498335
p5537
aV16860591
p5538
aa(lp5539
V26585972
p5540
aa(lp5541
V12105964
p5542
aV2434278
p5543
aa(lp5544
V27150484
p5545
aa(lp5546
V27083809
p5547
aV25971153
p5548
aV25690093
p5549
aV20834144
p5550
aV16476564
p5551
aV7929167
p5552
aa(lp5553
V19931857
p5554
aa(lp5555
V27400480
p5556
aV23724676
p5557
aV9853407
p5558
aa(lp5559
V24611620
p5560
aV20420450
p5561
aV9875846
p5562
aa(lp5563
V23200849
p5564
aV15550691
p5565
aV6106950
p5566
aV4898722
p5567
aa(lp5568
V28236453
p5569
aV27376957
p5570
aa(lp5571
V27784308
p5572
aa(lp5573
V21839074
p5574
aa(lp5575
V24321516
p5576
aV1683239
p5577
aV6738826
p5578
aa(lp5579
V28230758
p5580
aV26141435
p5581
aV24859013
p5582
aV20424383
p5583
aa(lp5584
V20136123
p5585
aV20091263
p5586
aV19688610
p5587
aV19551218
p5588
aV17689183
p5589
aV16686177
p5590
aV15809164
p5591
aV15515929
p5592
aV12619272
p5593
aV11783638
p5594
aV9535535
p5595
aa(lp5596
V24012643
p5597
aa(lp5598
V17176640
p5599
aa(lp5600
V11369683
p5601
aa(lp5602
V28131837
p5603
aV17460388
p5604
aa(lp5605
V23711917
p5606
aV12460549
p5607
aa(lp5608
V21397503
p5609
aa(lp5610
V16047780
p5611
aV11878376
p5612
aa(lp5613
V9163563
p5614
aV10892164
p5615
aV4180304
p5616
aa(lp5617
V16684111
p5618
aa(lp5619
V23254377
p5620
aV22688907
p5621
aV20738215
p5622
aV20369228
p5623
aV16424868
p5624
aV15245964
p5625
aa(lp5626
V25807367
p5627
aa(lp5628
V18500810
p5629
aa(lp5630
V15884809
p5631
aa(lp5632
V7837312
p5633
aa(lp5634
V26350415
p5635
aa(lp5636
V26808720
p5637
aV26381688
p5638
aV25891766
p5639
aV20350876
p5640
aV10870042
p5641
aV9875846
p5642
aV8858838
p5643
aV3536906
p5644
aa(lp5645
V11767075
p5646
aa(lp5647
V24057015
p5648
aa(lp5649
V2982067
p5650
aa(lp5651
V23807809
p5652
aV23796750
p5653
aV23731018
p5654
aV22959858
p5655
aV21493169
p5656
aV15161201
p5657
aV11829656
p5658
aV9868177
p5659
aV8396352
p5660
aa(lp5661
V26253495
p5662
aV26151445
p5663
aV19178773
p5664
aV18323210
p5665
aV12058328
p5666
aa(lp5667
V24057015
p5668
aa(lp5669
V7575743
p5670
aa(lp5671
V15884809
p5672
aa(lp5673
V18274639
p5674
aa(lp5675
V27847207
p5676
aa(lp5677
V24503502
p5678
aV19562334
p5679
aV17375294
p5680
aV6935624
p5681
aa(lp5682
V16611861
p5683
aa(lp5684
V26692099
p5685
aV24422962
p5686
aV14966369
p5687
aV7575743
p5688
aa(lp5689
V23995057
p5690
aV23079939
p5691
aV22177846
p5692
aa(lp5693
V12
p5694
aa(lp5695
V26692099
p5696
aV24800851
p5697
aV24685587
p5698
aV20699592
p5699
aa(lp5700
V16557325
p5701
aV15926791
p5702
aa(lp5703
V8687403
p5704
aa(lp5705
V22328722
p5706
aV25363757
p5707
aV18826584
p5708
aV17446019
p5709
aV15991575
p5710
aa(lp5711
V27038396
p5712
aV17823872
p5713
aa(lp5714
V15104244
p5715
aa(lp5716
V20848677
p5717
aa(lp5718
V16373275
p5719
aa(lp5720
V12105964
p5721
aV2434278
p5722
aa(lp5723
V23146774
p5724
aV20440695
p5725
aV15161201
p5726
aa(lp5727
V22082098
p5728
aV20821827
p5729
aV20555411
p5730
aV17329837
p5731
aV16688481
p5732
aV12094296
p5733
aV11330467
p5734
aa(lp5735
V12701810
p5736
aa(lp5737
V28587222
p5738
aV23107698
p5739
aV18958424
p5740
aa(lp5741
V22917445
p5742
aV19239015
p5743
aV11446747
p5744
aa(lp5745
V26567597
p5746
aa(lp5747
V23535395
p5748
aa(lp5749
V12926869
p5750
aV11829656
p5751
aa(lp5752
V17329397
p5753
aV3134009
p5754
aV3911949
p5755
aV6140003
p5756
aV6128343
p5757
aa(lp5758
V23467002
p5759
aa(lp5760
g3527
aa(lp5761
V15240183
p5762
aa(lp5763
V28579553
p5764
aV26306655
p5765
aV26083119
p5766
aV22771369
p5767
aa(lp5768
V28236453
p5769
aV26074677
p5770
aV22253110
p5771
aV21211951
p5772
aV19898803
p5773
aV19784580
p5774
aV15114504
p5775
aa(lp5776
V17764065
p5777
aa(lp5778
V24057015
p5779
aa(lp5780
V22777789
p5781
aa(lp5782
V26634867
p5783
aV25496183
p5784
aV24909081
p5785
aV24522418
p5786
aV19609650
p5787
aV15241934
p5788
aV14561730
p5789
aa(lp5790
V3981423
p5791
aa(lp5792
V9163563
p5793
aV10892164
p5794
aV4180304
p5795
aa(lp5796
V25498605
p5797
aV19016069
p5798
aV18639950
p5799
aV18579353
p5800
aV17568428
p5801
aV17045467
p5802
aV16865342
p5803
aV15620526
p5804
aV15564673
p5805
aV10606779
p5806
aV10528089
p5807
aa(lp5808
V22489648
p5809
aV22370785
p5810
aa(lp5811
V9871681
p5812
aa(lp5813
V25053090
p5814
aV7461515
p5815
aa(lp5816
V9340191
p5817
aV3264544
p5818
aV43140
p5819
aa(lp5820
V27251500
p5821
aV23174526
p5822
aV22186340
p5823
aV15755640
p5824
aa(lp5825
V25762161
p5826
aV25446467
p5827
aV23797659
p5828
aa(lp5829
V11
p5830
aa(lp5831
V27748832
p5832
aV27191852
p5833
aV26519030
p5834
aV26162829
p5835
aV25864468
p5836
aV25639684
p5837
aV25632025
p5838
aV25302704
p5839
aV24971375
p5840
aV22096201
p5841
aV10897806
p5842
aa(lp5843
V11425591
p5844
aV10714491
p5845
aa(lp5846
V15125136
p5847
aV12770513
p5848
aV11755167
p5849
aa(lp5850
V26197519
p5851
aV23052184
p5852
aV19778086
p5853
aV18825536
p5854
aV16997339
p5855
aV16228289
p5856
aa(lp5857
V23822726
p5858
aa(lp5859
V22489648
p5860
aa(lp5861
V25388083
p5862
aV23027684
p5863
aV22489648
p5864
aa(lp5865
V25469855
p5866
aV19898803
p5867
aa(lp5868
V22078955
p5869
aa(lp5870
V26592472
p5871
aa(lp5872
V27618982
p5873
aV8048548
p5874
aV8279574
p5875
aV3620509
p5876
aa(lp5877
V16273545
p5878
aa(lp5879
V23744122
p5880
aa(lp5881
V25617794
p5882
aa(lp5883
V27525509
p5884
aV25631463
p5885
aV22370785
p5886
aV19031369
p5887
aV14572883
p5888
aa(lp5889
V22613214
p5890
aV21658309
p5891
aV17698059
p5892
aV16707845
p5893
aa(lp5894
V12836247
p5895
aV10748273
p5896
aV10067854
p5897
aV9371687
p5898
aV733892
p5899
aV625583
p5900
aV4398737
p5901
aa(lp5902
V22819447
p5903
aa(lp5904
V20155333
p5905
aa(lp5906
V437134
p5907
aV13406
p5908
aV4308837
p5909
aa(lp5910
V23436059
p5911
aa(lp5912
V27470339
p5913
aV26902402
p5914
aV26707810
p5915
aV26385725
p5916
aV24662082
p5917
aV23624753
p5918
aV23246319
p5919
aV16780160
p5920
aV12094296
p5921
aV10901280
p5922
aV7575743
p5923
aa(lp5924
V20387902
p5925
aV17113067
p5926
aV15255946
p5927
aV10919371
p5928
aV1782763
p5929
aV2994646
p5930
aa(lp5931
V15635246
p5932
aa(lp5933
V22210027
p5934
aa(lp5935
V26943727
p5936
aV18709655
p5937
aV11509922
p5938
aa(lp5939
V27025382
p5940
aa(lp5941
V2898155
p5942
aa(lp5943
V25165783
p5944
aV24988985
p5945
aV24114663
p5946
aV23026832
p5947
aV19000749
p5948
aV16445708
p5949
aa(lp5950
V10809284
p5951
aa(lp5952
V8798553
p5953
aV8301573
p5954
aa(lp5955
V28424169
p5956
aV22216328
p5957
aV1696009
p5958
aa(lp5959
V23146774
p5960
aV20440695
p5961
aV15161201
p5962
aa(lp5963
V25165783
p5964
aV24988985
p5965
aV24114663
p5966
aV23026832
p5967
aV19000749
p5968
aV16445708
p5969
aa(lp5970
V21547669
p5971
aa(lp5972
V19960421
p5973
aa(lp5974
V28335395
p5975
aV20041801
p5976
aa(lp5977
V9144512
p5978
aa(lp5979
V12413852
p5980
aa(lp5981
V25026715
p5982
aV24685589
p5983
aV18825536
p5984
aV10714491
p5985
aa(lp5986
V27191852
p5987
aV27010893
p5988
aV26963622
p5989
aa(lp5990
V26301513
p5991
aV25821895
p5992
aV9871681
p5993
aa(lp5994
V17001660
p5995
aV10640318
p5996
aa(lp5997
V16368162
p5998
aV12226527
p5999
aa(lp6000
V9479470
p6001
aa(lp6002
V15882882
p6003
aa(lp6004
V26256187
p6005
aV26045541
p6006
aV25971153
p6007
aV25458285
p6008
aV24015700
p6009
aV20573364
p6010
aV18337035
p6011
aV7929167
p6012
aV2264820
p6013
aV5693499
p6014
aa(lp6015
V22120501
p6016
aV10543912
p6017
aa(lp6018
V28335395
p6019
aa(lp6020
V27470339
p6021
aV26902402
p6022
aV26707810
p6023
aV26385725
p6024
aV24662082
p6025
aV23624753
p6026
aV23246319
p6027
aV16780160
p6028
aV12094296
p6029
aV10901280
p6030
aV7575743
p6031
aa(lp6032
V11168991
p6033
aa(lp6034
V10418324
p6035
aa(lp6036
V26412430
p6037
aV21959301
p6038
aV18448292
p6039
aa(lp6040
V11204456
p6041
aV7670652
p6042
aV8214123
p6043
aV2543246
p6044
aV3353894
p6045
aV3353893
p6046
aa(lp6047
V28335395
p6048
aV20041801
p6049
aa(lp6050
V28479197
p6051
aV26081168
p6052
aV22465834
p6053
aV22382409
p6054
aV21544733
p6055
aV19886607
p6056
aV18958424
p6057
aa(lp6058
V25920227
p6059
aa(lp6060
V6090246
p6061
aa(lp6062
V23822726
p6063
aV23434856
p6064
aV22829139
p6065
aV22476587
p6066
aV21191767
p6067
aV18164321
p6068
aV15040079
p6069
aV11421463
p6070
aa(lp6071
V25871313
p6072
aV25744406
p6073
aV25476834
p6074
aV24039842
p6075
aV22749359
p6076
aV22535762
p6077
aV22178178
p6078
aV18619979
p6079
aV16635558
p6080
aV16517190
p6081
aV12489822
p6082
aa(lp6083
V3627954
p6084
aa(lp6085
V18544347
p6086
aa(lp6087
V18295200
p6088
aa(lp6089
V28233198
p6090
aa(lp6091
V22465834
p6092
aV21372424
p6093
aV21212525
p6094
aV17112694
p6095
aa(lp6096
V22213812
p6097
aV16759827
p6098
aV16316857
p6099
aV12210050
p6100
aV11958791
p6101
aV843950
p6102
aV4316702
p6103
aa(lp6104
V16643064
p6105
aa(lp6106
V25727730
p6107
aV25314640
p6108
aV24500710
p6109
aV24406683
p6110
aV17964425
p6111
aV15855057
p6112
aV10075667
p6113
aV9409151
p6114
aa(lp6115
V23807809
p6116
aV23796750
p6117
aV23731018
p6118
aV22959858
p6119
aV21493169
p6120
aV15161201
p6121
aV11829656
p6122
aV9868177
p6123
aV8396352
p6124
aa(lp6125
V9023182
p6126
aa(lp6127
V23464732
p6128
aa(lp6129
V16200924
p6130
aV11567792
p6131
aV6814
p6132
aa(lp6133
V24057015
p6134
aV22216328
p6135
aa(lp6136
V21765041
p6137
aV20690733
p6138
aV9754939
p6139
aV9226408
p6140
aa(lp6141
V19926219
p6142
aV14215549
p6143
aV13449837
p6144
aa(lp6145
V27784308
p6146
aa(lp6147
V10644043
p6148
aV10079014
p6149
aa(lp6150
V24041741
p6151
aV23566521
p6152
aV22618373
p6153
aV19041706
p6154
aV16819230
p6155
aV10563895
p6156
aa(lp6157
V10208303
p6158
aV7263107
p6159
aV7030974
p6160
aV7014478
p6161
aa(lp6162
V18556200
p6163
aV16399627
p6164
aa(lp6165
V23920109
p6166
aV23657985
p6167
aV19772666
p6168
aV16842546
p6169
aV14741406
p6170
aa(lp6171
V15778119
p6172
aV11755166
p6173
aa(lp6174
V26197519
p6175
aV25924535
p6176
aV23052184
p6177
aV19778086
p6178
aV18825536
p6179
aV17080260
p6180
aV16997339
p6181
aV16228289
p6182
aa(lp6183
V17202721
p6184
aa(lp6185
V7755573
p6186
aa(lp6187
V25753845
p6188
aV9134217
p6189
aa(lp6190
V14975453
p6191
aV12653565
p6192
aV1346138
p6193
aV60141
p6194
aa(lp6195
V22879864
p6196
aa(lp6197
V19471879
p6198
aa(lp6199
V24103517
p6200
aV14664509
p6201
aV12005062
p6202
aV6396651
p6203
aa(lp6204
V20192236
p6205
aa(lp6206
V8642826
p6207
aa(lp6208
V12094302
p6209
aa(lp6210
V28479197
p6211
aV27250501
p6212
aV26081168
p6213
aV23370353
p6214
aV22465834
p6215
aV22382409
p6216
aV21544733
p6217
aV19886607
p6218
aV18958424
p6219
aa(lp6220
V18702946
p6221
aa(lp6222
V18524447
p6223
aa(lp6224
V18962653
p6225
aa(lp6226
V26959359
p6227
aV26247205
p6228
aV24997848
p6229
aV23564460
p6230
aV19077688
p6231
aV18634431
p6232
aV9354813
p6233
aa(lp6234
V16449359
p6235
aV7734655
p6236
aa(lp6237
V28335395
p6238
aV25942679
p6239
aV21409723
p6240
aV21372422
p6241
aV19178773
p6242
aa(lp6243
V25068578
p6244
aa(lp6245
V26412430
p6246
aa(lp6247
V23693120
p6248
aa(lp6249
V27287369
p6250
aV26460562
p6251
aV26420344
p6252
aV24094552
p6253
aV23576355
p6254
aV22960210
p6255
aV21528638
p6256
aV20398743
p6257
aV15693640
p6258
aV12116822
p6259
aV1835291
p6260
aa(lp6261
V8915585
p6262
aa(lp6263
V17666802
p6264
aa(lp6265
V26681365
p6266
aV24986185
p6267
aV24020737
p6268
aV23384075
p6269
aV21043515
p6270
aV20575545
p6271
aV19604139
p6272
aV16676982
p6273
aa(lp6274
V25165783
p6275
aV24915829
p6276
aV23263808
p6277
aa(lp6278
V12926869
p6279
aV11829656
p6280
aa(lp6281
V11356044
p6282
aV7505581
p6283
aa(lp6284
V26205049
p6285
aV25889071
p6286
aV21143132
p6287
aV18295200
p6288
aV17681441
p6289
aV9342945
p6290
aa(lp6291
V16139284
p6292
aa(lp6293
V25819782
p6294
aV9871681
p6295
aa(lp6296
V24057015
p6297
aa(lp6298
V1883605
p6299
aa(lp6300
V19164779
p6301
aV2873047
p6302
aV6260294
p6303
aa(lp6304
V12213604
p6305
aa(lp6306
V23796750
p6307
aV22959858
p6308
aV21493169
p6309
aV11829656
p6310
aa(lp6311
V16139284
p6312
aa(lp6313
V16139284
p6314
aa(lp6315
V217685
p6316
aa(lp6317
V10604927
p6318
aa(lp6319
V5723419
p6320
aV14852182
p6321
aa(lp6322
V15572519
p6323
aV3436363
p6324
aa(lp6325
V23442790
p6326
aV8886345
p6327
aV2452749
p6328
aa(lp6329
V22297755
p6330
aV21772233
p6331
aa(lp6332
V3338430
p6333
aa(lp6334
V27340670
p6335
aV12203043
p6336
aa(lp6337
V24665870
p6338
aV21191767
p6339
aV12865966
p6340
aV11458445
p6341
aa(lp6342
V23356141
p6343
aV9176264
p6344
aa(lp6345
V25797286
p6346
aV24945401
p6347
aV24286370
p6348
aV22366673
p6349
aa(lp6350
V27193109
p6351
aa(lp6352
V9435523
p6353
aa(lp6354
V21665454
p6355
aa(lp6356
V27376957
p6357
aV17884339
p6358
aV17478051
p6359
aV12784121
p6360
aV9570449
p6361
aV9435537
p6362
aV8566180
p6363
aV8387623
p6364
aV2422955
p6365
aV2422535
p6366
aV2413050
p6367
aa(lp6368
V7902582
p6369
aa(lp6370
V11391670
p6371
aa(lp6372
V23411079
p6373
aa(lp6374
V20623807
p6375
aV12645634
p6376
aV12084061
p6377
aV9806817
p6378
aa(lp6379
V23146774
p6380
aa(lp6381
V12213604
p6382
aa(lp6383
V25660272
p6384
aa(lp6385
V11
p6386
aa(lp6387
V23454444
p6388
aa(lp6389
V18693707
p6390
aa(lp6391
V24397781
p6392
aa(lp6393
V19178774
p6394
aa(lp6395
V26035062
p6396
aV16737683
p6397
aa(lp6398
V21327438
p6399
aa(lp6400
V23619720
p6401
aa(lp6402
V27998828
p6403
aV18775097
p6404
aV18707113
p6405
aV14572610
p6406
aa(lp6407
V15089033
p6408
aa(lp6409
V19278854
p6410
aa(lp6411
V27548120
p6412
aV22383957
p6413
aV11131161
p6414
aV2688551
p6415
aV3024672
p6416
aV3003768
p6417
aa(lp6418
g3527
aa(lp6419
V11204456
p6420
aV9501092
p6421
aV8961078
p6422
aV7881738
p6423
aV8189237
p6424
aV1321953
p6425
aV2064884
p6426
aV1706144
p6427
aa(lp6428
V26083119
p6429
aV22637723
p6430
aa(lp6431
V15884809
p6432
aa(lp6433
V10644043
p6434
aV10408242
p6435
aa(lp6436
V21571319
p6437
aV8735225
p6438
aa(lp6439
V17202721
p6440
aa(lp6441
V17202721
p6442
aa(lp6443
V17202721
p6444
aa(lp6445
V6130668
p6446
aa(lp6447
V27034001
p6448
aV19133993
p6449
aV16794538
p6450
aV16410053
p6451
aV16155089
p6452
aV14977627
p6453
aV14703731
p6454
aV11567792
p6455
aV9698604
p6456
aV8712205
p6457
aa(lp6458
V27548120
p6459
aV20951127
p6460
aV19122298
p6461
aV18445497
p6462
aa(lp6463
V23672038
p6464
aa(lp6465
V28025993
p6466
aV27373652
p6467
aV25559019
p6468
aV24748513
p6469
aV24631338
p6470
aV22705359
p6471
aa(lp6472
V28579553
p6473
aV23744425
p6474
aa(lp6475
V23822726
p6476
aa(lp6477
V22900953
p6478
aV14975453
p6479
aV12653565
p6480
aV10208551
p6481
aV9628395
p6482
aa(lp6483
V16307761
p6484
aa(lp6485
V21991618
p6486
aa(lp6487
V22228501
p6488
aV16945185
p6489
aV15316927
p6490
aa(lp6491
V16158223
p6492
aV15378407
p6493
aa(lp6494
V28013356
p6495
aV27414466
p6496
aa(lp6497
V26067593
p6498
aa(lp6499
V22370785
p6500
aa(lp6501
V24057015
p6502
aa(lp6503
V27702579
p6504
aV26910757
p6505
aV26232608
p6506
aV24879348
p6507
aV24599390
p6508
aV22210901
p6509
aV18081029
p6510
aV11481433
p6511
aV10618438
p6512
aa(lp6513
V19603404
p6514
aV19083455
p6515
aV15320699
p6516
aa(lp6517
V25077527
p6518
aV23764360
p6519
aa(lp6520
V25106885
p6521
aa(lp6522
V19239015
p6523
aa(lp6524
V23164765
p6525
aa(lp6526
V8915585
p6527
aa(lp6528
V25165783
p6529
aV24988985
p6530
aV24114663
p6531
aV23026832
p6532
aV19000749
p6533
aV16445708
p6534
aa(lp6535
V21147093
p6536
aV16254887
p6537
aV15655515
p6538
aV10737547
p6539
aa(lp6540
V23052184
p6541
aV19778086
p6542
aa(lp6543
V12467911
p6544
aa(lp6545
V20856967
p6546
aa(lp6547
V25920227
p6548
aa(lp6549
V19028489
p6550
aV18849360
p6551
aV11277256
p6552
aV7705472
p6553
aa(lp6554
V26048149
p6555
aa(lp6556
V21411195
p6557
aV19001767
p6558
aa(lp6559
V26500107
p6560
aV9722255
p6561
aa(lp6562
V25456078
p6563
aa(lp6564
V26187694
p6565
aV20633266
p6566
aa(lp6567
V7929829
p6568
aa(lp6569
V22370785
p6570
aa(lp6571
V16320290
p6572
aa(lp6573
V16597711
p6574
aa(lp6575
V16530744
p6576
aa(lp6577
V28479197
p6578
aV27719891
p6579
aV22813871
p6580
aa(lp6581
V26186967
p6582
aV25175897
p6583
aV24474630
p6584
aV19655309
p6585
aV16143851
p6586
aa(lp6587
V12717004
p6588
aa(lp6589
V8228640
p6590
aa(lp6591
V27139571
p6592
aV26263984
p6593
aV25723402
p6594
aV21656672
p6595
aV20492280
p6596
aV19476000
p6597
aV18091740
p6598
aV16814499
p6599
aV11924733
p6600
aa(lp6601
V22189441
p6602
aV19562334
p6603
aa(lp6604
V25165783
p6605
aV24988985
p6606
aV24114663
p6607
aV23026832
p6608
aV19000749
p6609
aV16445708
p6610
aa(lp6611
V25211405
p6612
aV19336900
p6613
aV1456540
p6614
aa(lp6615
V20097961
p6616
aV15964563
p6617
aV15451052
p6618
aV15302995
p6619
aV12492474
p6620
aV12011984
p6621
aV11716172
p6622
aV10200153
p6623
aa(lp6624
V1903068
p6625
aV2784654
p6626
aV300894
p6627
aa(lp6628
V24748513
p6629
aa(lp6630
V25623030
p6631
aV25225121
p6632
aV20141485
p6633
aV17302893
p6634
aV15888782
p6635
aa(lp6636
V25127616
p6637
aa(lp6638
V26306655
p6639
aV11131161
p6640
aV5428499
p6641
aV4175582
p6642
aV14059259
p6643
aa(lp6644
V26960775
p6645
aV23435946
p6646
aV23230009
p6647
aV21143769
p6648
aV20728596
p6649
aV16985185
p6650
aV1836380
p6651
aV13900976
p6652
aa(lp6653
V22186340
p6654
aa(lp6655
V8072248
p6656
aa(lp6657
V11
p6658
aa(lp6659
V8704216
p6660
aa(lp6661
V12208870
p6662
aa(lp6663
V15504753
p6664
aV10552623
p6665
aV10563895
p6666
aa(lp6667
V25789481
p6668
aV22370785
p6669
aa(lp6670
V18198302
p6671
aV7945513
p6672
aa(lp6673
V19451400
p6674
aV17129590
p6675
aV15777093
p6676
aV15531583
p6677
aV10880762
p6678
aV8204093
p6679
aa(lp6680
V18243265
p6681
aa(lp6682
V21943109
p6683
aa(lp6684
V12954367
p6685
aV8912639
p6686
aa(lp6687
V20600150
p6688
aV2549067
p6689
aa(lp6690
V12577512
p6691
aa(lp6692
V21050759
p6693
aa(lp6694
V25823585
p6695
aV16845528
p6696
aV16426652
p6697
aV12885861
p6698
aV1959620
p6699
aV4441797
p6700
aV5698113
p6701
aV14245480
p6702
aa(lp6703
V24057015
p6704
aa(lp6705
V26928174
p6706
aa(lp6707
V18825370
p6708
aa(lp6709
V24653577
p6710
aV18668692
p6711
aV17132814
p6712
aV12924024
p6713
aV12488497
p6714
aV3363101
p6715
aa(lp6716
V25871313
p6717
aV25744406
p6718
aV25476834
p6719
aV24039842
p6720
aV22749359
p6721
aV22535762
p6722
aV22178178
p6723
aV18619979
p6724
aV16635558
p6725
aV16517190
p6726
aV12489822
p6727
aa(lp6728
V11131161
p6729
aa(lp6730
V15884809
p6731
aa(lp6732
V21681437
p6733
aV20088501
p6734
aa(lp6735
V24041741
p6736
aV23566521
p6737
aV22618373
p6738
aV19041706
p6739
aV16819230
p6740
aV10563895
p6741
aa(lp6742
V2167211
p6743
aa(lp6744
V22775219
p6745
aV21334121
p6746
aa(lp6747
V15222411
p6748
aV12777826
p6749
aV9518170
p6750
aV9510419
p6751
aV1696583
p6752
aV2426551
p6753
aa(lp6754
V24057015
p6755
aa(lp6756
V11829656
p6757
aa(lp6758
V15324892
p6759
aa(lp6760
V21246298
p6761
aa(lp6762
V26790296
p6763
aa(lp6764
V18607531
p6765
aV1327821
p6766
aa(lp6767
V16475343
p6768
aa(lp6769
V6316852
p6770
aa(lp6771
V26635911
p6772
aV24072458
p6773
aV22394022
p6774
aV22356105
p6775
aV11380692
p6776
aa(lp6777
V25871313
p6778
aV22535762
p6779
aV20816646
p6780
aV12489822
p6781
aa(lp6782
V22489648
p6783
aV22370785
p6784
aa(lp6785
V26775737
p6786
aV20337501
p6787
aV18469159
p6788
aV16186624
p6789
aa(lp6790
V18425395
p6791
aa(lp6792
V19755140
p6793
aa(lp6794
V11131166
p6795
aa(lp6796
V27131731
p6797
aa(lp6798
V27214068
p6799
aV17826984
p6800
aa(lp6801
V15901792
p6802
aa(lp6803
V22311927
p6804
aV1203015
p6805
aa(lp6806
V27719933
p6807
aV20558255
p6808
aV18274639
p6809
aV11829656
p6810
aa(lp6811
V24057015
p6812
aa(lp6813
V24057015
p6814
aa(lp6815
V28579553
p6816
aa(lp6817
V15679315
p6818
aV12520174
p6819
aa(lp6820
V1643710
p6821
aa(lp6822
V26385725
p6823
aV19000749
p6824
aV17442510
p6825
aV16445708
p6826
aV12094296
p6827
aa(lp6828
V10888069
p6829
aV1012917
p6830
aa(lp6831
V25632476
p6832
aa(lp6833
V27040632
p6834
aa(lp6835
V23282897
p6836
aa(lp6837
V28552597
p6838
aa(lp6839
V26692099
p6840
aV24800851
p6841
aa(lp6842
V23018923
p6843
aV20100622
p6844
aV18449498
p6845
aa(lp6846
V26438097
p6847
aV23640758
p6848
aV23400915
p6849
aa(lp6850
V7912440
p6851
aa(lp6852
V20100622
p6853
aV18449498
p6854
aa(lp6855
V20
p6856
aa(lp6857
V8105642
p6858
aV7274420
p6859
aa(lp6860
V24321516
p6861
aa(lp6862
V24057015
p6863
aa(lp6864
V24057015
p6865
aa(lp6866
V4549120
p6867
aV4390607
p6868
aa(lp6869
V21375526
p6870
aV18801486
p6871
aV18484521
p6872
aa(lp6873
V17582751
p6874
aa(lp6875
V24947273
p6876
aa(lp6877
V23624606
p6878
aV20843529
p6879
aV18449498
p6880
aV18448292
p6881
aV11811897
p6882
aa(lp6883
V15843389
p6884
aV15533436
p6885
aa(lp6886
V18391119
p6887
aa(lp6888
V23274397
p6889
aa(lp6890
V22160928
p6891
aV22095888
p6892
aV21194185
p6893
aV20659408
p6894
aV18449509
p6895
aV14527177
p6896
aa(lp6897
V25375233
p6898
aV24886172
p6899
aV23402364
p6900
aV19822969
p6901
aV18675929
p6902
aV17015173
p6903
aV14642385
p6904
aV9667493
p6905
aV2883567
p6906
aV2994673
p6907
aa(lp6908
V27180317
p6909
aV1130506
p6910
aV4290407
p6911
aa(lp6912
V10372818
p6913
aV8312138
p6914
aa(lp6915
V10808115
p6916
aV10433273
p6917
aV3536906
p6918
aa(lp6919
V8709133
p6920
aV9076745
p6921
aV8532165
p6922
aa(lp6923
V27787989
p6924
aV27000840
p6925
aV25582560
p6926
aV24286716
p6927
aV18987879
p6928
aa(lp6929
V14534426
p6930
aa(lp6931
V23250338
p6932
aa(lp6933
V20183278
p6934
aV18987879
p6935
aV9409268
p6936
aa(lp6937
V27585463
p6938
aV27233507
p6939
aV21455022
p6940
aV20498849
p6941
aV19531471
p6942
aV17978484
p6943
aV17095132
p6944
aV16322129
p6945
aV11443135
p6946
aV10400316
p6947
aV9706871
p6948
aa(lp6949
V22088249
p6950
aV19239139
p6951
aV16828231
p6952
aV14599554
p6953
aV2535870
p6954
aV7403456
p6955
aa(lp6956
V26045775
p6957
aV24440742
p6958
aa(lp6959
V11126869
p6960
aa(lp6961
V23268108
p6962
aV22899763
p6963
aV11943854
p6964
aV8072946
p6965
aa(lp6966
V25701747
p6967
aa(lp6968
V27053521
p6969
aa(lp6970
g3527
aa(lp6971
V10416830
p6972
aa(lp6973
V21397503
p6974
aa(lp6975
V21397503
p6976
aa(lp6977
V22153253
p6978
aV21822640
p6979
aV21069311
p6980
aV20036111
p6981
aV16496394
p6982
aV16007448
p6983
aa(lp6984
V12368296
p6985
aa(lp6986
V26459398
p6987
aV11485347
p6988
aV6683350
p6989
aV5145756
p6990
aV5312645
p6991
aV4385228
p6992
aV5300570
p6993
aV14311840
p6994
aa(lp6995
V10410245
p6996
aV6268172
p6997
aa(lp6998
V26265982
p6999
aV24300120
p7000
aV22693074
p7001
aV16254887
p7002
aV15655515
p7003
aa(lp7004
V27997616
p7005
aa(lp7006
g3527
aa(lp7007
V24057015
p7008
aa(lp7009
V25100751
p7010
aV3981423
p7011
aa(lp7012
V26412430
p7013
aV25230505
p7014
aV19682444
p7015
aV11693190
p7016
aa(lp7017
V13680096
p7018
aa(lp7019
V24996142
p7020
aa(lp7021
V23797659
p7022
aa(lp7023
V26738987
p7024
aV25004877
p7025
aV23278699
p7026
aV18007086
p7027
aV16445695
p7028
aV8950033
p7029
aa(lp7030
V22855946
p7031
aV22694660
p7032
aV14739579
p7033
aV8950033
p7034
aa(lp7035
V19298870
p7036
aV15997145
p7037
aa(lp7038
V22374082
p7039
aV11411523
p7040
aV7720787
p7041
aa(lp7042
V27340106
p7043
aV25759122
p7044
aV24277866
p7045
aV23435946
p7046
aV21108118
p7047
aV12094296
p7048
aV11090652
p7049
aV10969151
p7050
aa(lp7051
V9658577
p7052
aa(lp7053
V9658577
p7054
aa(lp7055
V9658577
p7056
aa(lp7057
V9658577
p7058
aa(lp7059
V24296088
p7060
aa(lp7061
V23689820
p7062
aa(lp7063
V22507316
p7064
aV17587371
p7065
aV492345
p7066
aV367478
p7067
aa(lp7068
V27233507
p7069
aV25919278
p7070
aV23523467
p7071
aV20498335
p7072
aV16860591
p7073
aa(lp7074
V24057015
p7075
aa(lp7076
V25920227
p7077
aV20879743
p7078
aa(lp7079
V12
p7080
aa(lp7081
V25053090
p7082
aa(lp7083
V24057015
p7084
aa(lp7085
V26205049
p7086
aa(lp7087
V22484146
p7088
aa(lp7089
V25920227
p7090
aa(lp7091
V18293448
p7092
aa(lp7093
V15089033
p7094
aa(lp7095
V2408949
p7096
aa(lp7097
V20183278
p7098
aV15832817
p7099
aV12387305
p7100
aV12204553
p7101
aV9409268
p7102
aa(lp7103
V24142543
p7104
aV22619052
p7105
aV18449499
p7106
aa(lp7107
V24420967
p7108
aV22516057
p7109
aa(lp7110
V6821934
p7111
aa(lp7112
V11
p7113
aa(lp7114
V23563601
p7115
aV23225249
p7116
aV17588951
p7117
aV16373499
p7118
aV15618457
p7119
aa(lp7120
V28230758
p7121
aa(lp7122
V7935818
p7123
aa(lp7124
V24440742
p7125
aa(lp7126
V26239154
p7127
aa(lp7128
V21959301
p7129
aa(lp7130
V15208212
p7131
aV14500768
p7132
aV11152733
p7133
aV10219974
p7134
aV9639269
p7135
aV9257937
p7136
aV8864697
p7137
aV9112626
p7138
aa(lp7139
V26424013
p7140
aV25502175
p7141
aV19031369
p7142
aV11077049
p7143
aa(lp7144
V25971153
p7145
aV25428541
p7146
aV20834144
p7147
aV9182541
p7148
aV7929167
p7149
aV4707695
p7150
aV5004979
p7151
aa(lp7152
V12677533
p7153
aa(lp7154
V27777105
p7155
aV12027422
p7156
aV9194409
p7157
aV5908092
p7158
aa(lp7159
V15843144
p7160
aa(lp7161
V25388083
p7162
aV22489648
p7163
aa(lp7164
V25919278
p7165
aV19562334
p7166
aa(lp7167
V24057015
p7168
aa(lp7169
V26571499
p7170
aV23791757
p7171
aV17156985
p7172
aV15885450
p7173
aV12083382
p7174
aV10234528
p7175
aa(lp7176
V10808115
p7177
aV10433273
p7178
aV3536906
p7179
aa(lp7180
V18986199
p7181
aa(lp7182
V19545623
p7183
aa(lp7184
V26996017
p7185
aV22960210
p7186
aV19807855
p7187
aV17589869
p7188
aV16105229
p7189
aV188417
p7190
aa(lp7191
V1943171
p7192
aa(lp7193
V28074397
p7194
aV24389482
p7195
aV22980246
p7196
aV12794753
p7197
aV8522958
p7198
aa(lp7199
V24504087
p7200
aV11538395
p7201
aV3893042
p7202
aa(lp7203
V10226174
p7204
aV2650689
p7205
aV3171396
p7206
aV6069246
p7207
aV6050508
p7208
aa(lp7209
V15564673
p7210
aV15517355
p7211
aa(lp7212
V17499881
p7213
aa(lp7214
V26263984
p7215
aa(lp7216
V25106885
p7217
aa(lp7218
V24057015
p7219
aa(lp7220
V2350264
p7221
aa(lp7222
V24057015
p7223
aa(lp7224
V14028075
p7225
aa(lp7226
V10656413
p7227
aa(lp7228
V16105229
p7229
aV14648392
p7230
aa(lp7231
V16028017
p7232
aV10777548
p7233
aa(lp7234
V3365279
p7235
aa(lp7236
V2983768
p7237
aa(lp7238
V20136450
p7239
aa(lp7240
V28025993
p7241
aV27373652
p7242
aV25559019
p7243
aV24748513
p7244
aV24631338
p7245
aV22705359
p7246
aa(lp7247
V15870904
p7248
aa(lp7249
V15126643
p7250
aV10051148
p7251
aV9920186
p7252
aa(lp7253
V15488334
p7254
aa(lp7255
V3536906
p7256
aa(lp7257
V15001630
p7258
aa(lp7259
V17965734
p7260
aV16371450
p7261
aa(lp7262
V11138731
p7263
aa(lp7264
V25859778
p7265
aV17446019
p7266
aa(lp7267
V15902420
p7268
aa(lp7269
V24296134
p7270
aV24234154
p7271
aV23333745
p7272
aV22405985
p7273
aV21887376
p7274
aV15491156
p7275
aV8768729
p7276
aV6435643
p7277
aa(lp7278
V21827366
p7279
aa(lp7280
V24057015
p7281
aa(lp7282
V26924563
p7283
aa(lp7284
g3527
aa(lp7285
V19906781
p7286
aV1964579
p7287
aa(lp7288
V24866386
p7289
aV23535395
p7290
aa(lp7291
V20637576
p7292
aa(lp7293
V6496737
p7294
aV6875935
p7295
aV5822253
p7296
aV5720875
p7297
aV6032274
p7298
aV5947927
p7299
aV5929333
p7300
aV5933364
p7301
aV5870111
p7302
aa(lp7303
g3527
aa(lp7304
V12094302
p7305
aa(lp7306
V28579553
p7307
aa(lp7308
V23391590
p7309
aV23121999
p7310
aV12713415
p7311
aV12242026
p7312
aa(lp7313
V20573364
p7314
aa(lp7315
V23295225
p7316
aa(lp7317
V12498902
p7318
aV11567792
p7319
aV1331327
p7320
aa(lp7321
V19957434
p7322
aa(lp7323
V22155404
p7324
aV11526474
p7325
aV8928841
p7326
aV1720448
p7327
aV3658222
p7328
aV2994488
p7329
aa(lp7330
V12110375
p7331
aa(lp7332
V24057015
p7333
aa(lp7334
V23335799
p7335
aV19555171
p7336
aV17928646
p7337
aV16872642
p7338
aV14985133
p7339
aV12824699
p7340
aV12512694
p7341
aV12386146
p7342
aV11136674
p7343
aV11009568
p7344
aV1903399
p7345
aa(lp7346
V28074397
p7347
aV23897301
p7348
aV20937400
p7349
aV16237954
p7350
aa(lp7351
V24611620
p7352
aV23669460
p7353
aa(lp7354
V26977531
p7355
aa(lp7356
V19270786
p7357
aV12657487
p7358
aV11446169
p7359
aV10425342
p7360
aV10205604
p7361
aV2793149
p7362
aa(lp7363
V23744122
p7364
aV23253858
p7365
aV18455833
p7366
aV17241354
p7367
aV19684
p7368
aa(lp7369
V6502490
p7370
aa(lp7371
V24057015
p7372
aa(lp7373
V27784308
p7374
aV26498523
p7375
aV20390370
p7376
aV16002718
p7377
aa(lp7378
V7586182
p7379
aa(lp7380
V20363114
p7381
aa(lp7382
V26152332
p7383
aa(lp7384
V3922025
p7385
aa(lp7386
V18657947
p7387
aV17627281
p7388
aV12939152
p7389
aa(lp7390
V26049009
p7391
aV23743282
p7392
aV23263808
p7393
aV23216643
p7394
aV21830094
p7395
aV21784080
p7396
aV19685877
p7397
aV18495093
p7398
aa(lp7399
V21959301
p7400
aa(lp7401
V16636964
p7402
aa(lp7403
V28479197
p7404
aV25637445
p7405
aV24972733
p7406
aV23600395
p7407
aV22210036
p7408
aV21567414
p7409
aV21353543
p7410
aV12705395
p7411
aa(lp7412
V21756990
p7413
aa(lp7414
V12213604
p7415
aa(lp7416
V18838835
p7417
aV17446019
p7418
aV16475343
p7419
aa(lp7420
V25379992
p7421
aV23685195
p7422
aV22796647
p7423
aV19778575
p7424
aV18519570
p7425
aV16177189
p7426
aV12033808
p7427
aa(lp7428
V21312305
p7429
aV12033808
p7430
aa(lp7431
V22132095
p7432
aa(lp7433
V19778575
p7434
aa(lp7435
V8385897
p7436
aa(lp7437
V27474942
p7438
aV24865614
p7439
aV19397308
p7440
aa(lp7441
V18984655
p7442
aa(lp7443
V20183317
p7444
aV9871681
p7445
aa(lp7446
V9539809
p7447
aa(lp7448
V12366390
p7449
aV11123968
p7450
aV7902249
p7451
aa(lp7452
V18636311
p7453
aa(lp7454
V28071803
p7455
aV20540146
p7456
aV18958424
p7457
aV18186104
p7458
aV16934226
p7459
aV16832612
p7460
aV12670650
p7461
aa(lp7462
V22814889
p7463
aV22234926
p7464
aV20362654
p7465
aa(lp7466
V25106885
p7467
aa(lp7468
V6767846
p7469
aa(lp7470
V20387902
p7471
aV17113067
p7472
aV15255946
p7473
aV10919371
p7474
aV1782763
p7475
aV2994646
p7476
aa(lp7477
V11164826
p7478
aV8813375
p7479
aa(lp7480
V23391590
p7481
aV23121999
p7482
aV12713415
p7483
aV12242026
p7484
aa(lp7485
V17706386
p7486
aV1489541
p7487
aa(lp7488
V24057015
p7489
aa(lp7490
V17627281
p7491
aV12939152
p7492
aV6426473
p7493
aV18134
p7494
aa(lp7495
V28284564
p7496
aV25726172
p7497
aV22393824
p7498
aV18239309
p7499
aV17494862
p7500
aV16864447
p7501
aa(lp7502
V22007023
p7503
aa(lp7504
V28579553
p7505
aa(lp7506
V12094289
p7507
aa(lp7508
V20435155
p7509
aa(lp7510
V23261676
p7511
aV6094239
p7512
aa(lp7513
V24057015
p7514
aa(lp7515
V22370785
p7516
aa(lp7517
V7540997
p7518
aa(lp7519
V16939706
p7520
aa(lp7521
V5129321
p7522
aV5355341
p7523
aV5661802
p7524
aa(lp7525
V25106885
p7526
aa(lp7527
V23349790
p7528
aV19778575
p7529
aa(lp7530
V22006568
p7531
aV17166175
p7532
aV15550674
p7533
aa(lp7534
V25811625
p7535
aV25483920
p7536
aa(lp7537
V9183081
p7538
aV7565684
p7539
aa(lp7540
V24057015
p7541
aa(lp7542
V23807809
p7543
aV23796750
p7544
aV23731018
p7545
aV22959858
p7546
aV21839593
p7547
aV21493169
p7548
aV15161201
p7549
aV11829656
p7550
aV10639004
p7551
aV9868177
p7552
aV8396352
p7553
aa(lp7554
V25501336
p7555
aa(lp7556
V26363880
p7557
aa(lp7558
V28479197
p7559
aV25637445
p7560
aV24972733
p7561
aV23600395
p7562
aV22210036
p7563
aV21567414
p7564
aV21353543
p7565
aV12705395
p7566
aa(lp7567
V12058328
p7568
aa(lp7569
V25487948
p7570
aV23756400
p7571
aV23686692
p7572
aV15036348
p7573
aV11792622
p7574
aV11389687
p7575
aV5831848
p7576
aa(lp7577
V24338840
p7578
aV21303260
p7579
aa(lp7580
V28367637
p7581
aV27984161
p7582
aV26833192
p7583
aV25068578
p7584
aV24285186
p7585
aV22981803
p7586
aV7337204
p7587
aa(lp7588
V22339499
p7589
aa(lp7590
V9176239
p7591
aV6095975
p7592
aa(lp7593
V11878376
p7594
aa(lp7595
g3527
aa(lp7596
V23807809
p7597
aV23796750
p7598
aV23731018
p7599
aV22959858
p7600
aV21493169
p7601
aV15161201
p7602
aV11829656
p7603
aV9868177
p7604
aV8396352
p7605
aa(lp7606
V16394197
p7607
aa(lp7608
V26293546
p7609
aV19270786
p7610
aV16922496
p7611
aV15461452
p7612
aV9705899
p7613
aV14198439
p7614
aa(lp7615
V25460312
p7616
aV22846081
p7617
aV21970807
p7618
aV21839077
p7619
aV20920567
p7620
aV17202693
p7621
aV16484046
p7622
aa(lp7623
V28124842
p7624
aV27718577
p7625
aV27043618
p7626
aV23399152
p7627
aV15461862
p7628
aa(lp7629
V28479197
p7630
aV25637445
p7631
aV24972733
p7632
aV23600395
p7633
aV22210036
p7634
aV21567414
p7635
aV21353543
p7636
aV12705395
p7637
aa(lp7638
V17225453
p7639
aV11842336
p7640
aV11105561
p7641
aV10588517
p7642
aa(lp7643
V17117973
p7644
aV11470241
p7645
aV1472973
p7646
aV5280141
p7647
aa(lp7648
V22819447
p7649
aa(lp7650
V25823585
p7651
aa(lp7652
V8395388
p7653
aa(lp7654
V28358309
p7655
aV20955360
p7656
aV12628513
p7657
aa(lp7658
V22614823
p7659
aV21930301
p7660
aa(lp7661
V25859778
p7662
aa(lp7663
V12776351
p7664
aa(lp7665
V27785944
p7666
aV25980178
p7667
aV25711428
p7668
aV22344408
p7669
aV21609764
p7670
aV19009336
p7671
aV15852032
p7672
aV14757506
p7673
aa(lp7674
V25377727
p7675
aV22472109
p7676
aV11411523
p7677
aV8988596
p7678
aa(lp7679
V21261296
p7680
aV11313420
p7681
aa(lp7682
V24057015
p7683
aa(lp7684
V2877077
p7685
aa(lp7686
V26035062
p7687
aV16737683
p7688
aa(lp7689
V21871542
p7690
aV19732815
p7691
aa(lp7692
V24504087
p7693
aa(lp7694
V11425591
p7695
aV10714491
p7696
aa(lp7697
V16553644
p7698
aV9700982
p7699
aV9453467
p7700
aa(lp7701
V18787837
p7702
aa(lp7703
V27665077
p7704
aa(lp7705
V24812251
p7706
aV23178275
p7707
aV22809034
p7708
aV12475291
p7709
aa(lp7710
V20093625
p7711
aV17976306
p7712
aV16880762
p7713
aV16194025
p7714
aV15137818
p7715
aV11087552
p7716
aV10644043
p7717
aV10079014
p7718
aa(lp7719
V28579553
p7720
aa(lp7721
V28394269
p7722
aV21190826
p7723
aV12619887
p7724
aV12433056
p7725
aV11270996
p7726
aV11226385
p7727
aV10375812
p7728
aV9893925
p7729
aa(lp7730
V18425395
p7731
aa(lp7732
V24057015
p7733
aa(lp7734
V23647686
p7735
aV21608987
p7736
aV20725659
p7737
aa(lp7738
V10434532
p7739
aa(lp7740
V25026715
p7741
aV18825536
p7742
aV10714491
p7743
aa(lp7744
V24057015
p7745
aa(lp7746
V22678775
p7747
aV81118
p7748
aa(lp7749
V17132814
p7750
aa(lp7751
V17379772
p7752
aV8709133
p7753
aV8532165
p7754
aa(lp7755
V21608987
p7756
aV20725659
p7757
aa(lp7758
V27396870
p7759
aV21282733
p7760
aV15736435
p7761
aV11284450
p7762
aa(lp7763
V22722977
p7764
aa(lp7765
V24057015
p7766
aa(lp7767
V23645468
p7768
aa(lp7769
V7620719
p7770
aa(lp7771
V26901221
p7772
aV26544724
p7773
aV24780469
p7774
aV21620604
p7775
aV11103267
p7776
aV10431358
p7777
aV1643710
p7778
aV2596601
p7779
aV3392889
p7780
aV6152160
p7781
aa(lp7782
V24643988
p7783
aa(lp7784
V22985508
p7785
aV15630998
p7786
aV8389993
p7787
aa(lp7788
V26808720
p7789
aa(lp7790
V3365279
p7791
aa(lp7792
V11146113
p7793
aa(lp7794
V26692099
p7795
aV24422962
p7796
aV14966369
p7797
aV7575743
p7798
aa(lp7799
V6628659
p7800
aV185767
p7801
aa(lp7802
V27847207
p7803
aV27090925
p7804
aa(lp7805
V27240199
p7806
aV22802518
p7807
aV18854183
p7808
aV10447805
p7809
aV9788755
p7810
aV1660964
p7811
aV1671098
p7812
aV2221119
p7813
aV7067131
p7814
aV7320722
p7815
aV7205274
p7816
aV4350720
p7817
aa(lp7818
V26255551
p7819
aa(lp7820
V19881279
p7821
aa(lp7822
V12413852
p7823
aa(lp7824
V25239771
p7825
aV15946758
p7826
aV12737536
p7827
aV12398156
p7828
aa(lp7829
V22045066
p7830
aa(lp7831
V15199542
p7832
aV15136485
p7833
aV9357550
p7834
aV7554056
p7835
aV8001253
p7836
aV1557408
p7837
aV3440117
p7838
aV6509129
p7839
aa(lp7840
V21855572
p7841
aV16288932
p7842
aV10696082
p7843
aV7740580
p7844
aa(lp7845
V21338594
p7846
aV20964405
p7847
aV20367223
p7848
aV15384822
p7849
aV12788665
p7850
aV7824546
p7851
aV7976347
p7852
aa(lp7853
V22078955
p7854
aa(lp7855
V24057015
p7856
aa(lp7857
V12725326
p7858
aa(lp7859
V23311696
p7860
aV10930582
p7861
aV2538395
p7862
aV6853493
p7863
aV582698
p7864
aa(lp7865
V25043720
p7866
aV11846444
p7867
aV1383710
p7868
aa(lp7869
V27790920
p7870
aV26610461
p7871
aV25563069
p7872
aV25333853
p7873
aV18433135
p7874
aV16226032
p7875
aV11515581
p7876
aV9873511
p7877
aa(lp7878
V18599588
p7879
aV18308858
p7880
aV15061376
p7881
aV1697386
p7882
aV37965
p7883
aa(lp7884
V18645049
p7885
aV8700109
p7886
aV2359145
p7887
aV6540303
p7888
aa(lp7889
V23300588
p7890
aa(lp7891
V10027842
p7892
aa(lp7893
V11783160
p7894
aa(lp7895
V18636311
p7896
aa(lp7897
V22489648
p7898
aa(lp7899
V23891616
p7900
aV22645149
p7901
aV15790730
p7902
aV1975774
p7903
aV2474191
p7904
aV6035186
p7905
aa(lp7906
V25815775
p7907
aV23869424
p7908
aV20155333
p7909
aa(lp7910
V17253844
p7911
aa(lp7912
V7692625
p7913
aV2295142
p7914
aV3612819
p7915
aV3880866
p7916
aV6779878
p7917
aV6269406
p7918
aa(lp7919
V19577446
p7920
aa(lp7921
V17637182
p7922
aV10449184
p7923
aa(lp7924
V25037681
p7925
aa(lp7926
V26892487
p7927
aV26056852
p7928
aV24954237
p7929
aV22386654
p7930
aV22114936
p7931
aV21411195
p7932
aV19778575
p7933
aV19001767
p7934
aV11508353
p7935
aV9464466
p7936
aa(lp7937
V7250785
p7938
aa(lp7939
V18433135
p7940
aa(lp7941
V6139110
p7942
aa(lp7943
V23536521
p7944
aV20016929
p7945
aV19294534
p7946
aV15175552
p7947
aV598496
p7948
aa(lp7949
V24057015
p7950
aa(lp7951
V15883012
p7952
aa(lp7953
V22683871
p7954
aV20079881
p7955
aa(lp7956
V14752064
p7957
aa(lp7958
V27025382
p7959
aV26711832
p7960
aV22186340
p7961
aV16186624
p7962
aV14597150
p7963
aa(lp7964
V18616939
p7965
aV12078502
p7966
aV8566234
p7967
aV1335181
p7968
aV1918052
p7969
aa(lp7970
V25100751
p7971
aV3981423
p7972
aa(lp7973
V27299743
p7974
aV1368513
p7975
aa(lp7976
V22934671
p7977
aV12409834
p7978
aa(lp7979
V25106885
p7980
aa(lp7981
V26474585
p7982
aa(lp7983
V24057015
p7984
aa(lp7985
V11755384
p7986
aa(lp7987
V18500810
p7988
aa(lp7989
V21839427
p7990
aa(lp7991
V26318142
p7992
aV25779204
p7993
aV21576489
p7994
aV20648495
p7995
aV19131279
p7996
aV18440709
p7997
aV18172111
p7998
aV15378412
p7999
aV11329076
p8000
aV238214
p8001
aa(lp8002
V23806384
p8003
aV12865090
p8004
aV12828794
p8005
aV10087331
p8006
aa(lp8007
V26725284
p8008
aV22570366
p8009
aV19189245
p8010
aV18550010
p8011
aV18513711
p8012
aV16133376
p8013
aV12873495
p8014
aV11515581
p8015
aV5673352
p8016
aa(lp8017
V25089508
p8018
aV24685463
p8019
aV21501550
p8020
aV17586039
p8021
aV14623468
p8022
aV11936092
p8023
aa(lp8024
V27046120
p8025
aa(lp8026
V26996017
p8027
aa(lp8028
V23421316
p8029
aV18566983
p8030
aV14638301
p8031
aV11554180
p8032
aa(lp8033
V2432234
p8034
aa(lp8035
V19007910
p8036
aa(lp8037
V23906193
p8038
aV21878369
p8039
aV21213327
p8040
aV19769461
p8041
aV19761212
p8042
aV17822368
p8043
aV11731615
p8044
aV9770616
p8045
aV9235904
p8046
aa(lp8047
V25100751
p8048
aV3981423
p8049
aa(lp8050
g3527
aa(lp8051
V24598145
p8052
aV8928747
p8053
aV1445278
p8054
aa(lp8055
V28558784
p8056
aV23666855
p8057
aV16208495
p8058
aV10898082
p8059
aV9132648
p8060
aV7815268
p8061
aV1331838
p8062
aV3494547
p8063
aa(lp8064
V24066514
p8065
aa(lp8066
V17027748
p8067
aa(lp8068
V25563069
p8069
aV24057015
p8070
aV22037355
p8071
aV18549682
p8072
aV12954367
p8073
aa(lp8074
V23839972
p8075
aV5959372
p8076
aa(lp8077
V21535527
p8078
aV21513709
p8079
aV21075189
p8080
aa(lp8081
V12568558
p8082
aa(lp8083
V25084123
p8084
aV24404587
p8085
aV23250338
p8086
aV23087152
p8087
aV20136447
p8088
aV17709257
p8089
aV16325210
p8090
aV1327842
p8091
aV1667756
p8092
aV2568464
p8093
aa(lp8094
V24090186
p8095
aV23918232
p8096
aV17291735
p8097
aa(lp8098
V11557570
p8099
aV9679170
p8100
aV7526593
p8101
aV1310225
p8102
aV1694407
p8103
aa(lp8104
V24397781
p8105
aa(lp8106
V24057015
p8107
aa(lp8108
V23875254
p8109
aV18958424
p8110
aV10656413
p8111
aa(lp8112
V25456078
p8113
aa(lp8114
g3527
aa(lp8115
V8948463
p8116
aa(lp8117
V25088135
p8118
aV20856967
p8119
aa(lp8120
V12
p8121
aa(lp8122
V10575381
p8123
aa(lp8124
V21772233
p8125
aa(lp8126
V21772233
p8127
aV11105561
p8128
aa(lp8129
V22297755
p8130
aV21772233
p8131
aa(lp8132
V21772233
p8133
aa(lp8134
V24057015
p8135
aa(lp8136
V28333461
p8137
aa(lp8138
V22297755
p8139
aa(lp8140
V27409158
p8141
aV26666037
p8142
aV19943243
p8143
aV19277963
p8144
aV18976718
p8145
aa(lp8146
V15482647
p8147
aa(lp8148
V25788553
p8149
aV20936405
p8150
aV18538570
p8151
aV16475869
p8152
aa(lp8153
V27815365
p8154
aV21898537
p8155
aV18587269
p8156
aV18424810
p8157
aV18328448
p8158
aV16889681
p8159
aV16611861
p8160
aV12520174
p8161
aa(lp8162
V21190826
p8163
aV17225453
p8164
aV12619887
p8165
aV12396081
p8166
aV11475535
p8167
aV11324438
p8168
aV11226385
p8169
aV10820186
p8170
aa(lp8171
V26004404
p8172
aV21246298
p8173
aa(lp8174
V9435523
p8175
aa(lp8176
V18293448
p8177
aa(lp8178
V20045968
p8179
aa(lp8180
V21843620
p8181
aV12398545
p8182
aa(lp8183
V24057015
p8184
aa(lp8185
V24220034
p8186
aV15744081
p8187
aV12903281
p8188
aV540033
p8189
aV214146
p8190
aa(lp8191
V19231641
p8192
aa(lp8193
V27719933
p8194
aV20558255
p8195
aV18274639
p8196
aV11829656
p8197
aa(lp8198
V19036824
p8199
aV18408869
p8200
aa(lp8201
V24057015
p8202
aa(lp8203
V25934864
p8204
aV25686009
p8205
aV25476834
p8206
aV24983479
p8207
aV24039842
p8208
aV22959858
p8209
aV21493169
p8210
aV16309673
p8211
aV12926869
p8212
aV11829656
p8213
aa(lp8214
V16509831
p8215
aa(lp8216
V24433233
p8217
aV17195940
p8218
aV16828049
p8219
aa(lp8220
V24012643
p8221
aV23669460
p8222
aV20839643
p8223
aa(lp8224
V27516180
p8225
aV23488457
p8226
aV18940190
p8227
aa(lp8228
V9681678
p8229
aV9523531
p8230
aV193291
p8231
aa(lp8232
V15930771
p8233
aa(lp8234
V27919659
p8235
aV19434470
p8236
aV18676061
p8237
aa(lp8238
V12860177
p8239
aV12845421
p8240
aV12112756
p8241
aV11927649
p8242
aa(lp8243
V18675929
p8244
aa(lp8245
V15316927
p8246
aa(lp8247
V25738576
p8248
aV23606517
p8249
aV18481787
p8250
aV17470383
p8251
aV16924586
p8252
aV16903081
p8253
aV15554264
p8254
aV12417429
p8255
aV11961112
p8256
aV11301852
p8257
aV2877077
p8258
aa(lp8259
V20420450
p8260
aa(lp8261
V15240183
p8262
aa(lp8263
V23464732
p8264
aV20088501
p8265
aV956922
p8266
aa(lp8267
V25456078
p8268
aa(lp8269
V25835364
p8270
aV20880017
p8271
aa(lp8272
V24057015
p8273
aa(lp8274
V24328676
p8275
aV23624268
p8276
aV22819447
p8277
aV21143769
p8278
aV20728596
p8279
aV20362654
p8280
aV14648392
p8281
aV14572610
p8282
aa(lp8283
V22382417
p8284
aa(lp8285
V28257116
p8286
aV24619274
p8287
aa(lp8288
V16643064
p8289
aa(lp8290
V23146774
p8291
aV20440695
p8292
aV15161201
p8293
aa(lp8294
V18987578
p8295
aV7902582
p8296
aV1508939
p8297
aV6094240
p8298
aV6293901
p8299
aV207736
p8300
aV334269
p8301
aV193496
p8302
aV182155
p8303
aa(lp8304
V20183281
p8305
aa(lp8306
V15296094
p8307
aV1277408
p8308
aa(lp8309
V26483135
p8310
aa(lp8311
V24057015
p8312
aa(lp8313
V26178799
p8314
aV20671618
p8315
aV17466497
p8316
aV14652352
p8317
aV11327701
p8318
aV10765977
p8319
aV8115350
p8320
aV8332117
p8321
aV2133668
p8322
aa(lp8323
V23940092
p8324
aV23727892
p8325
aa(lp8326
V20573364
p8327
aa(lp8328
V25763469
p8329
aV22736379
p8330
aV21471724
p8331
aV21187828
p8332
aa(lp8333
V11739101
p8334
aV9612348
p8335
aa(lp8336
V14685265
p8337
aV8893040
p8338
aV7483657
p8339
aV7895598
p8340
aV8093105
p8341
aV7902249
p8342
aV3131970
p8343
aa(lp8344
V24256436
p8345
aV23174902
p8346
aV19339242
p8347
aV18635485
p8348
aV18260013
p8349
aV18006600
p8350
aV16394197
p8351
aV8996863
p8352
aa(lp8353
V27178312
p8354
aV18504556
p8355
aV12097797
p8356
aV10937461
p8357
aV2388927
p8358
aa(lp8359
V23046467
p8360
aa(lp8361
V26342163
p8362
aV12960686
p8363
aa(lp8364
V22370785
p8365
aV19031369
p8366
aa(lp8367
V24057015
p8368
aa(lp8369
V22198073
p8370
aV17964173
p8371
aV17723311
p8372
aV16733050
p8373
aV16601780
p8374
aV16371225
p8375
aV15464065
p8376
aV11137619
p8377
aV9637359
p8378
aa(lp8379
V11397569
p8380
aV10598827
p8381
aV8924548
p8382
aV8428855
p8383
aa(lp8384
V23713096
p8385
aa(lp8386
V22574324
p8387
aV21521362
p8388
aa(lp8389
V27692144
p8390
aV27376957
p8391
aV26383017
p8392
aV24731823
p8393
aV24057015
p8394
aV22973805
p8395
aV22037355
p8396
aV20578973
p8397
aa(lp8398
V16047780
p8399
aa(lp8400
V23807809
p8401
aV23796750
p8402
aV23731018
p8403
aV22959858
p8404
aV21839593
p8405
aV21493169
p8406
aV15161201
p8407
aV11829656
p8408
aV10639004
p8409
aV9868177
p8410
aV8396352
p8411
aa(lp8412
V24494198
p8413
aa(lp8414
V19056479
p8415
aa(lp8416
V24057015
p8417
aa(lp8418
V23947936
p8419
aV22582907
p8420
aV16643064
p8421
aV15884809
p8422
aa(lp8423
V26385725
p8424
aV19000749
p8425
aV17442510
p8426
aV16445708
p8427
aV12094296
p8428
aa(lp8429
V25801004
p8430
aV25270721
p8431
aV23554103
p8432
aV23160683
p8433
aV16182539
p8434
aV16169019
p8435
aV15974445
p8436
aV12706486
p8437
aV11213362
p8438
aa(lp8439
V27485900
p8440
aV23467002
p8441
aV21338613
p8442
aV21143132
p8443
aV19226254
p8444
aV16395656
p8445
aV12865969
p8446
aV12081140
p8447
aV10082264
p8448
aV10082263
p8449
aV9296344
p8450
aa(lp8451
V25026715
p8452
aV24685589
p8453
aV18825536
p8454
aV10714491
p8455
aa(lp8456
V25
p8457
aa(lp8458
V21985227
p8459
aa(lp8460
V18353112
p8461
aV18293448
p8462
aV10909258
p8463
aa(lp8464
V25365698
p8465
aV21314606
p8466
aV20022661
p8467
aV19545623
p8468
aV12484759
p8469
aa(lp8470
V21322943
p8471
aV20633266
p8472
aa(lp8473
V11
p8474
aa(lp8475
V16040247
p8476
aa(lp8477
V18801486
p8478
aa(lp8479
V28587222
p8480
aV26016240
p8481
aV25446849
p8482
aV22701336
p8483
aV19642688
p8484
aV19298533
p8485
aV19087873
p8486
aV18958424
p8487
aV16759542
p8488
aV15658655
p8489
aV8763040
p8490
aa(lp8491
V10737225
p8492
aa(lp8493
V24057015
p8494
aa(lp8495
V24057015
p8496
aa(lp8497
V23246319
p8498
aa(lp8499
V16820147
p8500
aV10671910
p8501
aV1355712
p8502
aV3813538
p8503
aa(lp8504
V19036824
p8505
aV18408869
p8506
aa(lp8507
V24057015
p8508
aa(lp8509
V23146774
p8510
aV20440695
p8511
aV15161201
p8512
aa(lp8513
V27329304
p8514
aV27121241
p8515
aV23962801
p8516
aV23391590
p8517
aV19010411
p8518
aV17139192
p8519
aa(lp8520
V18348534
p8521
aV12505539
p8522
aa(lp8523
V23685048
p8524
aV19584571
p8525
aV19135518
p8526
aV7194098
p8527
aa(lp8528
V17494865
p8529
aa(lp8530
V16530744
p8531
aa(lp8532
V6268172
p8533
aa(lp8534
V136120
p8535
aa(lp8536
V9435523
p8537
aV1718261
p8538
aa(lp8539
V17331331
p8540
aV11842336
p8541
aV11105561
p8542
aV10588517
p8543
aa(lp8544
V18556200
p8545
aV16399627
p8546
aa(lp8547
V10644043
p8548
aV10079014
p8549
aa(lp8550
V11566551
p8551
aa(lp8552
V22618373
p8553
aa(lp8554
V28218690
p8555
aV21910048
p8556
aV20030328
p8557
aa(lp8558
V12413852
p8559
aa(lp8560
V25088135
p8561
aV20856967
p8562
aV11057797
p8563
aV9794741
p8564
aa(lp8565
V28218684
p8566
aV26126961
p8567
aV22766206
p8568
aa(lp8569
V26796815
p8570
aV23266270
p8571
aa(lp8572
V10552623
p8573
aa(lp8574
V12505539
p8575
aa(lp8576
V24057015
p8577
aa(lp8578
V24057015
p8579
aa(lp8580
V27093247
p8581
aV19615684
p8582
aV18411267
p8583
aV12571677
p8584
aV11293405
p8585
aa(lp8586
V3365279
p8587
aa(lp8588
V23685048
p8589
aV19584571
p8590
aV19135518
p8591
aV7194098
p8592
aa(lp8593
V18274639
p8594
aV11829656
p8595
aa(lp8596
V25275514
p8597
aa(lp8598
V12426629
p8599
aa(lp8600
V19071206
p8601
aV15522132
p8602
aa(lp8603
V25884733
p8604
aV24699291
p8605
aV22829459
p8606
aV20477914
p8607
aa(lp8608
V24522147
p8609
aV17873398
p8610
aV9703204
p8611
aV8937711
p8612
aV6004770
p8613
aa(lp8614
V26035062
p8615
aV16737683
p8616
aa(lp8617
V26771591
p8618
aV21772233
p8619
aV15070161
p8620
aa(lp8621
V17204749
p8622
aa(lp8623
V26805810
p8624
aV22082098
p8625
aV21959301
p8626
aV18164321
p8627
aV17679551
p8628
aV17651994
p8629
aV17611931
p8630
aV17329837
p8631
aV12419687
p8632
aV12094296
p8633
aa(lp8634
V23411079
p8635
aa(lp8636
V24652524
p8637
aa(lp8638
V25100751
p8639
aV15537821
p8640
aV3981423
p8641
aa(lp8642
V27025382
p8643
aV26711832
p8644
aV22186340
p8645
aa(lp8646
V26052978
p8647
aV22525673
p8648
aa(lp8649
V1310225
p8650
aa(lp8651
V27131644
p8652
aV24607582
p8653
aV23619640
p8654
aV22713919
p8655
aV22705045
p8656
aV22277946
p8657
aV22264036
p8658
aV19554424
p8659
aV19166902
p8660
aV17572009
p8661
aa(lp8662
V25026715
p8663
aV24685589
p8664
aV18825536
p8665
aV10714491
p8666
aa(lp8667
V16105229
p8668
aa(lp8669
V12105964
p8670
aa(lp8671
V12213604
p8672
aa(lp8673
V27809603
p8674
aV25762161
p8675
aV25230516
p8676
aV17826984
p8677
aV16475343
p8678
aa(lp8679
V25801582
p8680
aV12213431
p8681
aa(lp8682
V10565878
p8683
aV8691509
p8684
aV6114117
p8685
aa(lp8686
V24886882
p8687
aV17496167
p8688
aa(lp8689
V16392661
p8690
aV6145802
p8691
aV6138434
p8692
aV6109540
p8693
aV536997
p8694
aa(lp8695
V22472109
p8696
aa(lp8697
V10509800
p8698
aa(lp8699
V10405048
p8700
aV7500868
p8701
aV3393576
p8702
aV4723051
p8703
aV14014394
p8704
aa(lp8705
V23780497
p8706
aa(lp8707
V24934677
p8708
aa(lp8709
V27919659
p8710
aV19434470
p8711
aV18676061
p8712
aa(lp8713
V25698600
p8714
aV20686231
p8715
aV17824807
p8716
aV17633540
p8717
aa(lp8718
V25738837
p8719
aV11703563
p8720
aV11390253
p8721
aV11270913
p8722
aV10229118
p8723
aV9141494
p8724
aV7822164
p8725
aV7515941
p8726
aa(lp8727
V25460312
p8728
aV22846081
p8729
aV21970807
p8730
aV21839077
p8731
aV20920567
p8732
aV17202693
p8733
aV16484046
p8734
aa(lp8735
V23954508
p8736
aV19519194
p8737
aV15451599
p8738
aV6062051
p8739
aa(lp8740
V21226474
p8741
aV17444631
p8742
aV7798951
p8743
aa(lp8744
V6502490
p8745
aa(lp8746
V11425199
p8747
aV10694215
p8748
aV10367774
p8749
aV9798921
p8750
aV8761326
p8751
aV7740580
p8752
aV8380882
p8753
aa(lp8754
V23039043
p8755
aV11457450
p8756
aa(lp8757
V12105964
p8758
aa(lp8759
V19481591
p8760
aa(lp8761
V21619922
p8762
aa(lp8763
V27447684
p8764
aV26412430
p8765
aV11458445
p8766
aa(lp8767
V26116026
p8768
aV25577230
p8769
aV24376554
p8770
aV22607494
p8771
aV19795650
p8772
aV18985352
p8773
aV16341544
p8774
aV16284778
p8775
aV12376637
p8776
aV11997374
p8777
aV8766819
p8778
aa(lp8779
V22006712
p8780
aa(lp8781
V22006712
p8782
aa(lp8783
V21222608
p8784
aV18792767
p8785
aa(lp8786
V10644043
p8787
aV10079014
p8788
aa(lp8789
V25934864
p8790
aV21493169
p8791
aV11829656
p8792
aa(lp8793
V20034210
p8794
aV16475343
p8795
aa(lp8796
V16309673
p8797
aa(lp8798
V27447684
p8799
aV26383017
p8800
aV25592708
p8801
aV24128147
p8802
aa(lp8803
V19848051
p8804
aV19774456
p8805
aV19127062
p8806
aV15363946
p8807
aV9665093
p8808
aV3911603
p8809
aV7186824
p8810
aa(lp8811
V18694995
p8812
aV17202721
p8813
aa(lp8814
V23902980
p8815
aa(lp8816
V18958424
p8817
aa(lp8818
V24970923
p8819
aV24508143
p8820
aV20435887
p8821
aV8861537
p8822
aV2839764
p8823
aV2971345
p8824
aa(lp8825
V27774796
p8826
aV23624606
p8827
aV21048310
p8828
aV20734328
p8829
aV16636966
p8830
aV16288976
p8831
aa(lp8832
V27094114
p8833
aV21614553
p8834
aa(lp8835
V25393510
p8836
aa(lp8837
V19811528
p8838
aV181503
p8839
aa(lp8840
V19164779
p8841
aV15085069
p8842
aV8865071
p8843
aV2898513
p8844
aV2873047
p8845
aV6260294
p8846
aa(lp8847
V10656413
p8848
aa(lp8849
V24912117
p8850
aa(lp8851
V12
p8852
aa(lp8853
V24057015
p8854
aa(lp8855
V25920227
p8856
aV23331131
p8857
aV20879743
p8858
aa(lp8859
V28068646
p8860
aV26045743
p8861
aV22250858
p8862
aV2755280
p8863
aV2553392
p8864
aa(lp8865
V11139387
p8866
aV2939883
p8867
aa(lp8868
V26808720
p8869
aa(lp8870
V17373445
p8871
aa(lp8872
V28165429
p8873
aa(lp8874
V26499345
p8875
aV25086379
p8876
aV19573579
p8877
aa(lp8878
V25536345
p8879
aa(lp8880
V1632497
p8881
aa(lp8882
V26385725
p8883
aV19000749
p8884
aV17442510
p8885
aV16445708
p8886
aV12094296
p8887
aa(lp8888
V22763851
p8889
aa(lp8890
V28479197
p8891
aV26081168
p8892
aV22465834
p8893
aV22382409
p8894
aV21544733
p8895
aV19886607
p8896
aV18958424
p8897
aa(lp8898
V26920948
p8899
aV25239892
p8900
aV24481136
p8901
aa(lp8902
V24057015
p8903
aa(lp8904
V19231641
p8905
aa(lp8906
V27774796
p8907
aV27178629
p8908
aV26539501
p8909
aV25397687
p8910
aV24842412
p8911
aV24114345
p8912
aV21048310
p8913
aV20734328
p8914
aV19429312
p8915
aV16636966
p8916
aV10632084
p8917
aa(lp8918
V22138973
p8919
aV18931133
p8920
aV16880931
p8921
aV11487515
p8922
aa(lp8923
V12591109
p8924
aa(lp8925
V8842691
p8926
aa(lp8927
V25710523
p8928
aa(lp8929
V20360620
p8930
aV15845805
p8931
aV11278975
p8932
aV9357961
p8933
aV8170969
p8934
aV3182167
p8935
aV2998822
p8936
aV4007150
p8937
aV4007149
p8938
aV6766674
p8939
aV5924604
p8940
aa(lp8941
V12213604
p8942
aa(lp8943
V16553644
p8944
aV9700982
p8945
aV9453467
p8946
aa(lp8947
V25397687
p8948
aV24163109
p8949
aV21048310
p8950
aV20734328
p8951
aV17227629
p8952
aa(lp8953
V27073026
p8954
aV14985133
p8955
aV1846516
p8956
aa(lp8957
V12717004
p8958
aV9501092
p8959
aV1321953
p8960
aa(lp8961
V20354348
p8962
aa(lp8963
V23780497
p8964
aV11411523
p8965
aa(lp8966
V9038227
p8967
aV7896049
p8968
aV8395923
p8969
aV2019986
p8970
aV3653979
p8971
aV3620981
p8972
aV3704998
p8973
aV3004466
p8974
aV3766232
p8975
aV6983882
p8976
aV6983353
p8977
aa(lp8978
V9369476
p8979
aV8386164
p8980
aV2997190
p8981
aa(lp8982
V24057015
p8983
aa(lp8984
V26750400
p8985
aV24866386
p8986
aV23052184
p8987
aa(lp8988
V9804563
p8989
aa(lp8990
V18676061
p8991
aa(lp8992
V10416830
p8993
aa(lp8994
V23464732
p8995
aV20088501
p8996
aV18676677
p8997
aV15801461
p8998
aV11367868
p8999
aV956922
p9000
aa(lp9001
V27919659
p9002
aV19434470
p9003
aV18676061
p9004
aa(lp9005
V7292312
p9006
aa(lp9007
V26067593
p9008
aV23030645
p9009
aV22752214
p9010
aV21843717
p9011
aV21238450
p9012
aV19881279
p9013
aV11137871
p9014
aV10945835
p9015
aV6277666
p9016
aV767190
p9017
aV1139077
p9018
aa(lp9019
V25106885
p9020
aa(lp9021
V25375233
p9022
aa(lp9023
V24338840
p9024
aa(lp9025
V24057015
p9026
aa(lp9027
V9042389
p9028
aa(lp9029
V24057015
p9030
aa(lp9031
V16423507
p9032
aa(lp9033
V16475343
p9034
aa(lp9035
V9124534
p9036
aa(lp9037
V23339991
p9038
aV9387190
p9039
aa(lp9040
V27340106
p9041
aV26081168
p9042
aV21975817
p9043
aV17987129
p9044
aV12094296
p9045
aa(lp9046
V28219839
p9047
aa(lp9048
V25176187
p9049
aV23596058
p9050
aV23495159
p9051
aV20446898
p9052
aV18091581
p9053
aV10208373
p9054
aV8355209
p9055
aV2572679
p9056
aV7250785
p9057
aV6297
p9058
aa(lp9059
V9771557
p9060
aa(lp9061
g3527
aa(lp9062
V20578973
p9063
aa(lp9064
V22791163
p9065
aa(lp9066
V18962653
p9067
aa(lp9068
V27818797
p9069
aV27180317
p9070
aV25200343
p9071
aV21251993
p9072
aV8734984
p9073
aV6257493
p9074
aV4333145
p9075
aa(lp9076
V24857914
p9077
aV65357
p9078
aa(lp9079
V27447684
p9080
aV26412430
p9081
aV11458445
p9082
aa(lp9083
V17035350
p9084
aa(lp9085
V16169234
p9086
aa(lp9087
V18544347
p9088
aV1092947
p9089
aa(lp9090
V25066549
p9091
aV12538000
p9092
aV10862830
p9093
aV10728658
p9094
aa(lp9095
V15930771
p9096
aV15809164
p9097
aV15780639
p9098
aV9667738
p9099
aa(lp9100
V21397503
p9101
aa(lp9102
V28479197
p9103
aV25637445
p9104
aV24972733
p9105
aV23600395
p9106
aV22210036
p9107
aV21567414
p9108
aV21353543
p9109
aV12705395
p9110
aa(lp9111
V17666802
p9112
aa(lp9113
V22078955
p9114
aa(lp9115
V18492808
p9116
aV4309720
p9117
aa(lp9118
V23230025
p9119
aV10826685
p9120
aa(lp9121
V22774933
p9122
aa(lp9123
V25272947
p9124
aV20552526
p9125
aV19481591
p9126
aV10844113
p9127
aV10455321
p9128
aV3322860
p9129
aV7389644
p9130
aV6011674
p9131
aa(lp9132
V21808981
p9133
aa(lp9134
V26515061
p9135
aV12722978
p9136
aV10768301
p9137
aV8566164
p9138
aV7513649
p9139
aV8099773
p9140
aa(lp9141
V19651654
p9142
aV10642831
p9143
aV9237515
p9144
aa(lp9145
V24789995
p9146
aa(lp9147
V24057015
p9148
aa(lp9149
V23786817
p9150
aV16845528
p9151
aV16426652
p9152
aV12885861
p9153
aV11699882
p9154
aV2236285
p9155
aV14245480
p9156
aa(lp9157
V28263754
p9158
aa(lp9159
V20406820
p9160
aV19531471
p9161
aV15744081
p9162
aV14975453
p9163
aV10578132
p9164
aV10381200
p9165
aV9224568
p9166
aV8931458
p9167
aV2581460
p9168
aV6331407
p9169
aa(lp9170
V26412430
p9171
aV15789752
p9172
aV1327821
p9173
aa(lp9174
V1903068
p9175
aa(lp9176
V24057015
p9177
aa(lp9178
V22734624
p9179
aV19243601
p9180
aa(lp9181
V11193427
p9182
aV10820058
p9183
aa(lp9184
V11193427
p9185
aV10820058
p9186
aa(lp9187
V24611620
p9188
aV20856967
p9189
aV11291736
p9190
aV9794741
p9191
aV4040478
p9192
aV3922793
p9193
aa(lp9194
V26385725
p9195
aV19000749
p9196
aV17442510
p9197
aV16445708
p9198
aV12094296
p9199
aa(lp9200
V10087331
p9201
aa(lp9202
V24057015
p9203
aa(lp9204
V27447684
p9205
aV26412430
p9206
aV11458445
p9207
aa(lp9208
V3365279
p9209
aa(lp9210
V17446019
p9211
aa(lp9212
V24057015
p9213
aa(lp9214
V24632453
p9215
aV23274852
p9216
aV23053727
p9217
aV21526974
p9218
aV19149265
p9219
aV3176975
p9220
aa.