(lp0
(lp1
V27819524
p2
aV17187196
p3
aa(lp4
V22768233
p5
aa(lp6
V17154673
p7
aV11790155
p8
aV22346384
p9
aV8694150
p10
aV2248836
p11
aa(lp12
V2631173
p13
aa(lp14
V10235193
p15
aa(lp16
V817194
p17
aa(lp18
V25446833
p19
aV19778248
p20
aV17261332
p21
aV15803633
p22
aV10441636
p23
aV9646526
p24
aa(lp25
V11259180
p26
aa(lp27
V17270343
p28
aa(lp29
V6711511
p30
aa(lp31
V964883
p32
aa(lp33
V25459857
p34
aV21763070
p35
aV1315810
p36
aV3571619
p37
aa(lp38
V26407346
p39
aV23450156
p40
aV16580279
p41
aV3681480
p42
aa(lp43
V15346929
p44
aa(lp45
V20855147
p46
aV16787025
p47
aV8270521
p48
aV2836484
p49
aV2993390
p50
aV3998237
p51
aV6097603
p52
aV6325380
p53
aV6302060
p54
aV7190580
p55
aa(lp56
V21889174
p57
aV21866363
p58
aa(lp59
V21550319
p60
aV19478855
p61
aV15073378
p62
aa(lp63
V22144023
p64
aa(lp65
V16963243
p66
aa(lp67
V19576434
p68
aa(lp69
V27037582
p70
aV22795764
p71
aV22034740
p72
aV19624752
p73
aV11538648
p74
aa(lp75
V17313202
p76
aa(lp77
V20227261
p78
aV17160208
p79
aV16440114
p80
aV16177199
p81
aa(lp82
V1185602
p83
aa(lp84
V18624450
p85
aV1551350
p86
aV7084443
p87
aa(lp88
V26994328
p89
aV25849392
p90
aV11030359
p91
aV9178485
p92
aa(lp93
V11198175
p94
aa(lp95
V27325291
p96
aV25224559
p97
aV24909119
p98
aV22033427
p99
aV21795578
p100
aV18577468
p101
aV16051380
p102
aV15228955
p103
aV12959545
p104
aV3996704
p105
aV6141886
p106
aa(lp107
V26963789
p108
aV23676691
p109
aV9068926
p110
aV2222551
p111
aa(lp112
V2037905
p113
aa(lp114
V27287102
p115
aV25025825
p116
aV24835559
p117
aV24548067
p118
aV22325429
p119
aV12809279
p120
aV9709358
p121
aa(lp122
V24956558
p123
aV23633302
p124
aV22029967
p125
aV15556445
p126
aV11942402
p127
aV2037905
p128
aa(lp129
V24047470
p130
aV21401390
p131
aa(lp132
V26598282
p133
aV25860714
p134
aV25318656
p135
aV22226638
p136
aV19786291
p137
aV16923600
p138
aV16895743
p139
aV12720372
p140
aV10565426
p141
aV1950032
p142
aV3954524
p143
aa(lp144
V27404904
p145
aV24835954
p146
aV23093419
p147
aV23520850
p148
aV1729463
p149
aV3681480
p150
aV6972114
p151
aa(lp152
V24561836
p153
aV23684222
p154
aV16861275
p155
aV15909681
p156
aV15488278
p157
aV7085504
p158
aa(lp159
V24610609
p160
aV21406090
p161
aa(lp162
V19131082
p163
aa(lp164
V15253858
p165
aV2631173
p166
aa(lp167
V25465849
p168
aa(lp169
V24909119
p170
aa(lp171
V18624450
p172
aV12059174
p173
aa(lp174
V18490110
p175
aV17954732
p176
aV15488278
p177
aV14963052
p178
aV11876696
p179
aV11695131
p180
aV1765836
p181
aV1842528
p182
aV3337043
p183
aV3954524
p184
aV14105062
p185
aa(lp186
V27684576
p187
aV24812231
p188
aV11790001
p189
aa(lp190
V7661162
p191
aa(lp192
V6329384
p193
aV7152084
p194
aV13976431
p195
aa(lp196
V23607686
p197
aV18390722
p198
aa(lp199
V24018198
p200
aV23676691
p201
aV23633302
p202
aV12895568
p203
aa(lp204
V1765836
p205
aa(lp206
V24835954
p207
aV20659758
p208
aV19145059
p209
aV9515186
p210
aV7565913
p211
aV14486716
p212
aa(lp213
V22496191
p214
aV12075349
p215
aV11398377
p216
aa(lp217
V22477661
p218
aa(lp219
V22446136
p220
aV15793823
p221
aV11601708
p222
aV10819205
p223
aa(lp224
V32756
p225
aa(lp226
V2253905
p227
aV2469483
p228
aV5020882
p229
aa(lp230
V25144853
p231
aV22477661
p232
aV19672093
p233
aV15922820
p234
aV15249020
p235
aV12175216
p236
aV9125637
p237
aV1980576
p238
aa(lp239
V12773082
p240
aV12559792
p241
aV12507846
p242
aV2665654
p243
aa(lp244
V26920212
p245
aV26584468
p246
aV24269625
p247
aV22761890
p248
aV21306378
p249
aV1589955
p250
aV3439068
p251
aV14212112
p252
aa(lp253
V10427772
p254
aV5126456
p255
aa(lp256
V25224559
p257
aV20027170
p258
aa(lp259
V23308189
p260
aa(lp261
V18624450
p262
aV10683804
p263
aa(lp264
V6253552
p265
aV331923
p266
aV14183600
p267
aa(lp268
V22217079
p269
aa(lp270
V7964234
p271
aa(lp272
V24873705
p273
aV23870453
p274
aV19615690
p275
aa(lp276
V27803493
p277
aV23070937
p278
aV20478377
p279
aV11098444
p280
aV9710770
p281
aV3946112
p282
aa(lp283
V23612042
p284
aV21449454
p285
aV21121292
p286
aV19932190
p287
aV12724827
p288
aV12175940
p289
aV793687
p290
aa(lp291
V19903967
p292
aV17096552
p293
aV15987857
p294
aV15333998
p295
aV117949
p296
aV100155
p297
aa(lp298
V17688173
p299
aV10511919
p300
aa(lp301
V20552100
p302
aV20515559
p303
aV16963243
p304
aV2820264
p305
aV7152084
p306
aa(lp307
V19540344
p308
aV16682231
p309
aa(lp310
V26847144
p311
aV25368148
p312
aV365665
p313
aV219500
p314
aa(lp315
V27543127
p316
aa(lp317
V1744263
p318
aa(lp319
V25732428
p320
aV25144853
p321
aV20213972
p322
aV19879037
p323
aV8717010
p324
aV1452954
p325
aV1524066
p326
aa(lp327
V23677680
p328
aV19267240
p329
aV12773082
p330
aV12040126
p331
aV10235193
p332
aV964883
p333
aa(lp334
V23790828
p335
aV8549661
p336
aV1735463
p337
aa(lp338
V26639752
p339
aV26292104
p340
aV20099736
p341
aV10552391
p342
aa(lp343
V8429441
p344
aa(lp345
V6145539
p346
aa(lp347
V16979272
p348
aa(lp349
V9274239
p350
aV11541205
p351
aV1452954
p352
aV11538645
p353
aa(lp354
V21271424
p355
aV7872490
p356
aa(lp357
V25416586
p358
aV20075632
p359
aV15793823
p360
aa(lp361
V22252574
p362
aa(lp363
V22446136
p364
aV10819205
p365
aa(lp366
V19879037
p367
aa(lp368
V1551350
p369
aV4921059
p370
aa(lp371
V12895568
p372
aa(lp373
V27988643
p374
aV27669216
p375
aV26868565
p376
aV26639752
p377
aV17435299
p378
aV12210124
p379
aV11290451
p380
aV1497356
p381
aV793687
p382
aV1203750
p383
aa(lp384
V26830564
p385
aV22385807
p386
aV16462660
p387
aV8289699
p388
aV4321135
p389
aV14071170
p390
aa(lp391
V6706577
p392
aa(lp393
V9840019
p394
aV9789131
p395
aV8273794
p396
aV1589705
p397
aV2687668
p398
aa(lp399
V20529947
p400
aV20020110
p401
aV15286019
p402
aV9061156
p403
aa(lp404
V27020613
p405
aV21932217
p406
aV19460175
p407
aa(lp408
V27770876
p409
aV20150645
p410
aa(lp411
V23461585
p412
aa(lp413
V25144853
p414
aa(lp415
V27452992
p416
aV19968466
p417
aV19484211
p418
aV17604683
p419
aV15949609
p420
aV15682505
p421
aV11542304
p422
aa(lp423
V26186724
p424
aV23860577
p425
aV18350880
p426
aV17200850
p427
aV16428824
p428
aV11789939
p429
aV11601708
p430
aV7277574
p431
aa(lp432
V15253858
p433
aa(lp434
V27540772
p435
aV25463799
p436
aV20143717
p437
aa(lp438
V25093983
p439
aV22292966
p440
aV10578490
p441
aV3998237
p442
aa(lp443
V23669626
p444
aV12952169
p445
aV9084635
p446
aa(lp447
V22622668
p448
aV21117681
p449
aV20567885
p450
aa(lp451
V24156211
p452
aV20552100
p453
aV10383511
p454
aa(lp455
V16963243
p456
aa(lp457
V1980576
p458
aa(lp459
V25326825
p460
aV22198121
p461
aV18624247
p462
aa(lp463
V2170086
p464
aa(lp465
V10713975
p466
aV5707326
p467
aa(lp468
V24835954
p469
aa(lp470
V11445343
p471
aa(lp472
V17324671
p473
aa(lp474
V24197786
p475
aa(lp476
V4284575
p477
aV13970016
p478
aV13970015
p479
aV13381876
p480
aa(lp481
V2222790
p482
aa(lp483
V23529735
p484
aa(lp485
V12186294
p486
aa(lp487
V23200379
p488
aV20121108
p489
aV19267285
p490
aV17072954
p491
aV10489511
p492
aV10067386
p493
aV8156044
p494
aV7291287
p495
aV787491
p496
aV239592
p497
aa(lp498
V21146263
p499
aa(lp500
V2706658
p501
aa(lp502
V25115654
p503
aV23860837
p504
aV22798241
p505
aV20567885
p506
aV20347221
p507
aV19132509
p508
aV17127113
p509
aV16392140
p510
aV16153899
p511
aa(lp512
V8837860
p513
aV4800890
p514
aa(lp515
V20031181
p516
aV17951052
p517
aV2329206
p518
aV2625487
p519
aa(lp520
V1718219
p521
aa(lp522
V26500177
p523
aV24469323
p524
aV21465817
p525
aV20648341
p526
aV18519211
p527
aV18519210
p528
aV16002615
p529
aa(lp530
V8034456
p531
aV3587329
p532
aV1185602
p533
aa(lp534
V25681477
p535
aV24602270
p536
aV5501388
p537
aa(lp538
V24707302
p539
aV12489244
p540
aV1492408
p541
aa(lp542
V24621615
p543
aV23417894
p544
aa(lp545
V21649454
p546
aa(lp547
V1605980
p548
aV1888563
p549
aa(lp550
V20623611
p551
aa(lp552
V18939502
p553
aV2619883
p554
aV814774
p555
aV4626827
p556
aa(lp557
V28424343
p558
aV24685456
p559
aV24197786
p560
aV24037763
p561
aV16937256
p562
aV16406781
p563
aV11198175
p564
aV1599300
p565
aV1490841
p566
aV4799153
p567
aa(lp568
V1599300
p569
aa(lp570
V20304410
p571
aV2331951
p572
aV6337934
p573
aa(lp574
V237748
p575
aa(lp576
V1980576
p577
aV5126456
p578
aa(lp579
V5482325
p580
aa(lp581
V14996417
p582
aa(lp583
V21565396
p584
aa(lp585
V25807349
p586
aV23158520
p587
aV21307770
p588
aV6764387
p589
aV4613136
p590
aa(lp591
V8166033
p592
aa(lp593
V28525719
p594
aV15501150
p595
aV12895568
p596
aV3571619
p597
aa(lp598
V24416776
p599
aV22477661
p600
aV11981051
p601
aV2037905
p602
aa(lp603
V25704101
p604
aa(lp605
V27769562
p606
aV22634947
p607
aV11759915
p608
aa(lp609
V7344257
p610
aa(lp611
V9432317
p612
aV1893435
p613
aV3337043
p614
aV1236715
p615
aV239592
p616
aa(lp617
V24626377
p618
aa(lp619
V24626377
p620
aV23962634
p621
aV10235193
p622
aV3954524
p623
aV7030064
p624
aa(lp625
V24018198
p626
aa(lp627
V3337043
p628
aa(lp629
V28386250
p630
aV25520127
p631
aV8659505
p632
aV1842528
p633
aV3337043
p634
aa(lp635
V24781979
p636
aa(lp637
V25144853
p638
aa(lp639
V19198358
p640
aa(lp641
V23186664
p642
aV20696572
p643
aV3946112
p644
aa(lp645
V23677680
p646
aV19267240
p647
aV12773082
p648
aV12040126
p649
aV10235193
p650
aV964883
p651
aa(lp652
V27452992
p653
aV20854428
p654
aV19664464
p655
aV16723116
p656
aV11436967
p657
aV10235193
p658
aV4396994
p659
aa(lp660
V26655888
p661
aa(lp662
V11290451
p663
aV1497356
p664
aa(lp665
V24393043
p666
aV23676571
p667
aV18202900
p668
aV9023043
p669
aV4016580
p670
aV4963785
p671
aV14856407
p672
aa(lp673
V16754865
p674
aa(lp675
V25822306
p676
aV22484377
p677
aV22348413
p678
aV22403986
p679
aV10511919
p680
aa(lp681
V27464022
p682
aV23135153
p683
aV17768591
p684
aa(lp685
V21889174
p686
aa(lp687
V16193171
p688
aV14653317
p689
aa(lp690
V24745628
p691
aV24291423
p692
aV24184467
p693
aV10890440
p694
aa(lp695
V24561836
p696
aV20227261
p697
aV18292274
p698
aV9526828
p699
aV1799552
p700
aV2653696
p701
aV6921199
p702
aa(lp703
V26530218
p704
aV24150015
p705
aV24066235
p706
aV21337839
p707
aV21249411
p708
aV20027639
p709
aV19538811
p710
aV17126593
p711
aV11065194
p712
aV10473174
p713
aV2019698
p714
aa(lp715
V23276415
p716
aV8304650
p717
aV3949163
p718
aa(lp719
V27461067
p720
aV13679824
p721
aa(lp722
V24407686
p723
aV17886634
p724
aa(lp725
V16963243
p726
aa(lp727
V17688173
p728
aV1980576
p729
aa(lp730
V26207820
p731
aa(lp732
V12562321
p733
aV2611360
p734
aa(lp735
V17249489
p736
aV9125637
p737
aV2787993
p738
aa(lp739
V2887324
p740
aa(lp741
V238830
p742
aa(lp743
V21384031
p744
aV20820629
p745
aV16963243
p746
aV10759621
p747
aV8166033
p748
aV3948402
p749
aV6145539
p750
aa(lp751
V11876696
p752
aV11850669
p753
aV3513329
p754
aa(lp755
V27127050
p756
aV26686924
p757
aV25416586
p758
aV22422592
p759
aV22099642
p760
aV20486658
p761
aV20356730
p762
aV18299148
p763
aV15360312
p764
aa(lp765
V3471900
p766
aV7186027
p767
aa(lp768
V12186294
p769
aa(lp770
V19888
p771
aa(lp772
V25967924
p773
aa(lp774
V16963243
p775
aV2323524
p776
aa(lp777
V22587976
p778
aa(lp779
V25686721
p780
aV25626727
p781
aV1920938
p782
aV14332069
p783
aa(lp784
V24202496
p785
aa(lp786
V25254233
p787
aV22663184
p788
aV16924962
p789
aV12895568
p790
aV4113385
p791
aa(lp792
V22536356
p793
aa(lp794
V16983487
p795
aV12224052
p796
aV8819888
p797
aa(lp798
V21860666
p799
aa(lp800
V27677152
p801
aV19939669
p802
aV2884709
p803
aa(lp804
V20227261
p805
aV17160208
p806
aV14974731
p807
aa(lp808
V19576434
p809
aa(lp810
V16365738
p811
aa(lp812
V24066235
p813
aa(lp814
V16983487
p815
aa(lp816
V19131082
p817
aa(lp818
V27461067
p819
aa(lp820
V16411954
p821
aV14936297
p822
aV14905624
p823
aa(lp824
V24407686
p825
aV23070937
p826
aa(lp827
V27287102
p828
aa(lp829
V21780397
p830
aa(lp831
V27173535
p832
aV27124707
p833
aV14568420
p834
aa(lp835
V24958423
p836
aV22484377
p837
aV21658077
p838
aV21332600
p839
aV22403986
p840
aV20534951
p841
aV18321055
p842
aV15525560
p843
aV12520633
p844
aa(lp845
V25648647
p846
aV25465849
p847
aa(lp848
V11243369
p849
aa(lp850
V25982987
p851
aV25625860
p852
aa(lp853
V25224559
p854
aV20027170
p855
aa(lp856
V19786291
p857
aV12720372
p858
aa(lp859
V27461067
p860
aa(lp861
V25681477
p862
aV24602270
p863
aV5501388
p864
aa(lp865
V23790828
p866
aV8549661
p867
aV1735463
p868
aV999156
p869
aa(lp870
V26915145
p871
aV19007018
p872
aa(lp873
V27145592
p874
aa(lp875
V5544283
p876
aa(lp877
V26693268
p878
aa(lp879
V27145592
p880
aa(lp881
V27040242
p882
aV24125869
p883
aV22483929
p884
aV17999055
p885
aV12762654
p886
aV11980181
p887
aa(lp888
V27741269
p889
aa(lp890
V22761890
p891
aa(lp892
V24202496
p893
aa(lp894
V27404904
p895
aV26586633
p896
aV24835954
p897
aV24676400
p898
aV23093419
p899
aV23520850
p900
aa(lp901
V24066235
p902
aV17688173
p903
aV487912
p904
aa(lp905
V20092872
p906
aa(lp907
V17435299
p908
aV15892758
p909
aV15109145
p910
aV4074951
p911
aa(lp912
V18202900
p913
aV16924962
p914
aV16515824
p915
aa(lp916
V25849392
p917
aa(lp918
V18202900
p919
aa(lp920
V15793823
p921
aa(lp922
V26835241
p923
aV10427772
p924
aa(lp925
V27325291
p926
aV25224559
p927
aV24909119
p928
aV22033427
p929
aV21795578
p930
aV18577468
p931
aV18410381
p932
aV16051380
p933
aV15228955
p934
aV12959545
p935
aV12819274
p936
aa(lp937
V21550319
p938
aV19478855
p939
aV13549499
p940
aa(lp941
V25065800
p942
aa(lp943
V21860666
p944
aV18501616
p945
aV17498963
p946
aV12486808
p947
aa(lp948
V22919834
p949
aa(lp950
V964883
p951
aa(lp952
V21855332
p953
aa(lp954
V25503327
p955
aa(lp956
V14927857
p957
aa(lp958
V16979272
p959
aa(lp960
V26589869
p961
aa(lp962
V814774
p963
aV4626827
p964
aa(lp965
V23633302
p966
aa(lp967
V28501770
p968
aV28213721
p969
aV26513318
p970
aV25826946
p971
aV18054161
p972
aV5818438
p973
aa(lp974
V12089990
p975
aV9134133
p976
aV3619090
p977
aV553488
p978
aa(lp979
V23022084
p980
aV21085788
p981
aV17684750
p982
aa(lp983
V15892758
p984
aV15109145
p985
aa(lp986
V24066235
p987
aa(lp988
V16924962
p989
aV3946840
p990
aV5912899
p991
aa(lp992
V1019309
p993
aa(lp994
V14645389
p995
aa(lp996
V20139575
p997
aa(lp998
V486758
p999
aa(lp1000
V25503327
p1001
aV3946840
p1002
aa(lp1003
V7964234
p1004
aa(lp1005
V26452507
p1006
aV2378105
p1007
aV14887593
p1008
aa(lp1009
V27825549
p1010
aV26870843
p1011
aV25618702
p1012
aV24631610
p1013
aV17117649
p1014
aV16308778
p1015
aa(lp1016
V24030453
p1017
aV20092872
p1018
aV16308778
p1019
aV7749275
p1020
aa(lp1021
V23790828
p1022
aa(lp1023
V20637582
p1024
aa(lp1025
V27988643
p1026
aV27669216
p1027
aV26868565
p1028
aV20650336
p1029
aV17435299
p1030
aV12210124
p1031
aV11290451
p1032
aV8747426
p1033
aV1497356
p1034
aV202553
p1035
aa(lp1036
V27863882
p1037
aV26186724
p1038
aV23860577
p1039
aV18400997
p1040
aV18350880
p1041
aV16428824
p1042
aa(lp1043
V15263013
p1044
aV3764096
p1045
aa(lp1046
V11790001
p1047
aa(lp1048
V25503327
p1049
aa(lp1050
V26552530
p1051
aV22900947
p1052
aa(lp1053
V21497441
p1054
aV11790001
p1055
aa(lp1056
V16193171
p1057
aV14653317
p1058
aa(lp1059
V21649454
p1060
aa(lp1061
V24018198
p1062
aV10641277
p1063
aa(lp1064
V25144853
p1065
aa(lp1066
V23454466
p1067
aa(lp1068
V964883
p1069
aV5235222
p1070
aa(lp1071
V24037763
p1072
aa(lp1073
V1873986
p1074
aV3996704
p1075
aV6141886
p1076
aV42187
p1077
aV486758
p1078
aa(lp1079
V24047470
p1080
aV21401390
p1081
aa(lp1082
V15364435
p1083
aV12559792
p1084
aV12507846
p1085
aV2665654
p1086
aa(lp1087
V27677152
p1088
aV19939669
p1089
aV2884709
p1090
aa(lp1091
V5627679
p1092
aa(lp1093
V10235193
p1094
aa(lp1095
V9084635
p1096
aV1118730
p1097
aa(lp1098
V27020613
p1099
aV26876022
p1100
aV25163895
p1101
aV24590164
p1102
aV23896564
p1103
aV20820629
p1104
aV19460175
p1105
aV19117468
p1106
aV5363267
p1107
aV13708397
p1108
aa(lp1109
V24685456
p1110
aV24037763
p1111
aV12810317
p1112
aV12720372
p1113
aa(lp1114
V11290451
p1115
aV8747426
p1116
aV1497356
p1117
aa(lp1118
V25065800
p1119
aa(lp1120
V26115271
p1121
aV24646151
p1122
aV23422306
p1123
aV23312864
p1124
aV20116232
p1125
aa(lp1126
V16924962
p1127
aV16411954
p1128
aV14936297
p1129
aV14905624
p1130
aa(lp1131
V20855147
p1132
aV18567736
p1133
aV16787025
p1134
aV9498349
p1135
aV8270521
p1136
aV2993390
p1137
aV6302060
p1138
aV5022481
p1139
aa(lp1140
V16844190
p1141
aa(lp1142
V25503327
p1143
aa(lp1144
V26461459
p1145
aa(lp1146
V1000602
p1147
aa(lp1148
V15276269
p1149
aV11504218
p1150
aV9813837
p1151
aV8627918
p1152
aa(lp1153
V5728046
p1154
aa(lp1155
V28501770
p1156
aV26612564
p1157
aV25652732
p1158
aV27145592
p1159
aV23070937
p1160
aV19304384
p1161
aV17336055
p1162
aV16411954
p1163
aV11790001
p1164
aV10819206
p1165
aV5912899
p1166
aa(lp1167
V25822306
p1168
aV21905402
p1169
aa(lp1170
V16983487
p1171
aa(lp1172
V27461067
p1173
aa(lp1174
V16411954
p1175
aa(lp1176
V27287102
p1177
aa(lp1178
V16924962
p1179
aV16411954
p1180
aV14936297
p1181
aV14905624
p1182
aa(lp1183
V24945791
p1184
aa(lp1185
V25648647
p1186
aV25465849
p1187
aa(lp1188
V11243369
p1189
aa(lp1190
V24018198
p1191
aa(lp1192
V27461067
p1193
aa(lp1194
V25681477
p1195
aV24602270
p1196
aV5501388
p1197
aa(lp1198
V25158503
p1199
aa(lp1200
V23790828
p1201
aV8549661
p1202
aV1735463
p1203
aV999156
p1204
aa(lp1205
V27145592
p1206
aa(lp1207
V25144853
p1208
aa(lp1209
V5544283
p1210
aa(lp1211
V19478855
p1212
aa(lp1213
V27040242
p1214
aV24125869
p1215
aV22483929
p1216
aV17999055
p1217
aV12762654
p1218
aV11980181
p1219
aa(lp1220
V27741269
p1221
aa(lp1222
V22761890
p1223
aa(lp1224
V27363150
p1225
aV25383956
p1226
aV21571430
p1227
aV21247084
p1228
aV9498349
p1229
aa(lp1230
V24066235
p1231
aV17688173
p1232
aV487912
p1233
aa(lp1234
V17435299
p1235
aV15892758
p1236
aV15109145
p1237
aV4074951
p1238
aa(lp1239
V23790828
p1240
aa(lp1241
V27325291
p1242
aa(lp1243
V25065800
p1244
aa(lp1245
V21855332
p1246
aa(lp1247
V14927857
p1248
aa(lp1249
V814774
p1250
aV4626827
p1251
aa(lp1252
V12089990
p1253
aV9134133
p1254
aV3619090
p1255
aV553488
p1256
aa(lp1257
V23022084
p1258
aV21085788
p1259
aV17684750
p1260
aa(lp1261
V21649454
p1262
aa(lp1263
V486758
p1264
aa(lp1265
V23633302
p1266
aa(lp1267
V27825549
p1268
aV26870843
p1269
aV25618702
p1270
aV24631610
p1271
aV17117649
p1272
aV16308778
p1273
aa(lp1274
V24030453
p1275
aV20092872
p1276
aV16308778
p1277
aV7749275
p1278
aa(lp1279
V23790828
p1280
aa(lp1281
V27988643
p1282
aV27669216
p1283
aV26868565
p1284
aV20650336
p1285
aV17435299
p1286
aV12210124
p1287
aV11290451
p1288
aV8747426
p1289
aV1497356
p1290
aV202553
p1291
aa(lp1292
V25503327
p1293
aa(lp1294
V26552530
p1295
aa(lp1296
V22790119
p1297
aV21160522
p1298
aV19787544
p1299
aa(lp1300
V27741269
p1301
aa(lp1302
V27863882
p1303
aV26186724
p1304
aV23860577
p1305
aV18400997
p1306
aV18350880
p1307
aV16428824
p1308
aa(lp1309
V964883
p1310
aV5235222
p1311
aa(lp1312
V24037763
p1313
aa(lp1314
V1873986
p1315
aV3996704
p1316
aV6141886
p1317
aV42187
p1318
aV486758
p1319
aa(lp1320
V12394224
p1321
aa(lp1322
V24047470
p1323
aa(lp1324
V17029312
p1325
aV16401127
p1326
aV12394224
p1327
aa(lp1328
V15364435
p1329
aV12559792
p1330
aV12507846
p1331
aV2665654
p1332
aa(lp1333
V5627679
p1334
aa(lp1335
V10235193
p1336
aa(lp1337
V9084635
p1338
aV1118730
p1339
aa(lp1340
V25163895
p1341
aa(lp1342
V24037763
p1343
aa(lp1344
V1497356
p1345
aa(lp1346
V25065800
p1347
aa(lp1348
V22790119
p1349
aV21160522
p1350
aV19787544
p1351
aa(lp1352
V24945791
p1353
aa(lp1354
V26461459
p1355
aa(lp1356
V27677152
p1357
aV19939669
p1358
aV2884709
p1359
aa(lp1360
V16411954
p1361
aa(lp1362
V17012880
p1363
aa(lp1364
V14606931
p1365
aV4020559
p1366
aa(lp1367
V1896092
p1368
aa(lp1369
V21137574
p1370
aV3341249
p1371
aa(lp1372
V28464026
p1373
aV28068585
p1374
aV27039212
p1375
aV26552428
p1376
aV25242027
p1377
aV21721259
p1378
aV11601298
p1379
aV3946112
p1380
aV7156442
p1381
aa(lp1382
V25047240
p1383
aa(lp1384
V23311987
p1385
aV22926146
p1386
aa(lp1387
V18094107
p1388
aa(lp1389
V2170884
p1390
aV6662873
p1391
aV843557
p1392
aa(lp1393
V27770929
p1394
aV16215841
p1395
aV8099348
p1396
aV2837754
p1397
aa(lp1398
V20817258
p1399
aa(lp1400
V23052588
p1401
aV12495426
p1402
aa(lp1403
V28295108
p1404
aV20044571
p1405
aV15207604
p1406
aa(lp1407
V27455680
p1408
aa(lp1409
V26453245
p1410
aa(lp1411
V27039212
p1412
aV25242027
p1413
aa(lp1414
V24845065
p1415
aV19228025
p1416
aa(lp1417
V23824675
p1418
aV23475567
p1419
aV15585441
p1420
aa(lp1421
V17963960
p1422
aV12408497
p1423
aV11076874
p1424
aV9665102
p1425
aV2368697
p1426
aa(lp1427
V23945405
p1428
aV16177199
p1429
aa(lp1430
V25903174
p1431
aV23673486
p1432
aV17951052
p1433
aV14605278
p1434
aV11393764
p1435
aV10857004
p1436
aV9377102
p1437
aV6972566
p1438
aa(lp1439
V1100939
p1440
aV4405403
p1441
aa(lp1442
V25310996
p1443
aV15691943
p1444
aV7565913
p1445
aV7296884
p1446
aa(lp1447
V19918881
p1448
aV2237719
p1449
aV2682004
p1450
aV6269102
p1451
aa(lp1452
V6174383
p1453
aa(lp1454
V25907947
p1455
aV22950493
p1456
aV2753281
p1457
aV3563454
p1458
aV3863229
p1459
aV6755652
p1460
aV6941407
p1461
aV6784737
p1462
aa(lp1463
V21976442
p1464
aV18988242
p1465
aa(lp1466
V27053227
p1467
aa(lp1468
V11601708
p1469
aa(lp1470
V18363737
p1471
aa(lp1472
V23311987
p1473
aV22926146
p1474
aa(lp1475
V17931645
p1476
aa(lp1477
V12495426
p1478
aa(lp1479
V23012931
p1480
aV17762217
p1481
aa(lp1482
V27464022
p1483
aV24141114
p1484
aV23523543
p1485
aV21316734
p1486
aV9860822
p1487
aa(lp1488
V25310996
p1489
aV15691943
p1490
aV7565913
p1491
aV7296884
p1492
aa(lp1493
V20817258
p1494
aV9433776
p1495
aa(lp1496
V15207604
p1497
aa(lp1498
V28231537
p1499
aa(lp1500
V24197786
p1501
aV8106649
p1502
aV5665981
p1503
aa(lp1504
V16211855
p1505
aa(lp1506
V28068585
p1507
aV11601298
p1508
aV3946112
p1509
aa(lp1510
V21787678
p1511
aV3629603
p1512
aa(lp1513
V25929974
p1514
aV7303750
p1515
aV4144160
p1516
aV4196601
p1517
aa(lp1518
V28464026
p1519
aV28068585
p1520
aV21721259
p1521
aa(lp1522
V20408585
p1523
aa(lp1524
V24686805
p1525
aV22895810
p1526
aV11711264
p1527
aa(lp1528
V22926146
p1529
aa(lp1530
V18094107
p1531
aa(lp1532
V22350296
p1533
aV21177000
p1534
aV2155889
p1535
aa(lp1536
V16211855
p1537
aV2222551
p1538
aa(lp1539
V16909941
p1540
aa(lp1541
V27100529
p1542
aV22628021
p1543
aV17703662
p1544
aV17441148
p1545
aa(lp1546
V23621524
p1547
aV22940297
p1548
aV17488068
p1549
aV5461980
p1550
aV5387575
p1551
aV5948880
p1552
aa(lp1553
V27085318
p1554
aV15581000
p1555
aa(lp1556
V23295505
p1557
aa(lp1558
V28464026
p1559
aV28068585
p1560
aV27039212
p1561
aV26552428
p1562
aV25242027
p1563
aV21721259
p1564
aV11601298
p1565
aa(lp1566
V16256327
p1567
aV15725301
p1568
aV8717010
p1569
aa(lp1570
V12408497
p1571
aa(lp1572
V4902203
p1573
aa(lp1574
V15913178
p1575
aa(lp1576
V23311987
p1577
aV22926146
p1578
aa(lp1579
V10415
p1580
aV14056680
p1581
aa(lp1582
V20977196
p1583
aV18363737
p1584
aV16300993
p1585
aa(lp1586
V27464022
p1587
aV25874681
p1588
aa(lp1589
V10099043
p1590
aa(lp1591
V25821185
p1592
aV18395976
p1593
aV16861275
p1594
aV11247035
p1595
aV10625391
p1596
aa(lp1597
V25260740
p1598
aV23090419
p1599
aV22678751
p1600
aV21591805
p1601
aa(lp1602
V22678751
p1603
aV20651254
p1604
aV17875796
p1605
aV16082185
p1606
aV11395314
p1607
aV11150716
p1608
aV10890383
p1609
aV10096515
p1610
aa(lp1611
V27398503
p1612
aV22838508
p1613
aV18717588
p1614
aV392262
p1615
aV14113320
p1616
aa(lp1617
V6231062
p1618
aa(lp1619
V23295505
p1620
aV22318120
p1621
aV21649454
p1622
aa(lp1623
V2335528
p1624
aa(lp1625
V28231537
p1626
aa(lp1627
V14979692
p1628
aa(lp1629
V25793599
p1630
aa(lp1631
V17263542
p1632
aa(lp1633
V23831490
p1634
aV21575703
p1635
aV17434301
p1636
aa(lp1637
V26453784
p1638
aa(lp1639
V23295505
p1640
aV22318120
p1641
aV21649454
p1642
aa(lp1643
V11536853
p1644
aV4557975
p1645
aa(lp1646
V28069089
p1647
aa(lp1648
V27907043
p1649
aV24015970
p1650
aV16474881
p1651
aV15963369
p1652
aV12878126
p1653
aV11871566
p1654
aV11539784
p1655
aV9995
p1656
aa(lp1657
V20648359
p1658
aa(lp1659
V8472979
p1660
aV1641505
p1661
aV1541409
p1662
aV2595273
p1663
aa(lp1664
V28295108
p1665
aV26143232
p1666
aV21649454
p1667
aa(lp1668
V10422349
p1669
aV9533062
p1670
aV6174725
p1671
aa(lp1672
V21609013
p1673
aV14717192
p1674
aV11506019
p1675
aa(lp1676
V22840873
p1677
aa(lp1678
V23684782
p1679
aV23623858
p1680
aV22886368
p1681
aV21092814
p1682
aV17332322
p1683
aV16288302
p1684
aV11695615
p1685
aV10440429
p1686
aV8206486
p1687
aV2139454
p1688
aV6768658
p1689
aa(lp1690
V16909941
p1691
aa(lp1692
V24933798
p1693
aV6391667
p1694
aa(lp1695
V23311987
p1696
aV22926146
p1697
aa(lp1698
V17434301
p1699
aa(lp1700
V26527264
p1701
aV4369123
p1702
aa(lp1703
V26910018
p1704
aV26453784
p1705
aV26453245
p1706
aV16317555
p1707
aa(lp1708
V22705175
p1709
aa(lp1710
V27684576
p1711
aV6686236
p1712
aa(lp1713
V23907218
p1714
aV22421918
p1715
aV4137245
p1716
aa(lp1717
V23311987
p1718
aV22926146
p1719
aa(lp1720
V16619191
p1721
aV8909827
p1722
aa(lp1723
V25689541
p1724
aV25224757
p1725
aV10632657
p1726
aV8739211
p1727
aa(lp1728
V22054420
p1729
aV16428824
p1730
aV11198264
p1731
aV6265650
p1732
aV5491908
p1733
aa(lp1734
V17963960
p1735
aV12408497
p1736
aa(lp1737
V27471154
p1738
aV22608436
p1739
aa(lp1740
V25903174
p1741
aV23673486
p1742
aV17951052
p1743
aV14605278
p1744
aV11393764
p1745
aV10857004
p1746
aV9377102
p1747
aV6972566
p1748
aa(lp1749
V18383826
p1750
aa(lp1751
V23523543
p1752
aV20851471
p1753
aV15829414
p1754
aV12421549
p1755
aV28593572
p1756
aV7955122
p1757
aV1350471
p1758
aV1914362
p1759
aV2788112
p1760
aV6155808
p1761
aV1096900
p1762
aa(lp1763
V24783978
p1764
aV7752807
p1765
aa(lp1766
V22381074
p1767
aV16509350
p1768
aV8781742
p1769
aV7752807
p1770
aV2914978
p1771
aV3609644
p1772
aa(lp1773
V18161631
p1774
aa(lp1775
V8415858
p1776
aV981301
p1777
aV5881027
p1778
aa(lp1779
V3319347
p1780
aa(lp1781
V22054420
p1782
aV11286326
p1783
aa(lp1784
V18007458
p1785
aV16761567
p1786
aV11321542
p1787
aV2510252
p1788
aV6423238
p1789
aa(lp1790
V25063580
p1791
aV21860666
p1792
aV21550319
p1793
aV19616099
p1794
aV19478855
p1795
aV18501616
p1796
aV17498963
p1797
aV16682231
p1798
aV12486808
p1799
aV13549499
p1800
aa(lp1801
V23311987
p1802
aV22926146
p1803
aa(lp1804
V25260740
p1805
aa(lp1806
V11522584
p1807
aV11512981
p1808
aV1602906
p1809
aV2909235
p1810
aV7164833
p1811
aV1080159
p1812
aV239026
p1813
aV126430
p1814
aV5049612
p1815
aV4670119
p1816
aa(lp1817
V6828417
p1818
aa(lp1819
V23108710
p1820
aa(lp1821
V2788112
p1822
aa(lp1823
V19104870
p1824
aa(lp1825
V25511229
p1826
aV24477337
p1827
aV23260248
p1828
aV19438585
p1829
aV17258843
p1830
aV15708806
p1831
aa(lp1832
V4323967
p1833
aa(lp1834
V19476372
p1835
aa(lp1836
V27349787
p1837
aV21630642
p1838
aV16939237
p1839
aV16474881
p1840
aV16215756
p1841
aV14982178
p1842
aV12868533
p1843
aV10641277
p1844
aV10469190
p1845
aa(lp1846
V23246939
p1847
aV23033909
p1848
aV17935711
p1849
aV12070029
p1850
aV9468021
p1851
aV8868281
p1852
aV8044783
p1853
aV8206486
p1854
aa(lp1855
V8679452
p1856
aV5933916
p1857
aV13345193
p1858
aa(lp1859
V17488068
p1860
aV16296840
p1861
aa(lp1862
V24871399
p1863
aV24455963
p1864
aV16111695
p1865
aa(lp1866
V2788112
p1867
aa(lp1868
V5512052
p1869
aa(lp1870
V22614027
p1871
aV19263103
p1872
aa(lp1873
V26742539
p1874
aV24475175
p1875
aV12927694
p1876
aa(lp1877
V28039819
p1878
aV26894236
p1879
aV26838919
p1880
aV26353484
p1881
aV25491852
p1882
aV24643454
p1883
aV20880701
p1884
aV19727489
p1885
aV18657478
p1886
aV18545942
p1887
aV16142962
p1888
aa(lp1889
V8793599
p1890
aV8738854
p1891
aV27604
p1892
aa(lp1893
V12495426
p1894
aa(lp1895
V5066384
p1896
aV20343693
p1897
aV20998460
p1898
aa(lp1899
V23108710
p1900
aa(lp1901
V25793599
p1902
aa(lp1903
V6547574
p1904
aV6694070
p1905
aV900479
p1906
aa(lp1907
V25903174
p1908
aV23673486
p1909
aV17951052
p1910
aV14605278
p1911
aV11393764
p1912
aV10857004
p1913
aV9377102
p1914
aV6972566
p1915
aa(lp1916
V26974542
p1917
aV26496512
p1918
aa(lp1919
V10580370
p1920
aV2598753
p1921
aV3903785
p1922
aa(lp1923
V20408585
p1924
aa(lp1925
V3629603
p1926
aa(lp1927
V10415
p1928
aV14056680
p1929
aa(lp1930
V12495426
p1931
aa(lp1932
V28068585
p1933
aV11601298
p1934
aV3946112
p1935
aa(lp1936
V23831490
p1937
aa(lp1938
V28231537
p1939
aV24577928
p1940
aV23627100
p1941
aV16397741
p1942
aV15847990
p1943
aa(lp1944
V2113032
p1945
aV7202068
p1946
aa(lp1947
V23311987
p1948
aV22926146
p1949
aa(lp1950
V25915150
p1951
aV21190796
p1952
aV20166656
p1953
aV19286318
p1954
aV16920348
p1955
aV16442718
p1956
aV12868521
p1957
aV11349046
p1958
aa(lp1959
V10415
p1960
aV14056680
p1961
aa(lp1962
V25248645
p1963
aV20652403
p1964
aV15757454
p1965
aa(lp1966
V7595153
p1967
aV7854145
p1968
aV2209573
p1969
aa(lp1970
V25597451
p1971
aV25076538
p1972
aV24038987
p1973
aV21308600
p1974
aV18681476
p1975
aV9743672
p1976
aa(lp1977
V3319347
p1978
aa(lp1979
V27040233
p1980
aa(lp1981
V28526798
p1982
aV26899395
p1983
aa(lp1984
V9435101
p1985
aV1940193
p1986
aV3537988
p1987
aV6329384
p1988
aV6108279
p1989
aa(lp1990
V10415
p1991
aV14056680
p1992
aa(lp1993
V9083619
p1994
aa(lp1995
V26824243
p1996
aV24967541
p1997
aV23097070
p1998
aV21608493
p1999
aV17137677
p2000
aV1757000
p2001
aV5170693
p2002
aV5418361
p2003
aV5782282
p2004
aa(lp2005
V25093983
p2006
aa(lp2007
V10415
p2008
aV14056680
p2009
aa(lp2010
V28068585
p2011
aV11601298
p2012
aV3946112
p2013
aa(lp2014
V22192597
p2015
aV20552100
p2016
aV16797949
p2017
aV11695131
p2018
aV8207545
p2019
aV8171047
p2020
aV8402322
p2021
aV8377724
p2022
aV6423238
p2023
aa(lp2024
V17372704
p2025
aV11757600
p2026
aV4963785
p2027
aa(lp2028
V25768934
p2029
aV23632755
p2030
aV17845813
p2031
aV11036093
p2032
aV13066901
p2033
aa(lp2034
V2801678
p2035
aa(lp2036
V17822437
p2037
aa(lp2038
V26656911
p2039
aV26561037
p2040
aV26090385
p2041
aV23728384
p2042
aV23724085
p2043
aV20210370
p2044
aV19824919
p2045
aV18390722
p2046
aV12603616
p2047
aV9684690
p2048
aV606410
p2049
aa(lp2050
V12495426
p2051
aa(lp2052
V27770929
p2053
aV24351149
p2054
aV21496936
p2055
aV19352070
p2056
aV17313042
p2057
aV15288145
p2058
aV15140513
p2059
aV14529892
p2060
aV14522457
p2061
aa(lp2062
V27053227
p2063
aV20722412
p2064
aa(lp2065
V20817258
p2066
aa(lp2067
V12421549
p2068
aV2788112
p2069
aa(lp2070
V23147741
p2071
aa(lp2072
V20583811
p2073
aa(lp2074
V26721383
p2075
aV22955679
p2076
aa(lp2077
V23147741
p2078
aa(lp2079
V18674856
p2080
aa(lp2081
V15380433
p2082
aa(lp2083
V24508091
p2084
aa(lp2085
V19603767
p2086
aV18078070
p2087
aV16969824
p2088
aV16537174
p2089
aV15278161
p2090
aV12678122
p2091
aa(lp2092
V27471154
p2093
aV22608436
p2094
aa(lp2095
V24548067
p2096
aV20403418
p2097
aV15829414
p2098
aV12720429
p2099
aV28593572
p2100
aV8415401
p2101
aV2349762
p2102
aV6278977
p2103
aV1257596
p2104
aV5602025
p2105
aV14249254
p2106
aa(lp2107
V19048190
p2108
aV9512367
p2109
aa(lp2110
V27539190
p2111
aa(lp2112
V26297235
p2113
aV18329036
p2114
aV17462813
p2115
aV10462232
p2116
aV710815
p2117
aa(lp2118
V25754394
p2119
aV20868357
p2120
aV14571950
p2121
aV7475935
p2122
aV3250937
p2123
aV3600963
p2124
aV3018055
p2125
aa(lp2126
V22963716
p2127
aa(lp2128
V26297235
p2129
aV25218304
p2130
aV25114928
p2131
aV23907218
p2132
aV22421918
p2133
aV22345137
p2134
aV18774855
p2135
aV16211855
p2136
aV12672406
p2137
aV8280948
p2138
aa(lp2139
V24649684
p2140
aV11504218
p2141
aa(lp2142
V8147356
p2143
aa(lp2144
V21623315
p2145
aV21247106
p2146
aV16860908
p2147
aV8894229
p2148
aa(lp2149
V28464026
p2150
aV28068585
p2151
aV27039212
p2152
aV26552428
p2153
aV25242027
p2154
aV21721259
p2155
aV11601298
p2156
aV3946112
p2157
aV7156442
p2158
aa(lp2159
V24493382
p2160
aV17330963
p2161
aa(lp2162
V4389464
p2163
aa(lp2164
V25874655
p2165
aa(lp2166
V25156127
p2167
aV11564000
p2168
aV1536694
p2169
aV7310401
p2170
aV352651
p2171
aV4630675
p2172
aa(lp2173
V20106526
p2174
aV18292807
p2175
aV2567838
p2176
aV3587329
p2177
aV3576476
p2178
aa(lp2179
V26702973
p2180
aV24288484
p2181
aV23473569
p2182
aV21449456
p2183
aa(lp2184
V858412
p2185
aV4883033
p2186
aa(lp2187
V18046539
p2188
aV16820461
p2189
aV15930310
p2190
aV9581027
p2191
aV8868281
p2192
aV1583409
p2193
aa(lp2194
V26500177
p2195
aa(lp2196
V24804736
p2197
aV24578276
p2198
aV24568728
p2199
aV20554841
p2200
aV28593572
p2201
aa(lp2202
V19577925
p2203
aa(lp2204
V20400274
p2205
aV16852405
p2206
aV11205002
p2207
aV6544769
p2208
aa(lp2209
V24845065
p2210
aa(lp2211
V16599260
p2212
aa(lp2213
V23532948
p2214
aV21812444
p2215
aV20979414
p2216
aV21491655
p2217
aV17263542
p2218
aV11427271
p2219
aa(lp2220
V14979692
p2221
aa(lp2222
V18292274
p2223
aa(lp2224
V23373210
p2225
aV20579556
p2226
aV12782534
p2227
aV10235193
p2228
aV10102333
p2229
aV9786549
p2230
aV9208012
p2231
aV8722507
p2232
aV833485
p2233
aa(lp2234
V9505878
p2235
aa(lp2236
V27164090
p2237
aV24893046
p2238
aV21877268
p2239
aV21278525
p2240
aV14965801
p2241
aV14645151
p2242
aa(lp2243
V22926146
p2244
aa(lp2245
V22724538
p2246
aV19559588
p2247
aV15691943
p2248
aV13356413
p2249
aa(lp2250
V25093983
p2251
aV22391599
p2252
aV21812444
p2253
aV20727527
p2254
aa(lp2255
V25016649
p2256
aa(lp2257
V11853280
p2258
aa(lp2259
V13574205
p2260
aa(lp2261
V27288818
p2262
aa(lp2263
V28464026
p2264
aV28068585
p2265
aV27039212
p2266
aV26552428
p2267
aV25242027
p2268
aV21721259
p2269
aV11601298
p2270
aV3946112
p2271
aV7156442
p2272
aa(lp2273
V22808742
p2274
aa(lp2275
V22147540
p2276
aV11917717
p2277
aa(lp2278
V1468984
p2279
aa(lp2280
V28160178
p2281
aV26028215
p2282
aV7243581
p2283
aa(lp2284
V25025181
p2285
aV22591774
p2286
aa(lp2287
V22386308
p2288
aV21410850
p2289
aV17705249
p2290
aV16673443
p2291
aV15708806
p2292
aV11759021
p2293
aV2618771
p2294
aa(lp2295
V28160178
p2296
aV26028215
p2297
aa(lp2298
V22925766
p2299
aV20382526
p2300
aa(lp2301
V25854786
p2302
aa(lp2303
V22105914
p2304
aa(lp2305
V18369489
p2306
aV17978229
p2307
aV17313200
p2308
aV16372823
p2309
aV15972345
p2310
aV12723745
p2311
aV12580988
p2312
aa(lp2313
V11761171
p2314
aa(lp2315
V3319347
p2316
aa(lp2317
V23311987
p2318
aV22926146
p2319
aa(lp2320
V23311987
p2321
aV22926146
p2322
aa(lp2323
V21971649
p2324
aV9087952
p2325
aa(lp2326
V28464026
p2327
aV26552428
p2328
aV21721259
p2329
aa(lp2330
V15829414
p2331
aa(lp2332
V17277961
p2333
aa(lp2334
V18369489
p2335
aV17978229
p2336
aV17313200
p2337
aV16372823
p2338
aV15972345
p2339
aV12723745
p2340
aV12580988
p2341
aa(lp2342
V14293126
p2343
aV14135760
p2344
aV13298212
p2345
aV13237675
p2346
aV13134920
p2347
aa(lp2348
V21947716
p2349
aV20817258
p2350
aV19420999
p2351
aa(lp2352
V5135302
p2353
aa(lp2354
V25958788
p2355
aV21536495
p2356
aV20714291
p2357
aV12392584
p2358
aV7772671
p2359
aa(lp2360
V27770929
p2361
aV16215841
p2362
aV2837754
p2363
aa(lp2364
V22319402
p2365
aa(lp2366
V23621524
p2367
aV17488068
p2368
aV16296840
p2369
aV5461980
p2370
aV5387575
p2371
aV5948880
p2372
aa(lp2373
V21207582
p2374
aV7237845
p2375
aV1183042
p2376
aa(lp2377
V21818059
p2378
aa(lp2379
V24481549
p2380
aV22927957
p2381
aV22341658
p2382
aV12720429
p2383
aV1179423
p2384
aa(lp2385
V6423238
p2386
aa(lp2387
V21247106
p2388
aa(lp2389
V18800891
p2390
aV15750692
p2391
aV14722627
p2392
aV12064336
p2393
aV10234582
p2394
aV9541513
p2395
aV9284739
p2396
aa(lp2397
V28295108
p2398
aV26453245
p2399
aa(lp2400
V27045929
p2401
aV24104691
p2402
aV1685002
p2403
aV3691775
p2404
aV4002850
p2405
aV1114368
p2406
aa(lp2407
V24468629
p2408
aV22079106
p2409
aV11472819
p2410
aV3691775
p2411
aV1173103
p2412
aa(lp2413
V23812609
p2414
aV23047812
p2415
aV15877351
p2416
aa(lp2417
V25218304
p2418
aV18701000
p2419
aV7832578
p2420
aa(lp2421
V27471154
p2422
aV22608436
p2423
aa(lp2424
V16963243
p2425
aV1274917
p2426
aa(lp2427
V24279421
p2428
aV21271683
p2429
aV18674856
p2430
aV18054427
p2431
aV17558525
p2432
aV16337324
p2433
aV11407030
p2434
aV2573442
p2435
aV11542117
p2436
aa(lp2437
V3793138
p2438
aa(lp2439
V25332126
p2440
aV19476372
p2441
aV11536823
p2442
aV8065721
p2443
aV11538163
p2444
aV11538083
p2445
aV11536473
p2446
aa(lp2447
V19007018
p2448
aV14298993
p2449
aV14225577
p2450
aa(lp2451
V25044550
p2452
aV20951914
p2453
aV17692465
p2454
aV15139483
p2455
aV9658246
p2456
aa(lp2457
V24862164
p2458
aa(lp2459
V25310996
p2460
aV17902188
p2461
aa(lp2462
V22926146
p2463
aa(lp2464
V23598234
p2465
aV19269466
p2466
aV16808169
p2467
aV16477125
p2468
aa(lp2469
V3517070
p2470
aa(lp2471
V20626108
p2472
aa(lp2473
V22614027
p2474
aV12541553
p2475
aV9819666
p2476
aa(lp2477
V21747596
p2478
aa(lp2479
V18318256
p2480
aV16729339
p2481
aV15140513
p2482
aV15131055
p2483
aV14522457
p2484
aV11395314
p2485
aa(lp2486
V10415
p2487
aV14056680
p2488
aa(lp2489
V23311987
p2490
aV22926146
p2491
aa(lp2492
V1183042
p2493
aa(lp2494
V2323524
p2495
aV2682004
p2496
aV3183351
p2497
aa(lp2498
V25903174
p2499
aV23673486
p2500
aV17951052
p2501
aV14605278
p2502
aV11393764
p2503
aV10857004
p2504
aV9377102
p2505
aV6972566
p2506
aa(lp2507
V24857092
p2508
aV20858843
p2509
aa(lp2510
V25826037
p2511
aV23595205
p2512
aV10071982
p2513
aa(lp2514
V25609385
p2515
aV16231381
p2516
aa(lp2517
V24493382
p2518
aV11286326
p2519
aV9515186
p2520
aV7100512
p2521
aa(lp2522
V28615015
p2523
aV27752895
p2524
aV21797000
p2525
aV20020762
p2526
aV19943296
p2527
aV19476372
p2528
aV17825904
p2529
aV17450798
p2530
aV14998040
p2531
aV11513399
p2532
aV1183042
p2533
aa(lp2534
V22381074
p2535
aV16509350
p2536
aV8781742
p2537
aV7752807
p2538
aV2914978
p2539
aV3609644
p2540
aa(lp2541
V3946112
p2542
aV7156442
p2543
aa(lp2544
V23006575
p2545
aV18383826
p2546
aV16688193
p2547
aV9246752
p2548
aV8679452
p2549
aV6237185
p2550
aV6430691
p2551
aV50287
p2552
aV4396080
p2553
aa(lp2554
V14780436
p2555
aV15419806
p2556
aa(lp2557
V4323967
p2558
aa(lp2559
V23380074
p2560
aa(lp2561
V27896426
p2562
aV26425622
p2563
aV23609906
p2564
aV21798598
p2565
aV4552841
p2566
aV5366102
p2567
aV5894028
p2568
aa(lp2569
V25356882
p2570
aV24176918
p2571
aV19853910
p2572
aV10612924
p2573
aa(lp2574
V18369489
p2575
aV17978229
p2576
aV17313200
p2577
aV16372823
p2578
aV15972345
p2579
aV12723745
p2580
aV12580988
p2581
aa(lp2582
V7960498
p2583
aV7419282
p2584
aV447406
p2585
aa(lp2586
V20943408
p2587
aV17414528
p2588
aV8854197
p2589
aV1397290
p2590
aa(lp2591
V20408585
p2592
aV20152420
p2593
aV19773124
p2594
aV18161569
p2595
aa(lp2596
V25793599
p2597
aa(lp2598
V27295439
p2599
aV22432257
p2600
aa(lp2601
V10415
p2602
aV14056680
p2603
aa(lp2604
V26411702
p2605
aV22925453
p2606
aV19463568
p2607
aV11536838
p2608
aV11532571
p2609
aV10697752
p2610
aV9876615
p2611
aV3212024
p2612
aV13744616
p2613
aa(lp2614
V1823590
p2615
aa(lp2616
V19075821
p2617
aV8835608
p2618
aa(lp2619
V26957432
p2620
aV25065800
p2621
aV23479083
p2622
aV23260248
p2623
aV11910509
p2624
aV10689204
p2625
aV4508932
p2626
aa(lp2627
V21649454
p2628
aV16055232
p2629
aV11917287
p2630
aa(lp2631
V24493382
p2632
aV9153273
p2633
aV8384046
p2634
aa(lp2635
V3319347
p2636
aa(lp2637
V10415
p2638
aV14056680
p2639
aa(lp2640
V26200222
p2641
aV22931590
p2642
aV22005995
p2643
aV18378712
p2644
aV17090209
p2645
aV16619191
p2646
aV15074687
p2647
aV14982795
p2648
aV14960655
p2649
aV14194380
p2650
aa(lp2651
V28464026
p2652
aV28068585
p2653
aV27039212
p2654
aV26552428
p2655
aV25242027
p2656
aV21721259
p2657
aV11601298
p2658
aV3946112
p2659
aV7156442
p2660
aa(lp2661
V24284486
p2662
aV11393764
p2663
aa(lp2664
V25178431
p2665
aV16401590
p2666
aV14621002
p2667
aa(lp2668
V23381266
p2669
aV22925972
p2670
aV8854197
p2671
aa(lp2672
V28068585
p2673
aV21721259
p2674
aV7156442
p2675
aa(lp2676
V25350295
p2677
aV15769025
p2678
aV15587248
p2679
aV14654048
p2680
aV18125170
p2681
aa(lp2682
V17462599
p2683
aa(lp2684
V27471154
p2685
aV24583809
p2686
aV23500361
p2687
aV22608436
p2688
aV21376959
p2689
aV20626108
p2690
aV20550158
p2691
aV20356730
p2692
aV19782201
p2693
aa(lp2694
V14318657
p2695
aa(lp2696
V25025181
p2697
aV22591774
p2698
aa(lp2699
V22926146
p2700
aa(lp2701
V23824675
p2702
aV23475567
p2703
aV15871634
p2704
aV15585441
p2705
aV4354973
p2706
aa(lp2707
V23933030
p2708
aV20951914
p2709
aV1720903
p2710
aa(lp2711
V23311987
p2712
aV22926146
p2713
aa(lp2714
V17953718
p2715
aV8474934
p2716
aV2152740
p2717
aV2653696
p2718
aV3518204
p2719
aV6147220
p2720
aV6278977
p2721
aV918354
p2722
aV858412
p2723
aV4610943
p2724
aa(lp2725
V24893046
p2726
aV22345137
p2727
aV11536853
p2728
aV4323967
p2729
aa(lp2730
V28199767
p2731
aa(lp2732
V28069089
p2733
aV22850072
p2734
aV4389464
p2735
aa(lp2736
V17313042
p2737
aV4788065
p2738
aa(lp2739
V23208087
p2740
aV19836569
p2741
aV56110
p2742
aV4449782
p2743
aV4963785
p2744
aa(lp2745
V17277961
p2746
aa(lp2747
V25702947
p2748
aV21097578
p2749
aV18727667
p2750
aV2592569
p2751
aV4137245
p2752
aV4557975
p2753
aV4233626
p2754
aa(lp2755
V27040233
p2756
aa(lp2757
V8891274
p2758
aa(lp2759
V24568926
p2760
aV24279421
p2761
aV21491655
p2762
aV18816103
p2763
aV17915707
p2764
aV17558525
p2765
aV16268145
p2766
aV15691943
p2767
aV183220
p2768
aV14780436
p2769
aa(lp2770
V20583811
p2771
aa(lp2772
V20714291
p2773
aa(lp2774
V6174383
p2775
aa(lp2776
V25144853
p2777
aV25046241
p2778
aV8395060
p2779
aV7296884
p2780
aV647436
p2781
aV171782
p2782
aV4903512
p2783
aV4233626
p2784
aa(lp2785
V24845065
p2786
aV23621524
p2787
aV22940297
p2788
aV21495778
p2789
aV21311791
p2790
aV19482504
p2791
aV17488068
p2792
aV16372823
p2793
aV16296840
p2794
aV9125637
p2795
aV2788112
p2796
aa(lp2797
V5945058
p2798
aa(lp2799
V10415
p2800
aV14056680
p2801
aa(lp2802
V27213349
p2803
aV7955122
p2804
aa(lp2805
V17600554
p2806
aa(lp2807
V25616797
p2808
aV25225029
p2809
aa(lp2810
V23831490
p2811
aa(lp2812
V25156106
p2813
aV22811078
p2814
aV11286326
p2815
aV10071982
p2816
aa(lp2817
V10080843
p2818
aa(lp2819
V22147540
p2820
aa(lp2821
V22907042
p2822
aa(lp2823
V16411954
p2824
aa(lp2825
V21033748
p2826
aa(lp2827
V22926146
p2828
aa(lp2829
V3740424
p2830
aa(lp2831
V18363737
p2832
aV15987857
p2833
aV9710770
p2834
aa(lp2835
V21721259
p2836
aV19420999
p2837
aV18656648
p2838
aV17294971
p2839
aV17294965
p2840
aV11150716
p2841
aa(lp2842
V21397481
p2843
aV19631515
p2844
aa(lp2845
V25903174
p2846
aV23673486
p2847
aV17951052
p2848
aV14605278
p2849
aV11393764
p2850
aV10857004
p2851
aV9377102
p2852
aV6972566
p2853
aa(lp2854
V352651
p2855
aV4449782
p2856
aV4244967
p2857
aa(lp2858
V10415
p2859
aV14056680
p2860
aa(lp2861
V23311987
p2862
aV22926146
p2863
aa(lp2864
V10415
p2865
aV14056680
p2866
aa(lp2867
V27045929
p2868
aV25025825
p2869
aV22054420
p2870
aV16332453
p2871
aV15041240
p2872
aV9230536
p2873
aV9205764
p2874
aV9205762
p2875
aV9467309
p2876
aV3555051
p2877
aV3555026
p2878
aa(lp2879
V27471154
p2880
aV22608436
p2881
aa(lp2882
V24626377
p2883
aV19943072
p2884
aV17126593
p2885
aV16213545
p2886
aV15003645
p2887
aa(lp2888
V26866962
p2889
aV216281
p2890
aa(lp2891
V21271683
p2892
aa(lp2893
V23515904
p2894
aV15084342
p2895
aV8923024
p2896
aV1017598
p2897
aV14233961
p2898
aa(lp2899
V20056649
p2900
aa(lp2901
V27146336
p2902
aV27076349
p2903
aV24530709
p2904
aV24177869
p2905
aV23994674
p2906
aV23892117
p2907
aV23391850
p2908
aV23099163
p2909
aV21212017
p2910
aa(lp2911
V25046241
p2912
aV19829282
p2913
aV14996417
p2914
aV7543641
p2915
aa(lp2916
V16268145
p2917
aa(lp2918
V19756805
p2919
aa(lp2920
V25793599
p2921
aa(lp2922
V23311987
p2923
aa(lp2924
V216333
p2925
aa(lp2926
V25260740
p2927
aV23090419
p2928
aV22678751
p2929
aV21591805
p2930
aa(lp2931
V6423238
p2932
aV1017598
p2933
aa(lp2934
V19263103
p2935
aV3499074
p2936
aV2821808
p2937
aa(lp2938
V19059808
p2939
aV11150146
p2940
aV8291986
p2941
aV8279215
p2942
aV2469955
p2943
aV3227555
p2944
aV6498431
p2945
aV6867630
p2946
aV7222314
p2947
aV4315123
p2948
aa(lp2949
V10415
p2950
aV14056680
p2951
aa(lp2952
V28371799
p2953
aV19009067
p2954
aa(lp2955
V23311987
p2956
aV22926146
p2957
aa(lp2958
V21764100
p2959
aV14717192
p2960
aV11227538
p2961
aV1994896
p2962
aa(lp2963
V20416381
p2964
aV17902188
p2965
aV17223400
p2966
aV15670886
p2967
aV11577725
p2968
aV6487269
p2969
aa(lp2970
V25076143
p2971
aV23535321
p2972
aV21177000
p2973
aV20129815
p2974
aV14987856
p2975
aa(lp2976
V27053227
p2977
aa(lp2978
V24907932
p2979
aa(lp2980
V26301533
p2981
aV25794463
p2982
aV23604245
p2983
aV14194380
p2984
aa(lp2985
V23311987
p2986
aV22926146
p2987
aa(lp2988
V17902188
p2989
aV16534760
p2990
aa(lp2991
V21947716
p2992
aV19058177
p2993
aV1413681
p2994
aV1664519
p2995
aa(lp2996
V21193213
p2997
aV20219207
p2998
aV3396789
p2999
aV7253843
p3000
aa(lp3001
V17277961
p3002
aa(lp3003
V21265521
p3004
aV16214270
p3005
aV15364435
p3006
aV11290451
p3007
aV10321164
p3008
aV9083619
p3009
aV2864377
p3010
aa(lp3011
V24837160
p3012
aV24824517
p3013
aV22326246
p3014
aV20075632
p3015
aV18068384
p3016
aV16596024
p3017
aV14685787
p3018
aV2279242
p3019
aV727755
p3020
aV5549698
p3021
aV4925530
p3022
aa(lp3023
V27866623
p3024
aV26086086
p3025
aV26066082
p3026
aV25459857
p3027
aV23544636
p3028
aV21798598
p3029
aV11201443
p3030
aa(lp3031
V9505878
p3032
aa(lp3033
V21812444
p3034
aV20979414
p3035
aV21491655
p3036
aV17263542
p3037
aV11427271
p3038
aa(lp3039
V22926146
p3040
aa(lp3041
V25536302
p3042
aV15808240
p3043
aV15183795
p3044
aV11097601
p3045
aV3359381
p3046
aV3646149
p3047
aV809829
p3048
aV4544321
p3049
aV14298993
p3050
aV14150268
p3051
aa(lp3052
V24279421
p3053
aV20579134
p3054
aV16202575
p3055
aV7011889
p3056
aV352651
p3057
aV20249077
p3058
aV20343795
p3059
aa(lp3060
V3319347
p3061
aa(lp3062
V25902632
p3063
aV20434331
p3064
aV17123804
p3065
aV423116
p3066
aa(lp3067
V21291274
p3068
aV20538351
p3069
aV11401273
p3070
aV3772746
p3071
aV4354973
p3072
aa(lp3073
V22926146
p3074
aa(lp3075
V24193816
p3076
aa(lp3077
V22926146
p3078
aa(lp3079
V27464022
p3080
aV23523543
p3081
aV21316734
p3082
aV21146080
p3083
aV7854145
p3084
aV8097411
p3085
aV2209573
p3086
aV6265650
p3087
aV4581858
p3088
aa(lp3089
V15113193
p3090
aa(lp3091
V26297235
p3092
aV25218304
p3093
aV25114928
p3094
aV23907218
p3095
aV22421918
p3096
aV22345137
p3097
aV14742489
p3098
aV10758857
p3099
aa(lp3100
V25350295
p3101
aV4469276
p3102
aa(lp3103
V17317342
p3104
aa(lp3105
V26656911
p3106
aV23893063
p3107
aV9916074
p3108
aV2452545
p3109
aV7348770
p3110
aV597039
p3111
aa(lp3112
V15221655
p3113
aV8175133
p3114
aV7960498
p3115
aV2009013
p3116
aV3350291
p3117
aV2886605
p3118
aV3710436
p3119
aV4048841
p3120
aV6635562
p3121
aV7055985
p3122
aV5543374
p3123
aa(lp3124
V27011989
p3125
aV26489324
p3126
aV18674856
p3127
aV18054427
p3128
aa(lp3129
V25310996
p3130
aV18476000
p3131
aV15835935
p3132
aV15691943
p3133
aa(lp3134
V18186305
p3135
aV17449639
p3136
aa(lp3137
V22663184
p3138
aa(lp3139
V23621524
p3140
aV17488068
p3141
aV16296840
p3142
aV5461980
p3143
aV5387575
p3144
aV5948880
p3145
aa(lp3146
V25350140
p3147
aV17760306
p3148
aV15278161
p3149
aV2050185
p3150
aV3821173
p3151
aa(lp3152
V16372823
p3153
aV1553827
p3154
aV2305173
p3155
aV2598753
p3156
aV2703138
p3157
aV3116776
p3158
aV2857472
p3159
aa(lp3160
V23311987
p3161
aV22926146
p3162
aa(lp3163
V26527264
p3164
aV23797477
p3165
aV21971649
p3166
aV15971591
p3167
aV1621808
p3168
aV2378873
p3169
aa(lp3170
V17263542
p3171
aa(lp3172
V10419446
p3173
aa(lp3174
V1468984
p3175
aa(lp3176
V9693828
p3177
aa(lp3178
V24394670
p3179
aa(lp3180
V7955775
p3181
aa(lp3182
V15323512
p3183
aV3517070
p3184
aa(lp3185
V25310996
p3186
aa(lp3187
V19432339
p3188
aV19237240
p3189
aV16939237
p3190
aV16872869
p3191
aV16457175
p3192
aV14552011
p3193
aV10641277
p3194
aV10469190
p3195
aV8257141
p3196
aV8388597
p3197
aV2368186
p3198
aa(lp3199
V23515904
p3200
aV15084342
p3201
aV8923024
p3202
aa(lp3203
V27053227
p3204
aV20722412
p3205
aa(lp3206
V22904631
p3207
aV3486511
p3208
aa(lp3209
V24197786
p3210
aa(lp3211
V6423238
p3212
aa(lp3213
V27240199
p3214
aV25310996
p3215
aV21963207
p3216
aV20110889
p3217
aV20060980
p3218
aV16534760
p3219
aV15020169
p3220
aV11331767
p3221
aa(lp3222
V9433776
p3223
aa(lp3224
V17762217
p3225
aa(lp3226
V17309935
p3227
aa(lp3228
V25616797
p3229
aV25069932
p3230
aV24412303
p3231
aV17963960
p3232
aV17313200
p3233
aV16372823
p3234
aV15972345
p3235
aV12723745
p3236
aV12580988
p3237
aV11076874
p3238
aV3280211
p3239
aa(lp3240
V27981311
p3241
aV2213800
p3242
aV3537288
p3243
aV3892672
p3244
aV7143531
p3245
aV7095101
p3246
aV7066165
p3247
aV7267678
p3248
aV421811
p3249
aV4149645
p3250
aa(lp3251
V25224757
p3252
aV22925972
p3253
aV22105914
p3254
aV21411874
p3255
aV20851471
p3256
aV20812749
p3257
aV20465228
p3258
aV20148208
p3259
aV19191540
p3260
aa(lp3261
V22391599
p3262
aV20652403
p3263
aa(lp3264
V26302231
p3265
aV24219361
p3266
aV24015970
p3267
aV21683486
p3268
aV19157487
p3269
aV9241835
p3270
aV7096247
p3271
aV12678122
p3272
aa(lp3273
V10415
p3274
aV14056680
p3275
aa(lp3276
V17320930
p3277
aa(lp3278
V27531591
p3279
aa(lp3280
V26830831
p3281
aV24245301
p3282
aa(lp3283
V2928381
p3284
aa(lp3285
V25768934
p3286
aV1185602
p3287
aa(lp3288
V26147172
p3289
aV24902398
p3290
aa(lp3291
V14979692
p3292
aV7071110
p3293
aV5592
p3294
aV14412783
p3295
aV13340914
p3296
aV12977358
p3297
aV14858225
p3298
aa(lp3299
V26119724
p3300
aa(lp3301
V17374735
p3302
aV11401178
p3303
aa(lp3304
V26547105
p3305
aV21798598
p3306
aV17693318
p3307
aV9657036
p3308
aa(lp3309
V27980774
p3310
aV24686805
p3311
aV23040397
p3312
aV18162537
p3313
aV15936288
p3314
aV15835935
p3315
aV11738724
p3316
aV7495942
p3317
aV14390722
p3318
aa(lp3319
V24907932
p3320
aa(lp3321
V1011890
p3322
aV1080538
p3323
aa(lp3324
V19386415
p3325
aa(lp3326
V14226919
p3327
aa.