(lp0
S'27775703 | mevalonate-5-phosphate | Specific reduction of mevalonate-5-phosphate by statins or mevalonate kinase knockdown induces CHIP ubiquitin ligase-mediated nuclear export, ubiquitylation, and degradation of mutp53 by impairing interaction of mutp53 with DNAJA1, a Hsp40 family member.'
p1
aS'6462147 | stigmasterol | Statins were, however, highly phytotoxic to L. gibba and HPLC-UV analysis of plant extracts showed significantly decreased concentrations of both stigmasterol and beta-sitosterol, which are critical components of plant membranes and regulate morphogenesis and development.'
p2
aS'20691321 | cheese | The risk reduction associated with the daily consumption of most statins, with the exception of pravastatin, is more powerful than the risk increase caused by the daily extra fat intake associated with a 7-oz hamburger (Quarter Pounder) with cheese and a small milkshake.'
p3
aS'20451441 | hydroxylamine | The method is based on the reaction of simvastatin or lovastatin with hydroxylamine in alkaline medium to form the corresponding hydroxamic acid derivatives which, on treatment with ferric ion in acid medium, yield highly colored ferric-chelate complex with maximum absorption at 513nm.'
p4
aS'19697921 | genistin | We evaluated whether Monascus-fermented soybean extracts (MFSE) enriched with bioactive mevinolins (natural statins) and aglycone isoflavones (daidzein, glycitein, and genistein) perform an additive hypolipidemic effect in hyperlipidemic rats than unfermented soybean extracts (UFSE), which have a higher level of glucoside isoflavones (daidzin, glycitin, and genistin) without mevinolin.'
p5
aS'21540247 | guava | Cell cycle arrest at the G1 phase, manifested by a geranylgeraniol-induced increase in the G1/S ratio and decreased expression of cyclin D1 and cyclin-dependent kinase 4, apoptosis detected by Guava Nexin assay and fluorescence microscopy following acridine orange and ethidium bromide dual staining, and cell differentiation shown by increased alkaline phosphatase activity, contributed to the growth suppression.'
p6
aS'24947972 | ampicillin | The plasma concentration-time profiles of M8 were compared after oral administration of lovastatin to control rats or those treated with either ampicillin (100 mg/kg) or an antibiotic mixture consisting of cefadroxil (150 mg/kg), oxytetracycline (300 mg/kg), and erythromycin (300 mg/kg).'
p7
aS'10374838 | l-ascorbic acid | Hydroxymethyl-glutaryl-CoA-reductase (HMG-CoA-reductase), the key enzyme for cholesterol synthesis and essential for the synthesis of the precursor for p21ras farnesylation, was inhibited in neuroblastoma cells by lovastatin or L-ascorbic acid.'
p8
aS'10374838 | l-ascorbic acid | However, while the addition of mevalonate, the product of HMG-CoA-reductase, circumvented the inhibition by lovastatin it had no reversing effect on the inhibition by L-ascorbic acid.'
p9
aS'16633091 | m. officinalis | Twenty hyperlipidemic rabbits were served one of the following diets: a high-fat and cholesterol diet (cholesterol group, 10% corn oil and 0.5% cholesterol), a high fat and cholesterol diet supplemented with M. officinalis extract (300 mg/kg) or lovastatin (6 mg/kg).'
p10
aS'16633091 | m. officinalis | The plasma lipids, oxidative stress (measured by free radical, malondialdehyde, and oxidative DNA damage), and arterial lesions significantly decreased in the M. officinalis and lovastatin groups when compared with the cholesterol group.'
p11
aS'16633091 | m. officinalis | Moreover, the expressions of Fas ligand, caspase 8, and caspase 9 in the aortic arches were also markedly lowered after M. officinalis and lovastatin supplements.'
p12
aS'24180395 | benzoate | We herein review some promising compounds, such as melatonin, melatonin receptor agonists, allopregnanolone, PDE4 inhibitors, statins, aspirin, sodium benzoate, tryptophan-enriched diets, and antioxidants, including epigallocatechin gallate, curcumin, quercitin, alpha-lipoic acid and resveratrol.'
p13
aS'19418204 | leukotriene b4 | Lovastatin decreased inflammatory markers, specifically 13-HODE, 12-HETE and leukotriene B4.'
p14
aS'28160765 | pyridoxine | Moderate potential interactions were found between Aloe vera and diuretics; Aloe vera and insulin; pyridoxine and calcium-channel blockers and diuretics; and niacin and statins.'
p15
aS'14656608 | gallic acid | A zero crossing and an algorithm bivariate calibration derivative method for the simultaneous determination of lovastatin combined separately with three antioxidants (ascorbic acid, quercetin and gallic acid) in synthetic mixtures are described.'
p16
aS'14656608 | gallic acid | In the second derivative (2D) zero crossing method measurements were carried out at 238.4 nm for lovastatin and 265.6 nm for ascorbic acid, 247.7 nm for lovastatin and 281.1 nm for quercetin, 251.8 nm for lovastatin and 267.6 nm for gallic acid.'
p17
aS'14656608 | gallic acid | The proposed procedures were successfully applied to the simultaneous determination of lovastatin and different antioxidants in mixtures with high percentage of recovery, 98.3-100.4% for lovastatin, 98.3-98.6% for ascorbic acid, 99.0-99.8% for quercetin and 100.5-101.1% for gallic acid and good precision.'
p18
aS'15336348 | gallic acid | Methodologies based on FT-Raman spectroscopy and HPLC were developed for monitoring the stability of lovastatin in the solid state in the presence of gallic acid, a natural antioxidant.'
p19
aS'15336348 | gallic acid | A Raman calibration curve was constructed using the area of the strong but overlapping vibration mode of lovastatin at 1645 cm(-1) and of the gallic acid at 1595 cm(-1).'
p20
aS'15336348 | gallic acid | Mixtures of the active ingredient with the antioxidant were heated in the presence of atmospheric air up to 120 degrees C. The molar ratios of lovastatin and gallic acid in the artificially oxidized mixtures were determined from their Raman spectra using the calibration curve.'
p21
aS'11593996 | gallic acid | Oxidative instability of the hydroxy methylglutaryl Co-A reductase inhibitor lovastatin in the solid state and stabilization with natural antioxidants (ascorbic acid, rutin, gallic acid, quercetin and caffeic acid) was investigated.'
p22
aS'7907161 | octanoate | Lovastatin depressed palmitate, but not octanoate, oxidation.'
p23
aS'19371472 | chives | This study provides clinicians with information on some chemoprevention agents that have been considered to reduce prostate cancer risks, including 5-alpha-reductase inhibitors; statins (a class of compounds used to reduce cholesterol); NSAIDs; selenium; vitamins E and D; lycopene; allium vegetables (garlic, scallions, onions, chives, and leeks); soy/isoflavones; and green tea polyphenols.'
p24
aS'21130862 | betulinic acid | Other natural products, including those from plants (betulinic acid and shikonin), animals (bryostatins) and microbes (squalestatin and sophorolipids) have a multiplicity of potentially useful actions.'
p25
aS'19754387 | betulinic acid | midostaurin, betulinic acid, ursolic acid, AVE9488 and AVE3085); (6) compounds that enhance the de novo synthesis of BH(4) by stimulating expression or activity of GTP cyclohydrolase I; and (7) 3-hydroxy-3-methylglutaryl-coenzyme A inhibitors (statins) and drugs interrupting the renin-angiotensin-aldosterone system.'
p26
aS'25655639 | vitamin k2 | Statins inhibit the synthesis of vitamin K2, the cofactor for matrix Gla-protein activation, which in turn protects arteries from calcification.'
p27
aS'10622276 | cycloartenol | Among natural products with hypocholesterolemic activity are beta-carotene, lycopene, cycloartenol, beta-sitosterol, sitostanol, saponin, soybean protein, indoles, dietary fiber, propionate, mevinolin (beta-hydroxy-beta-methylglutaryl coenzyme A reductase inhibitor) and polysaccharides.'
p28
aS'19344586 | atropine | Sixty-three percent of patients were on statins, 41.4% on beta blockers, and 92% received atropine before balloon dilatation or stent placement.'
p29
aS'25328715 | atropine | Indications for CAS, medications including statins, atropine, and beta blockers, anatomic risk factors, balloon and stent length and diameter, and degree of stenosis were noted.'
p30
aS'22555812 | oncorhynchus | The aim of the present study was to clarify whether waterborne exposure to a selected statin, atorvastatin, would affect gene expression in rainbow trout (Oncorhynchus mykiss) gill or liver or ion regulation in gills.'
p31
aS"20600806 | oncorhynchus | The aim of the present study was to quantify the cytotoxic effects of acid and lactone forms of two statins, atorvastatin and simvastatin, as well as selected metabolites (ortho- and para-hydroxy atorvastatin acid, ortho-hydroxy atorvastatin lactone, simvastatin hydroxyl carboxylic acid, and 3''hydroxy simvastatin lactone) to hepatocytes from rainbow trout (Oncorhynchus mykiss)."
p32
aS"24364088 | punicalagin | The addition of punicalagin, or beta-sitosterol, or pomegranate juice (which contains both of the above) to simvastatin, significantly improved the statin's ability to inhibit macrophage cholesterol biosynthesis."
p33
aS'24364088 | punicalagin | Furthermore, the addition of pomegranate juice (or punicalagin, but not beta sitosterol) to simvastatin significantly increased the statin ability to protect the cells from oxidative stress.'
p34
aS'20089986 | hexacosanoic acid | Our results show that the high plasma levels of hexacosanoic acid (C(26:0)) showed a decline from pretreatment values within 1 to 3 months of starting therapy with 40 mg of lovastatin per day and stabilized at various levels during a period of observation up to 12 months.'
p35
aS'9514003 | isopropylamine | An optimized extraction method is developed, and lovastatin recoveries of 99.5% were achieved with a relative standard deviation of 1.2% from MEVACOR tablets with 15% (v/v) (1.0% [v/v] isopropylamine) methanol-modified CO2.'
p36
aS'24266373 | oyster mushroom | Statistical experimental designs were used to optimize lovastatin production by culinary-medicinal oyster mushroom Pleurotus ostreatus OBCC 1031 under submerged fermentation.'
p37
aS'25016363 | betaine | Plasma/serum concentrations of free choline, betaine, dimethylglycine, folate, total homocysteine (tHcy), cystathionine, methylmalonic acid, S-adenosyl homocysteine (SAH), S-adenosyl methionine (SAM), and phospholipids were measured.'
p38
aS'16717416 | maltose | As sole carbon source with peptone, although glucose strongly repressed lovastatin production, maltose was responsible for high production.'
p39
aS'16717416 | maltose | Interestingly, glycerol combined with maltose enhanced lovastatin production, up to 444 mg/l in the most effective case.'
p40
aS'28483521 | stearoyl-coa | The present study examines the effect of suppression of SREBP1 activation by its inhibitors like fatostatin and PF429242 besides analyzing the impact of inhibitory effects on SREBP1 downstream signaling cascade such as fatty acid synthase (FAS), hydroxymethylglutaryl-CoA reductase (HMGCoAR), stearoyl-CoA desaturase-1 (SCD-1), and tumor suppressor protein p53 in MIA PaCa-2 pancreatic cancer cells.'
p41
aS'14696880 | red rice | Due to its method of preparation, red rice may contain statins.'
p42
aS'14696880 | red rice | Since at least some red rice preparations contain about 5 to 10 mg of lovastatin in the daily dose recommended on the package, these preparations may lower blood cholesterol levels, and exhibit similar drawbacks and interactions as the statin drugs.'
p43
aS'12793012 | red rice | Lovastatin is a naturally occurring component of Chinese red rice and was the probable cause of his myopathy.'
p44
aS'20597312 | red rice | Lovastatin is a main component of Monascus purpureus fermented red rice contributing to the lipid-lowering effect.'
p45
aS'20597312 | red rice | An accurate, simple and rapid micellar electrokinetic capillary chromatographic method was developed for the first time for simultaneous determination of lovastatin present in lactone and hydroxy acid forms and citrinin in red rice products provided by different manufacturers and formulated in various dosage forms.'
p46
aS'26070091 | cystathione | This study manifests that cystathione -lyase (CSE) upregulation contributes to endogenous H2S generation in fluvastatin-stimulated macrophages, along with a correlation between CSE/H2S and activating Akt signaling pathway.'
p47
aS'27669218 | ferulic acid | Combinations of T3 with chemotherapeutic drugs (e.g., statins, celecoxib, and gefitinib) or dietary components (e.g., polyphenols, sesamin, and ferulic acid) exhibit synergistic actions on cancer cell growth and signaling pathways.'
p48
aS"26467069 | uridine diphosphate | In particular, flavonoids could interfere with statins' bioavailability through different mechanisms, such as competition with cytochrome P450 (CYP) enzymes, esterases, uridine diphosphate glucuronosyltransferases and transporters (P-glycoprotein, multi-drug resistance-associated proteins, organic anion transporting polypeptides, breast cancer-resistance protein and monocarboxylate transporters)."
p49
aS'18511800 | mannan | It is suggested that mannan serotype A, like -glucan, may represent another hypolipidaemic agent, which could potentially be used as an adjunctive therapy with conventional antihyperlipidaemic drugs (statins and fibrates) in humans.'
p50
aS'21872920 | mannan | Mannan serotype A stimulates the macrophage proliferation and NO production in murine peritoneal macrophages in vitro.'
p51
aS'10896289 | 3-methylglutaconyl-coa | Estimation of 3-methylglutaconyl-CoA hydratase, 3-hydroxy-3-methylglutaryl-CoA lyase and initial enzymatic steps of cholesterol biosynthesis in cultured fibroblasts and in different tissues postmortem revealed no enzyme deficiency.'
p52
aS'24671671 | liquor | 5 % glucose as carbon source, 1.5 % corn steep liquor as nitrogen source, initial pH value of 6, 120 h of incubation period, and 28 C of incubation temperature were found as best parameters for higher lovastatin production in shake flasks.'
p53
aS'16573367 | almond | Adding 100g of almonds daily to chronic statin therapy for 4weeks significantly reduced non-HDL-C.'
p54
aS'23588308 | almond | The primary objective of this study was to determine the changes in the lipid profile (LDL-C, high-density lipoprotein cholesterol [HDL-C], triglycerides, total cholesterol, non-HDL-C), LDL-C particle size, and lipoprotein (a) when 100g of almonds daily were added to background statin therapy for 4weeks.'
p55
aS"21663949 | almond | Subjects (N=48) receiving a consistent statin dose were randomized to 100g of almonds daily and to The National Cholesterol Education Program Adult Treatment Panel's third report Therapeutic Lifestyle Changes Diet counseling (almond group; n=22) or solely Adult Treatment Panel's third report Therapeutic Lifestyle Changes Diet counseling (non-almond group; n=26), for 4weeks."
p56
aS'10537222 | gibberellins | Nevertheless, lovastatin did inhibit the accumulation of gibberellins in the culture medium; this inhibition, however, was counteracted by the addition of mevalonate to the medium.'
p57
aS'21879394 | docusate sodium | The best formulation (F4) consisting of hypromellose, sodium bicarbonate, polyethylene oxide, docusate sodium, mannitol, crosscarmellose sodium, and magnesium stearate, gave floating lag time of 564.16 s and good matrix integrity with in vitro dissolution of 98.2% in 12 h. After stability studies, no significant change was observed in stability, solubility, floating lag time, total floating duration, matrix integrity, and sustained drug release rates, as confirmed by DSC and powder X-ray diffraction studies.'
p58
aS'16188392 | pyridoxamine | A number of novel therapeutic agents have also been tested in db/db mice, including inhibitors of inflammation (chemokine receptor antagonists, anti-CCL2 RNA aptamer, anti-c-fms antibody); oxidative stress (oxykine, biliverdin); the renin-angiotensin-aldosterone system (aliskiren, angiotensin-converting enzyme inhibitors, angiotensin receptor blockers, eplerenone); advanced glycation end products (AGE; pyridoxamine, alagebrium, soluble AGE receptor); angiogenesis (NM-3, anti-CXCL12 RNA aptamer, soluble Flt-1); lipid accumulation (statins, farnesoid X receptor agonists, Omacor); intracellular signaling pathways (PKC- or JNK inhibitors); and fibrosis [transforming growth factor (TGF)- antibody, TGF-R kinase inhibitor, soluble betaglycan, SMP-534, CTGF-antisense oligonucleotide, mutant PAI-1, pirfenidone], which have identified potential therapeutic targets for clinical translation.'
p59
aS'16828231 | pyridoxamine | Several drugs, which can interfere with AGE formation and removal, or with the cellular effects of AGEs, are under study (among them pyridoxamine, an active form of Vitamin B6, AGE-breaker compounds, glucosamine, rutin and derivatives, soluble RAGE isoforms, and statins).'
p60
aS'21244749 | pyridoxamine | Pharmacological approaches in humans include aminoguanidine, pyridoxamine, benfotiamine, angiotensin converting enzyme inhibitors, angiotensin receptor blockers, statin, ALT-711 (alagebrium) and thiazolidinediones.'
p61
aS'21963059 | atlantic cod | Primary hepatocyte cultures of three marine fish species (plaice, long rough dab, Atlantic cod) were established and exposed for 24 h to copper (20-2500 mg L) and statins (1-200 mg L).'
p62
aS'22161747 | carbamate | In Experiment 1, lung tumors were induced by vinyl carbamate in strain A/J mice followed by 500 mg/kg SAHA, 60 or 180 mg/kg atorvastatin, and combinations containing SAHA and atorvastatin administered in their diet.'
p63
aS'18079356 | substance p | In this study, we tested the hypothesis that statins act directly on sensory neurons to decrease expression of proinflammatory neuropeptides that trigger neurogenic inflammation, specifically calcitonin gene-related peptide (CGRP) and substance P. Reverse transcriptase-polymerase chain reaction, radioimmunoassay, and immunocytochemistry were used to quantify CGRP and substance P expression in dorsal root ganglia (DRG) harvested from adult male rats and in primary cultures of sensory neurons derived from embryonic rat DRG.'
p64
aS'18079356 | substance p | Systemic administration of statins at pharmacologically relevant doses significantly reduced CGRP and substance P levels in DRG in vivo.'
p65
aS'18079356 | substance p | In cultured sensory neurons, statins blocked bone morphogenetic protein (BMP)-induced CGRP and substance P expression and decreased expression of these neuropeptides in sensory neurons pretreated with BMPs.'
p66
aS'23662618 | ergothioneine | Among mycelia, Pleurotus cornucopiae strain 1101 contained the highest amount of ergothioneine (3482.09 mg/kg).'
p67
aS'1637788 | maxepa | Compared with Maxepa alone, the addition of lovastatin reduced VLDL apo B concentrations by 21% (p less than 0.003) because of reduced VLDL apo B production (26%, p less than 0.005), as the fractional clearance rate was not affected.'
p68
aS'1637788 | maxepa | Maxepa plus lovastatin reduced LDL apo B concentrations by 44% (p less than 0.004).'
p69
aS'1637788 | maxepa | Thus, a combination of Maxepa and lovastatin reduces both VLDL and LDL apo B concentrations, primarily by decreasing production rates.'
p70
aS'19368729 | tuberin | TSC is caused by mutations in the TSC1 or TSC2 genes, whose products, hamartin and tuberin, form a tumor suppressor complex that regulates the PI3K/Akt/mTOR pathway.'
p71
aS'17259314 | amylose | The Deltaapu(Tk) strain could not grow on pullulan and displayed only low levels of growth on amylose, suggesting that Apu(Tk) is a major polysaccharide-degrading enzyme in T. kodakaraensis.'
p72
aS'15487928 | cellulase | Other areas included microbial nutrition, strain improvement, bioconversions of statins and beta-lactams, sporulation and germination, plasmid stability, gel microdroplets, and the production of double-stranded RNA, the polymer xanthan, and enzymes (polygalacturonase, protease, cellulase).'
p73
aS'14527636 | barley | A maximum lovastatin yield of 139.47mg/g substrate was achieved by the fermentation of 5g of barley, 1-2mm particle diam., at 28C.'
p74
aS'3733719 | barley | This study showed that O. olearius OBCC 2002 has a high capacity for lovastatin production which could be enhanced by using solid state fermentation with novel and cost-effective substrates, such as barley.'
p75
aS'17179181 | beta-glucuronidase | We examined the change in the subcellular distribution of a lysosomal enzyme, beta-glucuronidase (beta-G), caused by decreased cholesterol levels in mouse melanoma cells using an HMG-CoA reductase inhibitor, lovastatin and lipoprotein-deficient serum (LDS).'
p76
aS'22360448 | lard | Male hereditary hypertriglyceridemic (HHTg) rats were fed standard laboratory diet (STD) or high cholesterol diet (HCD: STD + 1% of cholesterol w/w + 10% of lard fat w/w) for 21 days.'
p77
aS'14515795 | lard | The male Wistar rats were fed standard laboratory diet (STD) or high cholesterol diet (HCD, 1% of cholesterol, 10% of lard fat) for 21 days.'
p78
aS'12891846 | yogurt | After a 3-wk run-in period in which individuals consumed placebo yogurt drinks and placebo capsules, participants were randomly divided into 4 groups: placebo (n = 9), simvastatin + placebo drink (n = 10), placebo + stanol drink (n = 9), and simvastatin + stanol drink (n = 8).'
p79
aS'23970917 | quince | The aim of this study was to evaluate the effect of quince leaf on the progression of atherosclerosis and whether it can be an appropriate alternative to statins.'
p80
aS'3342059 | malonyl-coa | Administration of lovastatin to male, Sprague-Dawley rats by addition of the drug to the normal chow diet caused a two-fold increase in the activity of the hepatic mitochondrial outer carnitine palmitoyltransferase, but lovastatin apparently did not affect the sensitivity of the outer carnitine palmitoyltransferase to inhibition by malonyl-CoA.'
p81
aS'25868803 | malonyl-coa | Studies regarding the lovastatin biosynthetic pathway have also demonstrated that lovastatin is synthesized from two-chain reactions using acetate and malonyl-CoA as a substrate.'
p82
aS'21485304 | triticum aestivum | Hypercholesterolemic rats were administered fresh Triticum aestivum GJ at the dose of 5 mL/kg and 10 mL/kg and the standard drug atorvastatin 0.02% w/v in 2% gum acacia suspension at the dose of 1 mg/kg for 14 days by gavage.'
p83
aS'19397976 | lagenaria siceraria | Lagenaria siceraria Stand.'
p84
aS'22719054 | selenocysteine | Although inhibitors of the cholesterol synthesis/isoprenylation pathway, such as hydroxy-methyl-glutaryl-coenzyme A reductase inhibitors (statins) have been to shown to down-regulate selenoproteins via interruption of normal selenocysteine incorporation, little is known about the effect of statins on D2.'
p85
aS'16949381 | prostaglandin e-1 | The CIN Consensus Working Panel considered that, of the pharmacologic agents that have been evaluated, theophylline, 3-hydroxy-3-methylglutaryl coenzyme A reductase inhibitors (statins), ascorbic acid, and prostaglandin E(1) deserve further evaluation.'
p86
aS'21912486 | prostaglandin e-1 | Agents which have been shown to be ineffective or harmful, or for which data supporting routine use do not exist, include fenoldopam, theophylline, dopamine, calcium channel blockers, prostaglandin E(1), atrial natriuretic peptide, statins, and angiotensin-converting enzyme inhibitors.'
p87
aS'17452418 | kaempferol | In Caco-2 cells, demonstrated to contain minimal CYP3A activity, the permeability coefficient of the prodrugs lovastatin and enalapril was increased in the presence of the active flavonoids kaempferol and naringenin, consistent with inhibition of esterase activity.'
p88
aS'17452418 | kaempferol | In addition, in portal vein-cannulated rats, coadministration of lovastatin with kaempferol (10 mg/kg) led to a 154% and a 113% increase in the portal plasma exposure to the prodrug and active acid, respectively, compared with coadministration with water.'
p89
aS'17452418 | kaempferol | Overall, a series of flavonoids present in GFJ are identified as esterase inhibitors, of which kaempferol and naringenin are shown to mediate pharmacokinetic drug interaction with the prodrugs lovastatin and enalapril due to their capability of esterase inhibition.'
p90
aS'23819585 | vinegar | In this study, red-koji wine was prepared as the substrate and artificially supplemented with monacolin K and citrinin and subjected to vinegar fermentation with Acetobacter starter.'
p91
aS'10402490 | pentosan polysulfate | Pentosan polysulfate (PPS) as a heparin-binding growth factor inhibitor, Tranexamic acid as a plasmin inhibitor, Lovastatin as an adhesion inhibitor and Adriamycin as a chemotherapeutic agent were selected.'
p92
aS'212267 | phosphofructokinase | Lens biochemical analyses in the 13-week study revealed no statistically significant changes in lenticular weight, reduced or oxidized glutathione content, adenosine nucleotide content, glucose-6-phosphate dehydrogenase activity or phosphofructokinase activity in any treatment group.'
p93
aS'20969959 | hydrogen sulfide | Human and animal derived experimental data support the possible roles of nitric oxide donors (glyceryltrinitrate), aspirin, dietary supplements (calcium, l-Arginine, anti-oxidant vitamins), phosphodiesterase-5 inhibitors, statins, carbon monoxide and most recently, hydrogen sulfide.'
p94
aS'22555812 | rainbow trout | The aim of the present study was to clarify whether waterborne exposure to a selected statin, atorvastatin, would affect gene expression in rainbow trout (Oncorhynchus mykiss) gill or liver or ion regulation in gills.'
p95
aS'22555812 | rainbow trout | The pattern of differentially expressed genes in rainbow trout gills differ from responses previously observed in mammalian tissues following statin exposure.'
p96
aS"20600806 | rainbow trout | The aim of the present study was to quantify the cytotoxic effects of acid and lactone forms of two statins, atorvastatin and simvastatin, as well as selected metabolites (ortho- and para-hydroxy atorvastatin acid, ortho-hydroxy atorvastatin lactone, simvastatin hydroxyl carboxylic acid, and 3''hydroxy simvastatin lactone) to hepatocytes from rainbow trout (Oncorhynchus mykiss)."
p97
aS'18280795 | rainbow trout | In order to establish whether statin drugs could affect an aquatic species, we initially characterized in the rainbow trout the enzyme 3-hydroxy-3-methylglutaryl coenzyme A reductase or HMGCoAR which is the mammalian target of statin drugs.'
p98
aS'20691321 | milkshake | The risk reduction associated with the daily consumption of most statins, with the exception of pravastatin, is more powerful than the risk increase caused by the daily extra fat intake associated with a 7-oz hamburger (Quarter Pounder) with cheese and a small milkshake.'
p99
aS'23118499 | oil palm | Ability of two strains of Aspergillus terreus (ATCC 74135 and ATCC 20542) for production of lovastatin in solid state fermentation (SSF) using rice straw (RS) and oil palm frond (OPF) was investigated.'
p100
aS'16449620 | bupropion | The average cost-effectiveness ratio in argentine pesos (ARS$) per DALY for the different interventions were: (i) less salt in bread $151; (ii) mass media campaign $547; (iii) combination drug therapy provided to subjects with a 20%, 10% and 5% global CVD risk, $3,599, $4,113 and $4,533, respectively; (iv) high blood pressure (HBP) lowering therapy $7,716; (v) tobacco cessation with bupropion $ 33,563; and (iv) high-cholesterol lowering therapy with statins $ 70,994.'
p101
aS'23090650 | trans-resveratrol | In this work, an implantable nanochannel drug delivery system (nDS) is characterized and evaluated for the long-term sustained release of atorvastatin (ATS) and trans-resveratrol (t-RES), compounds with a proven role in managing atherogenic dyslipidemia and promoting cardioprotection.'
p102
aS'17458532 | calcium oxalate | Statins have been reported to demonstrate chemopreventive potentials in prostate cancer cell lines, but the association in observational studies has been inconclusive.Probiotics, defined as live microbial food supplements, have been tested for an impact on a variety of clinical conditions, e.g., urinary tract infections and calcium oxalate stone disease.'
p103
aS'19063635 | soy yogurt | Medicinal soy yogurt (sogurt) containing high levels of gamma-aminobutyric acid (GABA), free amino acids (FAAs), statins, and isoflavone aglycones was developed using lactic acid bacteria (1:1 mixture of Lactobacillus delbrueckii subsp.'
p104
aS'24323051 | sodium nitrite | Novel strategies--including drugs such as statins, sodium nitrite, albumin, dantrolene, cilostazol, and intracranial delivery of nimodipine or magnesium--are also discussed.'
p105
aS'15999714 | thiamine | The acidosis was thought to have been the result of a mitochondrial defect caused by a deficiency of two cofactors, namely: ubiquinone (as a result of inhibition by statin) and thiamine (as a result of dietary deficiency).'
p106
aS'16887228 | thiamine | In a nitrogen-deficient medium the B-group vitamins, both single, especially nicotinamide, pyridoxine and calcium D-pantothenate, and a mixture of thiamine, riboflavin, pyridoxine, calcium d-pantothenate and nicotinamide increased the efficiency of lovastatin biosynthesis.'
p107
aS'25807304 | thiamine | In a further experiment, these variables were optimized with a Box-Behnken design and applied in a submerged process; this resulted in 12.51 mg/L lovastatin production on a medium containing glucose (10 g/L), peptone (5 g/L), thiamine (1 mg/L), and NaCl (0.4 g/L) under static conditions.'
p108
aS'14655015 | brassinolide | In darkness, a treatment with 10 nM brassinolide (BL) promotes growth through the first 24 h of culture, but during the following 24 h the cells undergo complete stagnation.'
p109
aS'1939482 | 2-propanol | The separations were performed utilizing a C18 column with mobile phase consisting of acetonitrile, 2-propanol and 0.1 M acetate buffer (pH 5), the proportions of which differed depending on the form of drug analyzed.'
p110
aS'20820670 | benzophenone | Both, Ato and Ato-OH are able to quench benzophenone (E(T)69 kcal mol(-1)) and xanthone (E(T)74 kcal mol(-1)) triplet excited state with rate constants close to diffusion limit control which suggest energy transfer mechanism is taking place.'
p111
aS'2167066 | okadaic acid | We have made a comparative study of 9 statins (lovastatin, mevastatin, pravastatin, simvastatin, cerivastatin, atorvastatin, fluvastatin, pitavastatin, and rosuvastatin), analyzing several parameters that could be related to neuroprotection, such as chemical structure, lipophilicity, potential blood-brain-barrier penetration (BBB), 3-hydroxy-3-methylglutaryl co-enzyme A reductase inhibition, cholesterol modulation in neurons, glia, and human hepatocyte cell lines, and protection against neurodegeneration caused by tau hyperphosphorylation induced by okadaic acid.'
p112
aS'2167066 | okadaic acid | Our results indicate that monacolin J derivatives (natural and semi-synthetic statins) are the best candidates for the prevention of neurodegenerative conditions due to their higher potential BBB penetration capacity, cholesterol lowering effect on neurons with a satisfactory safety profile, and in vitro protection against cell death caused by okadaic acid in culture.'
p113
aS'25770969 | okadaic acid | Here we demonstrated that LOV suppressed the aberrant tau phosphorylation both from frontotemporal dementia and Parkinsonism linked to chromosome 17 (FTDP-17) mutation and okadaic acid (OA) induction in cultured rat primary neurons.'
p114
aS'26940313 | platinum | A 34% reduction in death was associated with statin therapy, independent of age, race, neighborhood median household income, stage, platinum therapy and comorbid conditions (HR=0.66, 95% CI 0.55-0.81).'
p115
aS'10874995 | sake | For the sake of industrial production of pravastatin, many devices and improvements were performed for selecting high potent strains and for culturing conditions both with ML-236B and pravastatin.'
p116
aS'12738086 | m. oleifera | Treatment with M. oleifera or lovastatin in normal rabbits decreased the HDL levels.'
p117
aS'18490118 | 1-propanol | An efficient material-conserving analytical method, with in-line reversed HPLC separation protocol, has been developed to measure equilibrium solubility of lovastatin in ethanol, 1-propanol, 1-butanol, 1-pentanol, 1-hexanol, and 1-octanol between 279 and 313K.'
p118
aS'26247649 | arsenic | Chronic arsenic exposure has been linked to elevated blood pressure and cardiovascular diseases, while statins reduce the incidence of cardiovascular disease predominantly by their low density lipoprotein-lowering effect.'
p119
aS'16278312 | arsenic | The effectiveness in terms of number of responsive cell lines and maximal increase in iodide uptake achieved decreased in the order: APHA > valproic acid approximately sirolimus approximately arsenic trioxide > retinoic acid approximately lovastatin > apicidine approximately azacytidine approximately retinol approximately rosiglitazone approximately bortezomib.'
p120
aS'24446492 | arsenic | Other drugs that indirectly affect VEGF pathway, such as statins or arsenic trioxide, also have been shown to possess antiangiogenic activity in leukemias.'
p121
aS'12738086 | banana | in banana pulp along with standard laboratory diet and hypercholesterolaemic diet for 120 days.'
p122
aS'24894549 | banana | Seven indigenously isolated fungal strains (Aspergillus niger, Aspergillus flavus, Aspergillus terreus, Penicillium citrinum, Penicillium notatum, Pleurotus ostreatus and Trichoderma viradae) were tested for their potential to produce cholesterol lowering drug lovastatin by using different agro-industrial wastes (Corn cobs, corn stover, banana stalk, wheat straw, wheat bran, bagasse) in submerged as well as solid state fermentation.'
p123
aS'22813432 | stearate | A scalable parameter; travelling roll distance per shot (D(pS)), has been defined which ensures that an equal amount of magnesium stearate is applied to the roll surface per rotation at any roll speed.'
p124
aS'21879394 | stearate | The best formulation (F4) consisting of hypromellose, sodium bicarbonate, polyethylene oxide, docusate sodium, mannitol, crosscarmellose sodium, and magnesium stearate, gave floating lag time of 564.16 s and good matrix integrity with in vitro dissolution of 98.2% in 12 h. After stability studies, no significant change was observed in stability, solubility, floating lag time, total floating duration, matrix integrity, and sustained drug release rates, as confirmed by DSC and powder X-ray diffraction studies.'
p125
aS'7614686 | thymine | The p.G366V is a novel mutation of the DHCR7 gene with guanine by thymine nucleotide exchange resulting in glycin by valin amino acid exchange in the dehydrocholesterol reductase enzyme.'
p126
aS'17293561 | ruthenium | By using ruthenium red and cyclosporine A, we determined the sequence of the statin-induced Ca2+ release mechanism.'
p127
aS'17192110 | malonyl coa | [reaction: see text] Lovastatin nonaketide synthase (LovB, LNKS) is an iterative type I polyketide synthase (PKS) from Aspergillus terreus that produces dihydromonacolin L (2), the biosynthetic precursor of lovastatin (1), from acetyl CoA, malonyl CoA, and S-adenosylmethionine (SAM) if the accessory protein LovC is present.'
p128
aS'24613879 | linalool | In the present study we assess the in vitro antiproliferative and anticholesterogenic effects of two monoterpenes: linalool and 1,8-cineole-either alone, in combination with each other, or combined individually with simvastatin-on liver-derived (HepG2) and extrahepatic (A549) cell lines.'
p129
aS'25634970 | spermidine | Other autophagy-inducing drugs, such as spermidine or add-on therapy with widely used antiatherogenic compounds, including statins and metformin, are potentially useful to prevent vascular disease with minimal adverse effects.'
p130
aS'19735187 | pectin | Topics discussed include the use of a single dose of fosaprepitant for prevention of chemotherapy-induced nausea and vomiting, statins to lower the incidence of venous thromboembolic events, fentanyl pectin nasal spray for cancer-related pain, and a closer look at the utilization of complementary and alternative medicine in patients with cancer.'
p131
aS'15487928 | pectin | Consumption of pectin or oat bran together with Lovastatin reduces absorption of the drug, while alcohol intake does not appear to affect the efficacy and safety of Fluvastatin treatment.'
p132
aS'11446774 | perillic acid | It was concluded that perillic acid causes cataract in this system by a mechanism different from lovastatin and that inhibition of isoprenylation is unlikely to be a primary factor in the perillic acid cataract.'
p133
aS'25874302 | spirit | The effect of statins occur in several stages: 1) inhibition in hepatocytes of synthesis of functionally specific pool of spirit cholesterol, polar mono-layer of lipoproteins of very low density; 2) activation of hydrolysis of triglycerides in lipoproteins of very low density, formation of apoE/B-100-ligand and absorption of lipoproteins of very low density by insulin-depended cells; 3) decreasing of content of and spirit cholesterol-lipoproteins of very low density in blood plasma; 4) activation of hydrolysis of triglycerides in lipoproteins of low density, formation of apoB-100-ligand and absorption of lipoproteins of low density by insulin-independent cells; 5) decreasing of level of and increasing of content of lipoproteins of high density.'
p134
aS'25874302 | spirit | During first weeks of effect of statins occurs decreasing of concentration of triglycerides and unesterified spirit cholesterol-lipoproteins of very low density in blood plasma.'
p135
aS'26189285 | spirit | The hypolipidemic effect of statins is realized by inhibition of synthesis of local pool of cholesterol spirit in endoplasmic net of hepatocytes.'
p136
aS'26189285 | spirit | The sequence of effect of statins is as follows: blocking of synthesis in hepatocytes and decreasing of content of unesterified cholesterol spirit in blood plasma; activation of hydrolysis of triglycerides in palmitic and oleic lipoproteins of very low density; formation of ligand lipoproteins of very low density and their absorption by cells by force of apoB-100 endocytosis; decreasing in blood of content of polyenoic fatty acids, equimolar esterified by cholesterol spirit, polyethers of cholesterol spirit and decreasing of level of cholesterol spirit-lipoproteins of very low density.'
p137
aS'26784701 | camphene | Previously, we have shown that camphene, a constituent of mastic gum oil, lowers cholesterol and triglycerides (TG) in the plasma of hyperlipidemic rats without affecting HMG-CoA reductase activity, suggesting that its hypocholesterolemic and hypotriglyceridemic effects are associated with a mechanism of action different than that of statins.'
p138
aS'26784701 | camphene | We evaluated the effect of camphene on the de novo synthesis of cholesterol and TG from [14C]-acetate in HepG2 cells, along with the statin mevinolin.'
p139
aS'21160482 | utp | The apoptosis of vascular smooth muscle cells (VSMCs) was determined by terminal deoxynucleotidyl transferased UTP nick end labeling (TUNEL) staining.'
p140
aS'19909254 | haem | We aimed to assess the relationship between endothelial nitric oxide synthase (ENOS) 894 G/T, haem oxygenase-1 (HO1) dinucleotide-length promoter polymorphisms and coronary artery atherosclerotic invol vement and its changes during statin therapy.'
p141
aS'22749334 | haem | Invitro and animal studies showed that statins could increase bilirubin levels by activation of haem oxygenase-1, whereas the effect of statins on serum bilirubin levels in humans remains controversial.'
p142
aS'23572664 | sorghum | Rice, parboiled rice, finger millet, germinated finger millet, broken wheat, njavara (medicinal rice), sorghum and maize were used as substrates for solid state fermentation of Monascus purpureus at 28C for 7 days using 2% seed medium as inoculum for the production of its metabolites.'
p143
aS'16621368 | l-lactic acid | However, the effects of monocarboxylate drugs, such as statins on the MCT4-mediated transport of L-lactic acid have not been elucidated.'
p144
aS'16621368 | l-lactic acid | The aim of this study was to establish an MCT4 transfected cell line and to clarify the transport mechanism of L-lactic acid and the effects of statins on this transport system.'
p145
aS'16621368 | l-lactic acid | Lipophilic statins significantly inhibited [(14)C] L-lactic acid uptake in a concentration-dependent manner.'
p146
aS'16955916 | plastoquinone | Statin treatment caused an accumulation of plastoquinone, and unexpectedly, ubiquinone, an artifact likely due to metabolite sharing from the plastidial MEP pathway.'
p147
aS'12748386 | chlorophyll | Treatment of seedlings with lovastatin resulted in a transient decrease in sterol levels and a transient increase in carotenoid as well as chlorophyll levels.'
p148
aS'21908473 | chlorophyll | As expected, the presence of mevastatin did not change chlorophyll and carotenoid levels, isoprenoids synthesized via the plastidial MVA-independent pathway.'
p149
aS'20691321 | hamburger | The risk reduction associated with the daily consumption of most statins, with the exception of pravastatin, is more powerful than the risk increase caused by the daily extra fat intake associated with a 7-oz hamburger (Quarter Pounder) with cheese and a small milkshake.'
p150
aS'25138094 | capsaicin | In addition, several other drugs, such as resveratrol, berberine, statins, epigallocatechin gallate (EGCG) and capsaicin, have provided a similar capacity for tumor inhibition, and the anti-cancer effects of most of them were mainly the result of AMPK activation.'
p151
aS'20532825 | pie | Adult subjects were randomized to receive identical risk/benefit information regarding taking statins that was presented on an iPad (Apple Corp, Cupertino, Calif) in 1 of 4 different animated formats: text/numbers, pie chart, bar graph, and pictograph.'
p152
aS'23622693 | honey | Considering the bibliographic data, we can note different facts: (1) some alternatives already exist, but correspond more to targeted useful and usable therapeutics as phage therapy, honey therapy, or maggot therapy; (2) some "old" antibiotics can find new bacterial targets and reinforce the anti-infectious therapy towards some multi-drug resistant bacteria; (3) new formulations can allow targeted drug delivery via nanoparticles and the association of molecules can reinforce the antibiotic antimicrobial effect; (4) new treatment could be potentially usable as: antimicrobial peptides, probiotics, herbal medicines, statins, phosphonosulfonates, fecal transplants...; (5) at least, we must not forget that "it\'s better to prevent than cure".'
p153
aS'22050652 | honey | Various experimental and clinical studies have evaluated different modalities for the treatment of topical wounds, such as sugar, antibiotics, honey and phytotherapies; also statins have diverse pleiotropic effects that have been suggested to be useful to improve wound healing.'
p154
aS'12912693 | beaver | settings: Beaver Dam, Wisconsin.'
p155
aS'17974097 | quail | Monascus purpureus-fermented rice (MR), a preparation which has been shown to be hypolipidemic and antiatherogenic in rabbits and hamsters was fed to quail maintained on a high fat diet to determine if it could influence lipidemia and hepatic steatosis.'
p156
aS'25587692 | cream | This study was conducted to compare the efficacy of topical betamethasone valerate 0.1% cream (as a standard method of treatment for vitiligo) versus a combination of betamethasone valerate plus oral simvastatin in the treatment of vitiligo.'
p157
aS'28711708 | cream | We investigated whether ezetimibe and simvastatin combination, a lipid lowering combination of simvastatin and ezetimibe, exerts an anti-inflammatory effect in the fasting state and after dairy cream intake.'
p158
aS'23438960 | angelica | Naoxintong (NXT), a Chinese Materia Medica standardized product, extracted from 16 various kinds of Chinese traditional herbal medicines including Salvia miltiorrhiza, Angelica sinennsis, Astragali Radix, is clinically effective in treating atherosclerosisrelated diseases.'
p159
aS'23030449 | anthocyanidins | Statins, metformin and anthocyanidins may help to attenuate oxidative stress in vasculature induced by diabetes-associated metabolic disorders.'
p160
aS'23107730 | dioscorea | In this study with hyperlipidemic hamsters fed lovastatin only, lovastatin with 1-fold red mold dioscorea (RMD), and lovastatin, the functional components of red mold fermented products, HMG-CoA reductase inhibitors, did not exacerbate pre-existing diseases, and actually helped in improving existing disease conditions, respectively, as compared with the control.'
p161
aS'7752831 | retinol palmitate | We conclude that 20 EN% ethanol given in a liquid diet for 5 weeks is sufficient to lower retinol palmitate and that lovastatin reduces CoQ9.'
p162
aS'25128668 | octane | The percentage hydrophilicity and hydrophobicity (or lipophilicity) of the statins in solution have been determined using (a) the differences in solvation free energies between n-octanol and n-octane as a measure of hydrophilicity, and the solvation energy in octane as a measure of hydrophobicity (b) the sum of the atomic electrostatic charges on the hydrogen bonding and polar bonding nuclei of the common pharmacophore combined with a solvent measure of hydrophobicity, and (c) using the buried surface areas after statin binding to HMGCR to calculate the hydrophobicity of the bound statins.'
p163
aS'27718606 | piperine | The present study investigated the comparative effects of piperine (PIP) - the active ingredient of black and long peppers - and simvastatin (SIM) on hepatic steatosis in hyperlipidemic rats.'
p164
aS'21485304 | triticum | Hypercholesterolemic rats were administered fresh Triticum aestivum GJ at the dose of 5 mL/kg and 10 mL/kg and the standard drug atorvastatin 0.02% w/v in 2% gum acacia suspension at the dose of 1 mg/kg for 14 days by gavage.'
p165
aS'19824425 | toluidine | The macrophages were histochemically visualized, by detecting the activity of acid phosphatase, SMC-NADP-diaphorase, the collagen fibers were stained by the Masson procedure; GAG was stained with toluidine blue.'
p166
aS'24266373 | p. ostreatus | The interactive effects of these culture parameters on lovastatin production by P. ostreatus OBCC 1031 were further studied by a Box-Behnken design.'
p167
aS"11352118 | glycyrrhizin | Contemporary drugs linked to cholestastic liver injury include ticlopidine, terfenadine, terbinafine, nimesulide, irbesartan, fluoroquinolones, cholesterol-lowering 'statins,' and some herbal remedies (greater celandine, glycyrrhizin, chaparral)."
p168
aS'22506575 | pleurotus ostreatus | The highest production of lovastatin was obtained from the extracts from Omphalotus olearius OBCC 2002 and Pleurotus ostreatus OBCC 1031.'
p169
aS'22506575 | pleurotus ostreatus | The lovastatin amount produced by commercial strains, Aspergillus terreus NRRL 255 (7.0 mg/L) and Penicillium citrinum NRRL 1841 (7.0 mg/L), was nearly comparable to the amount produced by Pleurotus ostreatus OBCC 1031 (5.8 mg/L) and Omphalotus olearius OBCC 2002 (4 mg/L).'
p170
aS'24266373 | pleurotus ostreatus | Statistical experimental designs were used to optimize lovastatin production by culinary-medicinal oyster mushroom Pleurotus ostreatus OBCC 1031 under submerged fermentation.'
p171
aS'7614366 | pleurotus ostreatus | The types of carbon source and nitrogen source used as well as the C:N ratio in the medium influenced lovastatin production by Pleurotus ostreatus.'
p172
aS'24894549 | pleurotus ostreatus | Seven indigenously isolated fungal strains (Aspergillus niger, Aspergillus flavus, Aspergillus terreus, Penicillium citrinum, Penicillium notatum, Pleurotus ostreatus and Trichoderma viradae) were tested for their potential to produce cholesterol lowering drug lovastatin by using different agro-industrial wastes (Corn cobs, corn stover, banana stalk, wheat straw, wheat bran, bagasse) in submerged as well as solid state fermentation.'
p173
aS'25720525 | pomegranate | The herbal reaction toward different types of statins is varied so that grapefruit or pomegranate was interacted with only some types of statins, but not with all statin types.'
p174
aS'16923466 | pomegranate | We developed a diagnostic assay based upon color transformations of polydiacetylene, a unique conjugated polymer, upon interactions with blood plasma obtained from healthy individuals, hypercholesterolemic patients, hypercholesterolemic patients treated with statin, and hypercholesterolemic patients treated with statin together with pomegranate extracts.'
p175
aS'25569284 | chloroform | The development of calibration models for each compound was based on a D-optimal experimental design consisting of 63 standard mixtures containing LPC, CHO and SIM in chloroform.'
p176
aS'23625729 | cadmium | was applied for three consecutive days, starting 1day before cadmium administration.'
p177
aS'23625729 | cadmium | However, starting treatment with simvastatin before cadmium exposure, as done in the present work, is not clinically applicable.'
p178
aS'22555812 | oncorhynchus mykiss | The aim of the present study was to clarify whether waterborne exposure to a selected statin, atorvastatin, would affect gene expression in rainbow trout (Oncorhynchus mykiss) gill or liver or ion regulation in gills.'
p179
aS"20600806 | oncorhynchus mykiss | The aim of the present study was to quantify the cytotoxic effects of acid and lactone forms of two statins, atorvastatin and simvastatin, as well as selected metabolites (ortho- and para-hydroxy atorvastatin acid, ortho-hydroxy atorvastatin lactone, simvastatin hydroxyl carboxylic acid, and 3''hydroxy simvastatin lactone) to hepatocytes from rainbow trout (Oncorhynchus mykiss)."
p180
aS'8800496 | dehydroascorbic acid | After statistical adjustment for age, use of cigarettes, hypolipidemic medication (yes vs. no), month of the measurements, plasma concentrations of total ascorbic acid (ascorbic acid + dehydroascorbic acid), beta-carotene and phospholipids, serum concentrations of LDL cholesterol and triglycerides and dietary intake of linoleic acid, the lag time to maximal oxidation rate was 10% (95% C.I.'
p181
aS'15487928 | polygalacturonase | Other areas included microbial nutrition, strain improvement, bioconversions of statins and beta-lactams, sporulation and germination, plasmid stability, gel microdroplets, and the production of double-stranded RNA, the polymer xanthan, and enzymes (polygalacturonase, protease, cellulase).'
p182
aS'24467544 | cabbage | Estimation of malondialdehyde and non-protein sulfhydryls revealed robust antioxidant properties of red cabbage.'
p183
aS'20690781 | uracil | Phenotypic analyses of the mutants revealed that the pyrEF deletion mutant lost the ability to synthesize uracil, and the lacS deletion mutants exhibited a white colour after X-Gal staining, demonstrating that the -galactosidase function was inactivated.'
p184
aS'10972877 | potato | Despite high levels of transcript accumulation in all leaf stages of transgenic plants, high levels of HMGR-FLAG protein were found only in apical meristematic tissue, suggesting post-translational regulation of potato HMGR affected by plant development.'
p185
aS'19276863 | ajoene | Because statins and ajoene inhibit the 3-hydroxy-3-methyl-glutaryl coenzyme A reductase, we evaluated the hypothesis that the cytotoxic effect of these compounds may be potentiated when both are used in combination on tumor cells.'
p186
aS'19276863 | ajoene | We showed that cotreatment of the murine melanoma B16F10 cell with statins (atorvastatin and pravastatin) and ajoene, all at nontoxic doses, dramatically increased their cytotoxicity.'
p187
aS'19276863 | ajoene | B16F10 cell death induced by statins, but not by ajoene, was prevented by mevalonate and geranylgeranylpyrophosphate.'
p188
aS'19276863 | ajoene | To our knowledge, this is the first report that the combination of statins and ajoene, which alters the mevalonate pathway, might potentiate their cytotoxic effects on tumor cells.'
p189
aS'21963059 | flatfish | Flatfish hepatocytes were more susceptible to copper and statin exposure than hepatocytes from cod.'
p190
aS'9598972 | auxin | Out of eight different aminopurines and a synthetic auxin tested for their ability to override lovastatin inhibition of mitosis, only zeatin was active.'
p191
aS'25698600 | d-galactose | The aim of study was to search for new biomarkers with a magnetic resonance technique to identify the early stages of dementia, induced by D-galactose, and evaluate Simvastatin therapy.'
p192
aS'25698600 | d-galactose | Using a saturation transfer experiment, with phosphorus magnetic resonance spectroscopy, we observed a significant elevation of the forward rate constant of the creatine kinase reaction in the brains of the D-galactose group compared to controls, and subsequently, a significant reduction of this reaction in the D-galactose/Simvastatin group.'
p193
a.